 LogicServerCQ64_D

 Timestamp is 5863b5c4 (Wed Dec 28 20:53:24 2016)

 Preferred load address is 0000000140000000

 Start         Length     Name                   Class
 0001:00000000 0055faeeH .text                   CODE
 0001:0055faf0 000071f5H .text$x                 CODE
 0001:00566cf0 0000e72dH .text$yc                CODE
 0001:00575420 00001155H .text$yd                CODE
 0002:00000000 00000109H .CRT$XCA                DATA
 0002:00000110 00000109H .CRT$XCAA               DATA
 0002:00000220 000002fcH .CRT$XCU                DATA
 0002:00000520 00000109H .CRT$XCZ                DATA
 0002:00000630 00000109H .CRT$XIA                DATA
 0002:00000740 00000109H .CRT$XIAA               DATA
 0002:00000850 00000109H .CRT$XIY                DATA
 0002:00000960 00000109H .CRT$XIZ                DATA
 0002:00000a70 001ac783H .rdata                  DATA
 0002:001ad1f4 000001a3H .rdata$debug            DATA
 0002:001ad3a0 0001eaedH .rdata$r                DATA
 0002:001cbe90 00000109H .rtc$IAA                DATA
 0002:001cbfa0 000015a7H .rtc$IMZ                DATA
 0002:001cd548 00000109H .rtc$IZZ                DATA
 0002:001cd658 00000109H .rtc$TAA                DATA
 0002:001cd768 000015a7H .rtc$TMZ                DATA
 0002:001ced10 00000109H .rtc$TZZ                DATA
 0002:001cee20 00033dabH .xdata                  DATA
 0002:00202bd0 000002c4H .xdata$x                DATA
 0002:00202e94 00000000H .edata                  DATA
 0003:00000000 0001994cH .data                   DATA
 0003:00019950 00052f08H .bss                    DATA
 0004:00000000 000386d0H .pdata                  DATA
 0005:00000000 000000b4H .idata$2                DATA
 0005:000000b4 00000014H .idata$3                DATA
 0005:000000c8 00000d78H .idata$4                DATA
 0005:00000e40 00000d78H .idata$5                DATA
 0005:00001bb8 0000123dH .idata$6                DATA

  Address         Publics by Value              Rva+Base               Lib:Object

 0000:00000000       ___safe_se_handler_table   0000000000000000     <absolute>
 0000:00000000       ___safe_se_handler_count   0000000000000000     <absolute>
 0000:00000000       __ImageBase                0000000140000000     <linker-defined>
 0001:000240f0       ?MoveInSight@CAggressorAI@@UEAAXPEAVCAnimal@@_J1@Z 00000001400250f0 f   AggressorAI.obj
 0001:00024110       ?CalcTargetPrior@CAggressorAI@@AEAA_NPEAVCEntity@@PEBV?$CVector@H@@AEA_KHH@Z 0000000140025110 f   AggressorAI.obj
 0001:00024580       ?CheckEnemy@CAggressorAI@@UEAA_NXZ 0000000140025580 f   AggressorAI.obj
 0001:00025870       ?count@?$CBaseList@UEntityHandleTag@@@container@wylib@@QEBA_JXZ 0000000140026870 f i AggressorAI.obj
 0001:00025890       ??B?$CBaseList@UEntityHandleTag@@@container@wylib@@QEBAPEAUEntityHandleTag@@XZ 0000000140026890 f i AggressorAI.obj
 0001:000258b0       ?CheckAndSet@?$CTimer@$0LLI@@@QEAA_N_J_N@Z 00000001400268b0 f i AggressorAI.obj
 0001:00025930       ?count@?$CBaseList@VEntityHandle@@@container@wylib@@QEBA_JXZ 0000000140026930 f i AggressorAI.obj
 0001:00025950       ??B?$CBaseList@VEntityHandle@@@container@wylib@@QEBAPEAVEntityHandle@@XZ 0000000140026950 f i AggressorAI.obj
 0001:00025970       ??0?$CLinkedListIterator@VEntityHandle@@@container@wylib@@QEAA@AEAV?$CBaseLinkedList@VEntityHandle@@@12@@Z 0000000140026970 f i AggressorAI.obj
 0001:00025a00       ??1?$CLinkedListIterator@VEntityHandle@@@container@wylib@@QEAA@XZ 0000000140026a00 f i AggressorAI.obj
 0001:00025af0       ?first@?$CLinkedListIterator@VEntityHandle@@@container@wylib@@QEAAPEAV?$CLinkedNode@VEntityHandle@@@23@XZ 0000000140026af0 f i AggressorAI.obj
 0001:00025b50       ?next@?$CLinkedListIterator@VEntityHandle@@@container@wylib@@QEAAPEAV?$CLinkedNode@VEntityHandle@@@23@XZ 0000000140026b50 f i AggressorAI.obj
 0001:00025bd0       ?first@?$CBaseLinkedList@VEntityHandle@@@container@wylib@@QEAAPEAV?$CLinkedNode@VEntityHandle@@@23@XZ 0000000140026bd0 f i AggressorAI.obj
 0001:00025bf0       ?setList@?$CLinkedListIterator@VEntityHandle@@@container@wylib@@QEAAXAEAV?$CBaseLinkedList@VEntityHandle@@@23@@Z 0000000140026bf0 f i AggressorAI.obj
 0001:00025cb0       ??_G?$CLinkedListIterator@VEntityHandle@@@container@wylib@@QEAAPEAXI@Z 0000000140026cb0 f i AggressorAI.obj
 0001:00025d10       ??_H@YAXPEAX_KHP6APEAX0@Z@Z 0000000140026d10 f i AggressorAI.obj
 0001:00025d90       ?hashlstr@CTimeProfRecord@@SAIPEBD_K@Z 0000000140026d90 f i AggressorAI.obj
 0001:00025e60       ??0EntityHandle@@QEAA@XZ   0000000140026e60 f i AggressorAI.obj
 0001:00025eb0       ?GetType@EntityHandle@@QEBAIXZ 0000000140026eb0 f i AggressorAI.obj
 0001:00025ee0       ??BEntityHandle@@QEBA_KXZ  0000000140026ee0 f i AggressorAI.obj
 0001:00025f00       ??4EntityHandle@@QEAAAEAV0@V0@@Z 0000000140026f00 f i AggressorAI.obj
 0001:00025f70       ??1EntityHandle@@QEAA@XZ   0000000140026f70 f i AggressorAI.obj
 0001:00025fb0       ??0EntityHandle@@QEAA@AEBV0@@Z 0000000140026fb0 f i AggressorAI.obj
 0001:000260b0       ?IsDeath@CEntity@@QEAA_NXZ 00000001400270b0 f i AggressorAI.obj
 0001:00026130       ?GetPosition@CEntity@@QEBAXAEAH0@Z 0000000140027130 f i AggressorAI.obj
 0001:000261a0       ?GetScene@CEntity@@QEBAPEAVCScene@@XZ 00000001400271a0 f i AggressorAI.obj
 0001:000261c0       ?GetType@CEntity@@QEBA_JXZ 00000001400271c0 f i AggressorAI.obj
 0001:00026210       ?GetRace@CEntity@@QEAA_JXZ 0000000140027210 f i AggressorAI.obj
 0001:00026230       ?GetHandle@CEntity@@QEBA?BVEntityHandle@@XZ 0000000140027230 f i AggressorAI.obj
 0001:00026290       ?isAnimal@CEntity@@QEAA_NXZ 0000000140027290 f i AggressorAI.obj
 0001:00026310       ?IsMonster@CEntity@@QEAA_NXZ 0000000140027310 f i AggressorAI.obj
 0001:00026390       ?GetTarget@CEntity@@QEBA?AVEntityHandle@@XZ 0000000140027390 f i AggressorAI.obj
 0001:000263f0       ?GetAttriFlag@CEntity@@QEAAAEAUEntityFlags@@XZ 00000001400273f0 f i AggressorAI.obj
 0001:00026410       ?GetVisibleList@CObserverSystem@@QEAAAEAV?$CVector@UEntityHandleTag@@@@XZ 0000000140027410 f i AggressorAI.obj
 0001:00026430       ?GetDisSqare@CMovementSystem@@SA_J_J000@Z 0000000140027430 f i AggressorAI.obj
 0001:000264a0       ?ComposePriority@CAggressorAI@@AEAA_K_N0HH@Z 00000001400274a0 f i AggressorAI.obj
 0001:00026580       ?GetObserverSystem@CAnimal@@QEAAPEAVCObserverSystem@@XZ 0000000140027580 f i AggressorAI.obj
 0001:000265a0       ?HasState@CAnimal@@QEAA_N_J@Z 00000001400275a0 f i AggressorAI.obj
 0001:00026630       ?GetAttackLevel@CAnimal@@QEAAHXZ 0000000140027630 f i AggressorAI.obj
 0001:00026650       ?GetOwner@CMonster@@QEAA?AVEntityHandle@@XZ 0000000140027650 f i AggressorAI.obj
 0001:000266b0       ?getMonsterPriorAttackList@CMonster@@QEAAAEBV?$CVector@H@@XZ 00000001400276b0 f i AggressorAI.obj
 0001:000266d0       ?GetPlayCount@CScene@@QEAA_JXZ 00000001400276d0 f i AggressorAI.obj
 0001:00026720       ?GetPetList@CScene@@QEAAAEAV?$CHandleList@VEntityHandle@@I@@XZ 0000000140027720 f i AggressorAI.obj
 0001:00026740       ?GetHeroList@CScene@@QEAAAEAV?$CHandleList@VEntityHandle@@I@@XZ 0000000140027740 f i AggressorAI.obj
 0001:00026760       ?GetFuBenMgr@CLogicEngine@@QEAAPEAVCFuBenManager@@XZ 0000000140027760 f i AggressorAI.obj
 0001:00026780       ?GetGlobalLogicEngine@@YAPEAVCLogicEngine@@XZ 0000000140027780 f i AggressorAI.obj
 0001:00026790       ?GetEntityFromHandle@@YAPEAVCEntity@@AEBVEntityHandle@@@Z 0000000140027790 f i AggressorAI.obj
 0001:000267e0       ?GetEntityMgr@CLogicEngine@@QEAAPEAVCEntityManager@@XZ 00000001400277e0 f i AggressorAI.obj
 0001:00026800       ?GetLogicCurrTickCount@@YA_JXZ 0000000140027800 f i AggressorAI.obj
 0001:00026810       ??0?$Counter@VEntityHandle@@@@QEAA@XZ 0000000140027810 f i AggressorAI.obj
 0001:00026850       ??0?$Counter@VEntityHandle@@@@QEAA@AEBV0@@Z 0000000140027850 f i AggressorAI.obj
 0001:000268a0       ??1?$Counter@VEntityHandle@@@@QEAA@XZ 00000001400278a0 f i AggressorAI.obj
 0001:000268c0       ?count@?$CBaseList@H@container@wylib@@QEBA_JXZ 00000001400278c0 f i AggressorAI.obj
 0001:000268e0       ??B?$CBaseList@H@container@wylib@@QEBAPEAHXZ 00000001400278e0 f i AggressorAI.obj
 0001:00026900       ?count@?$CBaseLinkedList@VEntityHandle@@@container@wylib@@QEBA_JXZ 0000000140027900 f i AggressorAI.obj
 0001:00026920       ?addToStat@?$Counter@VEntityHandle@@@@IEAAXXZ 0000000140027920 f i AggressorAI.obj
 0001:000269c0       ?getSingleton@CounterManager@@SAAEAV1@XZ 00000001400279c0 f i AggressorAI.obj
 0001:00026a20       ??0CounterManager@@QEAA@XZ 0000000140027a20 f i AggressorAI.obj
 0001:00026a90       ??0CounterNode@CounterManager@@QEAA@XZ 0000000140027a90 f i AggressorAI.obj
 0001:00026ad0       ?addObjectCounter@CounterManager@@QEAAXPEBDPEAX_K@Z 0000000140027ad0 f i AggressorAI.obj
 0001:00026c30       ??0CounterNode@CounterManager@@QEAA@PEBDPEAX_K@Z 0000000140027c30 f i AggressorAI.obj
 0001:00026e70       _tcsstr                    0000000140027e70 f i AggressorAI.obj
 0001:00026ec0       ??4CounterNode@CounterManager@@QEAAAEAU01@AEBU01@@Z 0000000140027ec0 f i AggressorAI.obj
 0001:00026f20       ?clear@?$CBaseList@VEntityHandle@@@container@wylib@@QEAAXXZ 0000000140027f20 f i AggressorAI.obj
 0001:00026f40       ?getCount@?$Counter@VEntityHandle@@@@SA_KXZ 0000000140027f40 f i AggressorAI.obj
 0001:00026f50       ??$GetProperty@I@CEntity@@QEBAIH@Z 0000000140027f50 f i AggressorAI.obj
 0001:00026fd0       ?GetValuePtr@CPropertySet@@QEBAPEBD_J@Z 0000000140027fd0 f i AggressorAI.obj
 0001:00027020       ??$GetProperty@H@CEntity@@QEBAHH@Z 0000000140028020 f i AggressorAI.obj
 0001:000270a0       ?CreateAi@CAiMgr@@QEAAPEAVCAnimalAI@@_JPEAVCAnimal@@@Z 00000001400280a0 f   AIMgr.obj
 0001:000273b0       ?DestroyAi@CAiMgr@@QEAAXPEAVCAnimalAI@@@Z 00000001400283b0 f   AIMgr.obj
 0001:00027650       ?Acquire@?$HandleMgr@VCPassiveAi@@V?$Handle@E@@$0EAA@@@QEAAPEAVCPassiveAi@@AEAV?$Handle@E@@@Z 0000000140028650 f i AIMgr.obj
 0001:00027f50       ?Release@?$HandleMgr@VCPassiveAi@@V?$Handle@E@@$0EAA@@@QEAAXV?$Handle@E@@@Z 0000000140028f50 f i AIMgr.obj
 0001:000281f0       ?Acquire@?$HandleMgr@VCAggressorAI@@V?$Handle@E@@$0EAA@@@QEAAPEAVCAggressorAI@@AEAV?$Handle@E@@@Z 00000001400291f0 f i AIMgr.obj
 0001:00028af0       ?Release@?$HandleMgr@VCAggressorAI@@V?$Handle@E@@$0EAA@@@QEAAXV?$Handle@E@@@Z 0000000140029af0 f i AIMgr.obj
 0001:00028d90       ?Acquire@?$HandleMgr@VCEscortAI@@V?$Handle@E@@$0CA@@@QEAAPEAVCEscortAI@@AEAV?$Handle@E@@@Z 0000000140029d90 f i AIMgr.obj
 0001:00029690       ?Release@?$HandleMgr@VCEscortAI@@V?$Handle@E@@$0CA@@@QEAAXV?$Handle@E@@@Z 000000014002a690 f i AIMgr.obj
 0001:00029950       ?Acquire@?$HandleMgr@VCRandomFleeAI@@V?$Handle@E@@$0CA@@@QEAAPEAVCRandomFleeAI@@AEAV?$Handle@E@@@Z 000000014002a950 f i AIMgr.obj
 0001:0002a240       ?Release@?$HandleMgr@VCRandomFleeAI@@V?$Handle@E@@$0CA@@@QEAAXV?$Handle@E@@@Z 000000014002b240 f i AIMgr.obj
 0001:0002a4e0       ?Acquire@?$HandleMgr@VCBaseAI@@V?$Handle@E@@$0CA@@@QEAAPEAVCBaseAI@@AEAV?$Handle@E@@@Z 000000014002b4e0 f i AIMgr.obj
 0001:0002add0       ?Release@?$HandleMgr@VCBaseAI@@V?$Handle@E@@$0CA@@@QEAAXV?$Handle@E@@@Z 000000014002bdd0 f i AIMgr.obj
 0001:0002b070       ?Acquire@?$HandleMgr@VCNpcAI@@V?$Handle@E@@$0CAA@@@QEAAPEAVCNpcAI@@AEAV?$Handle@E@@@Z 000000014002c070 f i AIMgr.obj
 0001:0002b970       ?Release@?$HandleMgr@VCNpcAI@@V?$Handle@E@@$0CAA@@@QEAAXV?$Handle@E@@@Z 000000014002c970 f i AIMgr.obj
 0001:0002bc10       ?Acquire@?$HandleMgr@VCPetAi@@V?$Handle@E@@$0CAA@@@QEAAPEAVCPetAi@@AEAV?$Handle@E@@@Z 000000014002cc10 f i AIMgr.obj
 0001:0002c510       ?Release@?$HandleMgr@VCPetAi@@V?$Handle@E@@$0CAA@@@QEAAXV?$Handle@E@@@Z 000000014002d510 f i AIMgr.obj
 0001:0002c7b0       ?Acquire@?$HandleMgr@VCHeroAi@@V?$Handle@E@@$0IA@@@QEAAPEAVCHeroAi@@AEAV?$Handle@E@@@Z 000000014002d7b0 f i AIMgr.obj
 0001:0002d0b0       ?Release@?$HandleMgr@VCHeroAi@@V?$Handle@E@@$0IA@@@QEAAXV?$Handle@E@@@Z 000000014002e0b0 f i AIMgr.obj
 0001:0002d350       ??2@YAPEAX_KPEAX@Z         000000014002e350 f i AIMgr.obj
 0001:0002d370       ??0CPassiveAi@@QEAA@XZ     000000014002e370 f i AIMgr.obj
 0001:0002d3d0       ??0CRandomFleeAI@@QEAA@XZ  000000014002e3d0 f i AIMgr.obj
 0001:0002d430       ??0CBaseAI@@QEAA@XZ        000000014002e430 f i AIMgr.obj
 0001:0002d490       ??0CNpcAI@@QEAA@XZ         000000014002e490 f i AIMgr.obj
 0001:0002d4f0       ??0CPetAi@@QEAA@XZ         000000014002e4f0 f i AIMgr.obj
 0001:0002d550       ??0CHeroAi@@QEAA@XZ        000000014002e550 f i AIMgr.obj
 0001:0002d5b0       ?Init@?$Handle@E@@QEAAXI@Z 000000014002e5b0 f i AIMgr.obj
 0001:0002d6f0       ?GetMagic@?$Handle@E@@QEBAIXZ 000000014002e6f0 f i AIMgr.obj
 0001:0002d710       ?GetMaxIndex@?$Handle@E@@QEAAIXZ 000000014002e710 f i AIMgr.obj
 0001:0002d720       ?GetUsedHandleCount@?$HandleMgr@VCAggressorAI@@V?$Handle@E@@$0EAA@@@QEBAIXZ 000000014002e720 f i AIMgr.obj
 0001:0002d740       ?GetTotalHandleCount@?$HandleMgr@VCAggressorAI@@V?$Handle@E@@$0EAA@@@QEAAIXZ 000000014002e740 f i AIMgr.obj
 0001:0002d790       ?GetChunkIdPos@?$HandleMgr@VCAggressorAI@@V?$Handle@E@@$0EAA@@@QEAAXIAEAI0@Z 000000014002e790 f i AIMgr.obj
 0001:0002d7e0       ?addArray@?$CBaseList@V?$CBaseList@VCAggressorAI@@@container@wylib@@@container@wylib@@QEAAXPEAV?$CBaseList@VCAggressorAI@@@23@_J@Z 000000014002e7e0 f i AIMgr.obj
 0001:0002d8d0       ?count@?$CBaseList@V?$CBaseList@V?$Handle@E@@@container@wylib@@@container@wylib@@QEBA_JXZ 000000014002e8d0 f i AIMgr.obj
 0001:0002d8f0       ?addArray@?$CBaseList@V?$CBaseList@V?$Handle@E@@@container@wylib@@@container@wylib@@QEAAXPEAV?$CBaseList@V?$Handle@E@@@23@_J@Z 000000014002e8f0 f i AIMgr.obj
 0001:0002d9e0       ?GetUsedHandleCount@?$HandleMgr@VCPassiveAi@@V?$Handle@E@@$0EAA@@@QEBAIXZ 000000014002e9e0 f i AIMgr.obj
 0001:0002da00       ?GetTotalHandleCount@?$HandleMgr@VCPassiveAi@@V?$Handle@E@@$0EAA@@@QEAAIXZ 000000014002ea00 f i AIMgr.obj
 0001:0002da50       ?GetChunkIdPos@?$HandleMgr@VCPassiveAi@@V?$Handle@E@@$0EAA@@@QEAAXIAEAI0@Z 000000014002ea50 f i AIMgr.obj
 0001:0002daa0       ?addArray@?$CBaseList@V?$CBaseList@VCPassiveAi@@@container@wylib@@@container@wylib@@QEAAXPEAV?$CBaseList@VCPassiveAi@@@23@_J@Z 000000014002eaa0 f i AIMgr.obj
 0001:0002db90       ?GetUsedHandleCount@?$HandleMgr@VCEscortAI@@V?$Handle@E@@$0CA@@@QEBAIXZ 000000014002eb90 f i AIMgr.obj
 0001:0002dbb0       ?GetTotalHandleCount@?$HandleMgr@VCEscortAI@@V?$Handle@E@@$0CA@@@QEAAIXZ 000000014002ebb0 f i AIMgr.obj
 0001:0002dc00       ?GetChunkIdPos@?$HandleMgr@VCEscortAI@@V?$Handle@E@@$0CA@@@QEAAXIAEAI0@Z 000000014002ec00 f i AIMgr.obj
 0001:0002dc50       ?addArray@?$CBaseList@V?$CBaseList@VCEscortAI@@@container@wylib@@@container@wylib@@QEAAXPEAV?$CBaseList@VCEscortAI@@@23@_J@Z 000000014002ec50 f i AIMgr.obj
 0001:0002dd40       ?GetUsedHandleCount@?$HandleMgr@VCRandomFleeAI@@V?$Handle@E@@$0CA@@@QEBAIXZ 000000014002ed40 f i AIMgr.obj
 0001:0002dd60       ?GetTotalHandleCount@?$HandleMgr@VCRandomFleeAI@@V?$Handle@E@@$0CA@@@QEAAIXZ 000000014002ed60 f i AIMgr.obj
 0001:0002ddb0       ?GetChunkIdPos@?$HandleMgr@VCRandomFleeAI@@V?$Handle@E@@$0CA@@@QEAAXIAEAI0@Z 000000014002edb0 f i AIMgr.obj
 0001:0002de00       ?addArray@?$CBaseList@V?$CBaseList@VCRandomFleeAI@@@container@wylib@@@container@wylib@@QEAAXPEAV?$CBaseList@VCRandomFleeAI@@@23@_J@Z 000000014002ee00 f i AIMgr.obj
 0001:0002def0       ?GetUsedHandleCount@?$HandleMgr@VCBaseAI@@V?$Handle@E@@$0CA@@@QEBAIXZ 000000014002eef0 f i AIMgr.obj
 0001:0002df10       ?GetTotalHandleCount@?$HandleMgr@VCBaseAI@@V?$Handle@E@@$0CA@@@QEAAIXZ 000000014002ef10 f i AIMgr.obj
 0001:0002df60       ?GetChunkIdPos@?$HandleMgr@VCBaseAI@@V?$Handle@E@@$0CA@@@QEAAXIAEAI0@Z 000000014002ef60 f i AIMgr.obj
 0001:0002dfb0       ?addArray@?$CBaseList@V?$CBaseList@VCBaseAI@@@container@wylib@@@container@wylib@@QEAAXPEAV?$CBaseList@VCBaseAI@@@23@_J@Z 000000014002efb0 f i AIMgr.obj
 0001:0002e0a0       ?GetUsedHandleCount@?$HandleMgr@VCNpcAI@@V?$Handle@E@@$0CAA@@@QEBAIXZ 000000014002f0a0 f i AIMgr.obj
 0001:0002e0c0       ?GetTotalHandleCount@?$HandleMgr@VCNpcAI@@V?$Handle@E@@$0CAA@@@QEAAIXZ 000000014002f0c0 f i AIMgr.obj
 0001:0002e110       ?GetChunkIdPos@?$HandleMgr@VCNpcAI@@V?$Handle@E@@$0CAA@@@QEAAXIAEAI0@Z 000000014002f110 f i AIMgr.obj
 0001:0002e160       ?addArray@?$CBaseList@V?$CBaseList@VCNpcAI@@@container@wylib@@@container@wylib@@QEAAXPEAV?$CBaseList@VCNpcAI@@@23@_J@Z 000000014002f160 f i AIMgr.obj
 0001:0002e250       ?GetUsedHandleCount@?$HandleMgr@VCPetAi@@V?$Handle@E@@$0CAA@@@QEBAIXZ 000000014002f250 f i AIMgr.obj
 0001:0002e270       ?GetTotalHandleCount@?$HandleMgr@VCPetAi@@V?$Handle@E@@$0CAA@@@QEAAIXZ 000000014002f270 f i AIMgr.obj
 0001:0002e2c0       ?GetChunkIdPos@?$HandleMgr@VCPetAi@@V?$Handle@E@@$0CAA@@@QEAAXIAEAI0@Z 000000014002f2c0 f i AIMgr.obj
 0001:0002e310       ?addArray@?$CBaseList@V?$CBaseList@VCPetAi@@@container@wylib@@@container@wylib@@QEAAXPEAV?$CBaseList@VCPetAi@@@23@_J@Z 000000014002f310 f i AIMgr.obj
 0001:0002e400       ?GetUsedHandleCount@?$HandleMgr@VCHeroAi@@V?$Handle@E@@$0IA@@@QEBAIXZ 000000014002f400 f i AIMgr.obj
 0001:0002e420       ?GetTotalHandleCount@?$HandleMgr@VCHeroAi@@V?$Handle@E@@$0IA@@@QEAAIXZ 000000014002f420 f i AIMgr.obj
 0001:0002e470       ?GetChunkIdPos@?$HandleMgr@VCHeroAi@@V?$Handle@E@@$0IA@@@QEAAXIAEAI0@Z 000000014002f470 f i AIMgr.obj
 0001:0002e4c0       ?addArray@?$CBaseList@V?$CBaseList@VCHeroAi@@@container@wylib@@@container@wylib@@QEAAXPEAV?$CBaseList@VCHeroAi@@@23@_J@Z 000000014002f4c0 f i AIMgr.obj
 0001:0002e5b0       ??0?$CBaseList@VCAggressorAI@@@container@wylib@@QEAA@XZ 000000014002f5b0 f i AIMgr.obj
 0001:0002e610       ?trunc@?$CBaseList@VCAggressorAI@@@container@wylib@@QEAAX_J@Z 000000014002f610 f i AIMgr.obj
 0001:0002e6a0       ??0?$CBaseList@V?$Handle@E@@@container@wylib@@QEAA@XZ 000000014002f6a0 f i AIMgr.obj
 0001:0002e700       ?trunc@?$CBaseList@V?$Handle@E@@@container@wylib@@QEAAX_J@Z 000000014002f700 f i AIMgr.obj
 0001:0002e790       ??0?$CBaseList@VCPassiveAi@@@container@wylib@@QEAA@XZ 000000014002f790 f i AIMgr.obj
 0001:0002e7f0       ?trunc@?$CBaseList@VCPassiveAi@@@container@wylib@@QEAAX_J@Z 000000014002f7f0 f i AIMgr.obj
 0001:0002e880       ??0?$CBaseList@VCEscortAI@@@container@wylib@@QEAA@XZ 000000014002f880 f i AIMgr.obj
 0001:0002e8e0       ?trunc@?$CBaseList@VCEscortAI@@@container@wylib@@QEAAX_J@Z 000000014002f8e0 f i AIMgr.obj
 0001:0002e970       ??0?$CBaseList@VCRandomFleeAI@@@container@wylib@@QEAA@XZ 000000014002f970 f i AIMgr.obj
 0001:0002e9d0       ?trunc@?$CBaseList@VCRandomFleeAI@@@container@wylib@@QEAAX_J@Z 000000014002f9d0 f i AIMgr.obj
 0001:0002ea60       ??0?$CBaseList@VCBaseAI@@@container@wylib@@QEAA@XZ 000000014002fa60 f i AIMgr.obj
 0001:0002eac0       ?trunc@?$CBaseList@VCBaseAI@@@container@wylib@@QEAAX_J@Z 000000014002fac0 f i AIMgr.obj
 0001:0002eb50       ??0?$CBaseList@VCNpcAI@@@container@wylib@@QEAA@XZ 000000014002fb50 f i AIMgr.obj
 0001:0002ebb0       ?trunc@?$CBaseList@VCNpcAI@@@container@wylib@@QEAAX_J@Z 000000014002fbb0 f i AIMgr.obj
 0001:0002ec40       ??0?$CBaseList@VCPetAi@@@container@wylib@@QEAA@XZ 000000014002fc40 f i AIMgr.obj
 0001:0002eca0       ?trunc@?$CBaseList@VCPetAi@@@container@wylib@@QEAAX_J@Z 000000014002fca0 f i AIMgr.obj
 0001:0002ed30       ??0?$CBaseList@VCHeroAi@@@container@wylib@@QEAA@XZ 000000014002fd30 f i AIMgr.obj
 0001:0002ed90       ?trunc@?$CBaseList@VCHeroAi@@@container@wylib@@QEAAX_J@Z 000000014002fd90 f i AIMgr.obj
 0001:0002ee20       ?IncMagicNumImpl@?$Handle@E@@IEAAXAEAI@Z 000000014002fe20 f i AIMgr.obj
 0001:0002ee70       ?GetMonsterData@CMonsterProvider@@QEBAQEAUtagMonsterConfig@@_J@Z 000000014002fe70 f i AIMgr.obj
 0001:0002eef0       ??BCMonsterProvider@@QEBAPEBUtagMonsterConfig@@XZ 000000014002fef0 f i AIMgr.obj
 0001:0002ef40       ?GetAiData@CAiProvider@@QEBAQEAUtagAiConfig@@_J@Z 000000014002ff40 f i AIMgr.obj
 0001:0002efc0       ??BCAiProvider@@QEBAPEBUtagAiConfig@@XZ 000000014002ffc0 f i AIMgr.obj
 0001:0002f010       ?GetMonsterConfig@CLogicDataProvider@@QEAAAEAVCMonsterProvider@@XZ 0000000140030010 f i AIMgr.obj
 0001:0002f030       ?GetAiConfig@CLogicDataProvider@@QEAAAEAVCAiProvider@@XZ 0000000140030030 f i AIMgr.obj
 0001:0002f050       ??0CAnimalAI@@QEAA@XZ      0000000140030050 f i AIMgr.obj
 0001:0002f110       ?KillOther@CAnimalAI@@UEAAXPEAVCAnimal@@@Z 0000000140030110 f i AIMgr.obj
 0001:0002f120       ?MoveInSight@CAnimalAI@@UEAAXPEAVCAnimal@@_J1@Z 0000000140030120 f i AIMgr.obj
 0001:0002f140       ?DamageBy@CAnimalAI@@UEAAXPEAVCAnimal@@_J@Z 0000000140030140 f i AIMgr.obj
 0001:0002f160       ?DamageTo@CAnimalAI@@UEAAXPEAVCAnimal@@_J@Z 0000000140030160 f i AIMgr.obj
 0001:0002f180       ?IsVisible@CAnimalAI@@UEAA_NPEAVCAnimal@@@Z 0000000140030180 f i AIMgr.obj
 0001:0002f1a0       ?SetReSelTargetRate@CAnimalAI@@QEAAX_J@Z 00000001400301a0 f i AIMgr.obj
 0001:0002f230       ?SetFollowStatus@CAnimalAI@@UEAAX_N@Z 0000000140030230 f i AIMgr.obj
 0001:0002f250       ??0CEscortAI@@QEAA@XZ      0000000140030250 f i AIMgr.obj
 0001:0002f2d0       ??0?$CVector@UDestPoint@@@@QEAA@PEAVCBufferAllocator@@@Z 00000001400302d0 f i AIMgr.obj
 0001:0002f380       ?empty@?$CVector@UDestPoint@@@@UEAAXXZ 0000000140030380 f i AIMgr.obj
 0001:0002f420       ?reserve@?$CVector@UDestPoint@@@@UEAAX_J@Z 0000000140030420 f i AIMgr.obj
 0001:0002f5a0       ??_G?$CVector@UDestPoint@@@@UEAAPEAXI@Z 00000001400305a0 f i AIMgr.obj
 0001:0002f5a0       ??_E?$CVector@UDestPoint@@@@UEAAPEAXI@Z 00000001400305a0 f i AIMgr.obj
 0001:0002f600       ??1?$CVector@UDestPoint@@@@UEAA@XZ 0000000140030600 f i AIMgr.obj
 0001:0002f660       ??0?$CBaseList@UDestPoint@@@container@wylib@@QEAA@XZ 0000000140030660 f i AIMgr.obj
 0001:0002f6c0       ??0CAggressorAI@@QEAA@XZ   00000001400306c0 f i AIMgr.obj
 0001:0002f730       ?AttackStart@CRandomFleeAI@@UEAAXPEAVCAnimal@@@Z 0000000140030730 f i AIMgr.obj
 0001:0002f740       ?AttackStop@CRandomFleeAI@@UEAAXPEAVCAnimal@@@Z 0000000140030740 f i AIMgr.obj
 0001:0002f750       ?UpdateAI@CRandomFleeAI@@UEAAX_J@Z 0000000140030750 f i AIMgr.obj
 0001:0002f790       ?EnterInitAI@CRandomFleeAI@@UEAAXXZ 0000000140030790 f i AIMgr.obj
 0001:0002f7d0       ?NeedOntimeCheck@CRandomFleeAI@@UEAA_N_J@Z 00000001400307d0 f i AIMgr.obj
 0001:0002f7f0       ?CheckEnemy@CRandomFleeAI@@UEAA_NXZ 00000001400307f0 f i AIMgr.obj
 0001:0002f800       ?NeedReSelTarget@CRandomFleeAI@@UEAA_NXZ 0000000140030800 f i AIMgr.obj
 0001:0002f810       ?ChangeTarget@CRandomFleeAI@@UEAAXPEAVCAnimal@@@Z 0000000140030810 f i AIMgr.obj
 0001:0002f820       ?AttackStop@CBaseAI@@UEAAXPEAVCAnimal@@@Z 0000000140030820 f i AIMgr.obj
 0001:0002f830       ?NeedOntimeCheck@CBaseAI@@UEAA_N_J@Z 0000000140030830 f i AIMgr.obj
 0001:0002f850       ?CheckEnemy@CBaseAI@@UEAA_NXZ 0000000140030850 f i AIMgr.obj
 0001:0002f860       ?NeedReSelTarget@CBaseAI@@UEAA_NXZ 0000000140030860 f i AIMgr.obj
 0001:0002f870       ?ChangeTarget@CBaseAI@@UEAAXPEAVCAnimal@@@Z 0000000140030870 f i AIMgr.obj
 0001:0002f880       ?GetDataProvider@CLogicServer@@QEAAPEAVCLogicDataProvider@@XZ 0000000140030880 f i AIMgr.obj
 0001:0002f8a0       ?GetBuffAllocator@CLogicServer@@QEAAPEAVCBufferAllocator@@XZ 00000001400308a0 f i AIMgr.obj
 0001:0002f8c0       ?GetLogicServer@@YAPEAVCLogicServer@@XZ 00000001400308c0 f i AIMgr.obj
 0001:0002f8d0       ?add@?$CBaseList@I@container@wylib@@QEAA_JAEBI@Z 00000001400308d0 f i AIMgr.obj
 0001:0002f9d0       ??B?$CBaseList@I@container@wylib@@QEBAPEAIXZ 00000001400309d0 f i AIMgr.obj
 0001:0002f9f0       ?count@?$CBaseList@UtagMonsterConfig@@@container@wylib@@QEBA_JXZ 00000001400309f0 f i AIMgr.obj
 0001:0002fa10       ??B?$CBaseList@UtagMonsterConfig@@@container@wylib@@QEBAPEAUtagMonsterConfig@@XZ 0000000140030a10 f i AIMgr.obj
 0001:0002fa30       ?count@?$CBaseList@UtagAiConfig@@@container@wylib@@QEBA_JXZ 0000000140030a30 f i AIMgr.obj
 0001:0002fa50       ??B?$CBaseList@UtagAiConfig@@@container@wylib@@QEBAPEAUtagAiConfig@@XZ 0000000140030a50 f i AIMgr.obj
 0001:0002fa70       ??0?$CTimer@$0DOI@@@QEAA@XZ 0000000140030a70 f i AIMgr.obj
 0001:0002fac0       ??0?$Handle@E@@QEAA@XZ     0000000140030ac0 f i AIMgr.obj
 0001:0002fae0       ??0?$CTimer@$0LLI@@@QEAA@XZ 0000000140030ae0 f i AIMgr.obj
 0001:0002fb30       ??1?$CBaseList@UDestPoint@@@container@wylib@@UEAA@XZ 0000000140030b30 f i AIMgr.obj
 0001:0002fb80       ?empty@?$CBaseList@UDestPoint@@@container@wylib@@UEAAXXZ 0000000140030b80 f i AIMgr.obj
 0001:0002fc00       ?reserve@?$CBaseList@UDestPoint@@@container@wylib@@UEAAX_J@Z 0000000140030c00 f i AIMgr.obj
 0001:0002fca0       ??_G?$CBaseList@UDestPoint@@@container@wylib@@UEAAPEAXI@Z 0000000140030ca0 f i AIMgr.obj
 0001:0002fca0       ??_E?$CBaseList@UDestPoint@@@container@wylib@@UEAAPEAXI@Z 0000000140030ca0 f i AIMgr.obj
 0001:0002fd00       ?clear@?$CBaseList@UDestPoint@@@container@wylib@@QEAAXXZ 0000000140030d00 f i AIMgr.obj
 0001:0002fd20       ??1?$CBaseList@VCAggressorAI@@@container@wylib@@UEAA@XZ 0000000140030d20 f i AIMgr.obj
 0001:0002fd70       ?empty@?$CBaseList@VCAggressorAI@@@container@wylib@@UEAAXXZ 0000000140030d70 f i AIMgr.obj
 0001:0002fdf0       ?reserve@?$CBaseList@VCAggressorAI@@@container@wylib@@UEAAX_J@Z 0000000140030df0 f i AIMgr.obj
 0001:0002fe90       ??1?$CBaseList@V?$Handle@E@@@container@wylib@@UEAA@XZ 0000000140030e90 f i AIMgr.obj
 0001:0002fee0       ?empty@?$CBaseList@V?$Handle@E@@@container@wylib@@UEAAXXZ 0000000140030ee0 f i AIMgr.obj
 0001:0002ff60       ?reserve@?$CBaseList@V?$Handle@E@@@container@wylib@@UEAAX_J@Z 0000000140030f60 f i AIMgr.obj
 0001:00030000       ??1?$CBaseList@VCPassiveAi@@@container@wylib@@UEAA@XZ 0000000140031000 f i AIMgr.obj
 0001:00030050       ?empty@?$CBaseList@VCPassiveAi@@@container@wylib@@UEAAXXZ 0000000140031050 f i AIMgr.obj
 0001:000300d0       ?reserve@?$CBaseList@VCPassiveAi@@@container@wylib@@UEAAX_J@Z 00000001400310d0 f i AIMgr.obj
 0001:00030170       ??1?$CBaseList@VCEscortAI@@@container@wylib@@UEAA@XZ 0000000140031170 f i AIMgr.obj
 0001:000301c0       ?empty@?$CBaseList@VCEscortAI@@@container@wylib@@UEAAXXZ 00000001400311c0 f i AIMgr.obj
 0001:00030240       ?reserve@?$CBaseList@VCEscortAI@@@container@wylib@@UEAAX_J@Z 0000000140031240 f i AIMgr.obj
 0001:000302e0       ??1?$CBaseList@VCRandomFleeAI@@@container@wylib@@UEAA@XZ 00000001400312e0 f i AIMgr.obj
 0001:00030330       ?empty@?$CBaseList@VCRandomFleeAI@@@container@wylib@@UEAAXXZ 0000000140031330 f i AIMgr.obj
 0001:000303b0       ?reserve@?$CBaseList@VCRandomFleeAI@@@container@wylib@@UEAAX_J@Z 00000001400313b0 f i AIMgr.obj
 0001:00030450       ??1?$CBaseList@VCBaseAI@@@container@wylib@@UEAA@XZ 0000000140031450 f i AIMgr.obj
 0001:000304a0       ?empty@?$CBaseList@VCBaseAI@@@container@wylib@@UEAAXXZ 00000001400314a0 f i AIMgr.obj
 0001:00030520       ?reserve@?$CBaseList@VCBaseAI@@@container@wylib@@UEAAX_J@Z 0000000140031520 f i AIMgr.obj
 0001:000305c0       ??1?$CBaseList@VCNpcAI@@@container@wylib@@UEAA@XZ 00000001400315c0 f i AIMgr.obj
 0001:00030610       ?empty@?$CBaseList@VCNpcAI@@@container@wylib@@UEAAXXZ 0000000140031610 f i AIMgr.obj
 0001:00030690       ?reserve@?$CBaseList@VCNpcAI@@@container@wylib@@UEAAX_J@Z 0000000140031690 f i AIMgr.obj
 0001:00030730       ??1?$CBaseList@VCPetAi@@@container@wylib@@UEAA@XZ 0000000140031730 f i AIMgr.obj
 0001:00030780       ?empty@?$CBaseList@VCPetAi@@@container@wylib@@UEAAXXZ 0000000140031780 f i AIMgr.obj
 0001:00030800       ?reserve@?$CBaseList@VCPetAi@@@container@wylib@@UEAAX_J@Z 0000000140031800 f i AIMgr.obj
 0001:000308a0       ??1?$CBaseList@VCHeroAi@@@container@wylib@@UEAA@XZ 00000001400318a0 f i AIMgr.obj
 0001:000308f0       ?empty@?$CBaseList@VCHeroAi@@@container@wylib@@UEAAXXZ 00000001400318f0 f i AIMgr.obj
 0001:00030970       ?reserve@?$CBaseList@VCHeroAi@@@container@wylib@@UEAAX_J@Z 0000000140031970 f i AIMgr.obj
 0001:00030a10       ??_G?$CBaseList@VCAggressorAI@@@container@wylib@@UEAAPEAXI@Z 0000000140031a10 f i AIMgr.obj
 0001:00030a10       ??_E?$CBaseList@VCAggressorAI@@@container@wylib@@UEAAPEAXI@Z 0000000140031a10 f i AIMgr.obj
 0001:00030a70       ??_G?$CBaseList@V?$Handle@E@@@container@wylib@@UEAAPEAXI@Z 0000000140031a70 f i AIMgr.obj
 0001:00030a70       ??_E?$CBaseList@V?$Handle@E@@@container@wylib@@UEAAPEAXI@Z 0000000140031a70 f i AIMgr.obj
 0001:00030ad0       ??_G?$CBaseList@VCPassiveAi@@@container@wylib@@UEAAPEAXI@Z 0000000140031ad0 f i AIMgr.obj
 0001:00030ad0       ??_E?$CBaseList@VCPassiveAi@@@container@wylib@@UEAAPEAXI@Z 0000000140031ad0 f i AIMgr.obj
 0001:00030b30       ??_E?$CBaseList@VCEscortAI@@@container@wylib@@UEAAPEAXI@Z 0000000140031b30 f i AIMgr.obj
 0001:00030b30       ??_G?$CBaseList@VCEscortAI@@@container@wylib@@UEAAPEAXI@Z 0000000140031b30 f i AIMgr.obj
 0001:00030b90       ??_E?$CBaseList@VCRandomFleeAI@@@container@wylib@@UEAAPEAXI@Z 0000000140031b90 f i AIMgr.obj
 0001:00030b90       ??_G?$CBaseList@VCRandomFleeAI@@@container@wylib@@UEAAPEAXI@Z 0000000140031b90 f i AIMgr.obj
 0001:00030bf0       ??_G?$CBaseList@VCBaseAI@@@container@wylib@@UEAAPEAXI@Z 0000000140031bf0 f i AIMgr.obj
 0001:00030bf0       ??_E?$CBaseList@VCBaseAI@@@container@wylib@@UEAAPEAXI@Z 0000000140031bf0 f i AIMgr.obj
 0001:00030c50       ??_G?$CBaseList@VCNpcAI@@@container@wylib@@UEAAPEAXI@Z 0000000140031c50 f i AIMgr.obj
 0001:00030c50       ??_E?$CBaseList@VCNpcAI@@@container@wylib@@UEAAPEAXI@Z 0000000140031c50 f i AIMgr.obj
 0001:00030cb0       ??_G?$CBaseList@VCPetAi@@@container@wylib@@UEAAPEAXI@Z 0000000140031cb0 f i AIMgr.obj
 0001:00030cb0       ??_E?$CBaseList@VCPetAi@@@container@wylib@@UEAAPEAXI@Z 0000000140031cb0 f i AIMgr.obj
 0001:00030d10       ??_G?$CBaseList@VCHeroAi@@@container@wylib@@UEAAPEAXI@Z 0000000140031d10 f i AIMgr.obj
 0001:00030d10       ??_E?$CBaseList@VCHeroAi@@@container@wylib@@UEAAPEAXI@Z 0000000140031d10 f i AIMgr.obj
 0001:00030d70       ?clear@?$CBaseList@VCAggressorAI@@@container@wylib@@QEAAXXZ 0000000140031d70 f i AIMgr.obj
 0001:00030d90       ?clear@?$CBaseList@V?$Handle@E@@@container@wylib@@QEAAXXZ 0000000140031d90 f i AIMgr.obj
 0001:00030db0       ?clear@?$CBaseList@VCPassiveAi@@@container@wylib@@QEAAXXZ 0000000140031db0 f i AIMgr.obj
 0001:00030dd0       ?clear@?$CBaseList@VCEscortAI@@@container@wylib@@QEAAXXZ 0000000140031dd0 f i AIMgr.obj
 0001:00030df0       ?clear@?$CBaseList@VCRandomFleeAI@@@container@wylib@@QEAAXXZ 0000000140031df0 f i AIMgr.obj
 0001:00030e10       ?clear@?$CBaseList@VCBaseAI@@@container@wylib@@QEAAXXZ 0000000140031e10 f i AIMgr.obj
 0001:00030e30       ?clear@?$CBaseList@VCNpcAI@@@container@wylib@@QEAAXXZ 0000000140031e30 f i AIMgr.obj
 0001:00030e50       ?clear@?$CBaseList@VCPetAi@@@container@wylib@@QEAAXXZ 0000000140031e50 f i AIMgr.obj
 0001:00030e70       ?clear@?$CBaseList@VCHeroAi@@@container@wylib@@QEAAXXZ 0000000140031e70 f i AIMgr.obj
 0001:00030e90       ??_GCEscortAI@@QEAAPEAXI@Z 0000000140031e90 f i AIMgr.obj
 0001:00030ef0       ??1CEscortAI@@QEAA@XZ      0000000140031ef0 f i AIMgr.obj
 0001:00030f40       ?GetIndex@?$Handle@E@@QEBAIXZ 0000000140031f40 f i AIMgr.obj
 0001:00030f60       ?IsNull@?$Handle@E@@QEBA_NXZ 0000000140031f60 f i AIMgr.obj
 0001:00030fc0       ?count@?$CBaseList@V?$CBaseList@VCAggressorAI@@@container@wylib@@@container@wylib@@QEBA_JXZ 0000000140031fc0 f i AIMgr.obj
 0001:00030fe0       ??B?$CBaseList@V?$CBaseList@VCAggressorAI@@@container@wylib@@@container@wylib@@QEBAPEAV?$CBaseList@VCAggressorAI@@@12@XZ 0000000140031fe0 f i AIMgr.obj
 0001:00031000       ??B?$CBaseList@V?$CBaseList@V?$Handle@E@@@container@wylib@@@container@wylib@@QEBAPEAV?$CBaseList@V?$Handle@E@@@12@XZ 0000000140032000 f i AIMgr.obj
 0001:00031020       ?count@?$CBaseList@V?$CBaseList@VCPassiveAi@@@container@wylib@@@container@wylib@@QEBA_JXZ 0000000140032020 f i AIMgr.obj
 0001:00031040       ??B?$CBaseList@V?$CBaseList@VCPassiveAi@@@container@wylib@@@container@wylib@@QEBAPEAV?$CBaseList@VCPassiveAi@@@12@XZ 0000000140032040 f i AIMgr.obj
 0001:00031060       ?count@?$CBaseList@V?$CBaseList@VCEscortAI@@@container@wylib@@@container@wylib@@QEBA_JXZ 0000000140032060 f i AIMgr.obj
 0001:00031080       ??B?$CBaseList@V?$CBaseList@VCEscortAI@@@container@wylib@@@container@wylib@@QEBAPEAV?$CBaseList@VCEscortAI@@@12@XZ 0000000140032080 f i AIMgr.obj
 0001:000310a0       ?count@?$CBaseList@V?$CBaseList@VCRandomFleeAI@@@container@wylib@@@container@wylib@@QEBA_JXZ 00000001400320a0 f i AIMgr.obj
 0001:000310c0       ??B?$CBaseList@V?$CBaseList@VCRandomFleeAI@@@container@wylib@@@container@wylib@@QEBAPEAV?$CBaseList@VCRandomFleeAI@@@12@XZ 00000001400320c0 f i AIMgr.obj
 0001:000310e0       ?count@?$CBaseList@V?$CBaseList@VCBaseAI@@@container@wylib@@@container@wylib@@QEBA_JXZ 00000001400320e0 f i AIMgr.obj
 0001:00031100       ??B?$CBaseList@V?$CBaseList@VCBaseAI@@@container@wylib@@@container@wylib@@QEBAPEAV?$CBaseList@VCBaseAI@@@12@XZ 0000000140032100 f i AIMgr.obj
 0001:00031120       ?count@?$CBaseList@V?$CBaseList@VCNpcAI@@@container@wylib@@@container@wylib@@QEBA_JXZ 0000000140032120 f i AIMgr.obj
 0001:00031140       ??B?$CBaseList@V?$CBaseList@VCNpcAI@@@container@wylib@@@container@wylib@@QEBAPEAV?$CBaseList@VCNpcAI@@@12@XZ 0000000140032140 f i AIMgr.obj
 0001:00031160       ?count@?$CBaseList@V?$CBaseList@VCPetAi@@@container@wylib@@@container@wylib@@QEBA_JXZ 0000000140032160 f i AIMgr.obj
 0001:00031180       ??B?$CBaseList@V?$CBaseList@VCPetAi@@@container@wylib@@@container@wylib@@QEBAPEAV?$CBaseList@VCPetAi@@@12@XZ 0000000140032180 f i AIMgr.obj
 0001:000311a0       ?count@?$CBaseList@V?$CBaseList@VCHeroAi@@@container@wylib@@@container@wylib@@QEBA_JXZ 00000001400321a0 f i AIMgr.obj
 0001:000311c0       ??B?$CBaseList@V?$CBaseList@VCHeroAi@@@container@wylib@@@container@wylib@@QEBAPEAV?$CBaseList@VCHeroAi@@@12@XZ 00000001400321c0 f i AIMgr.obj
 0001:000311e0       ??B?$CBaseList@VCAggressorAI@@@container@wylib@@QEBAPEAVCAggressorAI@@XZ 00000001400321e0 f i AIMgr.obj
 0001:00031200       ??B?$CBaseList@V?$Handle@E@@@container@wylib@@QEBAPEAV?$Handle@E@@XZ 0000000140032200 f i AIMgr.obj
 0001:00031220       ??B?$CBaseList@VCPassiveAi@@@container@wylib@@QEBAPEAVCPassiveAi@@XZ 0000000140032220 f i AIMgr.obj
 0001:00031240       ??B?$CBaseList@VCEscortAI@@@container@wylib@@QEBAPEAVCEscortAI@@XZ 0000000140032240 f i AIMgr.obj
 0001:00031260       ??B?$CBaseList@VCRandomFleeAI@@@container@wylib@@QEBAPEAVCRandomFleeAI@@XZ 0000000140032260 f i AIMgr.obj
 0001:00031280       ??B?$CBaseList@VCBaseAI@@@container@wylib@@QEBAPEAVCBaseAI@@XZ 0000000140032280 f i AIMgr.obj
 0001:000312a0       ??B?$CBaseList@VCNpcAI@@@container@wylib@@QEBAPEAVCNpcAI@@XZ 00000001400322a0 f i AIMgr.obj
 0001:000312c0       ??B?$CBaseList@VCPetAi@@@container@wylib@@QEBAPEAVCPetAi@@XZ 00000001400322c0 f i AIMgr.obj
 0001:000312e0       ??B?$CBaseList@VCHeroAi@@@container@wylib@@QEBAPEAVCHeroAi@@XZ 00000001400322e0 f i AIMgr.obj
 0001:00031300       ?AttackedBy@CBaseAI@@UEAAXPEAVCAnimal@@_N@Z 0000000140032300 f   BaseAI.obj
 0001:000313b0       ?AttackStart@CBaseAI@@UEAAXPEAVCAnimal@@@Z 00000001400323b0 f   BaseAI.obj
 0001:000314f0       ?GetDistSqrtFromEntity@CBaseAI@@AEAAHPEAVCEntity@@@Z 00000001400324f0 f   BaseAI.obj
 0001:000315c0       ?UpdateAI@CBaseAI@@UEAAX_J@Z 00000001400325c0 f   BaseAI.obj
 0001:00031710       ?EnterInitAI@CBaseAI@@UEAAXXZ 0000000140032710 f   BaseAI.obj
 0001:000318f0       ?sqrt@@YAMM@Z              00000001400328f0 f i BaseAI.obj
 0001:00031930       ?GetPosInfo@CEntity@@QEBAAEBUtagEntityPos@@XZ 0000000140032930 f i BaseAI.obj
 0001:00031950       ?ClearMotionStack@CMovementSystem@@QEAAXXZ 0000000140032950 f i BaseAI.obj
 0001:000319c0       ?PopState@CMotionStack@@QEAAXXZ 00000001400329c0 f i BaseAI.obj
 0001:00031a00       ?GetMoveSystem@CAnimal@@QEAAPEAVCMovementSystem@@XZ 0000000140032a00 f i BaseAI.obj
 0001:00031a20       ?AddState@CAnimal@@QEAA_N_J@Z 0000000140032a20 f i BaseAI.obj
 0001:00031b30       ?RefreshStateMask@CAnimal@@QEAAXXZ 0000000140032b30 f i BaseAI.obj
 0001:00031c00       ??$SetProperty@I@CEntity@@QEAAXHAEBI@Z 0000000140032c00 f i BaseAI.obj
 0001:00031da0       ??$SetValue@I@CPropertySet@@QEAAXHAEBI@Z 0000000140032da0 f i BaseAI.obj
 0001:00031e10       ??$SetValue@I@CPropertySet@@QEAAXPEAIAEBI@Z 0000000140032e10 f i BaseAI.obj
 0001:00031f70       ?SetUpdateMaskFlag@CUpdateMask@@QEAAX_J_N@Z 0000000140032f70 f i BaseAI.obj
 0001:00032100       ?IsBitForbidUpdate@CUpdateMask@@QEAA_N_J@Z 0000000140033100 f i BaseAI.obj
 0001:000321f0       ?HandleSkillCDWhenCombatStart@CAnimalAI@@IEAAXXZ 00000001400331f0 f   CreatureAI.obj
 0001:00032410       ?RefreshSkillDis@CAnimalAI@@QEAAXXZ 0000000140033410 f   CreatureAI.obj
 0001:00032550       ?AttackStart@CAnimalAI@@UEAAXPEAVCAnimal@@@Z 0000000140033550 f   CreatureAI.obj
 0001:00032b30       ?AttackStop@CAnimalAI@@UEAAXPEAVCAnimal@@@Z 0000000140033b30 f   CreatureAI.obj
 0001:00032b70       ?initialize@CAnimalAI@@UEAAXPEAUtagAiConfig@@@Z 0000000140033b70 f   CreatureAI.obj
 0001:00032d10       ?EnterInitAI@CAnimalAI@@UEAAXXZ 0000000140033d10 f   CreatureAI.obj
 0001:00032e00       ?SetNextCheckEnemyTimer@CAnimalAI@@IEAAXXZ 0000000140033e00 f   CreatureAI.obj
 0001:00032e70       ?NeedOntimeCheck@CAnimalAI@@UEAA_N_J@Z 0000000140033e70 f   CreatureAI.obj
 0001:00032e90       ?UpdateAI@CAnimalAI@@UEAAX_J@Z 0000000140033e90 f   CreatureAI.obj
 0001:00033a60       ?EnterEvadeMode@CAnimalAI@@UEAAXXZ 0000000140034a60 f   CreatureAI.obj
 0001:00033ee0       ?AttackedBy@CAnimalAI@@UEAAXPEAVCAnimal@@_N@Z 0000000140034ee0 f   CreatureAI.obj
 0001:000340c0       ?NeedReSelTarget@CAnimalAI@@UEAA_NXZ 00000001400350c0 f   CreatureAI.obj
 0001:00034120       ?ChangeTarget@CAnimalAI@@UEAAXPEAVCAnimal@@@Z 0000000140035120 f   CreatureAI.obj
 0001:00034170       ?CheckEnemy@CAnimalAI@@UEAA_NXZ 0000000140035170 f   CreatureAI.obj
 0001:000341d0       ?KillBy@CAnimalAI@@UEAAXPEAVCAnimal@@@Z 00000001400351d0 f   CreatureAI.obj
 0001:00034370       ?IsInLeftHomeMaxDistance@CAnimalAI@@QEAA_NXZ 0000000140035370 f   CreatureAI.obj
 0001:000345a0       ?BeTread@CAnimalAI@@QEAAXXZ 00000001400355a0 f   CreatureAI.obj
 0001:00034670       ?EntityDestroy@CAnimalAI@@QEAAXXZ 0000000140035670 f   CreatureAI.obj
 0001:00034fa0       ??B?$DataList@UtagMonsterSkill@@@@QEBAPEAUtagMonsterSkill@@XZ 0000000140035fa0 f i CreatureAI.obj
 0001:00034fc0       ?GetDataPtr@?$DataList@UtagMonsterSkill@@@@QEAAPEAUtagMonsterSkill@@_J@Z 0000000140035fc0 f i CreatureAI.obj
 0001:00035020       ?CheckAndSet@?$CTimer@$0DOI@@@QEAA_N_J_N@Z 0000000140036020 f i CreatureAI.obj
 0001:000350a0       ?Check@?$CTimer@$0DOI@@@QEAA_N_J@Z 00000001400360a0 f i CreatureAI.obj
 0001:00035100       ??$?6_K@CDataPacket@@QEAAAEAV0@_K@Z 0000000140036100 f i CreatureAI.obj
 0001:00035180       ??$?6H@CDataPacket@@QEAAAEAV0@H@Z 0000000140036180 f i CreatureAI.obj
 0001:000351f0       ??$writeAtom@_K@CDataPacket@@QEAAX_K@Z 00000001400361f0 f i CreatureAI.obj
 0001:000352e0       ??$writeAtom@H@CDataPacket@@QEAAXH@Z 00000001400362e0 f i CreatureAI.obj
 0001:000353d0       ?getPosition@CDataPacketReader@@QEAA_KXZ 00000001400363d0 f i CreatureAI.obj
 0001:00035400       ?getMemoryPtr@CDataPacketReader@@QEAAPEADXZ 0000000140036400 f i CreatureAI.obj
 0001:00035420       ?writeBuf@CDataPacket@@QEAAXPEBX_K@Z 0000000140036420 f i CreatureAI.obj
 0001:00035530       ??0CDataPacket@@QEAA@PEBX_K@Z 0000000140036530 f i CreatureAI.obj
 0001:000355d0       ??0CDataPacketReader@@QEAA@PEBX_K@Z 00000001400365d0 f i CreatureAI.obj
 0001:00035670       ??1CDataPacket@@QEAA@XZ    0000000140036670 f i CreatureAI.obj
 0001:00035740       ?setSize@CDataPacket@@IEAAX_K@Z 0000000140036740 f i CreatureAI.obj
 0001:00035900       ?_Assert@CDataPacket@@QEAAXXZ 0000000140036900 f i CreatureAI.obj
 0001:00035910       ??0EntityHandle@@QEAA@_K@Z 0000000140036910 f i CreatureAI.obj
 0001:00035970       ?GetSkillLevelData@CSkillProvider@@QEAAPEAUtagSkillOneLevel@@_J0@Z 0000000140036970 f i CreatureAI.obj
 0001:00035a20       ?GetSkillData@CSkillProvider@@QEBAPEBUOneSkillData@@_J@Z 0000000140036a20 f i CreatureAI.obj
 0001:00035aa0       ??BCSkillProvider@@QEBAPEBUOneSkillData@@XZ 0000000140036aa0 f i CreatureAI.obj
 0001:00035af0       ?GetSkillProvider@CLogicDataProvider@@QEAAPEAVCSkillProvider@@XZ 0000000140036af0 f i CreatureAI.obj
 0001:00035b10       ?IsInited@CEntity@@QEBA_NXZ 0000000140036b10 f i CreatureAI.obj
 0001:00035b30       ?GetMotionType@CMovementSystem@@QEAA_JXZ 0000000140036b30 f i CreatureAI.obj
 0001:00035b80       ?GetCurrentMotionState@CMotionStack@@QEAAAEAUMotionData@@XZ 0000000140036b80 f i CreatureAI.obj
 0001:00035be0       ?PopCurrentMotionState@CMovementSystem@@QEAAXXZ 0000000140036be0 f i CreatureAI.obj
 0001:00035c30       ?GetSkillInfoPtr@CSkillSubSystem@@QEAAPEAUtagSkillData@1@_J@Z 0000000140036c30 f i CreatureAI.obj
 0001:00035d00       ?GetSkills@CSkillSubSystem@@QEAAAEBV?$CVector@UtagSkillData@CSkillSubSystem@@@@XZ 0000000140036d00 f i CreatureAI.obj
 0001:00035d20       ?GetBuffSystem@CAnimal@@QEAAPEAVCBuffSystem@@XZ 0000000140036d20 f i CreatureAI.obj
 0001:00035d40       ?GetSkillSystem@CAnimal@@QEAAAEAVCSkillSubSystem@@XZ 0000000140036d40 f i CreatureAI.obj
 0001:00035d60       ?RemoveState@CAnimal@@QEAA_N_J@Z 0000000140036d60 f i CreatureAI.obj
 0001:00035e60       ?GetAI@CAnimal@@QEAAPEAVCAnimalAI@@XZ 0000000140036e60 f i CreatureAI.obj
 0001:00035e80       ?CanEnterState@CAnimal@@QEAA_N_J@Z 0000000140036e80 f i CreatureAI.obj
 0001:00035f00       ?GetFlag@CAnimal@@SA_NIH@Z 0000000140036f00 f i CreatureAI.obj
 0001:00035f70       ?GetAttackInterval@CAnimal@@QEAAHXZ 0000000140036f70 f i CreatureAI.obj
 0001:00035f90       ?GetPetSystem@CActor@@QEAAAEAVCPetSystem@@XZ 0000000140036f90 f i CreatureAI.obj
 0001:00035fb0       ?GetBornPoint@CMonster@@QEAAXAEA_J0@Z 0000000140036fb0 f i CreatureAI.obj
 0001:00036000       ?getTickCount@CLogicEngine@@QEAA_JXZ 0000000140037000 f i CreatureAI.obj
 0001:00036020       ??0?$Counter@VCDataPacket@@@@QEAA@XZ 0000000140037020 f i CreatureAI.obj
 0001:00036060       ??1?$Counter@VCDataPacket@@@@QEAA@XZ 0000000140037060 f i CreatureAI.obj
 0001:00036080       ?count@?$CBaseList@UOneSkillData@@@container@wylib@@QEBA_JXZ 0000000140037080 f i CreatureAI.obj
 0001:000360a0       ??B?$CBaseList@UOneSkillData@@@container@wylib@@QEBAPEAUOneSkillData@@XZ 00000001400370a0 f i CreatureAI.obj
 0001:000360c0       ?SetNextHitTimeFromNow@?$CTimer@$0DOI@@@QEAAX_J@Z 00000001400370c0 f i CreatureAI.obj
 0001:00036110       ?count@?$CBaseList@UtagSkillData@CSkillSubSystem@@@container@wylib@@QEBA_JXZ 0000000140037110 f i CreatureAI.obj
 0001:00036130       ??B?$CBaseList@UtagSkillData@CSkillSubSystem@@@container@wylib@@QEBAPEAUtagSkillData@CSkillSubSystem@@XZ 0000000140037130 f i CreatureAI.obj
 0001:00036150       ?addToStat@?$Counter@VCDataPacket@@@@IEAAXXZ 0000000140037150 f i CreatureAI.obj
 0001:000361f0       ?getCount@?$Counter@VCDataPacket@@@@SA_KXZ 00000001400371f0 f i CreatureAI.obj
 0001:00036200       ??$?6E@CDataPacket@@QEAAAEAV0@E@Z 0000000140037200 f i CreatureAI.obj
 0001:00036270       ??$writeAtom@E@CDataPacket@@QEAAXE@Z 0000000140037270 f i CreatureAI.obj
 0001:00036360       ?initialize@CEscortAI@@UEAAXPEAUtagAiConfig@@@Z 0000000140037360 f   EscortAI.obj
 0001:000363f0       ?SetDestPoint@CEscortAI@@QEAAXHH@Z 00000001400373f0 f   EscortAI.obj
 0001:00036480       ?SetPathPoint@CEscortAI@@QEAAXAEAV?$CVector@H@@@Z 0000000140037480 f   EscortAI.obj
 0001:00036560       ?SetPathPoint@CEscortAI@@QEAAXAEAU?$DataList@H@@@Z 0000000140037560 f   EscortAI.obj
 0001:00036640       ?MoveToNextTargetPoint@CEscortAI@@IEAAX_K@Z 0000000140037640 f   EscortAI.obj
 0001:00036750       ?SetLastStopPoint@CEscortAI@@QEAAXHH@Z 0000000140037750 f   EscortAI.obj
 0001:00036790       ?UpdateAI@CEscortAI@@UEAAX_J@Z 0000000140037790 f   EscortAI.obj
 0001:00036f40       ?BackToLastStopPos@CEscortAI@@IEAAXXZ 0000000140037f40 f   EscortAI.obj
 0001:00037000       ?EntityAppear@CEscortAI@@IEAAXPEAVCEntity@@@Z 0000000140038000 f   EscortAI.obj
 0001:00037060       ?IsInLastPosMaxDistance@CEscortAI@@IEAA_NXZ 0000000140038060 f   EscortAI.obj
 0001:00037160       ?AttackStart@CEscortAI@@UEAAXPEAVCAnimal@@@Z 0000000140038160 f   EscortAI.obj
 0001:000373b0       ?EnterEvadeMode@CEscortAI@@UEAAXXZ 00000001400383b0 f   EscortAI.obj
 0001:00037750       ?CheckDistFromOwner@CEscortAI@@IEAAXXZ 0000000140038750 f   EscortAI.obj
 0001:00037760       ?OnDestPointArrived@CEscortAI@@QEAAXXZ 0000000140038760 f   EscortAI.obj
 0001:00037da0       ??B?$DataList@H@@QEBAPEAHXZ 0000000140038da0 f i EscortAI.obj
 0001:00037dc0       ?count@?$CBaseList@UDestPoint@@@container@wylib@@QEBA_JXZ 0000000140038dc0 f i EscortAI.obj
 0001:00037de0       ?push@?$CBaseList@UDestPoint@@@container@wylib@@QEAA_JAEBUDestPoint@@@Z 0000000140038de0 f i EscortAI.obj
 0001:00037e30       ??B?$CBaseList@UDestPoint@@@container@wylib@@QEBAPEAUDestPoint@@XZ 0000000140038e30 f i EscortAI.obj
 0001:00037e50       ?add@?$CBaseList@UDestPoint@@@container@wylib@@QEAA_JAEBUDestPoint@@@Z 0000000140038e50 f i EscortAI.obj
 0001:00037f50       ?GetPathPoints@CAnimalAI@@QEAAAEAU?$DataList@H@@XZ 0000000140038f50 f i EscortAI.obj
 0001:00037f70       ?UpdateAI@CHeroAi@@UEAAX_J@Z 0000000140038f70 f   HeroAi.obj
 0001:000380e0       ?initialize@CHeroAi@@UEAAXPEAUtagAiConfig@@@Z 00000001400390e0 f   HeroAi.obj
 0001:00038180       ?EnterEvadeMode@CHeroAi@@UEAAXXZ 0000000140039180 f   HeroAi.obj
 0001:00038270       ?GetEntityDistanceSquare@CEntity@@QEAA_JPEAV1@@Z 0000000140039270 f i HeroAi.obj
 0001:000383e0       ?GetSceneID@CEntity@@QEBAGXZ 00000001400393e0 f i HeroAi.obj
 0001:00038400       ?GetOnwer@CHero@@QEAAPEAVCActor@@XZ 0000000140039400 f i HeroAi.obj
 0001:00038420       ?UpdateAI@CNpcAI@@UEAAX_J@Z 0000000140039420 f   NPCAI.obj
 0001:00038440       ?initialize@CNpcAI@@UEAAXPEAUtagAiConfig@@@Z 0000000140039440 f   NPCAI.obj
 0001:00038460       ?UpdateNPCNonCombatTalkImpl@CNpcAI@@IEAAXXZ 0000000140039460 f   NPCAI.obj
 0001:00038470       ?PostponeTalkTimer@CNpcAI@@IEAAXXZ 0000000140039470 f   NPCAI.obj
 0001:00038480       ?UpdateNPCTalk@CNpcAI@@IEAAXXZ 0000000140039480 f   NPCAI.obj
 0001:000384b0       ?UpdateAI@CPetAi@@UEAAX_J@Z 00000001400394b0 f   PetAI.obj
 0001:00038670       ?OnChangeStayToFollow@CPetAi@@QEAAXXZ 0000000140039670 f   PetAI.obj
 0001:000387e0       ?initialize@CPetAi@@UEAAXPEAUtagAiConfig@@@Z 00000001400397e0 f   PetAI.obj
 0001:00038890       ?EnterEvadeMode@CPetAi@@UEAAXXZ 0000000140039890 f   PetAI.obj
 0001:00038910       ?AttackedBy@CPetAi@@UEAAXPEAVCAnimal@@_N@Z 0000000140039910 f   PetAI.obj
 0001:00038c30       ?GetPetCount@CPetSystem@@QEAA_JXZ 0000000140039c30 f i PetAI.obj
 0001:00038c80       ?GetPetData@CPetSystem@@QEAAPEAUPETDATA@1@_J@Z 0000000140039c80 f i PetAI.obj
 0001:00038d10       ?GetOnwer@CPet@@QEAAPEAVCActor@@XZ 0000000140039d10 f i PetAI.obj
 0001:00038d30       ?GetPetId@CPet@@QEAA_JXZ   0000000140039d30 f i PetAI.obj
 0001:00038d50       ?GetBattleStatus@CPet@@QEAAHXZ 0000000140039d50 f i PetAI.obj
 0001:00038d70       ?GetLiveTime@CPet@@QEAAIXZ 0000000140039d70 f i PetAI.obj
 0001:00038d90       ?count@?$CBaseList@UPETDATA@CPetSystem@@@container@wylib@@QEBA_JXZ 0000000140039d90 f i PetAI.obj
 0001:00038db0       ??B?$CBaseList@UPETDATA@CPetSystem@@@container@wylib@@QEBAPEAUPETDATA@CPetSystem@@XZ 0000000140039db0 f i PetAI.obj
 0001:00038dd0       ?ResetRandomMovement@CRandomFleeAI@@AEAAX_N@Z 0000000140039dd0 f   RandomFleeAI.obj
 0001:00038e90       ?AttackedBy@CRandomFleeAI@@UEAAXPEAVCAnimal@@_N@Z 0000000140039e90 f   RandomFleeAI.obj
 0001:00039010       ?Initialize@TalkAI@@UEAAXPEAVCAnimal@@PEAUtagAiConfig@@@Z 000000014003a010 f   TalkAI.obj
 0001:000390d0       ?Update@TalkAI@@UEAAX_J@Z  000000014003a0d0 f   TalkAI.obj
 0001:00039130       ?UpdateNPCTalk@TalkAI@@IEAAXXZ 000000014003a130 f   TalkAI.obj
 0001:00039180       ?UpdateNPCNonCombatTalkImpl@TalkAI@@IEAAXXZ 000000014003a180 f   TalkAI.obj
 0001:000391e0       ?PostponeTalkTimer@TalkAI@@IEAAXXZ 000000014003a1e0 f   TalkAI.obj
 0001:00039300       ?CheckAndSet@?$CTimer@$0HNA@@@QEAA_N_J_N@Z 000000014003a300 f i TalkAI.obj
 0001:00039380       ?SetNextHitTimeFromNow@?$CTimer@$0HNA@@@QEAAX_J@Z 000000014003a380 f i TalkAI.obj
 0001:000393d0       ??_I@YAXPEAX_KHP6AX0@Z@Z   000000014003a3d0 f i AttrCalc.obj
 0001:00039480       ??0CAttrCalc@@QEAA@XZ      000000014003a480 f   AttrCalc.obj
 0001:000394c0       ??XCAttrCalc@@QEAAAEAV0@M@Z 000000014003a4c0 f   AttrCalc.obj
 0001:00039610       ??6CAttrCalc@@QEAAAEAV0@AEBUtagGameAttribute@@@Z 000000014003a610 f   AttrCalc.obj
 0001:00039820       ??6CAttrCalc@@QEAAAEAV0@AEBUtagPackedGameAttribute@@@Z 000000014003a820 f   AttrCalc.obj
 0001:00039a90       ??6CAttrCalc@@QEAAAEAV0@AEBV0@@Z 000000014003aa90 f   AttrCalc.obj
 0001:00039b50       ?applySeriesAttrbutes@CAttrCalc@@QEAAAEAV1@AEBV1@_J1@Z 000000014003ab50 f   AttrCalc.obj
 0001:00039e70       ?applyPowerAttributes@CAttrCalc@@QEAAAEAV1@AEBV1@@Z 000000014003ae70 f   AttrCalc.obj
 0001:0003a490       ?reset@CAttrCalc@@QEAAXXZ  000000014003b490 f i AttrCalc.obj
 0001:0003a4e0       ??1CRandAttrReader@@UEAA@XZ 000000014003b4e0 f   RandAttrReader.obj
 0001:0003a530       ?showError@CRandAttrReader@@MEAAXPEBD@Z 000000014003b530 f   RandAttrReader.obj
 0001:0003a5d0       ?readConfig@CRandAttrReader@@QEAA_JPEAUlua_State@@PEAUtagRandomAttributeTerm@@_J@Z 000000014003b5d0 f   RandAttrReader.obj
 0001:0003a850       ??_ECRandAttrReader@@UEAAPEAXI@Z 000000014003b850 f i RandAttrReader.obj
 0001:0003a850       ??_GCRandAttrReader@@UEAAPEAXI@Z 000000014003b850 f i RandAttrReader.obj
 0001:0003a8b0       ??1?$CTRefString@VCAnsiString@string@wylib@@D@string@wylib@@UEAA@XZ 000000014003b8b0 f i RandAttrReader.obj
 0001:0003a8f0       ?readAttrValue@CRandAttrReader@@IEAA?ATtagGameAttributeValue@@W4tagGameAttributeType@@PEBD@Z 000000014003b8f0 f i RandAttrReader.obj
 0001:0003aa50       ??0?$CTRefString@VCAnsiString@string@wylib@@D@string@wylib@@QEAA@PEBD@Z 000000014003ba50 f i RandAttrReader.obj
 0001:0003aac0       ??0?$CTRefString@VCAnsiString@string@wylib@@D@string@wylib@@QEAA@AEBV012@@Z 000000014003bac0 f i RandAttrReader.obj
 0001:0003ab40       ??4?$CTRefString@VCAnsiString@string@wylib@@D@string@wylib@@QEAAXPEBD@Z 000000014003bb40 f i RandAttrReader.obj
 0001:0003ac10       ??Y?$CTRefString@VCAnsiString@string@wylib@@D@string@wylib@@QEAAXPEBD@Z 000000014003bc10 f i RandAttrReader.obj
 0001:0003ad10       ??0?$CRefObject@VCAnsiString@string@wylib@@@misc@wylib@@QEAA@AEAV012@@Z 000000014003bd10 f i RandAttrReader.obj
 0001:0003ada0       ??_G?$CTRefString@VCAnsiString@string@wylib@@D@string@wylib@@UEAAPEAXI@Z 000000014003bda0 f i RandAttrReader.obj
 0001:0003ada0       ??_E?$CTRefString@VCAnsiString@string@wylib@@D@string@wylib@@UEAAPEAXI@Z 000000014003bda0 f i RandAttrReader.obj
 0001:0003ae00       ??B?$CTRefString@VCAnsiString@string@wylib@@D@string@wylib@@QEBAPEBDXZ 000000014003be00 f i RandAttrReader.obj
 0001:0003ae70       ??0?$CRefObject@VCAnsiString@string@wylib@@@misc@wylib@@QEAA@XZ 000000014003be70 f i RandAttrReader.obj
 0001:0003aeb0       ??0?$CRefObjectImpl@VCAnsiString@string@wylib@@@misc@wylib@@QEAA@XZ 000000014003beb0 f i RandAttrReader.obj
 0001:0003af20       ?addRef@?$CRefObjectImpl@VCAnsiString@string@wylib@@@misc@wylib@@QEAAJXZ 000000014003bf20 f i RandAttrReader.obj
 0001:0003af50       ??_G?$CRefObjectImpl@VCAnsiString@string@wylib@@@misc@wylib@@UEAAPEAXI@Z 000000014003bf50 f i RandAttrReader.obj
 0001:0003af50       ??_E?$CRefObjectImpl@VCAnsiString@string@wylib@@@misc@wylib@@UEAAPEAXI@Z 000000014003bf50 f i RandAttrReader.obj
 0001:0003afb0       ??1?$CRefObjectImpl@VCAnsiString@string@wylib@@@misc@wylib@@UEAA@XZ 000000014003bfb0 f i RandAttrReader.obj
 0001:0003aff0       ?alloc@CAnsiString@string@wylib@@MEAAPEAXPEAX_K@Z 000000014003bff0 f i RandAttrReader.obj
 0001:0003b070       ??0CAnsiString@string@wylib@@QEAA@XZ 000000014003c070 f i RandAttrReader.obj
 0001:0003b0b0       ??1CAnsiString@string@wylib@@UEAA@XZ 000000014003c0b0 f i RandAttrReader.obj
 0001:0003b100       ?setData@CAnsiString@string@wylib@@IEAAXPEBD@Z 000000014003c100 f i RandAttrReader.obj
 0001:0003b1e0       ??4CAnsiString@string@wylib@@QEAAXPEBD@Z 000000014003c1e0 f i RandAttrReader.obj
 0001:0003b240       ??4CAnsiString@string@wylib@@QEAAXAEBV012@@Z 000000014003c240 f i RandAttrReader.obj
 0001:0003b2a0       ??YCAnsiString@string@wylib@@QEAAXPEBD@Z 000000014003c2a0 f i RandAttrReader.obj
 0001:0003b350       ?catData@CAnsiString@string@wylib@@IEAAXPEBD@Z 000000014003c350 f i RandAttrReader.obj
 0001:0003b430       ??0CAnsiString@string@wylib@@QEAA@PEBD@Z 000000014003c430 f i RandAttrReader.obj
 0001:0003b4a0       ?rawStr@CAnsiString@string@wylib@@QEAAPEADXZ 000000014003c4a0 f i RandAttrReader.obj
 0001:0003b4c0       ?length@CAnsiString@string@wylib@@QEBA_KXZ 000000014003c4c0 f i RandAttrReader.obj
 0001:0003b530       ??_ECAnsiString@string@wylib@@UEAAPEAXI@Z 000000014003c530 f i RandAttrReader.obj
 0001:0003b530       ??_GCAnsiString@string@wylib@@UEAAPEAXI@Z 000000014003c530 f i RandAttrReader.obj
 0001:0003b590       ?createLuaVM@CCustomLogicLuaConfig@@MEAAPEAUlua_State@@XZ 000000014003c590 f i RandAttrReader.obj
 0001:0003b5d0       ??1CCustomLogicLuaConfig@@UEAA@XZ 000000014003c5d0 f i RandAttrReader.obj
 0001:0003b610       ??1?$CRefObject@VCAnsiString@string@wylib@@@misc@wylib@@UEAA@XZ 000000014003c610 f i RandAttrReader.obj
 0001:0003b670       ??_G?$CRefObject@VCAnsiString@string@wylib@@@misc@wylib@@UEAAPEAXI@Z 000000014003c670 f i RandAttrReader.obj
 0001:0003b670       ??_E?$CRefObject@VCAnsiString@string@wylib@@@misc@wylib@@UEAAPEAXI@Z 000000014003c670 f i RandAttrReader.obj
 0001:0003b6d0       ?release@?$CRefObjectImpl@VCAnsiString@string@wylib@@@misc@wylib@@QEAAJXZ 000000014003c6d0 f i RandAttrReader.obj
 0001:0003b740       ?finallRelease@?$CRefObjectImpl@VCAnsiString@string@wylib@@@misc@wylib@@MEAAXXZ 000000014003c740 f i RandAttrReader.obj
 0001:0003b7c0       ?SelectItemSmithAttribute@RandAttrSelector@@SA_NAEAUtagPackedGameAttribute@@PEBUCUserItem@@AEA_J@Z 000000014003c7c0 f   RandAttrSelector.obj
 0001:0003bab0       ?InitSmithById@RandAttrSelector@@SAHGE@Z 000000014003cab0 f   RandAttrSelector.obj
 0001:0003bbe0       ?InitItemSpecSmith@RandAttrSelector@@SA_NPEAUCUserItem@@E@Z 000000014003cbe0 f   RandAttrSelector.obj
 0001:0003bcf0       ?ItemSmithAttribute@RandAttrSelector@@SA_NPEAUCUserItem@@H_N@Z 000000014003ccf0 f   RandAttrSelector.obj
 0001:0003bed0       ?RealSmithAttribute@RandAttrSelector@@SA_NPEAU?$DataList@UtagRandomAttributeTerm@@@@_J1PEAUtagPackedGameAttribute@@1_NE@Z 000000014003ced0 f   RandAttrSelector.obj
 0001:0003c3b0       ?InitZyItemAttr@RandAttrSelector@@SA_NPEAUCUserItem@@E@Z 000000014003d3b0 f   RandAttrSelector.obj
 0001:0003c530       ?InitZyItemAttrReturnData@RandAttrSelector@@SA_NPEAUCUserItem@@EEPEAEPEAH@Z 000000014003d530 f   RandAttrSelector.obj
 0001:0003cd40       ?MakePackedAttrFromRandAttr@@YAXAEAUtagPackedGameAttribute@@AEBUtagRandomAttributeTerm@@@Z 000000014003dd40 f i RandAttrSelector.obj
 0001:0003d090       ?IsAttriExist@@YA_NPEAUtagPackedGameAttribute@@_JHH@Z 000000014003e090 f i RandAttrSelector.obj
 0001:0003d1a0       ?GetDataPtr@?$DataList@UtagRandomAttributeTerm@@@@QEAAPEAUtagRandomAttributeTerm@@_J@Z 000000014003e1a0 f i RandAttrSelector.obj
 0001:0003d200       ?GetStdItem@CStdItemProvider@@QEBAPEBVCStdItem@@_J@Z 000000014003e200 f i RandAttrSelector.obj
 0001:0003d280       ??BCStdItemProvider@@QEBAPEBVCStdItem@@XZ 000000014003e280 f i RandAttrSelector.obj
 0001:0003d2d0       ?GetStdItemProvider@CLogicDataProvider@@QEAAAEAVCStdItemProvider@@XZ 000000014003e2d0 f i RandAttrSelector.obj
 0001:0003d2f0       ?GetBagConfig@CLogicDataProvider@@QEAAAEAUtagBagConfig@@XZ 000000014003e2f0 f i RandAttrSelector.obj
 0001:0003d310       ?GetGlobalConfig@CLogicDataProvider@@QEAAAEAUtagGlobalConfig@@XZ 000000014003e310 f i RandAttrSelector.obj
 0001:0003d330       ?GetZyItemProvider@CLogicDataProvider@@QEAAAEAVCZYItemProvider@@XZ 000000014003e330 f i RandAttrSelector.obj
 0001:0003d350       ?GetRandValue@CLogicEngine@@QEAAII@Z 000000014003e350 f i RandAttrSelector.obj
 0001:0003d3c0       ?count@?$CBaseList@VCStdItem@@@container@wylib@@QEBA_JXZ 000000014003e3c0 f i RandAttrSelector.obj
 0001:0003d3e0       ??B?$CBaseList@VCStdItem@@@container@wylib@@QEBAPEAVCStdItem@@XZ 000000014003e3e0 f i RandAttrSelector.obj
 0001:0003d400       ??0CBackStageSender@@QEAA@W4tagServerType@jxSrvDef@@HPEAD@Z 000000014003e400 f   BackStage.obj
 0001:0003d4b0       ??0CBackStageSender@@QEAA@XZ 000000014003e4b0 f   BackStage.obj
 0001:0003d520       ??1CBackStageSender@@UEAA@XZ 000000014003e520 f   BackStage.obj
 0001:0003d570       ?SetServerName@CBackStageSender@@QEAAXPEBD@Z 000000014003e570 f   BackStage.obj
 0001:0003d5d0       ?OnDispatchRecvPacket@CBackStageSender@@MEAAXGAEAVCDataPacketReader@@@Z 000000014003e5d0 f   BackStage.obj
 0001:0003d660       ?getLocalServerType@CBackStageSender@@MEAA?AW4tagServerType@jxSrvDef@@XZ 000000014003e660 f   BackStage.obj
 0001:0003d680       ?getLocalServerName@CBackStageSender@@MEAAPEBDXZ 000000014003e680 f   BackStage.obj
 0001:0003d6a0       ?getLocalServerIndex@CBackStageSender@@MEAAHXZ 000000014003e6a0 f   BackStage.obj
 0001:0003d6c0       ?OnConnected@CBackStageSender@@MEAAXXZ 000000014003e6c0 f   BackStage.obj
 0001:0003d750       ?SendServerState@CBackStageSender@@QEAAXXZ 000000014003e750 f   BackStage.obj
 0001:0003d820       ?SendSpidToBack@CBackStageSender@@QEAAXXZ 000000014003e820 f   BackStage.obj
 0001:0003d890       ?SendLoginStatus@CBackStageSender@@QEAAXH@Z 000000014003e890 f   BackStage.obj
 0001:0003d910       ?SendCommandResult@CBackStageSender@@QEAAXPEADHH0H@Z 000000014003e910 f   BackStage.obj
 0001:0003da20       ?RevBackCommandOp@CBackStageSender@@QEAAXAEAVCDataPacketReader@@@Z 000000014003ea20 f   BackStage.obj
 0001:0003dbe0       ?OnDbReturnData@CBackStageSender@@QEAAX_JPEAD_K@Z 000000014003ebe0 f   BackStage.obj
 0001:0003dde0       ?HandleCommand@CBackStageSender@@QEAAX_J_K11@Z 000000014003ede0 f   BackStage.obj
 0001:00043e60       ?GetStrDest@CBackStageSender@@QEAAPEADPEAD0@Z 0000000140044e60 f   BackStage.obj
 0001:00043ee0       ?ParseArgStr@CBackStageSender@@QEAAHPEAPEADPEADH@Z 0000000140044ee0 f   BackStage.obj
 0001:00045b20       ??_ECBackStageSender@@UEAAPEAXI@Z 0000000140046b20 f i BackStage.obj
 0001:00045b20       ??_GCBackStageSender@@UEAAPEAXI@Z 0000000140046b20 f i BackStage.obj
 0001:00045b80       ??0CCustomJXClientSocket@@QEAA@XZ 0000000140046b80 f i BackStage.obj
 0001:00045be0       ??_GCCustomJXClientSocket@@UEAAPEAXI@Z 0000000140046be0 f i BackStage.obj
 0001:00045be0       ??_ECCustomJXClientSocket@@UEAAPEAXI@Z 0000000140046be0 f i BackStage.obj
 0001:00045c40       ??1CCustomJXClientSocket@@UEAA@XZ 0000000140046c40 f i BackStage.obj
 0001:00045c80       ?strchr@@YAPEADPEADH@Z     0000000140046c80 f i BackStage.obj
 0001:00045cd0       _tcsncpy                   0000000140046cd0 f i BackStage.obj
 0001:00045d30       ?_tcschr@@YAPEADPEADI@Z    0000000140046d30 f i BackStage.obj
 0001:00045d80       _tcschr                    0000000140046d80 f i BackStage.obj
 0001:00045dd0       ?count@?$CBaseList@PEAX@container@wylib@@QEBA_JXZ 0000000140046dd0 f i BackStage.obj
 0001:00045df0       ??B?$CBaseList@PEAX@container@wylib@@QEBAPEAPEAXXZ 0000000140046df0 f i BackStage.obj
 0001:00045e10       ?SetDataModifyFlag@?$CEntitySubSystem@$0CE@VCDmkjSystem@@VCActor@@@@QEAAX_N@Z 0000000140046e10 f i BackStage.obj
 0001:00045e60       ??$?5H@CDataPacketReader@@QEAAAEAV0@AEAH@Z 0000000140046e60 f i BackStage.obj
 0001:00045ee0       ??$?5E@CDataPacketReader@@QEAAAEAV0@AEAE@Z 0000000140046ee0 f i BackStage.obj
 0001:00045f60       ??$?5G@CDataPacketReader@@QEAAAEAV0@AEAG@Z 0000000140046f60 f i BackStage.obj
 0001:00045fe0       ??$?6I@CDataPacket@@QEAAAEAV0@I@Z 0000000140046fe0 f i BackStage.obj
 0001:00046050       ??$?6_J@CDataPacket@@QEAAAEAV0@_J@Z 0000000140047050 f i BackStage.obj
 0001:000460d0       ??$?6E@CActorPacket@@QEAAAEAU0@E@Z 00000001400470d0 f i BackStage.obj
 0001:00046120       ??$?6_J@CActorPacket@@QEAAAEAU0@_J@Z 0000000140047120 f i BackStage.obj
 0001:00046180       ??$?6TItemSeries@CUserItem@@@CDataPacket@@QEAAAEAV0@TItemSeries@CUserItem@@@Z 0000000140047180 f i BackStage.obj
 0001:00046200       ??$readAtom@H@CDataPacketReader@@QEAAHXZ 0000000140047200 f i BackStage.obj
 0001:00046320       ??$readAtom@E@CDataPacketReader@@QEAAEXZ 0000000140047320 f i BackStage.obj
 0001:00046440       ??$readAtom@G@CDataPacketReader@@QEAAGXZ 0000000140047440 f i BackStage.obj
 0001:00046560       ??$writeAtom@I@CDataPacket@@QEAAXI@Z 0000000140047560 f i BackStage.obj
 0001:00046650       ??$writeAtom@_J@CDataPacket@@QEAAX_J@Z 0000000140047650 f i BackStage.obj
 0001:00046740       ??$writeAtom@TItemSeries@CUserItem@@@CDataPacket@@QEAAXTItemSeries@CUserItem@@@Z 0000000140047740 f i BackStage.obj
 0001:00046830       ?connected@CCustomSocket@socket@inet@wylib@@QEAA_NXZ 0000000140047830 f i BackStage.obj
 0001:00046850       ?readBuf@CDataPacketReader@@QEAA_KPEAX_K@Z 0000000140047850 f i BackStage.obj
 0001:00046910       ?readString@CDataPacketReader@@QEAA_KPEAD_K@Z 0000000140047910 f i BackStage.obj
 0001:00046970       ?writeString@CDataPacket@@QEAAXPEBD_K@Z 0000000140047970 f i BackStage.obj
 0001:000469d0       ?encode@CMiniDateTime@@QEAAAEAU1@AEBU_SYSTEMTIME@@@Z 00000001400479d0 f i BackStage.obj
 0001:00046a80       ?encode@CMiniDateTime@@QEAAAEAU1@IIIIII@Z 0000000140047a80 f i BackStage.obj
 0001:00046c20       ?isLeapYear@CMiniDateTime@@SA_NI@Z 0000000140047c20 f i BackStage.obj
 0001:00046ca0       ??0CMiniDateTime@@QEAA@XZ  0000000140047ca0 f i BackStage.obj
 0001:00046cc0       ?GetTipmsg@tagTipmsgConfig@@QEAAPEAD_J@Z 0000000140047cc0 f i BackStage.obj
 0001:00046d40       ?GetTipmsgConfig@CLogicDataProvider@@QEAAAEAUtagTipmsgConfig@@XZ 0000000140047d40 f i BackStage.obj
 0001:00046d60       ?GetEntityName@CEntity@@QEBAPEBDXZ 0000000140047d60 f i BackStage.obj
 0001:00046d80       ?GetChatSystem@CActor@@QEAAPEAVCChatSystem@@XZ 0000000140047d80 f i BackStage.obj
 0001:00046da0       ?GetDeportSystem@CActor@@QEAAAEAVCUserDepot@@XZ 0000000140047da0 f i BackStage.obj
 0001:00046dc0       ?GetDmkjSystem@CActor@@QEAAAEAVCDmkjSystem@@XZ 0000000140047dc0 f i BackStage.obj
 0001:00046de0       ?GetHeroSystem@CActor@@QEAAAEAVCHeroSystem@@XZ 0000000140047de0 f i BackStage.obj
 0001:00046e00       ?GetEquipmentSystem@CActor@@QEAAAEAVCUserEquipment@@XZ 0000000140047e00 f i BackStage.obj
 0001:00046e20       ?GetBagSystem@CActor@@QEAAAEAVCUserBag@@XZ 0000000140047e20 f i BackStage.obj
 0001:00046e40       ?GetMagicItemSystem@CActor@@QEAAAEAVCMagicItemSystem@@XZ 0000000140047e40 f i BackStage.obj
 0001:00046e60       ?GetRawServerIndex@CActor@@QEBAHXZ 0000000140047e60 f i BackStage.obj
 0001:00046e80       ?AddFunctionName@CEncryptFunctionName@@QEAAXPEAD@Z 0000000140047e80 f i BackStage.obj
 0001:00046f30       ?GetActorPtrByName@CEntityManager@@QEAAPEAVCActor@@PEBD@Z 0000000140047f30 f i BackStage.obj
 0001:00047080       ?GetEntityPtrByActorID@CEntityManager@@QEAAPEAVCActor@@I@Z 0000000140048080 f i BackStage.obj
 0001:000471c0       ?GetEntityPtrByAccountName@CEntityManager@@QEAAPEAVCActor@@PEBD@Z 00000001400481c0 f i BackStage.obj
 0001:000472f0       ?GetAccount@CActor@@QEAAPEBDXZ 00000001400482f0 f i BackStage.obj
 0001:00047310       ?GetOnlineAcotrPtrList@CEntityManager@@QEAAXAEAV?$CVector@PEAX@@H@Z 0000000140048310 f i BackStage.obj
 0001:00047430       ??1?$_Tree_iterator@V?$_Tree_val@V?$_Tmap_traits@HVEntityHandle@@U?$less@H@std@@V?$allocator@U?$pair@$$CBHVEntityHandle@@@std@@@3@$0A@@std@@@std@@@std@@QEAA@XZ 0000000140048430 f i BackStage.obj
 0001:00047470       ??1?$_Tree_const_iterator@V?$_Tree_val@V?$_Tmap_traits@HVEntityHandle@@U?$less@H@std@@V?$allocator@U?$pair@$$CBHVEntityHandle@@@std@@@3@$0A@@std@@@std@@@std@@QEAA@XZ 0000000140048470 f i BackStage.obj
 0001:000474b0       ??1?$_Tree_unchecked_const_iterator@V?$_Tree_val@V?$_Tmap_traits@HVEntityHandle@@U?$less@H@std@@V?$allocator@U?$pair@$$CBHVEntityHandle@@@std@@@3@$0A@@std@@@std@@U_Iterator_base12@2@@std@@QEAA@XZ 00000001400484b0 f i BackStage.obj
 0001:000474f0       ??1?$_Iterator012@Ubidirectional_iterator_tag@std@@U?$pair@$$CBHVEntityHandle@@@2@_JPEBU32@AEBU32@U_Iterator_base12@2@@std@@QEAA@XZ 00000001400484f0 f i BackStage.obj
 0001:00047530       ??1_Iterator_base12@std@@QEAA@XZ 0000000140048530 f i BackStage.obj
 0001:000475a0       ?_Orphan_me@_Iterator_base12@std@@QEAAXXZ 00000001400485a0 f i BackStage.obj
 0001:00047680       ?SetServerTempCombineTime@CMiscMgr@@QEAAXII@Z 0000000140048680 f i BackStage.obj
 0001:000476c0       ?GetSysState@CMiscMgr@@QEAAPEADXZ 00000001400486c0 f i BackStage.obj
 0001:000476e0       ?SetHorseHundredActFlag@CMiscMgr@@QEAAXH@Z 00000001400486e0 f i BackStage.obj
 0001:00047760       ?SetSurpriseRetData@CGameStoreMgr@@QEAAXHII@Z 0000000140048760 f i BackStage.obj
 0001:000477c0       ?GetSurpriseRetData@CGameStoreMgr@@QEAAAEAUtagSurpriseRet@1@AEAHAEAI1@Z 00000001400487c0 f i BackStage.obj
 0001:00047830       ?SetGroupoOnData@CGameStoreMgr@@QEAAXHIIH@Z 0000000140048830 f i BackStage.obj
 0001:000478a0       ?GetGroupOnData@CGameStoreMgr@@QEAAAEAUtagGroupon@1@AEAHAEAI10@Z 00000001400488a0 f i BackStage.obj
 0001:00047930       ?ClearItemMap@CDmkjMgr@@QEAAXXZ 0000000140048930 f i BackStage.obj
 0001:00047980       ?SetItemGlobalYb@CDmkjMgr@@QEAAII_N@Z 0000000140048980 f i BackStage.obj
 0001:000479f0       ?GetGuildMgr@CLogicEngine@@QEAAAEAVCGuildComponent@@XZ 00000001400489f0 f i BackStage.obj
 0001:00047a10       ?GetNetWorkHandle@CLogicEngine@@QEAAPEAVCNetWorkMsgHandle@@XZ 0000000140048a10 f i BackStage.obj
 0001:00047a30       ?GetGlobalNpc@CLogicEngine@@QEAAPEAVCNpc@@XZ 0000000140048a30 f i BackStage.obj
 0001:00047a50       ?GetMonFuncNpc@CLogicEngine@@QEAAPEAVCNpc@@XZ 0000000140048a50 f i BackStage.obj
 0001:00047a70       ?GetItemFuncNpc@CLogicEngine@@QEAAPEAVCNpc@@XZ 0000000140048a70 f i BackStage.obj
 0001:00047a90       ?GetEncryptFunctionName@CLogicEngine@@QEAAAEAVCEncryptFunctionName@@XZ 0000000140048a90 f i BackStage.obj
 0001:00047ab0       ?GetMiscMgr@CLogicEngine@@QEAAAEAVCMiscMgr@@XZ 0000000140048ab0 f i BackStage.obj
 0001:00047ad0       ?GetDmkjMgr@CLogicEngine@@QEAAAEAVCDmkjMgr@@XZ 0000000140048ad0 f i BackStage.obj
 0001:00047af0       ?GetGameStoreMgr@CLogicEngine@@QEAAAEAVCGameStoreMgr@@XZ 0000000140048af0 f i BackStage.obj
 0001:00047b10       ?getMiniDateTime@CLogicEngine@@QEAAIXZ 0000000140048b10 f i BackStage.obj
 0001:00047c00       ??BCMiniDateTime@@QEAAIXZ  0000000140048c00 f i BackStage.obj
 0001:00047c20       ?GetChatMgr@CLogicEngine@@QEAAAEAVCChatManager@@XZ 0000000140048c20 f i BackStage.obj
 0001:00047c40       ?GetTenActivityManager@CLogicEngine@@QEAAAEAVCTenDaysActivityComponent@@XZ 0000000140048c40 f i BackStage.obj
 0001:00047c60       ?GetCollectManager@CLogicEngine@@QEAAAEAVCCollectComponet@@XZ 0000000140048c60 f i BackStage.obj
 0001:00047c80       ?GetAnniversaryManager@CLogicEngine@@QEAAAEAVCAnniversaryComponet@@XZ 0000000140048c80 f i BackStage.obj
 0001:00047ca0       ?GetCrossManager@CLogicEngine@@QEAAAEAVCCrossComponet@@XZ 0000000140048ca0 f i BackStage.obj
 0001:00047cc0       ?SetLoginToolsExpRate@CLogicEngine@@QEAAXM@Z 0000000140048cc0 f i BackStage.obj
 0001:00047cf0       ?IsEngineerRuning@CLogicEngine@@QEAA?CHXZ 0000000140048cf0 f i BackStage.obj
 0001:00047d60       ?SetEncryptState@CLogicEngine@@QEAAXH@Z 0000000140048d60 f i BackStage.obj
 0001:00047d90       ?GetSessionClient@CLogicServer@@QEAAPEAVCLogicSSClient@@XZ 0000000140048d90 f i BackStage.obj
 0001:00047db0       ?GetServerIndex@CLogicServer@@QEAAHXZ 0000000140048db0 f i BackStage.obj
 0001:00047dd0       ?GetDbClient@CLogicServer@@QEAAPEAVCDataClient@@XZ 0000000140048dd0 f i BackStage.obj
 0001:00047df0       ?GetTextProvider@CLogicServer@@QEAAAEAVCLanguageTextProvider@@XZ 0000000140048df0 f i BackStage.obj
 0001:00047e10       ?GetSpid@CLogicServer@@QEAA_JXZ 0000000140048e10 f i BackStage.obj
 0001:00047e30       ?SetChangeNameFlag@CLogicServer@@QEAAX_N@Z 0000000140048e30 f i BackStage.obj
 0001:00047e60       ?count@?$CBaseList@PEAD@container@wylib@@QEBA_JXZ 0000000140048e60 f i BackStage.obj
 0001:00047e80       ??B?$CBaseList@PEAD@container@wylib@@QEBAPEAPEADXZ 0000000140048e80 f i BackStage.obj
 0001:00047ea0       ?add@?$CBaseList@PEAX@container@wylib@@QEAA_JAEBQEAX@Z 0000000140048ea0 f i BackStage.obj
 0001:00047fa0       ?SetDataModifyFlag@?$CEntitySubSystem@$0DA@VCMagicItemSystem@@VCActor@@@@QEAAX_N@Z 0000000140048fa0 f i BackStage.obj
 0001:00047ff0       ?add@?$CBaseList@UtagFunctionName@@@container@wylib@@QEAA_JAEBUtagFunctionName@@@Z 0000000140048ff0 f i BackStage.obj
 0001:000480f0       ??0?$CLinkedListIterator@PEAVCActor@@@container@wylib@@QEAA@AEAV?$CBaseLinkedList@PEAVCActor@@@12@@Z 00000001400490f0 f i BackStage.obj
 0001:00048180       ??1?$CLinkedListIterator@PEAVCActor@@@container@wylib@@QEAA@XZ 0000000140049180 f i BackStage.obj
 0001:00048270       ?first@?$CLinkedListIterator@PEAVCActor@@@container@wylib@@QEAAPEAV?$CLinkedNode@PEAVCActor@@@23@XZ 0000000140049270 f i BackStage.obj
 0001:000482d0       ?next@?$CLinkedListIterator@PEAVCActor@@@container@wylib@@QEAAPEAV?$CLinkedNode@PEAVCActor@@@23@XZ 00000001400492d0 f i BackStage.obj
 0001:00048350       ?end@?$_Tree@V?$_Tmap_traits@HVEntityHandle@@U?$less@H@std@@V?$allocator@U?$pair@$$CBHVEntityHandle@@@std@@@3@$0A@@std@@@std@@QEAA?AV?$_Tree_iterator@V?$_Tree_val@V?$_Tmap_traits@HVEntityHandle@@U?$less@H@std@@V?$allocator@U?$pair@$$CBHVEntityHandle@@@std@@@3@$0A@@std@@@std@@@2@XZ 0000000140049350 f i BackStage.obj
 0001:000483b0       ?find@?$_Tree@V?$_Tmap_traits@HVEntityHandle@@U?$less@H@std@@V?$allocator@U?$pair@$$CBHVEntityHandle@@@std@@@3@$0A@@std@@@std@@QEAA?AV?$_Tree_iterator@V?$_Tree_val@V?$_Tmap_traits@HVEntityHandle@@U?$less@H@std@@V?$allocator@U?$pair@$$CBHVEntityHandle@@@std@@@3@$0A@@std@@@std@@@2@AEBH@Z 00000001400493b0 f i BackStage.obj
 0001:000485e0       ??C?$_Tree_iterator@V?$_Tree_val@V?$_Tmap_traits@HVEntityHandle@@U?$less@H@std@@V?$allocator@U?$pair@$$CBHVEntityHandle@@@std@@@3@$0A@@std@@@std@@@std@@QEBAPEAU?$pair@$$CBHVEntityHandle@@@1@XZ 00000001400495e0 f i BackStage.obj
 0001:00048620       ??8?$_Tree_const_iterator@V?$_Tree_val@V?$_Tmap_traits@HVEntityHandle@@U?$less@H@std@@V?$allocator@U?$pair@$$CBHVEntityHandle@@@std@@@3@$0A@@std@@@std@@@std@@QEBA_NAEBV01@@Z 0000000140049620 f i BackStage.obj
 0001:00048780       ?_Getcont@_Iterator_base12@std@@QEBAPEBU_Container_base12@2@XZ 0000000140049780 f i BackStage.obj
 0001:000487e0       ??B?$CLinkedNode@PEAVCActor@@@container@wylib@@QEAAAEAPEAVCActor@@XZ 00000001400497e0 f i BackStage.obj
 0001:000487f0       ?clear@?$_Tree@V?$_Tmap_traits@GIU?$less@G@std@@V?$allocator@U?$pair@$$CBGI@std@@@2@$0A@@std@@@std@@QEAAXXZ 00000001400497f0 f i BackStage.obj
 0001:000488c0       ??0?$_Tree_iterator@V?$_Tree_val@V?$_Tmap_traits@HVEntityHandle@@U?$less@H@std@@V?$allocator@U?$pair@$$CBHVEntityHandle@@@std@@@3@$0A@@std@@@std@@@std@@QEAA@AEBV01@@Z 00000001400498c0 f i BackStage.obj
 0001:00048910       ??0?$_Tree_const_iterator@V?$_Tree_val@V?$_Tmap_traits@HVEntityHandle@@U?$less@H@std@@V?$allocator@U?$pair@$$CBHVEntityHandle@@@std@@@3@$0A@@std@@@std@@@std@@QEAA@AEBV01@@Z 0000000140049910 f i BackStage.obj
 0001:00048960       ??0?$_Tree_unchecked_const_iterator@V?$_Tree_val@V?$_Tmap_traits@HVEntityHandle@@U?$less@H@std@@V?$allocator@U?$pair@$$CBHVEntityHandle@@@std@@@3@$0A@@std@@@std@@U_Iterator_base12@2@@std@@QEAA@AEBV01@@Z 0000000140049960 f i BackStage.obj
 0001:000489d0       ??0?$_Iterator012@Ubidirectional_iterator_tag@std@@U?$pair@$$CBHVEntityHandle@@@2@_JPEBU32@AEBU32@U_Iterator_base12@2@@std@@QEAA@AEBU01@@Z 00000001400499d0 f i BackStage.obj
 0001:00048a20       ??0_Iterator_base12@std@@QEAA@AEBU01@@Z 0000000140049a20 f i BackStage.obj
 0001:00048a90       ??4_Iterator_base12@std@@QEAAAEAU01@AEBU01@@Z 0000000140049a90 f i BackStage.obj
 0001:00048b00       ?_Adopt@_Iterator_base12@std@@QEAAXPEBU_Container_base12@2@@Z 0000000140049b00 f i BackStage.obj
 0001:00048be0       ?first@?$CBaseLinkedList@PEAVCActor@@@container@wylib@@QEAAPEAV?$CLinkedNode@PEAVCActor@@@23@XZ 0000000140049be0 f i BackStage.obj
 0001:00048c00       ?setList@?$CLinkedListIterator@PEAVCActor@@@container@wylib@@QEAAXAEAV?$CBaseLinkedList@PEAVCActor@@@23@@Z 0000000140049c00 f i BackStage.obj
 0001:00048cc0       ?lower_bound@?$_Tree@V?$_Tmap_traits@HVEntityHandle@@U?$less@H@std@@V?$allocator@U?$pair@$$CBHVEntityHandle@@@std@@@3@$0A@@std@@@std@@QEAA?AV?$_Tree_iterator@V?$_Tree_val@V?$_Tmap_traits@HVEntityHandle@@U?$less@H@std@@V?$allocator@U?$pair@$$CBHVEntityHandle@@@std@@@3@$0A@@std@@@std@@@2@AEBH@Z 0000000140049cc0 f i BackStage.obj
 0001:00048d30       ?_Key@?$_Tree_val@V?$_Tmap_traits@HVEntityHandle@@U?$less@H@std@@V?$allocator@U?$pair@$$CBHVEntityHandle@@@std@@@3@$0A@@std@@@std@@SAAEAHPEAU_Node@?$_Tree_nod@V?$_Tmap_traits@HVEntityHandle@@U?$less@H@std@@V?$allocator@U?$pair@$$CBHVEntityHandle@@@std@@@3@$0A@@std@@@2@@Z 0000000140049d30 f i BackStage.obj
 0001:00048d80       ??0?$_Tree_iterator@V?$_Tree_val@V?$_Tmap_traits@HVEntityHandle@@U?$less@H@std@@V?$allocator@U?$pair@$$CBHVEntityHandle@@@std@@@3@$0A@@std@@@std@@@std@@QEAA@PEAU_Node@?$_Tree_nod@V?$_Tmap_traits@HVEntityHandle@@U?$less@H@std@@V?$allocator@U?$pair@$$CBHVEntityHandle@@@std@@@3@$0A@@std@@@1@PEBV?$_Tree_val@V?$_Tmap_traits@HVEntityHandle@@U?$less@H@std@@V?$allocator@U?$pair@$$CBHVEntityHandle@@@std@@@3@$0A@@std@@@1@@Z 0000000140049d80 f i BackStage.obj
 0001:00048de0       ??D?$_Tree_iterator@V?$_Tree_val@V?$_Tmap_traits@HVEntityHandle@@U?$less@H@std@@V?$allocator@U?$pair@$$CBHVEntityHandle@@@std@@@3@$0A@@std@@@std@@@std@@QEBAAEAU?$pair@$$CBHVEntityHandle@@@1@XZ 0000000140049de0 f i BackStage.obj
 0001:00048e20       ?_Mynode@?$_Tree_unchecked_const_iterator@V?$_Tree_val@V?$_Tmap_traits@HVEntityHandle@@U?$less@H@std@@V?$allocator@U?$pair@$$CBHVEntityHandle@@@std@@@3@$0A@@std@@@std@@U_Iterator_base12@2@@std@@QEBAPEAU_Node@?$_Tree_nod@V?$_Tmap_traits@HVEntityHandle@@U?$less@H@std@@V?$allocator@U?$pair@$$CBHVEntityHandle@@@std@@@3@$0A@@std@@@2@XZ 0000000140049e20 f i BackStage.obj
 0001:00048e40       ?_Erase@?$_Tree@V?$_Tmap_traits@GIU?$less@G@std@@V?$allocator@U?$pair@$$CBGI@std@@@2@$0A@@std@@@std@@IEAAXPEAU_Node@?$_Tree_nod@V?$_Tmap_traits@GIU?$less@G@std@@V?$allocator@U?$pair@$$CBGI@std@@@2@$0A@@std@@@2@@Z 0000000140049e40 f i BackStage.obj
 0001:00048f30       ?_Lmost@?$_Tree@V?$_Tmap_traits@GIU?$less@G@std@@V?$allocator@U?$pair@$$CBGI@std@@@2@$0A@@std@@@std@@IEBAAEAPEAU_Node@?$_Tree_nod@V?$_Tmap_traits@GIU?$less@G@std@@V?$allocator@U?$pair@$$CBGI@std@@@2@$0A@@std@@@2@XZ 0000000140049f30 f i BackStage.obj
 0001:00048f70       ?_Rmost@?$_Tree@V?$_Tmap_traits@GIU?$less@G@std@@V?$allocator@U?$pair@$$CBGI@std@@@2@$0A@@std@@@std@@IEBAAEAPEAU_Node@?$_Tree_nod@V?$_Tmap_traits@GIU?$less@G@std@@V?$allocator@U?$pair@$$CBGI@std@@@2@$0A@@std@@@2@XZ 0000000140049f70 f i BackStage.obj
 0001:00048fb0       ?_Root@?$_Tree@V?$_Tmap_traits@GIU?$less@G@std@@V?$allocator@U?$pair@$$CBGI@std@@@2@$0A@@std@@@std@@IEBAAEAPEAU_Node@?$_Tree_nod@V?$_Tmap_traits@GIU?$less@G@std@@V?$allocator@U?$pair@$$CBGI@std@@@2@$0A@@std@@@2@XZ 0000000140049fb0 f i BackStage.obj
 0001:00048ff0       ?_Orphan_ptr@?$_Tree@V?$_Tmap_traits@GIU?$less@G@std@@V?$allocator@U?$pair@$$CBGI@std@@@2@$0A@@std@@@std@@IEBAXAEAV12@PEAU_Node@?$_Tree_nod@V?$_Tmap_traits@GIU?$less@G@std@@V?$allocator@U?$pair@$$CBGI@std@@@2@$0A@@std@@@2@@Z 0000000140049ff0 f i BackStage.obj
 0001:00049120       ?_Clrcont@_Iterator_base12@std@@QEAAXXZ 000000014004a120 f i BackStage.obj
 0001:00049140       ?_Getpnext@_Iterator_base12@std@@QEAAPEAPEAU12@XZ 000000014004a140 f i BackStage.obj
 0001:00049160       ??_G?$CLinkedListIterator@PEAVCActor@@@container@wylib@@QEAAPEAXI@Z 000000014004a160 f i BackStage.obj
 0001:000491c0       ?_Lbound@?$_Tree@V?$_Tmap_traits@HVEntityHandle@@U?$less@H@std@@V?$allocator@U?$pair@$$CBHVEntityHandle@@@std@@@3@$0A@@std@@@std@@IEAAPEAU_Node@?$_Tree_nod@V?$_Tmap_traits@HVEntityHandle@@U?$less@H@std@@V?$allocator@U?$pair@$$CBHVEntityHandle@@@std@@@3@$0A@@std@@@2@AEBH@Z 000000014004a1c0 f i BackStage.obj
 0001:000492c0       ?_Myval@?$_Tree_val@V?$_Tmap_traits@HVEntityHandle@@U?$less@H@std@@V?$allocator@U?$pair@$$CBHVEntityHandle@@@std@@@3@$0A@@std@@@std@@SAAEAU?$pair@$$CBHVEntityHandle@@@2@PEAU_Node@?$_Tree_nod@V?$_Tmap_traits@HVEntityHandle@@U?$less@H@std@@V?$allocator@U?$pair@$$CBHVEntityHandle@@@std@@@3@$0A@@std@@@2@@Z 000000014004a2c0 f i BackStage.obj
 0001:000492e0       ??0?$_Tree_const_iterator@V?$_Tree_val@V?$_Tmap_traits@HVEntityHandle@@U?$less@H@std@@V?$allocator@U?$pair@$$CBHVEntityHandle@@@std@@@3@$0A@@std@@@std@@@std@@QEAA@PEAU_Node@?$_Tree_nod@V?$_Tmap_traits@HVEntityHandle@@U?$less@H@std@@V?$allocator@U?$pair@$$CBHVEntityHandle@@@std@@@3@$0A@@std@@@1@PEBV?$_Tree_val@V?$_Tmap_traits@HVEntityHandle@@U?$less@H@std@@V?$allocator@U?$pair@$$CBHVEntityHandle@@@std@@@3@$0A@@std@@@1@@Z 000000014004a2e0 f i BackStage.obj
 0001:00049340       ??D?$_Tree_const_iterator@V?$_Tree_val@V?$_Tmap_traits@HVEntityHandle@@U?$less@H@std@@V?$allocator@U?$pair@$$CBHVEntityHandle@@@std@@@3@$0A@@std@@@std@@@std@@QEBAAEBU?$pair@$$CBHVEntityHandle@@@1@XZ 000000014004a340 f i BackStage.obj
 0001:00049470       ?_Isnil@?$_Tree_val@V?$_Tmap_traits@GIU?$less@G@std@@V?$allocator@U?$pair@$$CBGI@std@@@2@$0A@@std@@@std@@SAAEADPEAU_Node@?$_Tree_nod@V?$_Tmap_traits@GIU?$less@G@std@@V?$allocator@U?$pair@$$CBGI@std@@@2@$0A@@std@@@2@@Z 000000014004a470 f i BackStage.obj
 0001:00049490       ?_Left@?$_Tree_val@V?$_Tmap_traits@GIU?$less@G@std@@V?$allocator@U?$pair@$$CBGI@std@@@2@$0A@@std@@@std@@SAAEAPEAU_Node@?$_Tree_nod@V?$_Tmap_traits@GIU?$less@G@std@@V?$allocator@U?$pair@$$CBGI@std@@@2@$0A@@std@@@2@PEAU342@@Z 000000014004a490 f i BackStage.obj
 0001:000494a0       ?_Parent@?$_Tree_val@V?$_Tmap_traits@GIU?$less@G@std@@V?$allocator@U?$pair@$$CBGI@std@@@2@$0A@@std@@@std@@SAAEAPEAU_Node@?$_Tree_nod@V?$_Tmap_traits@GIU?$less@G@std@@V?$allocator@U?$pair@$$CBGI@std@@@2@$0A@@std@@@2@PEAU342@@Z 000000014004a4a0 f i BackStage.obj
 0001:000494c0       ?_Right@?$_Tree_val@V?$_Tmap_traits@GIU?$less@G@std@@V?$allocator@U?$pair@$$CBGI@std@@@2@$0A@@std@@@std@@SAAEAPEAU_Node@?$_Tree_nod@V?$_Tmap_traits@GIU?$less@G@std@@V?$allocator@U?$pair@$$CBGI@std@@@2@$0A@@std@@@2@PEAU342@@Z 000000014004a4c0 f i BackStage.obj
 0001:000494e0       ?_Myval@?$_Tree_val@V?$_Tmap_traits@GIU?$less@G@std@@V?$allocator@U?$pair@$$CBGI@std@@@2@$0A@@std@@@std@@SAAEAU?$pair@$$CBGI@2@PEAU_Node@?$_Tree_nod@V?$_Tmap_traits@GIU?$less@G@std@@V?$allocator@U?$pair@$$CBGI@std@@@2@$0A@@std@@@2@@Z 000000014004a4e0 f i BackStage.obj
 0001:00049500       ?deallocate@?$allocator@U_Node@?$_Tree_nod@V?$_Tmap_traits@GIU?$less@G@std@@V?$allocator@U?$pair@$$CBGI@std@@@2@$0A@@std@@@std@@@std@@QEAAXPEAU_Node@?$_Tree_nod@V?$_Tmap_traits@GIU?$less@G@std@@V?$allocator@U?$pair@$$CBGI@std@@@2@$0A@@std@@@2@_K@Z 000000014004a500 f i BackStage.obj
 0001:00049550       ?_Root@?$_Tree@V?$_Tmap_traits@HVEntityHandle@@U?$less@H@std@@V?$allocator@U?$pair@$$CBHVEntityHandle@@@std@@@3@$0A@@std@@@std@@IEBAAEAPEAU_Node@?$_Tree_nod@V?$_Tmap_traits@HVEntityHandle@@U?$less@H@std@@V?$allocator@U?$pair@$$CBHVEntityHandle@@@std@@@3@$0A@@std@@@2@XZ 000000014004a550 f i BackStage.obj
 0001:00049590       ?_Isnil@?$_Tree_val@V?$_Tmap_traits@HVEntityHandle@@U?$less@H@std@@V?$allocator@U?$pair@$$CBHVEntityHandle@@@std@@@3@$0A@@std@@@std@@SAAEADPEAU_Node@?$_Tree_nod@V?$_Tmap_traits@HVEntityHandle@@U?$less@H@std@@V?$allocator@U?$pair@$$CBHVEntityHandle@@@std@@@3@$0A@@std@@@2@@Z 000000014004a590 f i BackStage.obj
 0001:000495b0       ?_Left@?$_Tree_val@V?$_Tmap_traits@HVEntityHandle@@U?$less@H@std@@V?$allocator@U?$pair@$$CBHVEntityHandle@@@std@@@3@$0A@@std@@@std@@SAAEAPEAU_Node@?$_Tree_nod@V?$_Tmap_traits@HVEntityHandle@@U?$less@H@std@@V?$allocator@U?$pair@$$CBHVEntityHandle@@@std@@@3@$0A@@std@@@2@PEAU342@@Z 000000014004a5b0 f i BackStage.obj
 0001:000495c0       ?_Right@?$_Tree_val@V?$_Tmap_traits@HVEntityHandle@@U?$less@H@std@@V?$allocator@U?$pair@$$CBHVEntityHandle@@@std@@@3@$0A@@std@@@std@@SAAEAPEAU_Node@?$_Tree_nod@V?$_Tmap_traits@HVEntityHandle@@U?$less@H@std@@V?$allocator@U?$pair@$$CBHVEntityHandle@@@std@@@3@$0A@@std@@@2@PEAU342@@Z 000000014004a5c0 f i BackStage.obj
 0001:000495e0       ??0?$_Tree_unchecked_const_iterator@V?$_Tree_val@V?$_Tmap_traits@HVEntityHandle@@U?$less@H@std@@V?$allocator@U?$pair@$$CBHVEntityHandle@@@std@@@3@$0A@@std@@@std@@U_Iterator_base12@2@@std@@QEAA@PEAU_Node@?$_Tree_nod@V?$_Tmap_traits@HVEntityHandle@@U?$less@H@std@@V?$allocator@U?$pair@$$CBHVEntityHandle@@@std@@@3@$0A@@std@@@1@PEBV?$_Tree_val@V?$_Tmap_traits@HVEntityHandle@@U?$less@H@std@@V?$allocator@U?$pair@$$CBHVEntityHandle@@@std@@@3@$0A@@std@@@1@@Z 000000014004a5e0 f i BackStage.obj
 0001:00049650       ??0?$_Iterator012@Ubidirectional_iterator_tag@std@@U?$pair@$$CBHVEntityHandle@@@2@_JPEBU32@AEBU32@U_Iterator_base12@2@@std@@QEAA@XZ 000000014004a650 f i BackStage.obj
 0001:00049690       ??0_Iterator_base12@std@@QEAA@XZ 000000014004a690 f i BackStage.obj
 0001:000496c0       ?_Parent@?$_Tree_val@V?$_Tmap_traits@HVEntityHandle@@U?$less@H@std@@V?$allocator@U?$pair@$$CBHVEntityHandle@@@std@@@3@$0A@@std@@@std@@SAAEAPEAU_Node@?$_Tree_nod@V?$_Tmap_traits@HVEntityHandle@@U?$less@H@std@@V?$allocator@U?$pair@$$CBHVEntityHandle@@@std@@@3@$0A@@std@@@2@PEAU342@@Z 000000014004a6c0 f i BackStage.obj
 0001:000496e0       ??$rawReadStringLen@PEADG@CDataPacketReader@@IEAA_KPEAD_K@Z 000000014004a6e0 f i BackStage.obj
 0001:00049900       ??$rawWriteStringLen@G@CDataPacket@@IEAAXPEBD_K@Z 000000014004a900 f i BackStage.obj
 0001:000499c0       ??$?6G@CDataPacket@@QEAAAEAV0@G@Z 000000014004a9c0 f i BackStage.obj
 0001:00049a40       ??$_Debug_lt_pred@U?$less@H@std@@HH@std@@YA_NU?$less@H@0@AEBHAEAHPEB_WI@Z 000000014004aa40 f i BackStage.obj
 0001:00049af0       ??R?$less@H@std@@QEBA_NAEBH0@Z 000000014004aaf0 f i BackStage.obj
 0001:00049b60       ??$_Kfn@$$CBHVEntityHandle@@@?$_Tmap_traits@HVEntityHandle@@U?$less@H@std@@V?$allocator@U?$pair@$$CBHVEntityHandle@@@std@@@3@$0A@@std@@SAAEBHAEBU?$pair@$$CBHVEntityHandle@@@1@@Z 000000014004ab60 f i BackStage.obj
 0001:00049b70       ??$addressof@U?$pair@$$CBGI@std@@@std@@YAPEAU?$pair@$$CBGI@0@AEAU10@@Z 000000014004ab70 f i BackStage.obj
 0001:00049b80       ??$_Dest_val@V?$allocator@U?$pair@$$CBGI@std@@@std@@U?$pair@$$CBGI@2@@std@@YAXAEAV?$allocator@U?$pair@$$CBGI@std@@@0@PEAU?$pair@$$CBGI@0@@Z 000000014004ab80 f i BackStage.obj
 0001:00049bd0       ??$_Debug_lt_pred@U?$less@H@std@@HH@std@@YA_NU?$less@H@0@AEAHAEBHPEB_WI@Z 000000014004abd0 f i BackStage.obj
 0001:00049c80       ?destroy@?$allocator@U?$pair@$$CBGI@std@@@std@@QEAAXPEAU?$pair@$$CBGI@2@@Z 000000014004ac80 f i BackStage.obj
 0001:00049cc0       ??$writeAtom@G@CDataPacket@@QEAAXG@Z 000000014004acc0 f i BackStage.obj
 0001:00049db0       ??$writeAtom@D@CDataPacket@@QEAAXD@Z 000000014004adb0 f i BackStage.obj
 0001:00049ea0       ??$_Destroy@U?$pair@$$CBGI@std@@@std@@YAXPEAU?$pair@$$CBGI@0@@Z 000000014004aea0 f i BackStage.obj
 0001:00049eb0       ??1CActorDataPacketStat@@QEAA@XZ 000000014004aeb0 f   ActorDataPacketStat.obj
 0001:00049f50       ?AddRecord@CActorDataPacketStat@@QEAAXAEBVCDataPacketRecord@@@Z 000000014004af50 f   ActorDataPacketStat.obj
 0001:00049fd0       ?AddRecord@CActorDataPacketStat@@QEAAXEEG_J@Z 000000014004afd0 f   ActorDataPacketStat.obj
 0001:0004a040       ?Clear@CActorDataPacketStat@@QEAAXXZ 000000014004b040 f   ActorDataPacketStat.obj
 0001:0004a0c0       ?WriteToFile@CActorDataPacketStat@@QEAAXPEAVCActor@@@Z 000000014004b0c0 f   ActorDataPacketStat.obj
 0001:0004a150       ?WriteToStream@CActorDataPacketStat@@IEAAXAEAVCBaseStream@stream@wylib@@PEAVCActor@@@Z 000000014004b150 f   ActorDataPacketStat.obj
 0001:0004a480       ?ClearRecords@CActorDataPacketStat@@QEAAXXZ 000000014004b480 f   ActorDataPacketStat.obj
 0001:0004a4e0       ?AddAllRecord@CActorDataPacketStat@@QEAAXEEG_JPEADHH@Z 000000014004b4e0 f   ActorDataPacketStat.obj
 0001:0004a710       ?WriteRecordToFile@CActorDataPacketStat@@QEAAXXZ 000000014004b710 f   ActorDataPacketStat.obj
 0001:0004a7c0       ?WriteRecordToStream@CActorDataPacketStat@@IEAAXAEAVCBaseStream@stream@wylib@@@Z 000000014004b7c0 f   ActorDataPacketStat.obj
 0001:0004b120       ?count@?$CBaseList@PEAVCDataPacketRecord@@@container@wylib@@QEBA_JXZ 000000014004c120 f i ActorDataPacketStat.obj
 0001:0004b140       ?add@?$CBaseList@PEAVCDataPacketRecord@@@container@wylib@@QEAA_JAEBQEAVCDataPacketRecord@@@Z 000000014004c140 f i ActorDataPacketStat.obj
 0001:0004b240       ??B?$CBaseList@PEAVCDataPacketRecord@@@container@wylib@@QEBAPEAPEAVCDataPacketRecord@@XZ 000000014004c240 f i ActorDataPacketStat.obj
 0001:0004b260       ?count@?$CBaseList@UtagDataPacketRecord@@@container@wylib@@QEBA_JXZ 000000014004c260 f i ActorDataPacketStat.obj
 0001:0004b280       ?add@?$CBaseList@UtagDataPacketRecord@@@container@wylib@@QEAA_JAEBUtagDataPacketRecord@@@Z 000000014004c280 f i ActorDataPacketStat.obj
 0001:0004b380       ??B?$CBaseList@UtagDataPacketRecord@@@container@wylib@@QEBAPEAUtagDataPacketRecord@@XZ 000000014004c380 f i ActorDataPacketStat.obj
 0001:0004b3a0       ??$GetDateTimeDesc@$0BAA@@CUtility@@SAXAEAY0BAA@DPEBD@Z 000000014004c3a0 f i ActorDataPacketStat.obj
 0001:0004b440       ??0CDataPacketRecord@@QEAA@EEG_J@Z 000000014004c440 f i ActorDataPacketStat.obj
 0001:0004b4c0       ?SetData@CDataPacketRecord@@QEAAXAEBV1@@Z 000000014004c4c0 f i ActorDataPacketStat.obj
 0001:0004b520       ??0tagDataPacketRecord@@QEAA@XZ 000000014004c520 f i ActorDataPacketStat.obj
 0001:0004b570       ?AllocRecord@CActorDataPacketStatAlloc@@QEAAPEAVCDataPacketRecord@@XZ 000000014004c570 f i ActorDataPacketStat.obj
 0001:0004b610       ?FreeRecord@CActorDataPacketStatAlloc@@QEAAXPEBVCDataPacketRecord@@@Z 000000014004c610 f i ActorDataPacketStat.obj
 0001:0004b680       ??0?$Handle@I@@QEAA@XZ     000000014004c680 f i ActorDataPacketStat.obj
 0001:0004b6a0       ??0?$Handle@I@@QEAA@I@Z    000000014004c6a0 f i ActorDataPacketStat.obj
 0001:0004b6d0       ??B?$Handle@I@@QEBAIXZ     000000014004c6d0 f i ActorDataPacketStat.obj
 0001:0004b6f0       ??1?$CBaseList@PEAVCDataPacketRecord@@@container@wylib@@UEAA@XZ 000000014004c6f0 f i ActorDataPacketStat.obj
 0001:0004b740       ?empty@?$CBaseList@PEAVCDataPacketRecord@@@container@wylib@@UEAAXXZ 000000014004c740 f i ActorDataPacketStat.obj
 0001:0004b7c0       ?reserve@?$CBaseList@PEAVCDataPacketRecord@@@container@wylib@@UEAAX_J@Z 000000014004c7c0 f i ActorDataPacketStat.obj
 0001:0004b860       ??_E?$CBaseList@PEAVCDataPacketRecord@@@container@wylib@@UEAAPEAXI@Z 000000014004c860 f i ActorDataPacketStat.obj
 0001:0004b860       ??_G?$CBaseList@PEAVCDataPacketRecord@@@container@wylib@@UEAAPEAXI@Z 000000014004c860 f i ActorDataPacketStat.obj
 0001:0004b8c0       ?clear@?$CBaseList@PEAVCDataPacketRecord@@@container@wylib@@QEAAXXZ 000000014004c8c0 f i ActorDataPacketStat.obj
 0001:0004b8e0       ?clear@?$CBaseList@UtagDataPacketRecord@@@container@wylib@@QEAAXXZ 000000014004c8e0 f i ActorDataPacketStat.obj
 0001:0004b900       ?Acquire@?$HandleMgr@VCDataPacketRecord@@V?$Handle@I@@$0EAA@@@QEAAPEAVCDataPacketRecord@@AEAV?$Handle@I@@@Z 000000014004c900 f i ActorDataPacketStat.obj
 0001:0004c200       ??0CDataPacketRecord@@QEAA@XZ 000000014004d200 f i ActorDataPacketStat.obj
 0001:0004c210       ??1?$CBaseList@V?$Handle@I@@@container@wylib@@UEAA@XZ 000000014004d210 f i ActorDataPacketStat.obj
 0001:0004c260       ?empty@?$CBaseList@V?$Handle@I@@@container@wylib@@UEAAXXZ 000000014004d260 f i ActorDataPacketStat.obj
 0001:0004c2e0       ?reserve@?$CBaseList@V?$Handle@I@@@container@wylib@@UEAAX_J@Z 000000014004d2e0 f i ActorDataPacketStat.obj
 0001:0004c380       ??B?$CBaseList@V?$Handle@I@@@container@wylib@@QEBAPEAV?$Handle@I@@XZ 000000014004d380 f i ActorDataPacketStat.obj
 0001:0004c3a0       ??_G?$CBaseList@V?$Handle@I@@@container@wylib@@UEAAPEAXI@Z 000000014004d3a0 f i ActorDataPacketStat.obj
 0001:0004c3a0       ??_E?$CBaseList@V?$Handle@I@@@container@wylib@@UEAAPEAXI@Z 000000014004d3a0 f i ActorDataPacketStat.obj
 0001:0004c400       ?clear@?$CBaseList@V?$Handle@I@@@container@wylib@@QEAAXXZ 000000014004d400 f i ActorDataPacketStat.obj
 0001:0004c420       ??1?$CBaseList@VCDataPacketRecord@@@container@wylib@@UEAA@XZ 000000014004d420 f i ActorDataPacketStat.obj
 0001:0004c470       ?empty@?$CBaseList@VCDataPacketRecord@@@container@wylib@@UEAAXXZ 000000014004d470 f i ActorDataPacketStat.obj
 0001:0004c4f0       ?reserve@?$CBaseList@VCDataPacketRecord@@@container@wylib@@UEAAX_J@Z 000000014004d4f0 f i ActorDataPacketStat.obj
 0001:0004c590       ??_G?$CBaseList@VCDataPacketRecord@@@container@wylib@@UEAAPEAXI@Z 000000014004d590 f i ActorDataPacketStat.obj
 0001:0004c590       ??_E?$CBaseList@VCDataPacketRecord@@@container@wylib@@UEAAPEAXI@Z 000000014004d590 f i ActorDataPacketStat.obj
 0001:0004c5f0       ?clear@?$CBaseList@VCDataPacketRecord@@@container@wylib@@QEAAXXZ 000000014004d5f0 f i ActorDataPacketStat.obj
 0001:0004c610       ?Release@?$HandleMgr@VCDataPacketRecord@@V?$Handle@I@@$0EAA@@@QEAAXV?$Handle@I@@@Z 000000014004d610 f i ActorDataPacketStat.obj
 0001:0004c8b0       ?Init@?$Handle@I@@QEAAXI@Z 000000014004d8b0 f i ActorDataPacketStat.obj
 0001:0004c9f0       ?GetIndex@?$Handle@I@@QEBAIXZ 000000014004d9f0 f i ActorDataPacketStat.obj
 0001:0004ca10       ?GetMagic@?$Handle@I@@QEBAIXZ 000000014004da10 f i ActorDataPacketStat.obj
 0001:0004ca30       ?IsNull@?$Handle@I@@QEBA_NXZ 000000014004da30 f i ActorDataPacketStat.obj
 0001:0004ca90       ?GetMaxIndex@?$Handle@I@@QEAAIXZ 000000014004da90 f i ActorDataPacketStat.obj
 0001:0004caa0       ??0?$CBaseList@V?$Handle@I@@@container@wylib@@QEAA@XZ 000000014004daa0 f i ActorDataPacketStat.obj
 0001:0004cb00       ?trunc@?$CBaseList@V?$Handle@I@@@container@wylib@@QEAAX_J@Z 000000014004db00 f i ActorDataPacketStat.obj
 0001:0004cb90       ?GetUsedHandleCount@?$HandleMgr@VCDataPacketRecord@@V?$Handle@I@@$0EAA@@@QEBAIXZ 000000014004db90 f i ActorDataPacketStat.obj
 0001:0004cbb0       ?GetTotalHandleCount@?$HandleMgr@VCDataPacketRecord@@V?$Handle@I@@$0EAA@@@QEAAIXZ 000000014004dbb0 f i ActorDataPacketStat.obj
 0001:0004cc00       ?GetChunkIdPos@?$HandleMgr@VCDataPacketRecord@@V?$Handle@I@@$0EAA@@@QEAAXIAEAI0@Z 000000014004dc00 f i ActorDataPacketStat.obj
 0001:0004cc50       ?count@?$CBaseList@V?$CBaseList@VCDataPacketRecord@@@container@wylib@@@container@wylib@@QEBA_JXZ 000000014004dc50 f i ActorDataPacketStat.obj
 0001:0004cc70       ?addArray@?$CBaseList@V?$CBaseList@VCDataPacketRecord@@@container@wylib@@@container@wylib@@QEAAXPEAV?$CBaseList@VCDataPacketRecord@@@23@_J@Z 000000014004dc70 f i ActorDataPacketStat.obj
 0001:0004cd60       ??B?$CBaseList@V?$CBaseList@VCDataPacketRecord@@@container@wylib@@@container@wylib@@QEBAPEAV?$CBaseList@VCDataPacketRecord@@@12@XZ 000000014004dd60 f i ActorDataPacketStat.obj
 0001:0004cd80       ?count@?$CBaseList@V?$CBaseList@V?$Handle@I@@@container@wylib@@@container@wylib@@QEBA_JXZ 000000014004dd80 f i ActorDataPacketStat.obj
 0001:0004cda0       ?addArray@?$CBaseList@V?$CBaseList@V?$Handle@I@@@container@wylib@@@container@wylib@@QEAAXPEAV?$CBaseList@V?$Handle@I@@@23@_J@Z 000000014004dda0 f i ActorDataPacketStat.obj
 0001:0004ce90       ??B?$CBaseList@V?$CBaseList@V?$Handle@I@@@container@wylib@@@container@wylib@@QEBAPEAV?$CBaseList@V?$Handle@I@@@12@XZ 000000014004de90 f i ActorDataPacketStat.obj
 0001:0004ceb0       ??0?$CBaseList@VCDataPacketRecord@@@container@wylib@@QEAA@XZ 000000014004deb0 f i ActorDataPacketStat.obj
 0001:0004cf10       ?trunc@?$CBaseList@VCDataPacketRecord@@@container@wylib@@QEAAX_J@Z 000000014004df10 f i ActorDataPacketStat.obj
 0001:0004cfa0       ??B?$CBaseList@VCDataPacketRecord@@@container@wylib@@QEBAPEAVCDataPacketRecord@@XZ 000000014004dfa0 f i ActorDataPacketStat.obj
 0001:0004cfc0       ?IncMagicNumImpl@?$Handle@I@@IEAAXAEAI@Z 000000014004dfc0 f i ActorDataPacketStat.obj
 0001:0004d010       ??0CActorDataPacketStatAlloc@@QEAA@XZ 000000014004e010 f   ActorDataPacketStatAlloc.obj
 0001:0004d060       ??0?$HandleMgr@VCDataPacketRecord@@V?$Handle@I@@$0EAA@@@QEAA@PEBD@Z 000000014004e060 f i ActorDataPacketStatAlloc.obj
 0001:0004d130       ??0?$CBaseList@V?$CBaseList@VCDataPacketRecord@@@container@wylib@@@container@wylib@@QEAA@XZ 000000014004e130 f i ActorDataPacketStatAlloc.obj
 0001:0004d190       ??0?$CBaseList@V?$CBaseList@V?$Handle@I@@@container@wylib@@@container@wylib@@QEAA@XZ 000000014004e190 f i ActorDataPacketStatAlloc.obj
 0001:0004d1f0       ??0HandleMgrStat@@QEAA@PEBD_J@Z 000000014004e1f0 f i ActorDataPacketStatAlloc.obj
 0001:0004d330       ?getSingleton@HandleMgrCollector@@SAAEAV1@XZ 000000014004e330 f i ActorDataPacketStatAlloc.obj
 0001:0004d3a0       ??0HandleMgrCollector@@QEAA@XZ 000000014004e3a0 f i ActorDataPacketStatAlloc.obj
 0001:0004d3e0       ??1HandleMgrCollector@@QEAA@XZ 000000014004e3e0 f i ActorDataPacketStatAlloc.obj
 0001:0004d420       ??0?$CBaseLinkedList@PEBVHandleMgrStat@@@container@wylib@@QEAA@XZ 000000014004e420 f i ActorDataPacketStatAlloc.obj
 0001:0004d490       ??1?$CBaseLinkedList@PEBVHandleMgrStat@@@container@wylib@@UEAA@XZ 000000014004e490 f i ActorDataPacketStatAlloc.obj
 0001:0004d4e0       ?clear@?$CBaseLinkedList@PEBVHandleMgrStat@@@container@wylib@@UEAAXXZ 000000014004e4e0 f i ActorDataPacketStatAlloc.obj
 0001:0004d5a0       ?allocNode@?$CBaseLinkedList@PEBVHandleMgrStat@@@container@wylib@@MEAAPEAV?$CLinkedNode@PEBVHandleMgrStat@@@23@XZ 000000014004e5a0 f i ActorDataPacketStatAlloc.obj
 0001:0004d610       ?freeNode@?$CBaseLinkedList@PEBVHandleMgrStat@@@container@wylib@@MEAAXPEAV?$CLinkedNode@PEBVHandleMgrStat@@@23@@Z 000000014004e610 f i ActorDataPacketStatAlloc.obj
 0001:0004d690       ?empty@?$CBaseList@V?$CBaseList@VCDataPacketRecord@@@container@wylib@@@container@wylib@@UEAAXXZ 000000014004e690 f i ActorDataPacketStatAlloc.obj
 0001:0004d710       ?reserve@?$CBaseList@V?$CBaseList@VCDataPacketRecord@@@container@wylib@@@container@wylib@@UEAAX_J@Z 000000014004e710 f i ActorDataPacketStatAlloc.obj
 0001:0004d7b0       ?empty@?$CBaseList@V?$CBaseList@V?$Handle@I@@@container@wylib@@@container@wylib@@UEAAXXZ 000000014004e7b0 f i ActorDataPacketStatAlloc.obj
 0001:0004d830       ?reserve@?$CBaseList@V?$CBaseList@V?$Handle@I@@@container@wylib@@@container@wylib@@UEAAX_J@Z 000000014004e830 f i ActorDataPacketStatAlloc.obj
 0001:0004d8d0       ??_E?$CBaseLinkedList@PEBVHandleMgrStat@@@container@wylib@@UEAAPEAXI@Z 000000014004e8d0 f i ActorDataPacketStatAlloc.obj
 0001:0004d8d0       ??_G?$CBaseLinkedList@PEBVHandleMgrStat@@@container@wylib@@UEAAPEAXI@Z 000000014004e8d0 f i ActorDataPacketStatAlloc.obj
 0001:0004d930       ??0?$CLinkedNode@PEBVHandleMgrStat@@@container@wylib@@QEAA@XZ 000000014004e930 f i ActorDataPacketStatAlloc.obj
 0001:0004d970       ??_G?$CLinkedNode@PEBVHandleMgrStat@@@container@wylib@@QEAAPEAXI@Z 000000014004e970 f i ActorDataPacketStatAlloc.obj
 0001:0004d9d0       ??_E?$CBaseList@V?$CBaseList@VCDataPacketRecord@@@container@wylib@@@container@wylib@@UEAAPEAXI@Z 000000014004e9d0 f i ActorDataPacketStatAlloc.obj
 0001:0004d9d0       ??_G?$CBaseList@V?$CBaseList@VCDataPacketRecord@@@container@wylib@@@container@wylib@@UEAAPEAXI@Z 000000014004e9d0 f i ActorDataPacketStatAlloc.obj
 0001:0004da30       ??1?$CBaseList@V?$CBaseList@VCDataPacketRecord@@@container@wylib@@@container@wylib@@UEAA@XZ 000000014004ea30 f i ActorDataPacketStatAlloc.obj
 0001:0004da80       ??_G?$CBaseList@V?$CBaseList@V?$Handle@I@@@container@wylib@@@container@wylib@@UEAAPEAXI@Z 000000014004ea80 f i ActorDataPacketStatAlloc.obj
 0001:0004da80       ??_E?$CBaseList@V?$CBaseList@V?$Handle@I@@@container@wylib@@@container@wylib@@UEAAPEAXI@Z 000000014004ea80 f i ActorDataPacketStatAlloc.obj
 0001:0004dae0       ??1?$CBaseList@V?$CBaseList@V?$Handle@I@@@container@wylib@@@container@wylib@@UEAA@XZ 000000014004eae0 f i ActorDataPacketStatAlloc.obj
 0001:0004db30       ??1?$CLinkedNode@PEBVHandleMgrStat@@@container@wylib@@QEAA@XZ 000000014004eb30 f i ActorDataPacketStatAlloc.obj
 0001:0004db70       ?clear@?$CBaseList@V?$CBaseList@VCDataPacketRecord@@@container@wylib@@@container@wylib@@QEAAXXZ 000000014004eb70 f i ActorDataPacketStatAlloc.obj
 0001:0004db90       ?clear@?$CBaseList@V?$CBaseList@V?$Handle@I@@@container@wylib@@@container@wylib@@QEAAXXZ 000000014004eb90 f i ActorDataPacketStatAlloc.obj
 0001:0004dbb0       ??0?$Counter@V?$CLinkedNode@PEBVHandleMgrStat@@@container@wylib@@@@QEAA@XZ 000000014004ebb0 f i ActorDataPacketStatAlloc.obj
 0001:0004dbf0       ??1?$Counter@V?$CLinkedNode@PEBVHandleMgrStat@@@container@wylib@@@@QEAA@XZ 000000014004ebf0 f i ActorDataPacketStatAlloc.obj
 0001:0004dc10       ?addToStat@?$Counter@V?$CLinkedNode@PEBVHandleMgrStat@@@container@wylib@@@@IEAAXXZ 000000014004ec10 f i ActorDataPacketStatAlloc.obj
 0001:0004dcb0       ?getCount@?$Counter@V?$CLinkedNode@PEBVHandleMgrStat@@@container@wylib@@@@SA_KXZ 000000014004ecb0 f i ActorDataPacketStatAlloc.obj
 0001:0004dcc0       ??0?$CBaseList@I@container@wylib@@QEAA@XZ 000000014004ecc0 f i ActorDataPacketStatAlloc.obj
 0001:0004dd20       ?empty@?$CBaseList@I@container@wylib@@UEAAXXZ 000000014004ed20 f i ActorDataPacketStatAlloc.obj
 0001:0004dda0       ?clear@?$CBaseList@I@container@wylib@@QEAAXXZ 000000014004eda0 f i ActorDataPacketStatAlloc.obj
 0001:0004ddc0       ?reserve@?$CBaseList@I@container@wylib@@UEAAX_J@Z 000000014004edc0 f i ActorDataPacketStatAlloc.obj
 0001:0004de60       ??_G?$CBaseList@I@container@wylib@@UEAAPEAXI@Z 000000014004ee60 f i ActorDataPacketStatAlloc.obj
 0001:0004de60       ??_E?$CBaseList@I@container@wylib@@UEAAPEAXI@Z 000000014004ee60 f i ActorDataPacketStatAlloc.obj
 0001:0004dec0       ??1?$CBaseList@I@container@wylib@@UEAA@XZ 000000014004eec0 f i ActorDataPacketStatAlloc.obj
 0001:0004df10       ??0CAnniversaryComponet@@QEAA@XZ 000000014004ef10 f   AnniversaryMgr.obj
 0001:0004e0b0       ??1CAnniversaryComponet@@UEAA@XZ 000000014004f0b0 f   AnniversaryMgr.obj
 0001:0004e140       ?Load@CAnniversaryComponet@@QEAAXXZ 000000014004f140 f   AnniversaryMgr.obj
 0001:0004ebf0       ?LoadAnniversaryRank@CAnniversaryComponet@@QEAAXXZ 000000014004fbf0 f   AnniversaryMgr.obj
 0001:0004f180       ?RunOne@CAnniversaryComponet@@QEAAXAEAUCMiniDateTime@@_J@Z 0000000140050180 f   AnniversaryMgr.obj
 0001:0004f210       ?OnCheckStartTimer@CAnniversaryComponet@@QEAAXXZ 0000000140050210 f   AnniversaryMgr.obj
 0001:0004f400       ?OnUpdatePraiseTimer@CAnniversaryComponet@@QEAAXXZ 0000000140050400 f   AnniversaryMgr.obj
 0001:0004f550       ?SetAnniversaryBaseData@CAnniversaryComponet@@QEAAXHHH@Z 0000000140050550 f   AnniversaryMgr.obj
 0001:0004f5d0       ?GetAnniversaryOpenFlag@CAnniversaryComponet@@QEAAEXZ 00000001400505d0 f   AnniversaryMgr.obj
 0001:0004f5f0       ?SetPraiseCount@CAnniversaryComponet@@QEAAXH@Z 00000001400505f0 f   AnniversaryMgr.obj
 0001:0004f610       ?GetPraiseCount@CAnniversaryComponet@@QEAAHXZ 0000000140050610 f   AnniversaryMgr.obj
 0001:0004f630       ?SetStartTime@CAnniversaryComponet@@QEAAXHHHHHH@Z 0000000140050630 f   AnniversaryMgr.obj
 0001:0004f700       ?SetOverTime@CAnniversaryComponet@@QEAAXHHHHHH@Z 0000000140050700 f   AnniversaryMgr.obj
 0001:0004f7d0       ?UpdateOnlineAnniversaryInfo@CAnniversaryComponet@@QEAAXXZ 00000001400507d0 f   AnniversaryMgr.obj
 0001:0004f8b0       ?LoadExtractRankFile@CAnniversaryComponet@@QEAAXXZ 00000001400508b0 f   AnniversaryMgr.obj
 0001:0004f9c0       ?SaveExtractRankFile@CAnniversaryComponet@@QEAAXXZ 00000001400509c0 f   AnniversaryMgr.obj
 0001:0004fa30       ?SetAnniversaryRankInfo@CAnniversaryComponet@@QEAAXHH@Z 0000000140050a30 f   AnniversaryMgr.obj
 0001:0004fa70       ?GetExtractRankEntityName@CAnniversaryComponet@@QEAAPEBDH@Z 0000000140050a70 f   AnniversaryMgr.obj
 0001:0004fb90       ?AddExtractRankOfflineMsg@CAnniversaryComponet@@QEAAXXZ 0000000140050b90 f   AnniversaryMgr.obj
 0001:0004fe90       ?GetPreferenceOpenFlag@CAnniversaryComponet@@QEAAEXZ 0000000140050e90 f   AnniversaryMgr.obj
 0001:0004fee0       ?SetPreferenceStartDate@CAnniversaryComponet@@QEAA_NPEADHH_N@Z 0000000140050ee0 f   AnniversaryMgr.obj
 0001:00050270       ?OnPreferenceTimer@CAnniversaryComponet@@QEAAXXZ 0000000140051270 f   AnniversaryMgr.obj
 0001:00050450       ?SetPreferenceBaseData@CAnniversaryComponet@@QEAAXHHH@Z 0000000140051450 f   AnniversaryMgr.obj
 0001:000504e0       ?SetPreferenceMaxTab@CAnniversaryComponet@@QEAAXHH@Z 00000001400514e0 f   AnniversaryMgr.obj
 0001:00050520       ?UpdateOnlinePreferenceInfo@CAnniversaryComponet@@QEAAXXZ 0000000140051520 f   AnniversaryMgr.obj
 0001:00050600       ?ClearAllPreference@CAnniversaryComponet@@QEAAXXZ 0000000140051600 f   AnniversaryMgr.obj
 0001:00050660       ?SavePreferenceExtractRankFile@CAnniversaryComponet@@QEAAXXZ 0000000140051660 f   AnniversaryMgr.obj
 0001:000506d0       ?GetPreferenceRemainingTime@CAnniversaryComponet@@QEAAHH@Z 00000001400516d0 f   AnniversaryMgr.obj
 0001:000507a0       ?SavePreferenceConsumeRankFile@CAnniversaryComponet@@QEAAXXZ 00000001400517a0 f   AnniversaryMgr.obj
 0001:00050810       ?ClearAnniversaryInfo@CAnniversaryComponet@@QEAAXXZ 0000000140051810 f   AnniversaryMgr.obj
 0001:000508a0       ?ClearOnePreference@CAnniversaryComponet@@QEAAXH@Z 00000001400518a0 f   AnniversaryMgr.obj
 0001:00050ce0       ?GetJewelleryDays@CAnniversaryComponet@@QEAAHXZ 0000000140051ce0 f   AnniversaryMgr.obj
 0001:00050de0       ?SetExtractStartTime@CAnniversaryComponet@@QEAAXHHHHHH@Z 0000000140051de0 f   AnniversaryMgr.obj
 0001:00050eb0       ?SetExtractOverTime@CAnniversaryComponet@@QEAAXHHHHHH@Z 0000000140051eb0 f   AnniversaryMgr.obj
 0001:00050f80       ?SetExtractRankInfo@CAnniversaryComponet@@QEAAXHH@Z 0000000140051f80 f   AnniversaryMgr.obj
 0001:00050fc0       ?LoadExtractActivityRankFile@CAnniversaryComponet@@QEAAXXZ 0000000140051fc0 f   AnniversaryMgr.obj
 0001:000510d0       ?SaveExtractActivityRankFile@CAnniversaryComponet@@QEAAXXZ 00000001400520d0 f   AnniversaryMgr.obj
 0001:00051140       ?AddExtractActivityRankOfflineMsg@CAnniversaryComponet@@QEAAXXZ 0000000140052140 f   AnniversaryMgr.obj
 0001:00051440       ?GetExtractActivityRankEntityName@CAnniversaryComponet@@QEAAPEBDH@Z 0000000140052440 f   AnniversaryMgr.obj
 0001:00051560       ?ClearExtractInfo@CAnniversaryComponet@@QEAAXXZ 0000000140052560 f   AnniversaryMgr.obj
 0001:000515f0       ?SetRechargePackageStartDate@CAnniversaryComponet@@QEAA_NPEADHHH_N@Z 00000001400525f0 f   AnniversaryMgr.obj
 0001:00051a40       ?OnRechargePackageTimer@CAnniversaryComponet@@QEAAXXZ 0000000140052a40 f   AnniversaryMgr.obj
 0001:00051c00       ?GetRechargePackageOpenFlag@CAnniversaryComponet@@QEAAEXZ 0000000140052c00 f   AnniversaryMgr.obj
 0001:00051c50       ?UpdateOnlineRechargeInfo@CAnniversaryComponet@@QEAAXXZ 0000000140052c50 f   AnniversaryMgr.obj
 0001:00051d30       ?GetRechargeRemainingTime@CAnniversaryComponet@@QEAAHH@Z 0000000140052d30 f   AnniversaryMgr.obj
 0001:00051e20       ?LoadRechargePackageRankFile@CAnniversaryComponet@@QEAAXXZ 0000000140052e20 f   AnniversaryMgr.obj
 0001:000520a0       ?SaveRechargePackageExtractRankFile@CAnniversaryComponet@@QEAAXXZ 00000001400530a0 f   AnniversaryMgr.obj
 0001:00052110       ?ClearOneRechargePackage@CAnniversaryComponet@@QEAAXH@Z 0000000140053110 f   AnniversaryMgr.obj
 0001:00052480       ?AddRechargeRankOfflineMsg@CAnniversaryComponet@@QEAAXH@Z 0000000140053480 f   AnniversaryMgr.obj
 0001:000525f0       ?ClearAllRecharge@CAnniversaryComponet@@QEAAXXZ 00000001400535f0 f   AnniversaryMgr.obj
 0001:00052660       ?GetRechargeScheme@CAnniversaryComponet@@QEAAHH@Z 0000000140053660 f   AnniversaryMgr.obj
 0001:000526f0       ?SetDoubleAwardStartDate@CAnniversaryComponet@@QEAA_NPEADHH_N@Z 00000001400536f0 f   AnniversaryMgr.obj
 0001:00052a50       ?OnDoubleAwardTimer@CAnniversaryComponet@@QEAA_NXZ 0000000140053a50 f   AnniversaryMgr.obj
 0001:00052be0       ?UpdateOnlineDoubleAwardInfo@CAnniversaryComponet@@QEAAXHE@Z 0000000140053be0 f   AnniversaryMgr.obj
 0001:00052cd0       ?InitDoubleAward@CAnniversaryComponet@@QEAAXH@Z 0000000140053cd0 f   AnniversaryMgr.obj
 0001:00052de0       ?CloseDoubleAward@CAnniversaryComponet@@QEAAXXZ 0000000140053de0 f   AnniversaryMgr.obj
 0001:00052e50       ?IsOpenRechargePackage@CAnniversaryComponet@@QEAA_NXZ 0000000140053e50 f   AnniversaryMgr.obj
 0001:00052ea0       ?InitTumulus@CAnniversaryComponet@@QEAAXXZ 0000000140053ea0 f   AnniversaryMgr.obj
 0001:00052fa0       ?SetTumulusStartDate@CAnniversaryComponet@@QEAA_NPEADH_N@Z 0000000140053fa0 f   AnniversaryMgr.obj
 0001:00053160       ?OnTumulusTimer@CAnniversaryComponet@@QEAA_NXZ 0000000140054160 f   AnniversaryMgr.obj
 0001:00053270       ?UpdateOnlineTumulusInfo@CAnniversaryComponet@@QEAAXXZ 0000000140054270 f   AnniversaryMgr.obj
 0001:00053350       ?ClearTumulus@CAnniversaryComponet@@QEAAXXZ 0000000140054350 f   AnniversaryMgr.obj
 0001:00053460       ?GetTumulusRemainingTime@CAnniversaryComponet@@QEAAHXZ 0000000140054460 f   AnniversaryMgr.obj
 0001:00054a40       ??_ECAnniversaryComponet@@UEAAPEAXI@Z 0000000140055a40 f i AnniversaryMgr.obj
 0001:00054a40       ??_GCAnniversaryComponet@@UEAAPEAXI@Z 0000000140055a40 f i AnniversaryMgr.obj
 0001:00054aa0       ?CheckAndSet@?$CTimer@$0OKGA@@@QEAA_N_J_N@Z 0000000140055aa0 f i AnniversaryMgr.obj
 0001:00054b20       ?add@?$CBaseList@UtagAnniversaryBaseData@@@container@wylib@@QEAA_JAEBUtagAnniversaryBaseData@@@Z 0000000140055b20 f i AnniversaryMgr.obj
 0001:00054c20       ?count@?$CBaseList@UtagPreferenceBaseData@@@container@wylib@@QEBA_JXZ 0000000140055c20 f i AnniversaryMgr.obj
 0001:00054c40       ?add@?$CBaseList@UtagPreferenceBaseData@@@container@wylib@@QEAA_JAEBUtagPreferenceBaseData@@@Z 0000000140055c40 f i AnniversaryMgr.obj
 0001:00054d40       ??B?$CBaseList@UtagPreferenceBaseData@@@container@wylib@@QEBAPEAUtagPreferenceBaseData@@XZ 0000000140055d40 f i AnniversaryMgr.obj
 0001:00054d60       ?count@?$CBaseList@UtagRechargeBaseData@@@container@wylib@@QEBA_JXZ 0000000140055d60 f i AnniversaryMgr.obj
 0001:00054d80       ?add@?$CBaseList@UtagRechargeBaseData@@@container@wylib@@QEAA_JAEBUtagRechargeBaseData@@@Z 0000000140055d80 f i AnniversaryMgr.obj
 0001:00054e80       ??B?$CBaseList@UtagRechargeBaseData@@@container@wylib@@QEBAPEAUtagRechargeBaseData@@XZ 0000000140055e80 f i AnniversaryMgr.obj
 0001:00054ea0       ?count@?$CBaseList@UtagDoubleAwardData@@@container@wylib@@QEBA_JXZ 0000000140055ea0 f i AnniversaryMgr.obj
 0001:00054ec0       ?add@?$CBaseList@UtagDoubleAwardData@@@container@wylib@@QEAA_JAEBUtagDoubleAwardData@@@Z 0000000140055ec0 f i AnniversaryMgr.obj
 0001:00054fc0       ??0?$CVector@UtagAnniversaryBaseData@@@@QEAA@PEAVCBufferAllocator@@@Z 0000000140055fc0 f i AnniversaryMgr.obj
 0001:00055070       ??1?$CVector@UtagAnniversaryBaseData@@@@UEAA@XZ 0000000140056070 f i AnniversaryMgr.obj
 0001:000550d0       ?empty@?$CVector@UtagAnniversaryBaseData@@@@UEAAXXZ 00000001400560d0 f i AnniversaryMgr.obj
 0001:00055170       ?reserve@?$CVector@UtagAnniversaryBaseData@@@@UEAAX_J@Z 0000000140056170 f i AnniversaryMgr.obj
 0001:000552f0       ??0?$CVector@UtagPreferenceBaseData@@@@QEAA@PEAVCBufferAllocator@@@Z 00000001400562f0 f i AnniversaryMgr.obj
 0001:000553a0       ??1?$CVector@UtagPreferenceBaseData@@@@UEAA@XZ 00000001400563a0 f i AnniversaryMgr.obj
 0001:00055400       ?empty@?$CVector@UtagPreferenceBaseData@@@@UEAAXXZ 0000000140056400 f i AnniversaryMgr.obj
 0001:000554a0       ?reserve@?$CVector@UtagPreferenceBaseData@@@@UEAAX_J@Z 00000001400564a0 f i AnniversaryMgr.obj
 0001:00055620       ??0?$CVector@UtagRechargeBaseData@@@@QEAA@PEAVCBufferAllocator@@@Z 0000000140056620 f i AnniversaryMgr.obj
 0001:000556d0       ??1?$CVector@UtagRechargeBaseData@@@@UEAA@XZ 00000001400566d0 f i AnniversaryMgr.obj
 0001:00055730       ?empty@?$CVector@UtagRechargeBaseData@@@@UEAAXXZ 0000000140056730 f i AnniversaryMgr.obj
 0001:000557d0       ?reserve@?$CVector@UtagRechargeBaseData@@@@UEAAX_J@Z 00000001400567d0 f i AnniversaryMgr.obj
 0001:00055950       ??0?$CVector@UtagDoubleAwardData@@@@QEAA@PEAVCBufferAllocator@@@Z 0000000140056950 f i AnniversaryMgr.obj
 0001:00055a00       ??1?$CVector@UtagDoubleAwardData@@@@UEAA@XZ 0000000140056a00 f i AnniversaryMgr.obj
 0001:00055a60       ?empty@?$CVector@UtagDoubleAwardData@@@@UEAAXXZ 0000000140056a60 f i AnniversaryMgr.obj
 0001:00055b00       ?reserve@?$CVector@UtagDoubleAwardData@@@@UEAAX_J@Z 0000000140056b00 f i AnniversaryMgr.obj
 0001:00055c80       ??0?$CVector@PEAX@@QEAA@PEAVCBufferAllocator@@@Z 0000000140056c80 f i AnniversaryMgr.obj
 0001:00055d30       ??1?$CVector@PEAX@@UEAA@XZ 0000000140056d30 f i AnniversaryMgr.obj
 0001:00055d90       ?empty@?$CVector@PEAX@@UEAAXXZ 0000000140056d90 f i AnniversaryMgr.obj
 0001:00055e30       ?reserve@?$CVector@PEAX@@UEAAX_J@Z 0000000140056e30 f i AnniversaryMgr.obj
 0001:00055fb0       ??$?6H@CScriptValueList@@QEAAAEAV0@H@Z 0000000140056fb0 f i AnniversaryMgr.obj
 0001:00056050       ??_G?$CVector@UtagAnniversaryBaseData@@@@UEAAPEAXI@Z 0000000140057050 f i AnniversaryMgr.obj
 0001:00056050       ??_E?$CVector@UtagAnniversaryBaseData@@@@UEAAPEAXI@Z 0000000140057050 f i AnniversaryMgr.obj
 0001:000560b0       ??_G?$CVector@UtagPreferenceBaseData@@@@UEAAPEAXI@Z 00000001400570b0 f i AnniversaryMgr.obj
 0001:000560b0       ??_E?$CVector@UtagPreferenceBaseData@@@@UEAAPEAXI@Z 00000001400570b0 f i AnniversaryMgr.obj
 0001:00056110       ??_G?$CVector@UtagRechargeBaseData@@@@UEAAPEAXI@Z 0000000140057110 f i AnniversaryMgr.obj
 0001:00056110       ??_E?$CVector@UtagRechargeBaseData@@@@UEAAPEAXI@Z 0000000140057110 f i AnniversaryMgr.obj
 0001:00056170       ??_E?$CVector@UtagDoubleAwardData@@@@UEAAPEAXI@Z 0000000140057170 f i AnniversaryMgr.obj
 0001:00056170       ??_G?$CVector@UtagDoubleAwardData@@@@UEAAPEAXI@Z 0000000140057170 f i AnniversaryMgr.obj
 0001:000561d0       ??_E?$CVector@PEAX@@UEAAPEAXI@Z 00000001400571d0 f i AnniversaryMgr.obj
 0001:000561d0       ??_G?$CVector@PEAX@@UEAAPEAXI@Z 00000001400571d0 f i AnniversaryMgr.obj
 0001:00056230       ??0?$CBaseList@PEAX@container@wylib@@QEAA@XZ 0000000140057230 f i AnniversaryMgr.obj
 0001:00056290       ??0?$CBaseList@UtagAnniversaryBaseData@@@container@wylib@@QEAA@XZ 0000000140057290 f i AnniversaryMgr.obj
 0001:000562f0       ??0?$CBaseList@UtagPreferenceBaseData@@@container@wylib@@QEAA@XZ 00000001400572f0 f i AnniversaryMgr.obj
 0001:00056350       ??0?$CBaseList@UtagRechargeBaseData@@@container@wylib@@QEAA@XZ 0000000140057350 f i AnniversaryMgr.obj
 0001:000563b0       ??0?$CBaseList@UtagDoubleAwardData@@@container@wylib@@QEAA@XZ 00000001400573b0 f i AnniversaryMgr.obj
 0001:00056410       ?getMemory@CMemoryStream@stream@wylib@@QEAAPEAXXZ 0000000140057410 f i AnniversaryMgr.obj
 0001:00056430       ?decode@CMiniDateTime@@QEAAXAEAU_SYSTEMTIME@@@Z 0000000140057430 f i AnniversaryMgr.obj
 0001:00056640       ?now@CMiniDateTime@@SAIXZ  0000000140057640 f i AnniversaryMgr.obj
 0001:00056730       ?tomorrow@CMiniDateTime@@SAIXZ 0000000140057730 f i AnniversaryMgr.obj
 0001:000569a0       ??4CMiniDateTime@@QEAAAEAU0@I@Z 00000001400579a0 f i AnniversaryMgr.obj
 0001:000569d0       ??8CMiniDateTime@@QEAA_NI@Z 00000001400579d0 f i AnniversaryMgr.obj
 0001:00056a30       ??HCMiniDateTime@@QEAAII@Z 0000000140057a30 f i AnniversaryMgr.obj
 0001:00056a60       ??0CMiniDateTime@@QEAA@I@Z 0000000140057a60 f i AnniversaryMgr.obj
 0001:00056a90       ?GetGameStore@CLogicDataProvider@@QEAAAEAVCGameStore@@XZ 0000000140057a90 f i AnniversaryMgr.obj
 0001:00056ab0       ?GetRechargeProvider@CLogicDataProvider@@QEAAAEAVCRechargePackageProvider@@XZ 0000000140057ab0 f i AnniversaryMgr.obj
 0001:00056ad0       ??0CComponent@@QEAA@XZ     0000000140057ad0 f i AnniversaryMgr.obj
 0001:00056b60       ?Initialize@CComponent@@UEAA_NXZ 0000000140057b60 f i AnniversaryMgr.obj
 0001:00056b70       ?Destroy@CComponent@@UEAAXXZ 0000000140057b70 f i AnniversaryMgr.obj
 0001:00056b80       ??1CComponent@@UEAA@XZ     0000000140057b80 f i AnniversaryMgr.obj
 0001:00056ba0       ??_GCComponent@@UEAAPEAXI@Z 0000000140057ba0 f i AnniversaryMgr.obj
 0001:00056ba0       ??_ECComponent@@UEAAPEAXI@Z 0000000140057ba0 f i AnniversaryMgr.obj
 0001:00056c00       ??4CScriptValue@@QEAAAEAV0@H@Z 0000000140057c00 f i AnniversaryMgr.obj
 0001:00056c70       ?clear@CScriptValue@@QEAAXXZ 0000000140057c70 f i AnniversaryMgr.obj
 0001:00056d20       ??0CScriptValueList@@QEAA@XZ 0000000140057d20 f i AnniversaryMgr.obj
 0001:00056d90       ??0CScriptValue@@QEAA@XZ   0000000140057d90 f i AnniversaryMgr.obj
 0001:00056dd0       ??1CScriptValueList@@QEAA@XZ 0000000140057dd0 f i AnniversaryMgr.obj
 0001:00056e20       ??1CScriptValue@@QEAA@XZ   0000000140057e20 f i AnniversaryMgr.obj
 0001:00056e60       ?GetAnniversarySystem@CActor@@QEAAAEAVCAnniversarySystem@@XZ 0000000140057e60 f i AnniversaryMgr.obj
 0001:00056e80       ?GetScript@CNpc@@QEAAAEAVCLogicScript@@XZ 0000000140057e80 f i AnniversaryMgr.obj
 0001:00056ea0       ??0tagAnniversaryBaseData@@QEAA@XZ 0000000140057ea0 f i AnniversaryMgr.obj
 0001:00056ef0       ??0tagPreferenceBaseData@@QEAA@XZ 0000000140057ef0 f i AnniversaryMgr.obj
 0001:00056f90       ??0tagRechargeBaseData@@QEAA@XZ 0000000140057f90 f i AnniversaryMgr.obj
 0001:00057020       ??0tagDoubleAwardData@@QEAA@XZ 0000000140058020 f i AnniversaryMgr.obj
 0001:00057090       ??0tagTumulus@@QEAA@XZ     0000000140058090 f i AnniversaryMgr.obj
 0001:000570e0       ?SetPreferenceOneOpenFlag@CAnniversaryComponet@@QEAAXHE@Z 00000001400580e0 f i AnniversaryMgr.obj
 0001:000571d0       ?GetPreferenceOneOpenFlag@CAnniversaryComponet@@QEAAEH@Z 00000001400581d0 f i AnniversaryMgr.obj
 0001:00057250       ?SetRechargeOneOpenFlag@CAnniversaryComponet@@QEAAXHE@Z 0000000140058250 f i AnniversaryMgr.obj
 0001:00057360       ?GetRechargeOneOpenFlag@CAnniversaryComponet@@QEAAEH@Z 0000000140058360 f i AnniversaryMgr.obj
 0001:000573e0       ?SetDoubleAwardFlag@CAnniversaryComponet@@QEAAXHE@Z 00000001400583e0 f i AnniversaryMgr.obj
 0001:00057500       ?GetDoubleAwardFlag@CAnniversaryComponet@@QEAAEH@Z 0000000140058500 f i AnniversaryMgr.obj
 0001:00057580       ?SetTumulusFlag@CAnniversaryComponet@@QEAAXE@Z 0000000140058580 f i AnniversaryMgr.obj
 0001:000575e0       ?GetTumulusFlag@CAnniversaryComponet@@QEAAEXZ 00000001400585e0 f i AnniversaryMgr.obj
 0001:00057600       ?GetId@CRankingItem@@QEAAIXZ 0000000140058600 f i AnniversaryMgr.obj
 0001:00057620       ?GetPoint@CRankingItem@@QEAAHXZ 0000000140058620 f i AnniversaryMgr.obj
 0001:00057640       ?GetSubData@CRankingItem@@QEAAPEBD_J@Z 0000000140058640 f i AnniversaryMgr.obj
 0001:00057750       ?GetList@CRanking@@QEAAAEAV?$CVector@PEAVCRankingItem@@@@XZ 0000000140058750 f i AnniversaryMgr.obj
 0001:00057770       ?GetItemCount@CRanking@@QEAAHXZ 0000000140058770 f i AnniversaryMgr.obj
 0001:000577c0       ?GetMax@CRanking@@QEAAHXZ  00000001400587c0 f i AnniversaryMgr.obj
 0001:00057830       ?GetRankingMgr@CLogicEngine@@QEAAAEAVCRankingMgr@@XZ 0000000140058830 f i AnniversaryMgr.obj
 0001:00057850       ?getSysTime@CLogicEngine@@QEAAAEAU_SYSTEMTIME@@XZ 0000000140058850 f i AnniversaryMgr.obj
 0001:00057870       ??1?$CBaseList@PEAX@container@wylib@@UEAA@XZ 0000000140058870 f i AnniversaryMgr.obj
 0001:000578c0       ?empty@?$CBaseList@PEAX@container@wylib@@UEAAXXZ 00000001400588c0 f i AnniversaryMgr.obj
 0001:00057940       ?reserve@?$CBaseList@PEAX@container@wylib@@UEAAX_J@Z 0000000140058940 f i AnniversaryMgr.obj
 0001:000579e0       ??0?$CTimer@$0OKGA@@@QEAA@XZ 00000001400589e0 f i AnniversaryMgr.obj
 0001:00057a30       ??1?$CBaseList@UtagAnniversaryBaseData@@@container@wylib@@UEAA@XZ 0000000140058a30 f i AnniversaryMgr.obj
 0001:00057a80       ?empty@?$CBaseList@UtagAnniversaryBaseData@@@container@wylib@@UEAAXXZ 0000000140058a80 f i AnniversaryMgr.obj
 0001:00057b00       ?reserve@?$CBaseList@UtagAnniversaryBaseData@@@container@wylib@@UEAAX_J@Z 0000000140058b00 f i AnniversaryMgr.obj
 0001:00057ba0       ??1?$CBaseList@UtagPreferenceBaseData@@@container@wylib@@UEAA@XZ 0000000140058ba0 f i AnniversaryMgr.obj
 0001:00057bf0       ?empty@?$CBaseList@UtagPreferenceBaseData@@@container@wylib@@UEAAXXZ 0000000140058bf0 f i AnniversaryMgr.obj
 0001:00057c70       ?reserve@?$CBaseList@UtagPreferenceBaseData@@@container@wylib@@UEAAX_J@Z 0000000140058c70 f i AnniversaryMgr.obj
 0001:00057d10       ??1?$CBaseList@UtagRechargeBaseData@@@container@wylib@@UEAA@XZ 0000000140058d10 f i AnniversaryMgr.obj
 0001:00057d60       ?empty@?$CBaseList@UtagRechargeBaseData@@@container@wylib@@UEAAXXZ 0000000140058d60 f i AnniversaryMgr.obj
 0001:00057de0       ?reserve@?$CBaseList@UtagRechargeBaseData@@@container@wylib@@UEAAX_J@Z 0000000140058de0 f i AnniversaryMgr.obj
 0001:00057e80       ??1?$CBaseList@UtagDoubleAwardData@@@container@wylib@@UEAA@XZ 0000000140058e80 f i AnniversaryMgr.obj
 0001:00057ed0       ?empty@?$CBaseList@UtagDoubleAwardData@@@container@wylib@@UEAAXXZ 0000000140058ed0 f i AnniversaryMgr.obj
 0001:00057f50       ?reserve@?$CBaseList@UtagDoubleAwardData@@@container@wylib@@UEAAX_J@Z 0000000140058f50 f i AnniversaryMgr.obj
 0001:00057ff0       ??B?$CBaseList@UtagDoubleAwardData@@@container@wylib@@QEBAPEAUtagDoubleAwardData@@XZ 0000000140058ff0 f i AnniversaryMgr.obj
 0001:00058010       ?count@?$CBaseList@PEAVCRankingItem@@@container@wylib@@QEBA_JXZ 0000000140059010 f i AnniversaryMgr.obj
 0001:00058030       ??B?$CBaseList@PEAVCRankingItem@@@container@wylib@@QEBAPEAPEAVCRankingItem@@XZ 0000000140059030 f i AnniversaryMgr.obj
 0001:00058050       ??_G?$CBaseList@PEAX@container@wylib@@UEAAPEAXI@Z 0000000140059050 f i AnniversaryMgr.obj
 0001:00058050       ??_E?$CBaseList@PEAX@container@wylib@@UEAAPEAXI@Z 0000000140059050 f i AnniversaryMgr.obj
 0001:000580b0       ??_E?$CBaseList@UtagAnniversaryBaseData@@@container@wylib@@UEAAPEAXI@Z 00000001400590b0 f i AnniversaryMgr.obj
 0001:000580b0       ??_G?$CBaseList@UtagAnniversaryBaseData@@@container@wylib@@UEAAPEAXI@Z 00000001400590b0 f i AnniversaryMgr.obj
 0001:00058110       ??_G?$CBaseList@UtagPreferenceBaseData@@@container@wylib@@UEAAPEAXI@Z 0000000140059110 f i AnniversaryMgr.obj
 0001:00058110       ??_E?$CBaseList@UtagPreferenceBaseData@@@container@wylib@@UEAAPEAXI@Z 0000000140059110 f i AnniversaryMgr.obj
 0001:00058170       ??_G?$CBaseList@UtagRechargeBaseData@@@container@wylib@@UEAAPEAXI@Z 0000000140059170 f i AnniversaryMgr.obj
 0001:00058170       ??_E?$CBaseList@UtagRechargeBaseData@@@container@wylib@@UEAAPEAXI@Z 0000000140059170 f i AnniversaryMgr.obj
 0001:000581d0       ??_G?$CBaseList@UtagDoubleAwardData@@@container@wylib@@UEAAPEAXI@Z 00000001400591d0 f i AnniversaryMgr.obj
 0001:000581d0       ??_E?$CBaseList@UtagDoubleAwardData@@@container@wylib@@UEAAPEAXI@Z 00000001400591d0 f i AnniversaryMgr.obj
 0001:00058230       ?clear@?$CBaseList@PEAX@container@wylib@@QEAAXXZ 0000000140059230 f i AnniversaryMgr.obj
 0001:00058250       ?clear@?$CBaseList@UtagAnniversaryBaseData@@@container@wylib@@QEAAXXZ 0000000140059250 f i AnniversaryMgr.obj
 0001:00058270       ?clear@?$CBaseList@UtagPreferenceBaseData@@@container@wylib@@QEAAXXZ 0000000140059270 f i AnniversaryMgr.obj
 0001:00058290       ?clear@?$CBaseList@UtagRechargeBaseData@@@container@wylib@@QEAAXXZ 0000000140059290 f i AnniversaryMgr.obj
 0001:000582b0       ?clear@?$CBaseList@UtagDoubleAwardData@@@container@wylib@@QEAAXXZ 00000001400592b0 f i AnniversaryMgr.obj
 0001:000582d0       ??0CBackResLoadModule@@QEAA@XZ 00000001400592d0 f   BackResLoadModule.obj
 0001:000583f0       ??1CBackResLoadModule@@QEAA@XZ 00000001400593f0 f   BackResLoadModule.obj
 0001:000584c0       ?Start@CBackResLoadModule@@QEAAXXZ 00000001400594c0 f   BackResLoadModule.obj
 0001:000585b0       ?Stop@CBackResLoadModule@@QEAAXXZ 00000001400595b0 f   BackResLoadModule.obj
 0001:00058660       ?OnRountine@CBackResLoadModule@@UEAAXXZ 0000000140059660 f   BackResLoadModule.obj
 0001:000587d0       ?LoadItemResImpl@CBackResLoadModule@@IEAA_NXZ 00000001400597d0 f   BackResLoadModule.obj
 0001:00058980       ?RunOne@CBackResLoadModule@@QEAAX_J@Z 0000000140059980 f   BackResLoadModule.obj
 0001:00058b60       ?GetNextResLoadData@CBackResLoadModule@@IEAA?AVCResLoadTask@@XZ 0000000140059b60 f   BackResLoadModule.obj
 0001:00058c70       ?AddFinishedTask@CBackResLoadModule@@IEAAXAEBVCResLoadTask@@@Z 0000000140059c70 f   BackResLoadModule.obj
 0001:00058d20       ?LoadItemConfig@CBackResLoadModule@@QEAAXXZ 0000000140059d20 f   BackResLoadModule.obj
 0001:00059290       ??0CResLoadTask@@QEAA@AEBV0@@Z 000000014005a290 f i BackResLoadModule.obj
 0001:00059300       ??0?$Counter@VCResLoadTask@@@@QEAA@AEBV0@@Z 000000014005a300 f i BackResLoadModule.obj
 0001:00059350       ??0?$CBaseLinkedList@VCResLoadTask@@@container@wylib@@QEAA@XZ 000000014005a350 f i BackResLoadModule.obj
 0001:000593c0       ?first@?$CBaseLinkedList@VCResLoadTask@@@container@wylib@@QEAAPEAV?$CLinkedNode@VCResLoadTask@@@23@XZ 000000014005a3c0 f i BackResLoadModule.obj
 0001:000593e0       ?count@?$CBaseLinkedList@VCResLoadTask@@@container@wylib@@QEBA_JXZ 000000014005a3e0 f i BackResLoadModule.obj
 0001:00059400       ?linkAfter@?$CBaseLinkedList@VCResLoadTask@@@container@wylib@@QEAAPEAV?$CLinkedNode@VCResLoadTask@@@23@AEBVCResLoadTask@@PEAV423@@Z 000000014005a400 f i BackResLoadModule.obj
 0001:000595b0       ?remove@?$CBaseLinkedList@VCResLoadTask@@@container@wylib@@QEAAXPEAV?$CLinkedNode@VCResLoadTask@@@23@H@Z 000000014005a5b0 f i BackResLoadModule.obj
 0001:000597c0       ?count@?$CBaseList@VCResLoadTask@@@container@wylib@@QEBA_JXZ 000000014005a7c0 f i BackResLoadModule.obj
 0001:000597e0       ?add@?$CBaseList@VCResLoadTask@@@container@wylib@@QEAA_JAEBVCResLoadTask@@@Z 000000014005a7e0 f i BackResLoadModule.obj
 0001:000598e0       ?addArray@?$CBaseList@VCResLoadTask@@@container@wylib@@QEAAXPEAVCResLoadTask@@_J@Z 000000014005a8e0 f i BackResLoadModule.obj
 0001:000599d0       ??B?$CBaseList@VCResLoadTask@@@container@wylib@@QEBAPEAVCResLoadTask@@XZ 000000014005a9d0 f i BackResLoadModule.obj
 0001:000599f0       ??B?$CLinkedNode@VCResLoadTask@@@container@wylib@@QEAAAEAVCResLoadTask@@XZ 000000014005a9f0 f i BackResLoadModule.obj
 0001:00059a00       ??0?$CLinkedListIterator@VCResLoadTask@@@container@wylib@@QEAA@AEAV?$CBaseLinkedList@VCResLoadTask@@@12@@Z 000000014005aa00 f i BackResLoadModule.obj
 0001:00059a90       ??1?$CLinkedListIterator@VCResLoadTask@@@container@wylib@@QEAA@XZ 000000014005aa90 f i BackResLoadModule.obj
 0001:00059b80       ?first@?$CLinkedListIterator@VCResLoadTask@@@container@wylib@@QEAAPEAV?$CLinkedNode@VCResLoadTask@@@23@XZ 000000014005ab80 f i BackResLoadModule.obj
 0001:00059be0       ?next@?$CLinkedListIterator@VCResLoadTask@@@container@wylib@@QEAAPEAV?$CLinkedNode@VCResLoadTask@@@23@XZ 000000014005abe0 f i BackResLoadModule.obj
 0001:00059c60       ?setList@?$CLinkedListIterator@VCResLoadTask@@@container@wylib@@QEAAXAEAV?$CBaseLinkedList@VCResLoadTask@@@23@@Z 000000014005ac60 f i BackResLoadModule.obj
 0001:00059d20       ??_G?$CLinkedListIterator@VCResLoadTask@@@container@wylib@@QEAAPEAXI@Z 000000014005ad20 f i BackResLoadModule.obj
 0001:00059d80       ??0?$CVector@VCResLoadTask@@@@QEAA@PEAVCBufferAllocator@@@Z 000000014005ad80 f i BackResLoadModule.obj
 0001:00059e30       ??1?$CVector@VCResLoadTask@@@@UEAA@XZ 000000014005ae30 f i BackResLoadModule.obj
 0001:00059e90       ?empty@?$CVector@VCResLoadTask@@@@UEAAXXZ 000000014005ae90 f i BackResLoadModule.obj
 0001:00059f30       ?reserve@?$CVector@VCResLoadTask@@@@UEAAX_J@Z 000000014005af30 f i BackResLoadModule.obj
 0001:0005a0b0       ??_E?$CVector@VCResLoadTask@@@@UEAAPEAXI@Z 000000014005b0b0 f i BackResLoadModule.obj
 0001:0005a0b0       ??_G?$CVector@VCResLoadTask@@@@UEAAPEAXI@Z 000000014005b0b0 f i BackResLoadModule.obj
 0001:0005a110       ??0?$CBaseList@VCResLoadTask@@@container@wylib@@QEAA@XZ 000000014005b110 f i BackResLoadModule.obj
 0001:0005a170       ?terminated@CBaseThread@thread@wylib@@IEAA_NXZ 000000014005b170 f i BackResLoadModule.obj
 0001:0005a190       ??0CResLoadTask@@QEAA@XZ   000000014005b190 f i BackResLoadModule.obj
 0001:0005a1f0       ??0?$CTimer@$0HNA@@@QEAA@XZ 000000014005b1f0 f i BackResLoadModule.obj
 0001:0005a240       ??0?$Counter@VCResLoadTask@@@@QEAA@XZ 000000014005b240 f i BackResLoadModule.obj
 0001:0005a280       ??1?$CBaseLinkedList@VCResLoadTask@@@container@wylib@@UEAA@XZ 000000014005b280 f i BackResLoadModule.obj
 0001:0005a2d0       ?clear@?$CBaseLinkedList@VCResLoadTask@@@container@wylib@@UEAAXXZ 000000014005b2d0 f i BackResLoadModule.obj
 0001:0005a390       ?allocNode@?$CBaseLinkedList@VCResLoadTask@@@container@wylib@@MEAAPEAV?$CLinkedNode@VCResLoadTask@@@23@XZ 000000014005b390 f i BackResLoadModule.obj
 0001:0005a400       ?freeNode@?$CBaseLinkedList@VCResLoadTask@@@container@wylib@@MEAAXPEAV?$CLinkedNode@VCResLoadTask@@@23@@Z 000000014005b400 f i BackResLoadModule.obj
 0001:0005a480       ??1?$CBaseList@VCResLoadTask@@@container@wylib@@UEAA@XZ 000000014005b480 f i BackResLoadModule.obj
 0001:0005a4d0       ?empty@?$CBaseList@VCResLoadTask@@@container@wylib@@UEAAXXZ 000000014005b4d0 f i BackResLoadModule.obj
 0001:0005a550       ?reserve@?$CBaseList@VCResLoadTask@@@container@wylib@@UEAAX_J@Z 000000014005b550 f i BackResLoadModule.obj
 0001:0005a5f0       ??_E?$CBaseLinkedList@VCResLoadTask@@@container@wylib@@UEAAPEAXI@Z 000000014005b5f0 f i BackResLoadModule.obj
 0001:0005a5f0       ??_G?$CBaseLinkedList@VCResLoadTask@@@container@wylib@@UEAAPEAXI@Z 000000014005b5f0 f i BackResLoadModule.obj
 0001:0005a650       ??0?$CLinkedNode@VCResLoadTask@@@container@wylib@@QEAA@XZ 000000014005b650 f i BackResLoadModule.obj
 0001:0005a6a0       ??_G?$CLinkedNode@VCResLoadTask@@@container@wylib@@QEAAPEAXI@Z 000000014005b6a0 f i BackResLoadModule.obj
 0001:0005a700       ??_G?$CBaseList@VCResLoadTask@@@container@wylib@@UEAAPEAXI@Z 000000014005b700 f i BackResLoadModule.obj
 0001:0005a700       ??_E?$CBaseList@VCResLoadTask@@@container@wylib@@UEAAPEAXI@Z 000000014005b700 f i BackResLoadModule.obj
 0001:0005a760       ??1CResLoadTask@@QEAA@XZ   000000014005b760 f i BackResLoadModule.obj
 0001:0005a7b0       ??1?$Counter@VCResLoadTask@@@@QEAA@XZ 000000014005b7b0 f i BackResLoadModule.obj
 0001:0005a7d0       ??1?$CLinkedNode@VCResLoadTask@@@container@wylib@@QEAA@XZ 000000014005b7d0 f i BackResLoadModule.obj
 0001:0005a820       ?addToStat@?$Counter@VCResLoadTask@@@@IEAAXXZ 000000014005b820 f i BackResLoadModule.obj
 0001:0005a8c0       ?clear@?$CBaseList@VCResLoadTask@@@container@wylib@@QEAAXXZ 000000014005b8c0 f i BackResLoadModule.obj
 0001:0005a8e0       ??0?$Counter@V?$CLinkedNode@VCResLoadTask@@@container@wylib@@@@QEAA@XZ 000000014005b8e0 f i BackResLoadModule.obj
 0001:0005a920       ??1?$Counter@V?$CLinkedNode@VCResLoadTask@@@container@wylib@@@@QEAA@XZ 000000014005b920 f i BackResLoadModule.obj
 0001:0005a940       ?getCount@?$Counter@VCResLoadTask@@@@SA_KXZ 000000014005b940 f i BackResLoadModule.obj
 0001:0005a950       ?addToStat@?$Counter@V?$CLinkedNode@VCResLoadTask@@@container@wylib@@@@IEAAXXZ 000000014005b950 f i BackResLoadModule.obj
 0001:0005a9f0       ?getCount@?$Counter@V?$CLinkedNode@VCResLoadTask@@@container@wylib@@@@SA_KXZ 000000014005b9f0 f i BackResLoadModule.obj
 0001:0005aa00       ?initialize@GlobalObjectMgr@@SAXXZ 000000014005ba00 f   BaseScriptExportObject.obj
 0001:0005aa80       ?uninitialize@GlobalObjectMgr@@SAXXZ 000000014005ba80 f   BaseScriptExportObject.obj
 0001:0005ab50       ??0GlobalObjectMgr@@QEAA@XZ 000000014005bb50 f i BaseScriptExportObject.obj
 0001:0005aba0       ??_GGlobalObjectMgr@@QEAAPEAXI@Z 000000014005bba0 f i BaseScriptExportObject.obj
 0001:0005ac00       ??1GlobalObjectMgr@@QEAA@XZ 000000014005bc00 f i BaseScriptExportObject.obj
 0001:0005ac40       ??0?$CCustomHashTable@PEAX@@QEAA@_K@Z 000000014005bc40 f i BaseScriptExportObject.obj
 0001:0005ad60       ??1?$CCustomHashTable@PEAX@@UEAA@XZ 000000014005bd60 f i BaseScriptExportObject.obj
 0001:0005adb0       ?realloc@?$CCustomHashTable@PEAX@@MEAAPEAXPEAX_K@Z 000000014005bdb0 f i BaseScriptExportObject.obj
 0001:0005ae00       ??_E?$CCustomHashTable@PEAX@@UEAAPEAXI@Z 000000014005be00 f i BaseScriptExportObject.obj
 0001:0005ae00       ??_G?$CCustomHashTable@PEAX@@UEAAPEAXI@Z 000000014005be00 f i BaseScriptExportObject.obj
 0001:0005ae60       ?clear@?$CCustomHashTable@PEAX@@QEAAXXZ 000000014005be60 f i BaseScriptExportObject.obj
 0001:0005af40       ??0CBejeweledDeluxeComponet@@QEAA@XZ 000000014005bf40 f   BejeweledDeluxeMgr.obj
 0001:0005b030       ??1CBejeweledDeluxeComponet@@UEAA@XZ 000000014005c030 f   BejeweledDeluxeMgr.obj
 0001:0005b090       ?Load@CBejeweledDeluxeComponet@@QEAAXXZ 000000014005c090 f   BejeweledDeluxeMgr.obj
 0001:0005b610       ?RunOne@CBejeweledDeluxeComponet@@QEAAXAEAUCMiniDateTime@@_J@Z 000000014005c610 f   BejeweledDeluxeMgr.obj
 0001:0005b670       ?SaveBonusFile@CBejeweledDeluxeComponet@@QEAAXXZ 000000014005c670 f   BejeweledDeluxeMgr.obj
 0001:0005b950       ?OnNewDayFreshTimer@CBejeweledDeluxeComponet@@QEAAXXZ 000000014005c950 f   BejeweledDeluxeMgr.obj
 0001:0005b9e0       ?ClearUseTimes@CBejeweledDeluxeComponet@@QEAAXXZ 000000014005c9e0 f   BejeweledDeluxeMgr.obj
 0001:0005bf40       ??_GCBejeweledDeluxeComponet@@UEAAPEAXI@Z 000000014005cf40 f i BejeweledDeluxeMgr.obj
 0001:0005bf40       ??_ECBejeweledDeluxeComponet@@UEAAPEAXI@Z 000000014005cf40 f i BejeweledDeluxeMgr.obj
 0001:0005bfa0       ??0?$CVector@UtagBDLogData@@@@QEAA@PEAVCBufferAllocator@@@Z 000000014005cfa0 f i BejeweledDeluxeMgr.obj
 0001:0005c050       ??1?$CVector@UtagBDLogData@@@@UEAA@XZ 000000014005d050 f i BejeweledDeluxeMgr.obj
 0001:0005c0b0       ?empty@?$CVector@UtagBDLogData@@@@UEAAXXZ 000000014005d0b0 f i BejeweledDeluxeMgr.obj
 0001:0005c150       ?reserve@?$CVector@UtagBDLogData@@@@UEAAX_J@Z 000000014005d150 f i BejeweledDeluxeMgr.obj
 0001:0005c2d0       ??_E?$CVector@UtagBDLogData@@@@UEAAPEAXI@Z 000000014005d2d0 f i BejeweledDeluxeMgr.obj
 0001:0005c2d0       ??_G?$CVector@UtagBDLogData@@@@UEAAPEAXI@Z 000000014005d2d0 f i BejeweledDeluxeMgr.obj
 0001:0005c330       ??0?$CBaseList@UtagBDLogData@@@container@wylib@@QEAA@XZ 000000014005d330 f i BejeweledDeluxeMgr.obj
 0001:0005c390       ?GetBejeweledDeluxeProvider@CLogicDataProvider@@QEAAAEAVCBejeweledDeluxeProvider@@XZ 000000014005d390 f i BejeweledDeluxeMgr.obj
 0001:0005c3b0       ??1?$CBaseList@UtagBDLogData@@@container@wylib@@UEAA@XZ 000000014005d3b0 f i BejeweledDeluxeMgr.obj
 0001:0005c400       ?empty@?$CBaseList@UtagBDLogData@@@container@wylib@@UEAAXXZ 000000014005d400 f i BejeweledDeluxeMgr.obj
 0001:0005c480       ?reserve@?$CBaseList@UtagBDLogData@@@container@wylib@@UEAAX_J@Z 000000014005d480 f i BejeweledDeluxeMgr.obj
 0001:0005c520       ??_E?$CBaseList@UtagBDLogData@@@container@wylib@@UEAAPEAXI@Z 000000014005d520 f i BejeweledDeluxeMgr.obj
 0001:0005c520       ??_G?$CBaseList@UtagBDLogData@@@container@wylib@@UEAAPEAXI@Z 000000014005d520 f i BejeweledDeluxeMgr.obj
 0001:0005c580       ?clear@?$CBaseList@UtagBDLogData@@@container@wylib@@QEAAXXZ 000000014005d580 f i BejeweledDeluxeMgr.obj
 0001:0005c5a0       ??0CBossComponet@@QEAA@XZ  000000014005d5a0 f   BossMgr.obj
 0001:0005c5f0       ??1CBossComponet@@UEAA@XZ  000000014005d5f0 f   BossMgr.obj
 0001:0005c640       ?Load@CBossComponet@@QEAAXXZ 000000014005d640 f   BossMgr.obj
 0001:0005c680       ??_ECBossComponet@@UEAAPEAXI@Z 000000014005d680 f i BossMgr.obj
 0001:0005c680       ??_GCBossComponet@@UEAAPEAXI@Z 000000014005d680 f i BossMgr.obj
 0001:0005c6e0       ??0CBoxDrop@@QEAA@XZ       000000014005d6e0 f   BoxDrop.obj
 0001:0005c790       ?load@CBoxDrop@@QEAA_NPEBD@Z 000000014005d790 f   BoxDrop.obj
 0001:0005c9c0       ?loadData@CBoxDrop@@IEAA_NXZ 000000014005d9c0 f   BoxDrop.obj
 0001:0005cf50       ?drop@CBoxDrop@@QEAA?AVDropItemList@@PEAX@Z 000000014005df50 f   BoxDrop.obj
 0001:0005d3d0       ?SetItemInfo@CBoxDrop@@IEAAXAEAVDropItemList@@PEAUtagOneDropData@@@Z 000000014005e3d0 f   BoxDrop.obj
 0001:0005d6f0       ?proabilityDrop@CBoxDrop@@QEAA?AVDropItemList@@PEAX@Z 000000014005e6f0 f   BoxDrop.obj
 0001:0005db50       ?releaseData@CBoxDrop@@IEAAXXZ 000000014005eb50 f   BoxDrop.obj
 0001:0005dbb0       ?destroy@CBoxDrop@@UEAAXXZ 000000014005ebb0 f   BoxDrop.obj
 0001:0005dc00       ?getSingleton@CBoxDropMgr@@SAAEAV1@XZ 000000014005ec00 f   BoxDrop.obj
 0001:0005dc20       ?initialize@CBoxDropMgr@@SAXXZ 000000014005ec20 f   BoxDrop.obj
 0001:0005dca0       ?release@CBoxDropMgr@@SAXXZ 000000014005eca0 f   BoxDrop.obj
 0001:0005dd30       ??1CBoxDropMgr@@UEAA@XZ    000000014005ed30 f   BoxDrop.obj
 0001:0005de20       ?createBoxDrop@CBoxDropMgr@@QEAAPEAVCBoxDrop@@PEBD@Z 000000014005ee20 f   BoxDrop.obj
 0001:0005df20       ?destroyBoxDrop@CBoxDropMgr@@QEAAXPEAVCBoxDrop@@@Z 000000014005ef20 f   BoxDrop.obj
 0001:0005df70       ?removeFromList@CBoxDropMgr@@IEAAXPEAVCBoxDrop@@@Z 000000014005ef70 f   BoxDrop.obj
 0001:0005e010       ?destroyBoxDropImpl@CBoxDropMgr@@IEAAXPEAVCBoxDrop@@@Z 000000014005f010 f   BoxDrop.obj
 0001:0005e710       ??B?$DataList@UtagOneDropData@@@@QEBAPEAUtagOneDropData@@XZ 000000014005f710 f i BoxDrop.obj
 0001:0005e730       ??0?$Counter@VCBoxDrop@@@@QEAA@XZ 000000014005f730 f i BoxDrop.obj
 0001:0005e770       ?allocObject@?$CSingleObjectAllocator@VCBoxDrop@@@@QEAAPEAVCBoxDrop@@XZ 000000014005f770 f i BoxDrop.obj
 0001:0005e940       ?freeObject@?$CSingleObjectAllocator@VCBoxDrop@@@@QEAAXPEAVCBoxDrop@@@Z 000000014005f940 f i BoxDrop.obj
 0001:0005e9a0       ?count@?$CBaseList@PEAVCBoxDrop@@@container@wylib@@QEBA_JXZ 000000014005f9a0 f i BoxDrop.obj
 0001:0005e9c0       ?add@?$CBaseList@PEAVCBoxDrop@@@container@wylib@@QEAA_JAEBQEAVCBoxDrop@@@Z 000000014005f9c0 f i BoxDrop.obj
 0001:0005eac0       ?remove@?$CBaseList@PEAVCBoxDrop@@@container@wylib@@QEAAX_J@Z 000000014005fac0 f i BoxDrop.obj
 0001:0005eb50       ??B?$CBaseList@PEAVCBoxDrop@@@container@wylib@@QEBAPEAPEAVCBoxDrop@@XZ 000000014005fb50 f i BoxDrop.obj
 0001:0005eb70       ?addToStat@?$Counter@VCBoxDrop@@@@IEAAXXZ 000000014005fb70 f i BoxDrop.obj
 0001:0005ec10       ?maxCount@?$CBaseList@PEAVCBoxDrop@@@container@wylib@@QEBA_JXZ 000000014005fc10 f i BoxDrop.obj
 0001:0005ec30       ?remove@?$CBaseList@PEAVCBoxDrop@@@container@wylib@@QEAAX_J0@Z 000000014005fc30 f i BoxDrop.obj
 0001:0005ed60       ?trunc@?$CBaseList@PEAVCBoxDrop@@@container@wylib@@QEAAX_J@Z 000000014005fd60 f i BoxDrop.obj
 0001:0005edf0       ?getCount@?$Counter@VCBoxDrop@@@@SA_KXZ 000000014005fdf0 f i BoxDrop.obj
 0001:0005ee00       ??1?$CVector@PEAVCBoxDrop@@@@UEAA@XZ 000000014005fe00 f i BoxDrop.obj
 0001:0005ee60       ?empty@?$CVector@PEAVCBoxDrop@@@@UEAAXXZ 000000014005fe60 f i BoxDrop.obj
 0001:0005ef00       ?reserve@?$CVector@PEAVCBoxDrop@@@@UEAAX_J@Z 000000014005ff00 f i BoxDrop.obj
 0001:0005f080       ??_G?$CVector@PEAVCBoxDrop@@@@UEAAPEAXI@Z 0000000140060080 f i BoxDrop.obj
 0001:0005f080       ??_E?$CVector@PEAVCBoxDrop@@@@UEAAPEAXI@Z 0000000140060080 f i BoxDrop.obj
 0001:0005f0e0       ??0CBaseScriptExportObject@@QEAA@XZ 00000001400600e0 f i BoxDrop.obj
 0001:0005f120       ?addRef@CBaseScriptExportObject@@UEAAHXZ 0000000140060120 f i BoxDrop.obj
 0001:0005f150       ?release@CBaseScriptExportObject@@UEAAHXZ 0000000140060150 f i BoxDrop.obj
 0001:0005f1d0       ?getClassName@CBaseScriptExportObject@@UEBAPEBDXZ 00000001400601d0 f i BoxDrop.obj
 0001:0005f1f0       ?SetObjectName@CBaseScriptExportObject@@QEAAXPEBD@Z 00000001400601f0 f i BoxDrop.obj
 0001:0005f2c0       ?GetObjectName@CBaseScriptExportObject@@QEBAPEBDXZ 00000001400602c0 f i BoxDrop.obj
 0001:0005f2e0       ?getSingleton@GlobalObjectMgr@@SAAEAV1@XZ 00000001400602e0 f i BoxDrop.obj
 0001:0005f2f0       ?SetGlobalObject@GlobalObjectMgr@@QEAA_NPEBDPEAX@Z 00000001400602f0 f i BoxDrop.obj
 0001:0005f3c0       ?ClearGlobalObject@GlobalObjectMgr@@QEAAXPEBD@Z 00000001400603c0 f i BoxDrop.obj
 0001:0005f410       ??0CCustomLogicLuaConfig@@QEAA@XZ 0000000140060410 f i BoxDrop.obj
 0001:0005f470       ??_GCCustomLogicLuaConfig@@UEAAPEAXI@Z 0000000140060470 f i BoxDrop.obj
 0001:0005f470       ??_ECCustomLogicLuaConfig@@UEAAPEAXI@Z 0000000140060470 f i BoxDrop.obj
 0001:0005f4d0       ??0tagDropGroup@@QEAA@XZ   00000001400604d0 f i BoxDrop.obj
 0001:0005f510       ??0DropItemList@@QEAA@XZ   0000000140060510 f i BoxDrop.obj
 0001:0005f560       ?addItem@DropItemList@@QEAAXAEBVDropItemInfo@@@Z 0000000140060560 f i BoxDrop.obj
 0001:0005f660       ?getClassName@CBoxDrop@@UEBAPEBDXZ 0000000140060660 f i BoxDrop.obj
 0001:0005f680       ?CanDrop@CBoxDrop@@IEAA_NPEAUtagOneDropData@@HH@Z 0000000140060680 f i BoxDrop.obj
 0001:0005f700       ??0CBoxDropMgr@@QEAA@XZ    0000000140060700 f i BoxDrop.obj
 0001:0005f780       ??0?$CVector@PEAVCBoxDrop@@@@QEAA@PEAVCBufferAllocator@@@Z 0000000140060780 f i BoxDrop.obj
 0001:0005f830       ??_ECBoxDropMgr@@UEAAPEAXI@Z 0000000140060830 f i BoxDrop.obj
 0001:0005f830       ??_GCBoxDropMgr@@UEAAPEAXI@Z 0000000140060830 f i BoxDrop.obj
 0001:0005f890       ?GetRandValue@CLogicEngine@@QEAAIXZ 0000000140060890 f i BoxDrop.obj
 0001:0005f8d0       ?GetVSPDefine@CLogicServer@@QEAAAEAVCVSPDefinition@@XZ 00000001400608d0 f i BoxDrop.obj
 0001:0005f8e0       ?get@?$CCustomHashTable@PEAX@@QEAAPEAPEAXPEBD@Z 00000001400608e0 f i BoxDrop.obj
 0001:0005f970       ?put@?$CCustomHashTable@PEAX@@QEAAPEAPEAXPEBD@Z 0000000140060970 f i BoxDrop.obj
 0001:0005fce0       ?remove@?$CCustomHashTable@PEAX@@QEAA_JPEBD@Z 0000000140060ce0 f i BoxDrop.obj
 0001:0005fdb0       ??0?$DataList@UtagOneDropData@@@@QEAA@XZ 0000000140060db0 f i BoxDrop.obj
 0001:0005fde0       ??0?$CSingleObjectAllocator@VCBoxDrop@@@@QEAA@PEBD@Z 0000000140060de0 f i BoxDrop.obj
 0001:0005fe80       ??1?$CSingleObjectAllocator@VCBoxDrop@@@@UEAA@XZ 0000000140060e80 f i BoxDrop.obj
 0001:0005ff40       ??1?$CBaseList@PEAVCBoxDrop@@@container@wylib@@UEAA@XZ 0000000140060f40 f i BoxDrop.obj
 0001:0005ff90       ?empty@?$CBaseList@PEAVCBoxDrop@@@container@wylib@@UEAAXXZ 0000000140060f90 f i BoxDrop.obj
 0001:00060010       ?reserve@?$CBaseList@PEAVCBoxDrop@@@container@wylib@@UEAAX_J@Z 0000000140061010 f i BoxDrop.obj
 0001:000600b0       ??_G?$CSingleObjectAllocator@VCBoxDrop@@@@UEAAPEAXI@Z 00000001400610b0 f i BoxDrop.obj
 0001:000600b0       ??_E?$CSingleObjectAllocator@VCBoxDrop@@@@UEAAPEAXI@Z 00000001400610b0 f i BoxDrop.obj
 0001:00060110       ??_E?$CBaseList@PEAVCBoxDrop@@@container@wylib@@UEAAPEAXI@Z 0000000140061110 f i BoxDrop.obj
 0001:00060110       ??_G?$CBaseList@PEAVCBoxDrop@@@container@wylib@@UEAAPEAXI@Z 0000000140061110 f i BoxDrop.obj
 0001:00060170       ?getIndex@?$CCustomHashTable@PEAX@@QEBA_JPEBD@Z 0000000140061170 f i BoxDrop.obj
 0001:00060370       ??0?$CBaseList@PEAVCBoxDrop@@@container@wylib@@QEAA@XZ 0000000140061370 f i BoxDrop.obj
 0001:000603d0       ?clear@?$CBaseList@PEAVCBoxDrop@@@container@wylib@@QEAAXXZ 00000001400613d0 f i BoxDrop.obj
 0001:000603f0       ??_ECBoxDrop@@ODA@EAAPEAXI@Z 00000001400613f0 f i BoxDrop.obj
 0001:00060400       ??_GCBoxDrop@@MEAAPEAXI@Z  0000000140061400 f i BoxDrop.obj
 0001:00060400       ??_ECBoxDrop@@MEAAPEAXI@Z  0000000140061400 f i BoxDrop.obj
 0001:00060460       ??1CBoxDrop@@MEAA@XZ       0000000140061460 f i BoxDrop.obj
 0001:000604e0       ??1?$Counter@VCBoxDrop@@@@QEAA@XZ 00000001400614e0 f i BoxDrop.obj
 0001:00060500       ??0CBrotherGroup@@QEAA@XZ  0000000140061500 f   BrotherGroup.obj
 0001:00060590       ?AddInterMsg@CBrotherGroup@@QEAAHUtagInterMsg@1@@Z 0000000140061590 f   BrotherGroup.obj
 0001:000606b0       ?FindAndDeleteInterMsg@CBrotherGroup@@QEAAHAEAUtagInterMsg@1@@Z 00000001400616b0 f   BrotherGroup.obj
 0001:000607e0       ?UpateName@CBrotherGroup@@QEAAXPEBD@Z 00000001400617e0 f   BrotherGroup.obj
 0001:000608f0       ?AddMember@CBrotherGroup@@QEAAXPEAVCActor@@@Z 00000001400618f0 f   BrotherGroup.obj
 0001:00060a10       ?UpdateSkill@CBrotherGroup@@QEAAXXZ 0000000140061a10 f   BrotherGroup.obj
 0001:00060af0       ?DeleteMember@CBrotherGroup@@QEAAXI@Z 0000000140061af0 f   BrotherGroup.obj
 0001:00060ce0       ?BroadCastInfo@CBrotherGroup@@QEAAXXZ 0000000140061ce0 f   BrotherGroup.obj
 0001:00060dc0       ?ResetAllShowName@CBrotherGroup@@QEAAXXZ 0000000140061dc0 f   BrotherGroup.obj
 0001:00060e90       ?SendAddBrotherGroupResult@CBrotherGroup@@QEAAX_N@Z 0000000140061e90 f   BrotherGroup.obj
 0001:00060f80       ??0CBrotherMgr@@QEAA@XZ    0000000140061f80 f   BrotherGroup.obj
 0001:00061040       ??1CBrotherMgr@@UEAA@XZ    0000000140062040 f   BrotherGroup.obj
 0001:00061140       ?Load@CBrotherMgr@@QEAAXXZ 0000000140062140 f   BrotherGroup.obj
 0001:00061150       ?OnDbReturnData@CBrotherMgr@@QEAAX_JPEAD_K@Z 0000000140062150 f   BrotherGroup.obj
 0001:00061370       ?LoadBGListResult@CBrotherMgr@@IEAAXAEAVCDataPacketReader@@@Z 0000000140062370 f   BrotherGroup.obj
 0001:000614b0       ?LoadBGDetail@CBrotherMgr@@IEAAX_J@Z 00000001400624b0 f   BrotherGroup.obj
 0001:00061560       ?LoadBGDetailResult@CBrotherMgr@@IEAAXAEAVCDataPacketReader@@@Z 0000000140062560 f   BrotherGroup.obj
 0001:00061700       ?FindBG@CBrotherMgr@@QEAAPEAVCBrotherGroup@@_J_N@Z 0000000140062700 f   BrotherGroup.obj
 0001:000617d0       ?OnAddBrotherGroup@CBrotherMgr@@IEAAXAEAVCDataPacketReader@@@Z 00000001400627d0 f   BrotherGroup.obj
 0001:00061b80       ?SendDbAddBG@CBrotherMgr@@QEAAXPEBDPEAPEAVCActor@@_J@Z 0000000140062b80 f   BrotherGroup.obj
 0001:00061d10       ?DeleteBG@CBrotherMgr@@QEAA_N_J@Z 0000000140062d10 f   BrotherGroup.obj
 0001:00062620       ??1tagInterMsg@CBrotherGroup@@QEAA@XZ 0000000140063620 f i BrotherGroup.obj
 0001:00062680       ??1tagActorNode@CBrotherGroup@@QEAA@XZ 0000000140063680 f i BrotherGroup.obj
 0001:000626d0       ??_ECBrotherMgr@@UEAAPEAXI@Z 00000001400636d0 f i BrotherGroup.obj
 0001:000626d0       ??_GCBrotherMgr@@UEAAPEAXI@Z 00000001400636d0 f i BrotherGroup.obj
 0001:00062730       ?count@?$CBaseList@UtagInterMsg@CBrotherGroup@@@container@wylib@@QEBA_JXZ 0000000140063730 f i BrotherGroup.obj
 0001:00062750       ?add@?$CBaseList@UtagInterMsg@CBrotherGroup@@@container@wylib@@QEAA_JAEBUtagInterMsg@CBrotherGroup@@@Z 0000000140063750 f i BrotherGroup.obj
 0001:00062850       ?remove@?$CBaseList@UtagInterMsg@CBrotherGroup@@@container@wylib@@QEAAX_J@Z 0000000140063850 f i BrotherGroup.obj
 0001:000628e0       ??B?$CBaseList@UtagInterMsg@CBrotherGroup@@@container@wylib@@QEBAPEAUtagInterMsg@CBrotherGroup@@XZ 00000001400638e0 f i BrotherGroup.obj
 0001:00062900       ?add@?$CBaseList@UtagActorNode@CBrotherGroup@@@container@wylib@@QEAA_JAEBUtagActorNode@CBrotherGroup@@@Z 0000000140063900 f i BrotherGroup.obj
 0001:00062a00       ?remove@?$CBaseList@UtagActorNode@CBrotherGroup@@@container@wylib@@QEAAX_J@Z 0000000140063a00 f i BrotherGroup.obj
 0001:00062a90       ??B?$CBaseList@UtagActorNode@CBrotherGroup@@@container@wylib@@QEBAPEAUtagActorNode@CBrotherGroup@@XZ 0000000140063a90 f i BrotherGroup.obj
 0001:00062ab0       ??0?$Counter@VCBrotherGroup@@@@QEAA@XZ 0000000140063ab0 f i BrotherGroup.obj
 0001:00062af0       ?count@?$CBaseList@PEAVCBrotherGroup@@@container@wylib@@QEBA_JXZ 0000000140063af0 f i BrotherGroup.obj
 0001:00062b10       ?add@?$CBaseList@PEAVCBrotherGroup@@@container@wylib@@QEAA_JAEBQEAVCBrotherGroup@@@Z 0000000140063b10 f i BrotherGroup.obj
 0001:00062c10       ?remove@?$CBaseList@PEAVCBrotherGroup@@@container@wylib@@QEAAX_J@Z 0000000140063c10 f i BrotherGroup.obj
 0001:00062ca0       ??B?$CBaseList@PEAVCBrotherGroup@@@container@wylib@@QEBAPEAPEAVCBrotherGroup@@XZ 0000000140063ca0 f i BrotherGroup.obj
 0001:00062cc0       ??1?$HandleMgr@VCBrotherGroup@@V?$Handle@I@@$0IA@@@QEAA@XZ 0000000140063cc0 f i BrotherGroup.obj
 0001:00062d50       ?remove@?$CBaseList@UtagInterMsg@CBrotherGroup@@@container@wylib@@QEAAX_J0@Z 0000000140063d50 f i BrotherGroup.obj
 0001:00062e80       ?remove@?$CBaseList@UtagActorNode@CBrotherGroup@@@container@wylib@@QEAAX_J0@Z 0000000140063e80 f i BrotherGroup.obj
 0001:00062fb0       ?addToStat@?$Counter@VCBrotherGroup@@@@IEAAXXZ 0000000140063fb0 f i BrotherGroup.obj
 0001:00063050       ?remove@?$CBaseList@PEAVCBrotherGroup@@@container@wylib@@QEAAX_J0@Z 0000000140064050 f i BrotherGroup.obj
 0001:00063180       ?getCount@?$Counter@VCBrotherGroup@@@@SA_KXZ 0000000140064180 f i BrotherGroup.obj
 0001:00063190       ??0?$CVector@UtagInterMsg@CBrotherGroup@@@@QEAA@PEAVCBufferAllocator@@@Z 0000000140064190 f i BrotherGroup.obj
 0001:00063240       ?empty@?$CVector@UtagInterMsg@CBrotherGroup@@@@UEAAXXZ 0000000140064240 f i BrotherGroup.obj
 0001:000632e0       ?reserve@?$CVector@UtagInterMsg@CBrotherGroup@@@@UEAAX_J@Z 00000001400642e0 f i BrotherGroup.obj
 0001:00063460       ??0?$CVector@UtagActorNode@CBrotherGroup@@@@QEAA@PEAVCBufferAllocator@@@Z 0000000140064460 f i BrotherGroup.obj
 0001:00063510       ?empty@?$CVector@UtagActorNode@CBrotherGroup@@@@UEAAXXZ 0000000140064510 f i BrotherGroup.obj
 0001:000635b0       ?reserve@?$CVector@UtagActorNode@CBrotherGroup@@@@UEAAX_J@Z 00000001400645b0 f i BrotherGroup.obj
 0001:00063730       ??0?$CVector@PEAVCBrotherGroup@@@@QEAA@PEAVCBufferAllocator@@@Z 0000000140064730 f i BrotherGroup.obj
 0001:000637e0       ??1?$CVector@PEAVCBrotherGroup@@@@UEAA@XZ 00000001400647e0 f i BrotherGroup.obj
 0001:00063840       ?empty@?$CVector@PEAVCBrotherGroup@@@@UEAAXXZ 0000000140064840 f i BrotherGroup.obj
 0001:000638e0       ?reserve@?$CVector@PEAVCBrotherGroup@@@@UEAAX_J@Z 00000001400648e0 f i BrotherGroup.obj
 0001:00063a60       ??0?$HandleMgr@VCBrotherGroup@@V?$Handle@I@@$0IA@@@QEAA@PEBD@Z 0000000140064a60 f i BrotherGroup.obj
 0001:00063b30       ?Acquire@?$HandleMgr@VCBrotherGroup@@V?$Handle@I@@$0IA@@@QEAAPEAVCBrotherGroup@@AEAV?$Handle@I@@@Z 0000000140064b30 f i BrotherGroup.obj
 0001:00064430       ?Release@?$HandleMgr@VCBrotherGroup@@V?$Handle@I@@$0IA@@@QEAAXV?$Handle@I@@@Z 0000000140065430 f i BrotherGroup.obj
 0001:000646f0       ?Empty@?$HandleMgr@VCBrotherGroup@@V?$Handle@I@@$0IA@@@QEAAXXZ 00000001400656f0 f i BrotherGroup.obj
 0001:000649f0       ??$?5_J@CDataPacketReader@@QEAAAEAV0@AEA_J@Z 00000001400659f0 f i BrotherGroup.obj
 0001:00064a70       ??$?5I@CDataPacketReader@@QEAAAEAV0@AEAI@Z 0000000140065a70 f i BrotherGroup.obj
 0001:00064af0       ??$?5_K@CDataPacketReader@@QEAAAEAV0@AEA_K@Z 0000000140065af0 f i BrotherGroup.obj
 0001:00064b70       ??_G?$CVector@UtagInterMsg@CBrotherGroup@@@@UEAAPEAXI@Z 0000000140065b70 f i BrotherGroup.obj
 0001:00064b70       ??_E?$CVector@UtagInterMsg@CBrotherGroup@@@@UEAAPEAXI@Z 0000000140065b70 f i BrotherGroup.obj
 0001:00064bd0       ??1?$CVector@UtagInterMsg@CBrotherGroup@@@@UEAA@XZ 0000000140065bd0 f i BrotherGroup.obj
 0001:00064c30       ??_G?$CVector@UtagActorNode@CBrotherGroup@@@@UEAAPEAXI@Z 0000000140065c30 f i BrotherGroup.obj
 0001:00064c30       ??_E?$CVector@UtagActorNode@CBrotherGroup@@@@UEAAPEAXI@Z 0000000140065c30 f i BrotherGroup.obj
 0001:00064c90       ??1?$CVector@UtagActorNode@CBrotherGroup@@@@UEAA@XZ 0000000140065c90 f i BrotherGroup.obj
 0001:00064cf0       ??_E?$CVector@PEAVCBrotherGroup@@@@UEAAPEAXI@Z 0000000140065cf0 f i BrotherGroup.obj
 0001:00064cf0       ??_G?$CVector@PEAVCBrotherGroup@@@@UEAAPEAXI@Z 0000000140065cf0 f i BrotherGroup.obj
 0001:00064d50       ??_GCBrotherGroup@@QEAAPEAXI@Z 0000000140065d50 f i BrotherGroup.obj
 0001:00064db0       ??1CBrotherGroup@@QEAA@XZ  0000000140065db0 f i BrotherGroup.obj
 0001:00064e20       ??1?$Counter@VCBrotherGroup@@@@QEAA@XZ 0000000140065e20 f i BrotherGroup.obj
 0001:00064e40       ??0?$CBaseList@UtagInterMsg@CBrotherGroup@@@container@wylib@@QEAA@XZ 0000000140065e40 f i BrotherGroup.obj
 0001:00064ea0       ??0?$CBaseList@UtagActorNode@CBrotherGroup@@@container@wylib@@QEAA@XZ 0000000140065ea0 f i BrotherGroup.obj
 0001:00064f00       ??0?$CBaseList@PEAVCBrotherGroup@@@container@wylib@@QEAA@XZ 0000000140065f00 f i BrotherGroup.obj
 0001:00064f60       ?GetUsedHandleCount@?$HandleMgr@VCBrotherGroup@@V?$Handle@I@@$0IA@@@QEBAIXZ 0000000140065f60 f i BrotherGroup.obj
 0001:00064f80       ?GetTotalHandleCount@?$HandleMgr@VCBrotherGroup@@V?$Handle@I@@$0IA@@@QEAAIXZ 0000000140065f80 f i BrotherGroup.obj
 0001:00064fd0       ?GetChunkIdPos@?$HandleMgr@VCBrotherGroup@@V?$Handle@I@@$0IA@@@QEAAXIAEAI0@Z 0000000140065fd0 f i BrotherGroup.obj
 0001:00065020       ??0?$CBaseList@V?$CBaseList@VCBrotherGroup@@@container@wylib@@@container@wylib@@QEAA@XZ 0000000140066020 f i BrotherGroup.obj
 0001:00065080       ?count@?$CBaseList@V?$CBaseList@VCBrotherGroup@@@container@wylib@@@container@wylib@@QEBA_JXZ 0000000140066080 f i BrotherGroup.obj
 0001:000650a0       ?addArray@?$CBaseList@V?$CBaseList@VCBrotherGroup@@@container@wylib@@@container@wylib@@QEAAXPEAV?$CBaseList@VCBrotherGroup@@@23@_J@Z 00000001400660a0 f i BrotherGroup.obj
 0001:00065190       ??B?$CBaseList@V?$CBaseList@VCBrotherGroup@@@container@wylib@@@container@wylib@@QEBAPEAV?$CBaseList@VCBrotherGroup@@@12@XZ 0000000140066190 f i BrotherGroup.obj
 0001:000651b0       ??0?$CBaseList@VCBrotherGroup@@@container@wylib@@QEAA@XZ 00000001400661b0 f i BrotherGroup.obj
 0001:00065210       ?trunc@?$CBaseList@VCBrotherGroup@@@container@wylib@@QEAAX_J@Z 0000000140066210 f i BrotherGroup.obj
 0001:000652a0       ??B?$CBaseList@VCBrotherGroup@@@container@wylib@@QEBAPEAVCBrotherGroup@@XZ 00000001400662a0 f i BrotherGroup.obj
 0001:000652c0       ??$readAtom@_J@CDataPacketReader@@QEAA_JXZ 00000001400662c0 f i BrotherGroup.obj
 0001:000653e0       ??$readAtom@I@CDataPacketReader@@QEAAIXZ 00000001400663e0 f i BrotherGroup.obj
 0001:00065500       ??$readAtom@_K@CDataPacketReader@@QEAA_KXZ 0000000140066500 f i BrotherGroup.obj
 0001:00065620       ??1HandleMgrStat@@QEAA@XZ  0000000140066620 f i BrotherGroup.obj
 0001:00065670       ?GetAchieveSystem@CActor@@QEAAAEAVCAchieveSystem@@XZ 0000000140066670 f i BrotherGroup.obj
 0001:00065690       ?GetBrotherSystem@CActor@@QEAAAEAVCBrotherSystem@@XZ 0000000140066690 f i BrotherGroup.obj
 0001:000656b0       ??0tagActorNode@CBrotherGroup@@QEAA@XZ 00000001400666b0 f i BrotherGroup.obj
 0001:00065710       ??BGroupSeries@CBrotherMgr@@QEBA_JXZ 0000000140066710 f i BrotherGroup.obj
 0001:00065730       ?allocId@CBrotherMgr@@QEAA?ATGroupSeries@1@XZ 0000000140066730 f i BrotherGroup.obj
 0001:00065810       ?UpdateDateTime@CBrotherMgr@@QEAAXI@Z 0000000140066810 f i BrotherGroup.obj
 0001:000658a0       ??1?$CBaseList@UtagInterMsg@CBrotherGroup@@@container@wylib@@UEAA@XZ 00000001400668a0 f i BrotherGroup.obj
 0001:000658f0       ?empty@?$CBaseList@UtagInterMsg@CBrotherGroup@@@container@wylib@@UEAAXXZ 00000001400668f0 f i BrotherGroup.obj
 0001:00065970       ?reserve@?$CBaseList@UtagInterMsg@CBrotherGroup@@@container@wylib@@UEAAX_J@Z 0000000140066970 f i BrotherGroup.obj
 0001:00065a10       ??1?$CBaseList@UtagActorNode@CBrotherGroup@@@container@wylib@@UEAA@XZ 0000000140066a10 f i BrotherGroup.obj
 0001:00065a60       ?count@?$CBaseList@UtagActorNode@CBrotherGroup@@@container@wylib@@QEBA_JXZ 0000000140066a60 f i BrotherGroup.obj
 0001:00065a80       ?empty@?$CBaseList@UtagActorNode@CBrotherGroup@@@container@wylib@@UEAAXXZ 0000000140066a80 f i BrotherGroup.obj
 0001:00065b00       ?reserve@?$CBaseList@UtagActorNode@CBrotherGroup@@@container@wylib@@UEAAX_J@Z 0000000140066b00 f i BrotherGroup.obj
 0001:00065ba0       ??1?$CBaseList@PEAVCBrotherGroup@@@container@wylib@@UEAA@XZ 0000000140066ba0 f i BrotherGroup.obj
 0001:00065bf0       ?empty@?$CBaseList@PEAVCBrotherGroup@@@container@wylib@@UEAAXXZ 0000000140066bf0 f i BrotherGroup.obj
 0001:00065c70       ?reserve@?$CBaseList@PEAVCBrotherGroup@@@container@wylib@@UEAAX_J@Z 0000000140066c70 f i BrotherGroup.obj
 0001:00065d10       ??1?$CBaseList@V?$CBaseList@VCBrotherGroup@@@container@wylib@@@container@wylib@@UEAA@XZ 0000000140066d10 f i BrotherGroup.obj
 0001:00065d60       ?empty@?$CBaseList@V?$CBaseList@VCBrotherGroup@@@container@wylib@@@container@wylib@@UEAAXXZ 0000000140066d60 f i BrotherGroup.obj
 0001:00065de0       ?reserve@?$CBaseList@V?$CBaseList@VCBrotherGroup@@@container@wylib@@@container@wylib@@UEAAX_J@Z 0000000140066de0 f i BrotherGroup.obj
 0001:00065e80       ??_G?$CBaseList@UtagInterMsg@CBrotherGroup@@@container@wylib@@UEAAPEAXI@Z 0000000140066e80 f i BrotherGroup.obj
 0001:00065e80       ??_E?$CBaseList@UtagInterMsg@CBrotherGroup@@@container@wylib@@UEAAPEAXI@Z 0000000140066e80 f i BrotherGroup.obj
 0001:00065ee0       ??_E?$CBaseList@UtagActorNode@CBrotherGroup@@@container@wylib@@UEAAPEAXI@Z 0000000140066ee0 f i BrotherGroup.obj
 0001:00065ee0       ??_G?$CBaseList@UtagActorNode@CBrotherGroup@@@container@wylib@@UEAAPEAXI@Z 0000000140066ee0 f i BrotherGroup.obj
 0001:00065f40       ??_E?$CBaseList@PEAVCBrotherGroup@@@container@wylib@@UEAAPEAXI@Z 0000000140066f40 f i BrotherGroup.obj
 0001:00065f40       ??_G?$CBaseList@PEAVCBrotherGroup@@@container@wylib@@UEAAPEAXI@Z 0000000140066f40 f i BrotherGroup.obj
 0001:00065fa0       ??_E?$CBaseList@V?$CBaseList@VCBrotherGroup@@@container@wylib@@@container@wylib@@UEAAPEAXI@Z 0000000140066fa0 f i BrotherGroup.obj
 0001:00065fa0       ??_G?$CBaseList@V?$CBaseList@VCBrotherGroup@@@container@wylib@@@container@wylib@@UEAAPEAXI@Z 0000000140066fa0 f i BrotherGroup.obj
 0001:00066000       ?clear@?$CBaseList@UtagInterMsg@CBrotherGroup@@@container@wylib@@QEAAXXZ 0000000140067000 f i BrotherGroup.obj
 0001:00066020       ?clear@?$CBaseList@UtagActorNode@CBrotherGroup@@@container@wylib@@QEAAXXZ 0000000140067020 f i BrotherGroup.obj
 0001:00066040       ?clear@?$CBaseList@PEAVCBrotherGroup@@@container@wylib@@QEAAXXZ 0000000140067040 f i BrotherGroup.obj
 0001:00066060       ?clear@?$CBaseList@V?$CBaseList@VCBrotherGroup@@@container@wylib@@@container@wylib@@QEAAXXZ 0000000140067060 f i BrotherGroup.obj
 0001:00066080       ??1?$CBaseList@VCBrotherGroup@@@container@wylib@@UEAA@XZ 0000000140067080 f i BrotherGroup.obj
 0001:000660d0       ?empty@?$CBaseList@VCBrotherGroup@@@container@wylib@@UEAAXXZ 00000001400670d0 f i BrotherGroup.obj
 0001:00066150       ?reserve@?$CBaseList@VCBrotherGroup@@@container@wylib@@UEAAX_J@Z 0000000140067150 f i BrotherGroup.obj
 0001:000661f0       ??_E?$CBaseList@VCBrotherGroup@@@container@wylib@@UEAAPEAXI@Z 00000001400671f0 f i BrotherGroup.obj
 0001:000661f0       ??_G?$CBaseList@VCBrotherGroup@@@container@wylib@@UEAAPEAXI@Z 00000001400671f0 f i BrotherGroup.obj
 0001:00066250       ?clear@?$CBaseList@VCBrotherGroup@@@container@wylib@@QEAAXXZ 0000000140067250 f i BrotherGroup.obj
 0001:00066270       ?GetHandle@?$Handle@I@@QEBAIXZ 0000000140067270 f i BrotherGroup.obj
 0001:00066290       ?Dump@CBuffAllocStatHelper@@SAXAEAVCBaseStream@stream@wylib@@PEAVCBufferAllocator@@PEBD_N@Z 0000000140067290 f   BuffAllocStatHelper.obj
 0001:00066350       ?Dump@CBuffAllocStatHelper@@SAXAEAVCBaseStream@stream@wylib@@AEAUtagAllocatorMemoryInfo@CBufferAllocator@@PEBD_N@Z 0000000140067350 f   BuffAllocStatHelper.obj
 0001:000663b0       ?DumpHeader@CBuffAllocStatHelper@@KAXAEAVCBaseStream@stream@wylib@@PEBD_N@Z 00000001400673b0 f   BuffAllocStatHelper.obj
 0001:000664a0       ?DumpImpl@CBuffAllocStatHelper@@KAXAEAVCBaseStream@stream@wylib@@AEAUtagAllocatorMemoryInfo@CBufferAllocator@@@Z 00000001400674a0 f   BuffAllocStatHelper.obj
 0001:00066610       ?WriteStrToStream@CBuffAllocStatHelper@@SAXAEAVCBaseStream@stream@wylib@@PEBD@Z 0000000140067610 f   BuffAllocStatHelper.obj
 0001:00066800       ??$GetDateTimeDesc@$0BAE@@CUtility@@SAXAEAY0BAE@DPEBD@Z 0000000140067800 f i BuffAllocStatHelper.obj
 0001:000668a0       ??0CChallengeMgr@@QEAA@XZ  00000001400678a0 f   ChallengeMgr.obj
 0001:00066940       ??1CChallengeMgr@@UEAA@XZ  0000000140067940 f   ChallengeMgr.obj
 0001:00066a90       ?AddChallenge@CChallengeMgr@@QEAAI_JPEAVCActor@@IH@Z 0000000140067a90 f   ChallengeMgr.obj
 0001:00066c20       ?DeleteChallenge@CChallengeMgr@@QEAAXI@Z 0000000140067c20 f   ChallengeMgr.obj
 0001:00066d10       ?UpdateChallenge@CChallengeMgr@@SA_NPEAUtagChallenge@@@Z 0000000140067d10 f   ChallengeMgr.obj
 0001:00066fa0       ?Challenger@CChallengeMgr@@QEAA_NIPEAVCActor@@@Z 0000000140067fa0 f   ChallengeMgr.obj
 0001:000670e0       ?GetChallengeCount@CChallengeMgr@@QEAA_J_J@Z 00000001400680e0 f   ChallengeMgr.obj
 0001:00067220       ?GetNextChallenge@CChallengeMgr@@QEAAI_J@Z 0000000140068220 f   ChallengeMgr.obj
 0001:00067410       ?GetFiging@CChallengeMgr@@QEAAI_J@Z 0000000140068410 f   ChallengeMgr.obj
 0001:00067540       ?GetPlayCount@CChallengeMgr@@QEAAHPEAUtagChallenge@@@Z 0000000140068540 f   ChallengeMgr.obj
 0001:00067600       ?RunOne@CChallengeMgr@@QEAAXXZ 0000000140068600 f   ChallengeMgr.obj
 0001:00067a20       ?ClearAllChallenge@CChallengeMgr@@QEAAX_J@Z 0000000140068a20 f   ChallengeMgr.obj
 0001:00067b20       ?OnRemoveChallenge@CChallengeMgr@@QEAAXPEAUtagChallenge@@@Z 0000000140068b20 f   ChallengeMgr.obj
 0001:00067cd0       ?UpdateChallengeDate@CChallengeMgr@@QEAAXXZ 0000000140068cd0 f   ChallengeMgr.obj
 0001:00067e40       ?OnDbReturnData@CChallengeMgr@@QEAAX_JPEAD_K@Z 0000000140068e40 f   ChallengeMgr.obj
 0001:00068530       ??_GCChallengeMgr@@UEAAPEAXI@Z 0000000140069530 f i ChallengeMgr.obj
 0001:00068530       ??_ECChallengeMgr@@UEAAPEAXI@Z 0000000140069530 f i ChallengeMgr.obj
 0001:00068590       ??0?$CHandleList@PEAUtagChallenge@@I@@QEAA@XZ 0000000140069590 f i ChallengeMgr.obj
 0001:000685f0       ??0?$CBaseLinkedList@PEAUtagChallenge@@@container@wylib@@QEAA@XZ 00000001400695f0 f i ChallengeMgr.obj
 0001:00068660       ?linkAtLast@?$CBaseLinkedList@PEAUtagChallenge@@@container@wylib@@QEAAPEAV?$CLinkedNode@PEAUtagChallenge@@@23@AEBQEAUtagChallenge@@@Z 0000000140069660 f i ChallengeMgr.obj
 0001:000686c0       ??1?$HandleMgr@UtagChallenge@@V?$Handle@I@@$0EAA@@@QEAA@XZ 00000001400696c0 f i ChallengeMgr.obj
 0001:00068750       ??0?$CLinkedListIterator@PEAUtagChallenge@@@container@wylib@@QEAA@AEAV?$CBaseLinkedList@PEAUtagChallenge@@@12@@Z 0000000140069750 f i ChallengeMgr.obj
 0001:000687e0       ??1?$CLinkedListIterator@PEAUtagChallenge@@@container@wylib@@QEAA@XZ 00000001400697e0 f i ChallengeMgr.obj
 0001:000688d0       ?remove@?$CLinkedListIterator@PEAUtagChallenge@@@container@wylib@@QEAAXPEAV?$CLinkedNode@PEAUtagChallenge@@@23@H@Z 00000001400698d0 f i ChallengeMgr.obj
 0001:00068950       ?first@?$CLinkedListIterator@PEAUtagChallenge@@@container@wylib@@QEAAPEAV?$CLinkedNode@PEAUtagChallenge@@@23@XZ 0000000140069950 f i ChallengeMgr.obj
 0001:000689b0       ?next@?$CLinkedListIterator@PEAUtagChallenge@@@container@wylib@@QEAAPEAV?$CLinkedNode@PEAUtagChallenge@@@23@XZ 00000001400699b0 f i ChallengeMgr.obj
 0001:00068a30       ?first@?$CBaseLinkedList@PEAUtagChallenge@@@container@wylib@@QEAAPEAV?$CLinkedNode@PEAUtagChallenge@@@23@XZ 0000000140069a30 f i ChallengeMgr.obj
 0001:00068a50       ?linkAfter@?$CBaseLinkedList@PEAUtagChallenge@@@container@wylib@@QEAAPEAV?$CLinkedNode@PEAUtagChallenge@@@23@AEBQEAUtagChallenge@@PEAV423@@Z 0000000140069a50 f i ChallengeMgr.obj
 0001:00068c00       ?remove@?$CBaseLinkedList@PEAUtagChallenge@@@container@wylib@@QEAAXPEAV?$CLinkedNode@PEAUtagChallenge@@@23@H@Z 0000000140069c00 f i ChallengeMgr.obj
 0001:00068e10       ?setList@?$CLinkedListIterator@PEAUtagChallenge@@@container@wylib@@QEAAXAEAV?$CBaseLinkedList@PEAUtagChallenge@@@23@@Z 0000000140069e10 f i ChallengeMgr.obj
 0001:00068ed0       ??_G?$CLinkedListIterator@PEAUtagChallenge@@@container@wylib@@QEAAPEAXI@Z 0000000140069ed0 f i ChallengeMgr.obj
 0001:00068f30       ??0?$HandleMgr@UtagChallenge@@V?$Handle@I@@$0EAA@@@QEAA@PEBD@Z 0000000140069f30 f i ChallengeMgr.obj
 0001:00069000       ?Acquire@?$HandleMgr@UtagChallenge@@V?$Handle@I@@$0EAA@@@QEAAPEAUtagChallenge@@AEAV?$Handle@I@@@Z 000000014006a000 f i ChallengeMgr.obj
 0001:00069900       ?Release@?$HandleMgr@UtagChallenge@@V?$Handle@I@@$0EAA@@@QEAAXV?$Handle@I@@@Z 000000014006a900 f i ChallengeMgr.obj
 0001:00069ba0       ?Empty@?$HandleMgr@UtagChallenge@@V?$Handle@I@@$0EAA@@@QEAAXXZ 000000014006aba0 f i ChallengeMgr.obj
 0001:00069e80       ??$?6I@CScriptValueList@@QEAAAEAV0@I@Z 000000014006ae80 f i ChallengeMgr.obj
 0001:00069f20       ?GetUsedHandleCount@?$HandleMgr@UtagChallenge@@V?$Handle@I@@$0EAA@@@QEBAIXZ 000000014006af20 f i ChallengeMgr.obj
 0001:00069f40       ?GetTotalHandleCount@?$HandleMgr@UtagChallenge@@V?$Handle@I@@$0EAA@@@QEAAIXZ 000000014006af40 f i ChallengeMgr.obj
 0001:00069f90       ??0?$CBaseList@V?$CBaseList@UtagChallenge@@@container@wylib@@@container@wylib@@QEAA@XZ 000000014006af90 f i ChallengeMgr.obj
 0001:00069ff0       ?count@?$CBaseList@V?$CBaseList@UtagChallenge@@@container@wylib@@@container@wylib@@QEBA_JXZ 000000014006aff0 f i ChallengeMgr.obj
 0001:0006a010       ?addArray@?$CBaseList@V?$CBaseList@UtagChallenge@@@container@wylib@@@container@wylib@@QEAAXPEAV?$CBaseList@UtagChallenge@@@23@_J@Z 000000014006b010 f i ChallengeMgr.obj
 0001:0006a100       ??0?$CBaseList@UtagChallenge@@@container@wylib@@QEAA@XZ 000000014006b100 f i ChallengeMgr.obj
 0001:0006a160       ?trunc@?$CBaseList@UtagChallenge@@@container@wylib@@QEAAX_J@Z 000000014006b160 f i ChallengeMgr.obj
 0001:0006a1f0       ??4CScriptValue@@QEAAAEAV0@I@Z 000000014006b1f0 f i ChallengeMgr.obj
 0001:0006a260       ?GetCaptin@CTeam@@QEAAPEAVCActor@@XZ 000000014006b260 f i ChallengeMgr.obj
 0001:0006a280       ??0tagChallenge@@QEAA@XZ   000000014006b280 f i ChallengeMgr.obj
 0001:0006a2e0       ?GetChallengeSystem@CActor@@QEAAAEAVCChallengeSystem@@XZ 000000014006b2e0 f i ChallengeMgr.obj
 0001:0006a300       ?InitEventScriptVaueList@CActor@@QEAAXAEAVCScriptValueList@@_J@Z 000000014006b300 f i ChallengeMgr.obj
 0001:0006a360       ?GetTeam@CTeamManager@@QEAAPEAVCTeam@@I@Z 000000014006b360 f i ChallengeMgr.obj
 0001:0006a3e0       ?GetTeamMgr@CLogicEngine@@QEAAAEAVCTeamManager@@XZ 000000014006b3e0 f i ChallengeMgr.obj
 0001:0006a400       ??0?$Handle@VCTeam@@@@QEAA@I@Z 000000014006b400 f i ChallengeMgr.obj
 0001:0006a430       ??1?$CHandleList@PEAUtagChallenge@@I@@UEAA@XZ 000000014006b430 f i ChallengeMgr.obj
 0001:0006a490       ?allocNode@?$CHandleList@PEAUtagChallenge@@I@@MEAAPEAV?$CLinkedNode@PEAUtagChallenge@@@container@wylib@@XZ 000000014006b490 f i ChallengeMgr.obj
 0001:0006a4d0       ?freeNode@?$CHandleList@PEAUtagChallenge@@I@@MEAAXPEAV?$CLinkedNode@PEAUtagChallenge@@@container@wylib@@@Z 000000014006b4d0 f i ChallengeMgr.obj
 0001:0006a520       ??1?$CBaseLinkedList@PEAUtagChallenge@@@container@wylib@@UEAA@XZ 000000014006b520 f i ChallengeMgr.obj
 0001:0006a570       ?clear@?$CBaseLinkedList@PEAUtagChallenge@@@container@wylib@@UEAAXXZ 000000014006b570 f i ChallengeMgr.obj
 0001:0006a630       ?allocNode@?$CBaseLinkedList@PEAUtagChallenge@@@container@wylib@@MEAAPEAV?$CLinkedNode@PEAUtagChallenge@@@23@XZ 000000014006b630 f i ChallengeMgr.obj
 0001:0006a6a0       ?freeNode@?$CBaseLinkedList@PEAUtagChallenge@@@container@wylib@@MEAAXPEAV?$CLinkedNode@PEAUtagChallenge@@@23@@Z 000000014006b6a0 f i ChallengeMgr.obj
 0001:0006a720       ??1?$CBaseList@V?$CBaseList@UtagChallenge@@@container@wylib@@@container@wylib@@UEAA@XZ 000000014006b720 f i ChallengeMgr.obj
 0001:0006a770       ?empty@?$CBaseList@V?$CBaseList@UtagChallenge@@@container@wylib@@@container@wylib@@UEAAXXZ 000000014006b770 f i ChallengeMgr.obj
 0001:0006a7f0       ?reserve@?$CBaseList@V?$CBaseList@UtagChallenge@@@container@wylib@@@container@wylib@@UEAAX_J@Z 000000014006b7f0 f i ChallengeMgr.obj
 0001:0006a890       ??_G?$CHandleList@PEAUtagChallenge@@I@@UEAAPEAXI@Z 000000014006b890 f i ChallengeMgr.obj
 0001:0006a890       ??_E?$CHandleList@PEAUtagChallenge@@I@@UEAAPEAXI@Z 000000014006b890 f i ChallengeMgr.obj
 0001:0006a8f0       ??_E?$CBaseLinkedList@PEAUtagChallenge@@@container@wylib@@UEAAPEAXI@Z 000000014006b8f0 f i ChallengeMgr.obj
 0001:0006a8f0       ??_G?$CBaseLinkedList@PEAUtagChallenge@@@container@wylib@@UEAAPEAXI@Z 000000014006b8f0 f i ChallengeMgr.obj
 0001:0006a950       ??0?$CLinkedNode@PEAUtagChallenge@@@container@wylib@@QEAA@XZ 000000014006b950 f i ChallengeMgr.obj
 0001:0006a990       ??_G?$CLinkedNode@PEAUtagChallenge@@@container@wylib@@QEAAPEAXI@Z 000000014006b990 f i ChallengeMgr.obj
 0001:0006a9f0       ??_E?$CBaseList@V?$CBaseList@UtagChallenge@@@container@wylib@@@container@wylib@@UEAAPEAXI@Z 000000014006b9f0 f i ChallengeMgr.obj
 0001:0006a9f0       ??_G?$CBaseList@V?$CBaseList@UtagChallenge@@@container@wylib@@@container@wylib@@UEAAPEAXI@Z 000000014006b9f0 f i ChallengeMgr.obj
 0001:0006aa50       ??1?$CLinkedNode@PEAUtagChallenge@@@container@wylib@@QEAA@XZ 000000014006ba50 f i ChallengeMgr.obj
 0001:0006aa90       ?GetAlloc@?$CHandleList@PEAUtagChallenge@@I@@SAPEAV?$CSingleObjectAllocator@V?$CLinkedNode@PEAUtagChallenge@@@container@wylib@@@@XZ 000000014006ba90 f i ChallengeMgr.obj
 0001:0006ab40       ?clear@?$CBaseList@V?$CBaseList@UtagChallenge@@@container@wylib@@@container@wylib@@QEAAXXZ 000000014006bb40 f i ChallengeMgr.obj
 0001:0006ab60       ?allocObject@?$CSingleObjectAllocator@V?$CLinkedNode@PEAUtagChallenge@@@container@wylib@@@@QEAAPEAV?$CLinkedNode@PEAUtagChallenge@@@container@wylib@@XZ 000000014006bb60 f i ChallengeMgr.obj
 0001:0006ad30       ?freeObject@?$CSingleObjectAllocator@V?$CLinkedNode@PEAUtagChallenge@@@container@wylib@@@@QEAAXPEAV?$CLinkedNode@PEAUtagChallenge@@@container@wylib@@@Z 000000014006bd30 f i ChallengeMgr.obj
 0001:0006ad90       ??0?$Counter@V?$CLinkedNode@PEAUtagChallenge@@@container@wylib@@@@QEAA@XZ 000000014006bd90 f i ChallengeMgr.obj
 0001:0006add0       ??1?$Counter@V?$CLinkedNode@PEAUtagChallenge@@@container@wylib@@@@QEAA@XZ 000000014006bdd0 f i ChallengeMgr.obj
 0001:0006adf0       ??1?$CBaseList@UtagChallenge@@@container@wylib@@UEAA@XZ 000000014006bdf0 f i ChallengeMgr.obj
 0001:0006ae40       ?empty@?$CBaseList@UtagChallenge@@@container@wylib@@UEAAXXZ 000000014006be40 f i ChallengeMgr.obj
 0001:0006aec0       ?reserve@?$CBaseList@UtagChallenge@@@container@wylib@@UEAAX_J@Z 000000014006bec0 f i ChallengeMgr.obj
 0001:0006af60       ??_G?$CBaseList@UtagChallenge@@@container@wylib@@UEAAPEAXI@Z 000000014006bf60 f i ChallengeMgr.obj
 0001:0006af60       ??_E?$CBaseList@UtagChallenge@@@container@wylib@@UEAAPEAXI@Z 000000014006bf60 f i ChallengeMgr.obj
 0001:0006afc0       ??0?$CSingleObjectAllocator@V?$CLinkedNode@PEAUtagChallenge@@@container@wylib@@@@QEAA@PEBD@Z 000000014006bfc0 f i ChallengeMgr.obj
 0001:0006b060       ?empty@?$CBaseList@PEAV?$CLinkedNode@PEAUtagChallenge@@@container@wylib@@@container@wylib@@UEAAXXZ 000000014006c060 f i ChallengeMgr.obj
 0001:0006b0e0       ?reserve@?$CBaseList@PEAV?$CLinkedNode@PEAUtagChallenge@@@container@wylib@@@container@wylib@@UEAAX_J@Z 000000014006c0e0 f i ChallengeMgr.obj
 0001:0006b180       ??_E?$CSingleObjectAllocator@V?$CLinkedNode@PEAUtagChallenge@@@container@wylib@@@@UEAAPEAXI@Z 000000014006c180 f i ChallengeMgr.obj
 0001:0006b180       ??_G?$CSingleObjectAllocator@V?$CLinkedNode@PEAUtagChallenge@@@container@wylib@@@@UEAAPEAXI@Z 000000014006c180 f i ChallengeMgr.obj
 0001:0006b1e0       ??1?$CSingleObjectAllocator@V?$CLinkedNode@PEAUtagChallenge@@@container@wylib@@@@UEAA@XZ 000000014006c1e0 f i ChallengeMgr.obj
 0001:0006b2a0       ??1?$CBaseList@PEAV?$CLinkedNode@PEAUtagChallenge@@@container@wylib@@@container@wylib@@UEAA@XZ 000000014006c2a0 f i ChallengeMgr.obj
 0001:0006b2f0       ??_E?$CBaseList@PEAV?$CLinkedNode@PEAUtagChallenge@@@container@wylib@@@container@wylib@@UEAAPEAXI@Z 000000014006c2f0 f i ChallengeMgr.obj
 0001:0006b2f0       ??_G?$CBaseList@PEAV?$CLinkedNode@PEAUtagChallenge@@@container@wylib@@@container@wylib@@UEAAPEAXI@Z 000000014006c2f0 f i ChallengeMgr.obj
 0001:0006b350       ?count@?$CBaseList@PEAV?$CLinkedNode@PEAUtagChallenge@@@container@wylib@@@container@wylib@@QEBA_JXZ 000000014006c350 f i ChallengeMgr.obj
 0001:0006b370       ?maxCount@?$CBaseList@PEAV?$CLinkedNode@PEAUtagChallenge@@@container@wylib@@@container@wylib@@QEBA_JXZ 000000014006c370 f i ChallengeMgr.obj
 0001:0006b390       ?add@?$CBaseList@PEAV?$CLinkedNode@PEAUtagChallenge@@@container@wylib@@@container@wylib@@QEAA_JAEBQEAV?$CLinkedNode@PEAUtagChallenge@@@23@@Z 000000014006c390 f i ChallengeMgr.obj
 0001:0006b490       ?clear@?$CBaseList@PEAV?$CLinkedNode@PEAUtagChallenge@@@container@wylib@@@container@wylib@@QEAAXXZ 000000014006c490 f i ChallengeMgr.obj
 0001:0006b4b0       ?trunc@?$CBaseList@PEAV?$CLinkedNode@PEAUtagChallenge@@@container@wylib@@@container@wylib@@QEAAX_J@Z 000000014006c4b0 f i ChallengeMgr.obj
 0001:0006b540       ??B?$CBaseList@PEAV?$CLinkedNode@PEAUtagChallenge@@@container@wylib@@@container@wylib@@QEBAPEAPEAV?$CLinkedNode@PEAUtagChallenge@@@12@XZ 000000014006c540 f i ChallengeMgr.obj
 0001:0006b560       ?addToStat@?$Counter@V?$CLinkedNode@PEAUtagChallenge@@@container@wylib@@@@IEAAXXZ 000000014006c560 f i ChallengeMgr.obj
 0001:0006b600       ?clear@?$CBaseList@UtagChallenge@@@container@wylib@@QEAAXXZ 000000014006c600 f i ChallengeMgr.obj
 0001:0006b620       ??0?$CBaseList@PEAV?$CLinkedNode@PEAUtagChallenge@@@container@wylib@@@container@wylib@@QEAA@XZ 000000014006c620 f i ChallengeMgr.obj
 0001:0006b680       ?getCount@?$Counter@V?$CLinkedNode@PEAUtagChallenge@@@container@wylib@@@@SA_KXZ 000000014006c680 f i ChallengeMgr.obj
 0001:0006b690       ??$?6PEAVCActor@@@CScriptValueList@@QEAAAEAV0@QEAVCActor@@@Z 000000014006c690 f i ChallengeMgr.obj
 0001:0006b730       ??4CScriptValue@@QEAAAEAV0@PEBX@Z 000000014006c730 f i ChallengeMgr.obj
 0001:0006b7a0       ??$?6_J@CScriptValueList@@QEAAAEAV0@_J@Z 000000014006c7a0 f i ChallengeMgr.obj
 0001:0006b840       ??4CScriptValue@@QEAAAEAV0@_J@Z 000000014006c840 f i ChallengeMgr.obj
 0001:0006b8b0       ?GetDataPtr@?$HandleMgr@VCTeam@@V?$Handle@VCTeam@@@@$0EAA@@@QEAAPEAVCTeam@@V?$Handle@VCTeam@@@@@Z 000000014006c8b0 f i ChallengeMgr.obj
 0001:0006ba50       ?GetDataPtr@?$HandleMgr@UtagChallenge@@V?$Handle@I@@$0EAA@@@QEAAPEAUtagChallenge@@V?$Handle@I@@@Z 000000014006ca50 f i ChallengeMgr.obj
 0001:0006bbe0       ?GetChunkIdPos@?$HandleMgr@VCTeam@@V?$Handle@VCTeam@@@@$0EAA@@@QEAAXIAEAI0@Z 000000014006cbe0 f i ChallengeMgr.obj
 0001:0006bc30       ??B?$CBaseList@V?$CBaseList@VCTeam@@@container@wylib@@@container@wylib@@QEBAPEAV?$CBaseList@VCTeam@@@12@XZ 000000014006cc30 f i ChallengeMgr.obj
 0001:0006bc50       ?count@?$CBaseList@V?$CBaseList@V?$Handle@VCTeam@@@@@container@wylib@@@container@wylib@@QEBA_JXZ 000000014006cc50 f i ChallengeMgr.obj
 0001:0006bc70       ??B?$CBaseList@V?$CBaseList@V?$Handle@VCTeam@@@@@container@wylib@@@container@wylib@@QEBAPEAV?$CBaseList@V?$Handle@VCTeam@@@@@12@XZ 000000014006cc70 f i ChallengeMgr.obj
 0001:0006bc90       ?GetIndex@?$Handle@VCTeam@@@@QEBAIXZ 000000014006cc90 f i ChallengeMgr.obj
 0001:0006bcb0       ?GetMagic@?$Handle@VCTeam@@@@QEBAIXZ 000000014006ccb0 f i ChallengeMgr.obj
 0001:0006bcd0       ?IsNull@?$Handle@VCTeam@@@@QEBA_NXZ 000000014006ccd0 f i ChallengeMgr.obj
 0001:0006bd30       ?GetChunkIdPos@?$HandleMgr@UtagChallenge@@V?$Handle@I@@$0EAA@@@QEAAXIAEAI0@Z 000000014006cd30 f i ChallengeMgr.obj
 0001:0006bd80       ??B?$CBaseList@V?$CBaseList@UtagChallenge@@@container@wylib@@@container@wylib@@QEBAPEAV?$CBaseList@UtagChallenge@@@12@XZ 000000014006cd80 f i ChallengeMgr.obj
 0001:0006bda0       ??B?$CBaseList@VCTeam@@@container@wylib@@QEBAPEAVCTeam@@XZ 000000014006cda0 f i ChallengeMgr.obj
 0001:0006bdc0       ??B?$CBaseList@V?$Handle@VCTeam@@@@@container@wylib@@QEBAPEAV?$Handle@VCTeam@@@@XZ 000000014006cdc0 f i ChallengeMgr.obj
 0001:0006bde0       ??B?$CBaseList@UtagChallenge@@@container@wylib@@QEBAPEAUtagChallenge@@XZ 000000014006cde0 f i ChallengeMgr.obj
 0001:0006be00       ?Initialize@CChatManager@@UEAA_NXZ 000000014006ce00 f   ChatManager.obj
 0001:0006bee0       ?LoadChatFilter@CChatManager@@QEAA_NHH@Z 000000014006cee0 f   ChatManager.obj
 0001:0006bfc0       ?ReloadFilterDb@CChatManager@@QEAA_NHH@Z 000000014006cfc0 f   ChatManager.obj
 0001:0006c110       ?RunOne@CChatManager@@QEAAX_J@Z 000000014006d110 f   ChatManager.obj
 0001:0006c320       ?Filter@CChatManager@@QEAAHPEAD@Z 000000014006d320 f   ChatManager.obj
 0001:0006c460       ?IsStrInvalid@CChatManager@@QEAA_NPEAD@Z 000000014006d460 f   ChatManager.obj
 0001:0006c4d0       ?Destroy@CChatManager@@UEAAXXZ 000000014006d4d0 f   ChatManager.obj
 0001:0006c590       ?SendNoticeToBackMgr@CChatManager@@QEAAXXZ 000000014006d590 f   ChatManager.obj
 0001:0006c6b0       ?AddNotice@CChatManager@@QEAA_NPEBDH_J@Z 000000014006d6b0 f   ChatManager.obj
 0001:0006c7b0       ?DeleteNoticeByIndex@CChatManager@@QEAA_NH@Z 000000014006d7b0 f   ChatManager.obj
 0001:0006c8a0       ?DeleteNotice@CChatManager@@QEAA_NPEBD@Z 000000014006d8a0 f   ChatManager.obj
 0001:0006c9c0       ?DeleteAllNotice@CChatManager@@QEAA_NXZ 000000014006d9c0 f   ChatManager.obj
 0001:0006ca20       ?SaveNotice@CChatManager@@QEAAXXZ 000000014006da20 f   ChatManager.obj
 0001:0006cb80       ?ParseNotice@CChatManager@@QEAAXPEBD@Z 000000014006db80 f   ChatManager.obj
 0001:0006ccc0       ?GmSendOffMsgToActor@CChatManager@@QEAAXPEBD0@Z 000000014006dcc0 f   ChatManager.obj
 0001:0006cdf0       ?MgrAddFilterWords@CChatManager@@QEAAXPEADHHH@Z 000000014006ddf0 f   ChatManager.obj
 0001:0006d000       ?OnDbReturnData@CChatManager@@QEAAX_JPEAD_K@Z 000000014006e000 f   ChatManager.obj
 0001:0006d590       ?OnLogShutUpOP@CChatManager@@QEAAXPEADEH@Z 000000014006e590 f   ChatManager.obj
 0001:0006dc60       ?SetNextHitTimeFromNow@?$CTimer@$0OKGA@@@QEAAX_J@Z 000000014006ec60 f i ChatManager.obj
 0001:0006dcb0       ?count@?$CBaseList@UNoticeData@CChatManager@@@container@wylib@@QEBA_JXZ 000000014006ecb0 f i ChatManager.obj
 0001:0006dcd0       ?add@?$CBaseList@UNoticeData@CChatManager@@@container@wylib@@QEAA_JAEBUNoticeData@CChatManager@@@Z 000000014006ecd0 f i ChatManager.obj
 0001:0006ddd0       ?remove@?$CBaseList@UNoticeData@CChatManager@@@container@wylib@@QEAAX_J@Z 000000014006edd0 f i ChatManager.obj
 0001:0006de60       ??B?$CBaseList@UNoticeData@CChatManager@@@container@wylib@@QEBAPEAUNoticeData@CChatManager@@XZ 000000014006ee60 f i ChatManager.obj
 0001:0006de80       ?remove@?$CBaseList@UNoticeData@CChatManager@@@container@wylib@@QEAAX_J0@Z 000000014006ee80 f i ChatManager.obj
 0001:0006dfb0       ??$?5TItemSeries@CUserItem@@@CDataPacketReader@@QEAAAEAV0@AEATItemSeries@CUserItem@@@Z 000000014006efb0 f i ChatManager.obj
 0001:0006e030       ??$readAtom@TItemSeries@CUserItem@@@CDataPacketReader@@QEAA?ATItemSeries@CUserItem@@XZ 000000014006f030 f i ChatManager.obj
 0001:0006e170       ??0CMiniDateTime@@QEAA@AEBU0@@Z 000000014006f170 f i ChatManager.obj
 0001:0006e1a0       ?GetServerOpenTime@CLogicServer@@QEAAAEAUCMiniDateTime@@XZ 000000014006f1a0 f i ChatManager.obj
 0001:0006e1c0       ?GetLocalClient@CLogicServer@@QEAAPEAVCLocalSender@@XZ 000000014006f1c0 f i ChatManager.obj
 0001:0006e1e0       ?GetBackStageSender@CLogicServer@@QEAAPEAVCBackStageSender@@XZ 000000014006f1e0 f i ChatManager.obj
 0001:0006e200       ?GetMgrClient@CLogicServer@@QEAAPEAVCMgrServClient@@XZ 000000014006f200 f i ChatManager.obj
 0001:0006e220       ?GAllocBuffer@@YAPEAX_K@Z  000000014006f220 f i ChatManager.obj
 0001:0006e280       ?GFreeBuffer@@YAXPEAX@Z    000000014006f280 f i ChatManager.obj
 0001:0006e2e0       ?clear@?$CBaseList@UNoticeData@CChatManager@@@container@wylib@@QEAAXXZ 000000014006f2e0 f i ChatManager.obj
 0001:0006e300       ??0CCollectComponet@@QEAA@XZ 000000014006f300 f   CollectMgr.obj
 0001:0006e4d0       ??1CCollectComponet@@UEAA@XZ 000000014006f4d0 f   CollectMgr.obj
 0001:0006e530       ?Load@CCollectComponet@@QEAAXXZ 000000014006f530 f   CollectMgr.obj
 0001:0006e650       ?SetCollectBaseData@CCollectComponet@@QEAAXHHHHHHH@Z 000000014006f650 f   CollectMgr.obj
 0001:0006e710       ?LoadCollectRank@CCollectComponet@@QEAAXXZ 000000014006f710 f   CollectMgr.obj
 0001:0006f380       ?GetIndexByItemId@CCollectComponet@@QEAAHH@Z 0000000140070380 f   CollectMgr.obj
 0001:0006f420       ?SetSuperInvestStartDate@CCollectComponet@@QEAAXPEAD0H_N@Z 0000000140070420 f   CollectMgr.obj
 0001:0006f620       ?SetSafeActivityStartDate@CCollectComponet@@QEAAXHPEADH0_N@Z 0000000140070620 f   CollectMgr.obj
 0001:0006f970       ?SendInvestAwardToMsg@CCollectComponet@@QEAAXXZ 0000000140070970 f   CollectMgr.obj
 0001:0006fcc0       ?SendChristEggAward@CCollectComponet@@QEAAXHIH@Z 0000000140070cc0 f   CollectMgr.obj
 0001:0006feb0       ?SetSuperInvestOnOff@CCollectComponet@@QEAA_NPEAD@Z 0000000140070eb0 f   CollectMgr.obj
 0001:0006ffe0       ?SetThanksConsumeStartDate@CCollectComponet@@QEAAXPEAD0H_N@Z 0000000140070fe0 f   CollectMgr.obj
 0001:000701d0       ?SetThanksConsumeOnOff@CCollectComponet@@QEAA_NPEAD@Z 00000001400711d0 f   CollectMgr.obj
 0001:00070340       ?RunOne@CCollectComponet@@QEAAXAEAUCMiniDateTime@@_J@Z 0000000140071340 f   CollectMgr.obj
 0001:000703c0       ?OnSelfActivityTimer@CCollectComponet@@QEAA_NXZ 00000001400713c0 f   CollectMgr.obj
 0001:000705e0       ?UpdateOnlineSelfActivityInfo@CCollectComponet@@QEAAXHPEADH@Z 00000001400715e0 f   CollectMgr.obj
 0001:000706f0       ?OnSuperInvestTimer@CCollectComponet@@QEAA_NXZ 00000001400716f0 f   CollectMgr.obj
 0001:00070800       ?OnThanksConsumeTimer@CCollectComponet@@QEAA_NXZ 0000000140071800 f   CollectMgr.obj
 0001:00070910       ?UpdateOnlineThanksConsumeInfo@CCollectComponet@@QEAAXXZ 0000000140071910 f   CollectMgr.obj
 0001:000709f0       ?UpdateOnlineSuperInvestInfo@CCollectComponet@@QEAAXXZ 00000001400719f0 f   CollectMgr.obj
 0001:00070ad0       ?GetThanksConsumeLeftTime@CCollectComponet@@QEAAHXZ 0000000140071ad0 f   CollectMgr.obj
 0001:00070b70       ?GetsuperInvestLeftTime@CCollectComponet@@QEAAHXZ 0000000140071b70 f   CollectMgr.obj
 0001:00070c10       ?ClearThanksConsume@CCollectComponet@@QEAAXXZ 0000000140071c10 f   CollectMgr.obj
 0001:00070c80       ?SetInvestStartDate@CCollectComponet@@QEAAXPEADH_N@Z 0000000140071c80 f   CollectMgr.obj
 0001:00070e30       ?OnInvestTimer@CCollectComponet@@QEAAXXZ 0000000140071e30 f   CollectMgr.obj
 0001:00070f20       ?SetDoubleExpDateOnTime@CCollectComponet@@QEAA_NPEADHH_N@Z 0000000140071f20 f   CollectMgr.obj
 0001:00071130       ?OnDoubleExpTimer@CCollectComponet@@QEAAXXZ 0000000140072130 f   CollectMgr.obj
 0001:00071e40       ??_ECCollectComponet@@UEAAPEAXI@Z 0000000140072e40 f i CollectMgr.obj
 0001:00071e40       ??_GCCollectComponet@@UEAAPEAXI@Z 0000000140072e40 f i CollectMgr.obj
 0001:00071ea0       ?count@?$CBaseList@UtagCollectBeseData@@@container@wylib@@QEBA_JXZ 0000000140072ea0 f i CollectMgr.obj
 0001:00071ec0       ?add@?$CBaseList@UtagCollectBeseData@@@container@wylib@@QEAA_JAEBUtagCollectBeseData@@@Z 0000000140072ec0 f i CollectMgr.obj
 0001:00071fc0       ??B?$CBaseList@UtagCollectBeseData@@@container@wylib@@QEBAPEAUtagCollectBeseData@@XZ 0000000140072fc0 f i CollectMgr.obj
 0001:00071fe0       ??0?$CVector@UtagCollectBeseData@@@@QEAA@PEAVCBufferAllocator@@@Z 0000000140072fe0 f i CollectMgr.obj
 0001:00072090       ??1?$CVector@UtagCollectBeseData@@@@UEAA@XZ 0000000140073090 f i CollectMgr.obj
 0001:000720f0       ?empty@?$CVector@UtagCollectBeseData@@@@UEAAXXZ 00000001400730f0 f i CollectMgr.obj
 0001:00072190       ?reserve@?$CVector@UtagCollectBeseData@@@@UEAAX_J@Z 0000000140073190 f i CollectMgr.obj
 0001:00072310       ??_E?$CVector@UtagCollectBeseData@@@@UEAAPEAXI@Z 0000000140073310 f i CollectMgr.obj
 0001:00072310       ??_G?$CVector@UtagCollectBeseData@@@@UEAAPEAXI@Z 0000000140073310 f i CollectMgr.obj
 0001:00072370       ??0?$CBaseList@UtagCollectBeseData@@@container@wylib@@QEAA@XZ 0000000140073370 f i CollectMgr.obj
 0001:000723d0       ?GetCollectSystem@CActor@@QEAAAEAVCCollectSystem@@XZ 00000001400733d0 f i CollectMgr.obj
 0001:000723f0       ??0tagCollectBeseData@@QEAA@XZ 00000001400733f0 f i CollectMgr.obj
 0001:00072440       ?SetThanksConsumeActFlag@CCollectComponet@@QEAAXH@Z 0000000140073440 f i CollectMgr.obj
 0001:000724c0       ?IsOpenThanksConsumeAct@CCollectComponet@@QEAA_NW4emThanksConsumedState@1@@Z 00000001400734c0 f i CollectMgr.obj
 0001:00072530       ?SetSuperInvestActFlag@CCollectComponet@@QEAAXH@Z 0000000140073530 f i CollectMgr.obj
 0001:00072560       ?IsOpenSuperInvestAct@CCollectComponet@@QEAA_NW4emThanksConsumedState@1@@Z 0000000140073560 f i CollectMgr.obj
 0001:000725d0       ?GetColCount@CRanking@@QEAAHXZ 00000001400735d0 f i CollectMgr.obj
 0001:00072620       ?GetColCount@CRankingItem@@QEAAHXZ 0000000140073620 f i CollectMgr.obj
 0001:00072640       ??1?$CBaseList@UtagCollectBeseData@@@container@wylib@@UEAA@XZ 0000000140073640 f i CollectMgr.obj
 0001:00072690       ?empty@?$CBaseList@UtagCollectBeseData@@@container@wylib@@UEAAXXZ 0000000140073690 f i CollectMgr.obj
 0001:00072710       ?reserve@?$CBaseList@UtagCollectBeseData@@@container@wylib@@UEAAX_J@Z 0000000140073710 f i CollectMgr.obj
 0001:000727b0       ??_E?$CBaseList@UtagCollectBeseData@@@container@wylib@@UEAAPEAXI@Z 00000001400737b0 f i CollectMgr.obj
 0001:000727b0       ??_G?$CBaseList@UtagCollectBeseData@@@container@wylib@@UEAAPEAXI@Z 00000001400737b0 f i CollectMgr.obj
 0001:00072810       ?clear@?$CBaseList@UtagCollectBeseData@@@container@wylib@@QEAAXXZ 0000000140073810 f i CollectMgr.obj
 0001:00072830       ??0CConsignmentMgr@@QEAA@XZ 0000000140073830 f   ConsignmentMgr.obj
 0001:000728b0       ??1CConsignmentMgr@@QEAA@XZ 00000001400738b0 f   ConsignmentMgr.obj
 0001:000729c0       ?Load@CConsignmentMgr@@QEAAXXZ 00000001400739c0 f   ConsignmentMgr.obj
 0001:00072a90       ?OnDbReturnData@CConsignmentMgr@@QEAAX_JPEAD_K@Z 0000000140073a90 f   ConsignmentMgr.obj
 0001:00072c60       ?RunOne@CConsignmentMgr@@QEAAXXZ 0000000140073c60 f   ConsignmentMgr.obj
 0001:00073180       ?OnReturnData@CConsignmentMgr@@AEAAX_JAEAVCDataPacketReader@@@Z 0000000140074180 f   ConsignmentMgr.obj
 0001:00073570       ?GetItemInfo@CConsignmentMgr@@SAX_JAEAE11@Z 0000000140074570 f   ConsignmentMgr.obj
 0001:000736b0       ?AddConsiItem@CConsignmentMgr@@QEAAIPEAUCUserItem@@IIIEPEBDV?$Handle@I@@@Z 00000001400746b0 f   ConsignmentMgr.obj
 0001:00073b00       ?DeleteConsiItem@CConsignmentMgr@@QEAA_NTItemSeries@CUserItem@@_J_N@Z 0000000140074b00 f   ConsignmentMgr.obj
 0001:00073e70       ?SendNewItem@CConsignmentMgr@@QEAAXPEAUCUserItem@@III_J@Z 0000000140074e70 f   ConsignmentMgr.obj
 0001:00073fa0       ?SendDelItem@CConsignmentMgr@@QEAAXTItemSeries@CUserItem@@_N@Z 0000000140074fa0 f   ConsignmentMgr.obj
 0001:00074730       ??0?$CHandleList@PEAUtagConsingmentData@@I@@QEAA@XZ 0000000140075730 f i ConsignmentMgr.obj
 0001:00074790       ??0CUserItem@@QEAA@XZ      0000000140075790 f i ConsignmentMgr.obj
 0001:000747e0       ??0CUserItem@@QEAA@AEBU0@@Z 00000001400757e0 f i ConsignmentMgr.obj
 0001:000749c0       ??1?$HandleMgr@UtagConsingmentData@@V?$Handle@I@@$0EAA@@@QEAA@XZ 00000001400759c0 f i ConsignmentMgr.obj
 0001:00074a50       ??0?$CBaseLinkedList@PEAUtagConsingmentData@@@container@wylib@@QEAA@XZ 0000000140075a50 f i ConsignmentMgr.obj
 0001:00074ac0       ??0?$CLinkedListIterator@PEAUtagConsingmentData@@@container@wylib@@QEAA@AEAV?$CBaseLinkedList@PEAUtagConsingmentData@@@12@@Z 0000000140075ac0 f i ConsignmentMgr.obj
 0001:00074b50       ??1?$CLinkedListIterator@PEAUtagConsingmentData@@@container@wylib@@QEAA@XZ 0000000140075b50 f i ConsignmentMgr.obj
 0001:00074c40       ?remove@?$CLinkedListIterator@PEAUtagConsingmentData@@@container@wylib@@QEAAXPEAV?$CLinkedNode@PEAUtagConsingmentData@@@23@H@Z 0000000140075c40 f i ConsignmentMgr.obj
 0001:00074cc0       ?first@?$CLinkedListIterator@PEAUtagConsingmentData@@@container@wylib@@QEAAPEAV?$CLinkedNode@PEAUtagConsingmentData@@@23@XZ 0000000140075cc0 f i ConsignmentMgr.obj
 0001:00074d20       ?next@?$CLinkedListIterator@PEAUtagConsingmentData@@@container@wylib@@QEAAPEAV?$CLinkedNode@PEAUtagConsingmentData@@@23@XZ 0000000140075d20 f i ConsignmentMgr.obj
 0001:00074da0       ?first@?$CBaseLinkedList@PEAUtagConsingmentData@@@container@wylib@@QEAAPEAV?$CLinkedNode@PEAUtagConsingmentData@@@23@XZ 0000000140075da0 f i ConsignmentMgr.obj
 0001:00074dc0       ?remove@?$CBaseLinkedList@PEAUtagConsingmentData@@@container@wylib@@QEAAXPEAV?$CLinkedNode@PEAUtagConsingmentData@@@23@H@Z 0000000140075dc0 f i ConsignmentMgr.obj
 0001:00074fd0       ?setList@?$CLinkedListIterator@PEAUtagConsingmentData@@@container@wylib@@QEAAXAEAV?$CBaseLinkedList@PEAUtagConsingmentData@@@23@@Z 0000000140075fd0 f i ConsignmentMgr.obj
 0001:00075090       ??_G?$CLinkedListIterator@PEAUtagConsingmentData@@@container@wylib@@QEAAPEAXI@Z 0000000140076090 f i ConsignmentMgr.obj
 0001:000750f0       ??0?$HandleMgr@UtagConsingmentData@@V?$Handle@I@@$0EAA@@@QEAA@PEBD@Z 00000001400760f0 f i ConsignmentMgr.obj
 0001:000751c0       ?Acquire@?$HandleMgr@UtagConsingmentData@@V?$Handle@I@@$0EAA@@@QEAAPEAUtagConsingmentData@@AEAV?$Handle@I@@@Z 00000001400761c0 f i ConsignmentMgr.obj
 0001:00075ac0       ?Empty@?$HandleMgr@UtagConsingmentData@@V?$Handle@I@@$0EAA@@@QEAAXXZ 0000000140076ac0 f i ConsignmentMgr.obj
 0001:00075da0       ??$?6UCUserItem@@@CDataPacket@@QEAAAEAV0@UCUserItem@@@Z 0000000140076da0 f i ConsignmentMgr.obj
 0001:00075e70       ?GetUsedHandleCount@?$HandleMgr@UtagConsingmentData@@V?$Handle@I@@$0EAA@@@QEBAIXZ 0000000140076e70 f i ConsignmentMgr.obj
 0001:00075e90       ?GetTotalHandleCount@?$HandleMgr@UtagConsingmentData@@V?$Handle@I@@$0EAA@@@QEAAIXZ 0000000140076e90 f i ConsignmentMgr.obj
 0001:00075ee0       ??0?$CBaseList@V?$CBaseList@UtagConsingmentData@@@container@wylib@@@container@wylib@@QEAA@XZ 0000000140076ee0 f i ConsignmentMgr.obj
 0001:00075f40       ?count@?$CBaseList@V?$CBaseList@UtagConsingmentData@@@container@wylib@@@container@wylib@@QEBA_JXZ 0000000140076f40 f i ConsignmentMgr.obj
 0001:00075f60       ?addArray@?$CBaseList@V?$CBaseList@UtagConsingmentData@@@container@wylib@@@container@wylib@@QEAAXPEAV?$CBaseList@UtagConsingmentData@@@23@_J@Z 0000000140076f60 f i ConsignmentMgr.obj
 0001:00076050       ??0?$CBaseList@UtagConsingmentData@@@container@wylib@@QEAA@XZ 0000000140077050 f i ConsignmentMgr.obj
 0001:000760b0       ?trunc@?$CBaseList@UtagConsingmentData@@@container@wylib@@QEAAX_J@Z 00000001400770b0 f i ConsignmentMgr.obj
 0001:00076140       ??$writeAtom@UCUserItem@@@CDataPacket@@QEAAXUCUserItem@@@Z 0000000140077140 f i ConsignmentMgr.obj
 0001:000762b0       ?getLength@CDataPacketReader@@QEAA_KXZ 00000001400772b0 f i ConsignmentMgr.obj
 0001:000762e0       ?GetConsiConfig@CLogicDataProvider@@QEAAAEAVConsignmentProvider@@XZ 00000001400772e0 f i ConsignmentMgr.obj
 0001:00076300       ??0tagConsingmentData@@QEAA@XZ 0000000140077300 f i ConsignmentMgr.obj
 0001:00076360       ?AddTimeoutItem@ConsignmentSystem@@QEAAXAEAV?$Handle@I@@@Z 0000000140077360 f i ConsignmentMgr.obj
 0001:00076440       ?GetConsiSystem@CActor@@QEAAAEAVConsignmentSystem@@XZ 0000000140077440 f i ConsignmentMgr.obj
 0001:00076460       ?GetPtrFromHandle@CConsignmentMgr@@QEAAPEAUtagConsingmentData@@V?$Handle@I@@@Z 0000000140077460 f i ConsignmentMgr.obj
 0001:000764b0       ?AddToList@CConsignmentMgr@@AEAAXPEAUtagConsingmentData@@@Z 00000001400774b0 f i ConsignmentMgr.obj
 0001:00076510       ?_CopyAllocUserItem@CLogicEngine@@QEAAPEAUCUserItem@@_NPEAU2@PEBD_J@Z 0000000140077510 f i ConsignmentMgr.obj
 0001:000765d0       ?_AllocUserItem@CLogicEngine@@QEAAPEAUCUserItem@@_NPEBD_J@Z 00000001400775d0 f i ConsignmentMgr.obj
 0001:00076640       ?allocItem@CUserItemAllocator@@QEAAPEAUCUserItem@@_NPEBD_J@Z 0000000140077640 f i ConsignmentMgr.obj
 0001:000768b0       ?CheckItemAllocThread@CUserItemAllocator@@QEAAXPEBD_J@Z 00000001400778b0 f i ConsignmentMgr.obj
 0001:00076990       ?AddItemLog@CUserItemAllocator@@QEAAXPEBD_J@Z 0000000140077990 f i ConsignmentMgr.obj
 0001:00076b20       ?_DestroyUserItem@CLogicEngine@@QEAAXPEAUCUserItem@@PEBD_J@Z 0000000140077b20 f i ConsignmentMgr.obj
 0001:00076b90       ?DestroyUserItem@CUserItemAllocator@@QEAAXPEAUCUserItem@@PEBD_J@Z 0000000140077b90 f i ConsignmentMgr.obj
 0001:00076d10       ?DecItemLog@CUserItemAllocator@@QEAAXPEBD_J@Z 0000000140077d10 f i ConsignmentMgr.obj
 0001:00076ea0       ?GetLogicEngine@CLogicServer@@QEAAPEAVCLogicEngine@@XZ 0000000140077ea0 f i ConsignmentMgr.obj
 0001:00076ec0       ?allocObject@?$CSingleObjectAllocator@UCItemData@@@@QEAAPEAUCItemData@@XZ 0000000140077ec0 f i ConsignmentMgr.obj
 0001:00077090       ?freeObject@?$CSingleObjectAllocator@UCItemData@@@@QEAAXPEAUCItemData@@@Z 0000000140078090 f i ConsignmentMgr.obj
 0001:000770f0       ?count@?$CBaseList@UItemLogInfo@@@container@wylib@@QEBA_JXZ 00000001400780f0 f i ConsignmentMgr.obj
 0001:00077110       ?add@?$CBaseList@UItemLogInfo@@@container@wylib@@QEAA_JAEBUItemLogInfo@@@Z 0000000140078110 f i ConsignmentMgr.obj
 0001:00077210       ??B?$CBaseList@UItemLogInfo@@@container@wylib@@QEBAPEAUItemLogInfo@@XZ 0000000140078210 f i ConsignmentMgr.obj
 0001:00077230       ?count@?$CBaseList@V?$Handle@I@@@container@wylib@@QEBA_JXZ 0000000140078230 f i ConsignmentMgr.obj
 0001:00077250       ?add@?$CBaseList@V?$Handle@I@@@container@wylib@@QEAA_JAEBV?$Handle@I@@@Z 0000000140078250 f i ConsignmentMgr.obj
 0001:00077350       ?remove@?$CBaseList@V?$Handle@I@@@container@wylib@@QEAAX_J@Z 0000000140078350 f i ConsignmentMgr.obj
 0001:000773e0       ??1?$CBaseList@V?$CBaseList@UtagConsingmentData@@@container@wylib@@@container@wylib@@UEAA@XZ 00000001400783e0 f i ConsignmentMgr.obj
 0001:00077430       ?empty@?$CBaseList@V?$CBaseList@UtagConsingmentData@@@container@wylib@@@container@wylib@@UEAAXXZ 0000000140078430 f i ConsignmentMgr.obj
 0001:000774b0       ?reserve@?$CBaseList@V?$CBaseList@UtagConsingmentData@@@container@wylib@@@container@wylib@@UEAAX_J@Z 00000001400784b0 f i ConsignmentMgr.obj
 0001:00077550       ??1?$CHandleList@PEAUtagConsingmentData@@I@@UEAA@XZ 0000000140078550 f i ConsignmentMgr.obj
 0001:000775b0       ?allocNode@?$CHandleList@PEAUtagConsingmentData@@I@@MEAAPEAV?$CLinkedNode@PEAUtagConsingmentData@@@container@wylib@@XZ 00000001400785b0 f i ConsignmentMgr.obj
 0001:000775f0       ?freeNode@?$CHandleList@PEAUtagConsingmentData@@I@@MEAAXPEAV?$CLinkedNode@PEAUtagConsingmentData@@@container@wylib@@@Z 00000001400785f0 f i ConsignmentMgr.obj
 0001:00077640       ??1?$CBaseLinkedList@PEAUtagConsingmentData@@@container@wylib@@UEAA@XZ 0000000140078640 f i ConsignmentMgr.obj
 0001:00077690       ?linkAtLast@?$CBaseLinkedList@PEAUtagConsingmentData@@@container@wylib@@QEAAPEAV?$CLinkedNode@PEAUtagConsingmentData@@@23@AEBQEAUtagConsingmentData@@@Z 0000000140078690 f i ConsignmentMgr.obj
 0001:000776f0       ?clear@?$CBaseLinkedList@PEAUtagConsingmentData@@@container@wylib@@UEAAXXZ 00000001400786f0 f i ConsignmentMgr.obj
 0001:000777b0       ?allocNode@?$CBaseLinkedList@PEAUtagConsingmentData@@@container@wylib@@MEAAPEAV?$CLinkedNode@PEAUtagConsingmentData@@@23@XZ 00000001400787b0 f i ConsignmentMgr.obj
 0001:00077820       ?freeNode@?$CBaseLinkedList@PEAUtagConsingmentData@@@container@wylib@@MEAAXPEAV?$CLinkedNode@PEAUtagConsingmentData@@@23@@Z 0000000140078820 f i ConsignmentMgr.obj
 0001:000778a0       ??_E?$CBaseList@V?$CBaseList@UtagConsingmentData@@@container@wylib@@@container@wylib@@UEAAPEAXI@Z 00000001400788a0 f i ConsignmentMgr.obj
 0001:000778a0       ??_G?$CBaseList@V?$CBaseList@UtagConsingmentData@@@container@wylib@@@container@wylib@@UEAAPEAXI@Z 00000001400788a0 f i ConsignmentMgr.obj
 0001:00077900       ??_E?$CHandleList@PEAUtagConsingmentData@@I@@UEAAPEAXI@Z 0000000140078900 f i ConsignmentMgr.obj
 0001:00077900       ??_G?$CHandleList@PEAUtagConsingmentData@@I@@UEAAPEAXI@Z 0000000140078900 f i ConsignmentMgr.obj
 0001:00077960       ??_G?$CBaseLinkedList@PEAUtagConsingmentData@@@container@wylib@@UEAAPEAXI@Z 0000000140078960 f i ConsignmentMgr.obj
 0001:00077960       ??_E?$CBaseLinkedList@PEAUtagConsingmentData@@@container@wylib@@UEAAPEAXI@Z 0000000140078960 f i ConsignmentMgr.obj
 0001:000779c0       ??0?$CLinkedNode@PEAUtagConsingmentData@@@container@wylib@@QEAA@XZ 00000001400789c0 f i ConsignmentMgr.obj
 0001:00077a00       ??_G?$CLinkedNode@PEAUtagConsingmentData@@@container@wylib@@QEAAPEAXI@Z 0000000140078a00 f i ConsignmentMgr.obj
 0001:00077a60       ??1?$CLinkedNode@PEAUtagConsingmentData@@@container@wylib@@QEAA@XZ 0000000140078a60 f i ConsignmentMgr.obj
 0001:00077aa0       ?count@?$CBaseList@PEAUCItemData@@@container@wylib@@QEBA_JXZ 0000000140078aa0 f i ConsignmentMgr.obj
 0001:00077ac0       ?maxCount@?$CBaseList@PEAUCItemData@@@container@wylib@@QEBA_JXZ 0000000140078ac0 f i ConsignmentMgr.obj
 0001:00077ae0       ?add@?$CBaseList@PEAUCItemData@@@container@wylib@@QEAA_JAEBQEAUCItemData@@@Z 0000000140078ae0 f i ConsignmentMgr.obj
 0001:00077be0       ?trunc@?$CBaseList@PEAUCItemData@@@container@wylib@@QEAAX_J@Z 0000000140078be0 f i ConsignmentMgr.obj
 0001:00077c70       ??B?$CBaseList@PEAUCItemData@@@container@wylib@@QEBAPEAPEAUCItemData@@XZ 0000000140078c70 f i ConsignmentMgr.obj
 0001:00077c90       ?remove@?$CBaseList@V?$Handle@I@@@container@wylib@@QEAAX_J0@Z 0000000140078c90 f i ConsignmentMgr.obj
 0001:00077dc0       ?clear@?$CBaseList@V?$CBaseList@UtagConsingmentData@@@container@wylib@@@container@wylib@@QEAAXXZ 0000000140078dc0 f i ConsignmentMgr.obj
 0001:00077de0       ?GetAlloc@?$CHandleList@PEAUtagConsingmentData@@I@@SAPEAV?$CSingleObjectAllocator@V?$CLinkedNode@PEAUtagConsingmentData@@@container@wylib@@@@XZ 0000000140078de0 f i ConsignmentMgr.obj
 0001:00077e90       ?linkAfter@?$CBaseLinkedList@PEAUtagConsingmentData@@@container@wylib@@QEAAPEAV?$CLinkedNode@PEAUtagConsingmentData@@@23@AEBQEAUtagConsingmentData@@PEAV423@@Z 0000000140078e90 f i ConsignmentMgr.obj
 0001:00078040       ??1?$CBaseList@UtagConsingmentData@@@container@wylib@@UEAA@XZ 0000000140079040 f i ConsignmentMgr.obj
 0001:00078090       ?empty@?$CBaseList@UtagConsingmentData@@@container@wylib@@UEAAXXZ 0000000140079090 f i ConsignmentMgr.obj
 0001:00078110       ?reserve@?$CBaseList@UtagConsingmentData@@@container@wylib@@UEAAX_J@Z 0000000140079110 f i ConsignmentMgr.obj
 0001:000781b0       ?allocObject@?$CSingleObjectAllocator@V?$CLinkedNode@PEAUtagConsingmentData@@@container@wylib@@@@QEAAPEAV?$CLinkedNode@PEAUtagConsingmentData@@@container@wylib@@XZ 00000001400791b0 f i ConsignmentMgr.obj
 0001:00078380       ?freeObject@?$CSingleObjectAllocator@V?$CLinkedNode@PEAUtagConsingmentData@@@container@wylib@@@@QEAAXPEAV?$CLinkedNode@PEAUtagConsingmentData@@@container@wylib@@@Z 0000000140079380 f i ConsignmentMgr.obj
 0001:000783e0       ??0?$Counter@V?$CLinkedNode@PEAUtagConsingmentData@@@container@wylib@@@@QEAA@XZ 00000001400793e0 f i ConsignmentMgr.obj
 0001:00078420       ??1?$Counter@V?$CLinkedNode@PEAUtagConsingmentData@@@container@wylib@@@@QEAA@XZ 0000000140079420 f i ConsignmentMgr.obj
 0001:00078440       ??_E?$CBaseList@UtagConsingmentData@@@container@wylib@@UEAAPEAXI@Z 0000000140079440 f i ConsignmentMgr.obj
 0001:00078440       ??_G?$CBaseList@UtagConsingmentData@@@container@wylib@@UEAAPEAXI@Z 0000000140079440 f i ConsignmentMgr.obj
 0001:000784a0       ?clear@?$CBaseList@UtagConsingmentData@@@container@wylib@@QEAAXXZ 00000001400794a0 f i ConsignmentMgr.obj
 0001:000784c0       ??0?$CSingleObjectAllocator@V?$CLinkedNode@PEAUtagConsingmentData@@@container@wylib@@@@QEAA@PEBD@Z 00000001400794c0 f i ConsignmentMgr.obj
 0001:00078560       ?empty@?$CBaseList@PEAV?$CLinkedNode@PEAUtagConsingmentData@@@container@wylib@@@container@wylib@@UEAAXXZ 0000000140079560 f i ConsignmentMgr.obj
 0001:000785e0       ?reserve@?$CBaseList@PEAV?$CLinkedNode@PEAUtagConsingmentData@@@container@wylib@@@container@wylib@@UEAAX_J@Z 00000001400795e0 f i ConsignmentMgr.obj
 0001:00078680       ??_G?$CSingleObjectAllocator@V?$CLinkedNode@PEAUtagConsingmentData@@@container@wylib@@@@UEAAPEAXI@Z 0000000140079680 f i ConsignmentMgr.obj
 0001:00078680       ??_E?$CSingleObjectAllocator@V?$CLinkedNode@PEAUtagConsingmentData@@@container@wylib@@@@UEAAPEAXI@Z 0000000140079680 f i ConsignmentMgr.obj
 0001:000786e0       ??1?$CSingleObjectAllocator@V?$CLinkedNode@PEAUtagConsingmentData@@@container@wylib@@@@UEAA@XZ 00000001400796e0 f i ConsignmentMgr.obj
 0001:000787a0       ??1?$CBaseList@PEAV?$CLinkedNode@PEAUtagConsingmentData@@@container@wylib@@@container@wylib@@UEAA@XZ 00000001400797a0 f i ConsignmentMgr.obj
 0001:000787f0       ??_G?$CBaseList@PEAV?$CLinkedNode@PEAUtagConsingmentData@@@container@wylib@@@container@wylib@@UEAAPEAXI@Z 00000001400797f0 f i ConsignmentMgr.obj
 0001:000787f0       ??_E?$CBaseList@PEAV?$CLinkedNode@PEAUtagConsingmentData@@@container@wylib@@@container@wylib@@UEAAPEAXI@Z 00000001400797f0 f i ConsignmentMgr.obj
 0001:00078850       ?count@?$CBaseList@PEAV?$CLinkedNode@PEAUtagConsingmentData@@@container@wylib@@@container@wylib@@QEBA_JXZ 0000000140079850 f i ConsignmentMgr.obj
 0001:00078870       ?maxCount@?$CBaseList@PEAV?$CLinkedNode@PEAUtagConsingmentData@@@container@wylib@@@container@wylib@@QEBA_JXZ 0000000140079870 f i ConsignmentMgr.obj
 0001:00078890       ?add@?$CBaseList@PEAV?$CLinkedNode@PEAUtagConsingmentData@@@container@wylib@@@container@wylib@@QEAA_JAEBQEAV?$CLinkedNode@PEAUtagConsingmentData@@@23@@Z 0000000140079890 f i ConsignmentMgr.obj
 0001:00078990       ?clear@?$CBaseList@PEAV?$CLinkedNode@PEAUtagConsingmentData@@@container@wylib@@@container@wylib@@QEAAXXZ 0000000140079990 f i ConsignmentMgr.obj
 0001:000789b0       ?trunc@?$CBaseList@PEAV?$CLinkedNode@PEAUtagConsingmentData@@@container@wylib@@@container@wylib@@QEAAX_J@Z 00000001400799b0 f i ConsignmentMgr.obj
 0001:00078a40       ??B?$CBaseList@PEAV?$CLinkedNode@PEAUtagConsingmentData@@@container@wylib@@@container@wylib@@QEBAPEAPEAV?$CLinkedNode@PEAUtagConsingmentData@@@12@XZ 0000000140079a40 f i ConsignmentMgr.obj
 0001:00078a60       ?addToStat@?$Counter@V?$CLinkedNode@PEAUtagConsingmentData@@@container@wylib@@@@IEAAXXZ 0000000140079a60 f i ConsignmentMgr.obj
 0001:00078b00       ??0?$CBaseList@PEAV?$CLinkedNode@PEAUtagConsingmentData@@@container@wylib@@@container@wylib@@QEAA@XZ 0000000140079b00 f i ConsignmentMgr.obj
 0001:00078b60       ?getCount@?$Counter@V?$CLinkedNode@PEAUtagConsingmentData@@@container@wylib@@@@SA_KXZ 0000000140079b60 f i ConsignmentMgr.obj
 0001:00078b70       ??$?8I@@YA_NV?$Handle@I@@0@Z 0000000140079b70 f i ConsignmentMgr.obj
 0001:00078be0       ?Release@?$HandleMgr@UtagConsingmentData@@V?$Handle@I@@$0EAA@@@QEAAXV?$Handle@I@@@Z 0000000140079be0 f i ConsignmentMgr.obj
 0001:00078e80       ?GetDataPtr@?$HandleMgr@UtagConsingmentData@@V?$Handle@I@@$0EAA@@@QEAAPEAUtagConsingmentData@@V?$Handle@I@@@Z 0000000140079e80 f i ConsignmentMgr.obj
 0001:00079010       ?GetChunkIdPos@?$HandleMgr@UtagConsingmentData@@V?$Handle@I@@$0EAA@@@QEAAXIAEAI0@Z 000000014007a010 f i ConsignmentMgr.obj
 0001:00079060       ??B?$CBaseList@V?$CBaseList@UtagConsingmentData@@@container@wylib@@@container@wylib@@QEBAPEAV?$CBaseList@UtagConsingmentData@@@12@XZ 000000014007a060 f i ConsignmentMgr.obj
 0001:00079080       ??B?$CBaseList@UtagConsingmentData@@@container@wylib@@QEBAPEAUtagConsingmentData@@XZ 000000014007a080 f i ConsignmentMgr.obj
 0001:000790a0       ??0CCorpsComponet@@QEAA@XZ 000000014007a0a0 f   CorpsMgr.obj
 0001:00079150       ??1CCorpsComponet@@UEAA@XZ 000000014007a150 f   CorpsMgr.obj
 0001:000791c0       ?OnCreateCorpsGroup@CCorpsComponet@@QEAA_JIPEAD@Z 000000014007a1c0 f   CorpsMgr.obj
 0001:00079330       ?Load@CCorpsComponet@@QEAAXXZ 000000014007a330 f   CorpsMgr.obj
 0001:000793e0       ?OnDbReturnData@CCorpsComponet@@QEAAX_JPEAD_K@Z 000000014007a3e0 f   CorpsMgr.obj
 0001:00079530       ?LoadCorpsListResult@CCorpsComponet@@QEAAXAEAVCDataPacketReader@@@Z 000000014007a530 f   CorpsMgr.obj
 0001:00079660       ?LoadCorpsDetail@CCorpsComponet@@QEAAX_J@Z 000000014007a660 f   CorpsMgr.obj
 0001:00079710       ?LoadCorpsDetailReault@CCorpsComponet@@QEAAXAEAVCDataPacketReader@@@Z 000000014007a710 f   CorpsMgr.obj
 0001:000798e0       ?GetCorpsMemCount@CCorpsComponet@@QEAAH_J@Z 000000014007a8e0 f   CorpsMgr.obj
 0001:000799a0       ?ChangeCorpsCurScore@CCorpsComponet@@QEAAX_JH@Z 000000014007a9a0 f   CorpsMgr.obj
 0001:00079a80       ?GetCorpsCurScore@CCorpsComponet@@QEAAH_J@Z 000000014007aa80 f   CorpsMgr.obj
 0001:00079b40       ?GetCorpsNameById@CCorpsComponet@@QEAAPEAD_J@Z 000000014007ab40 f   CorpsMgr.obj
 0001:00079c00       ?GetCorpsMemNameByIndex@CCorpsComponet@@QEAAPEAD_JH@Z 000000014007ac00 f   CorpsMgr.obj
 0001:00079d00       ?OnCorpsBattleOver@CCorpsComponet@@QEAAX_JPEAD@Z 000000014007ad00 f   CorpsMgr.obj
 0001:00079f50       ?FindCorpsIndexById@CCorpsComponet@@QEAAH_J@Z 000000014007af50 f   CorpsMgr.obj
 0001:0007a000       ?GiveCorpsBattleAward@CCorpsComponet@@QEAAX_J@Z 000000014007b000 f   CorpsMgr.obj
 0001:0007a260       ?SetCorpsTitle@CCorpsComponet@@QEAAX_JH_N@Z 000000014007b260 f   CorpsMgr.obj
 0001:0007a3a0       ?SaveToDb@CCorpsComponet@@QEAAXXZ 000000014007b3a0 f   CorpsMgr.obj
 0001:0007a500       ?GetFreeCorpsIndex@CCorpsComponet@@QEAAHXZ 000000014007b500 f   CorpsMgr.obj
 0001:0007a5b0       ?AddOpenDongFangActor@CCorpsComponet@@QEAAXIIPEAD0I@Z 000000014007b5b0 f   CorpsMgr.obj
 0001:0007a810       ?GetDongFangCount@CCorpsComponet@@QEAAHXZ 000000014007b810 f   CorpsMgr.obj
 0001:0007a850       ?GetDongFanghandle@CCorpsComponet@@QEAAIH@Z 000000014007b850 f   CorpsMgr.obj
 0001:0007a8d0       ?IsDongFangMonster@CCorpsComponet@@QEAA_NIII@Z 000000014007b8d0 f   CorpsMgr.obj
 0001:0007a9c0       ?OneActorIsMonster@CCorpsComponet@@QEAA_NII@Z 000000014007b9c0 f   CorpsMgr.obj
 0001:0007b0f0       ??_GCCorpsComponet@@UEAAPEAXI@Z 000000014007c0f0 f i CorpsMgr.obj
 0001:0007b0f0       ??_ECCorpsComponet@@UEAAPEAXI@Z 000000014007c0f0 f i CorpsMgr.obj
 0001:0007b150       ?count@?$CBaseList@UtagCorpsData@@@container@wylib@@QEBA_JXZ 000000014007c150 f i CorpsMgr.obj
 0001:0007b170       ?add@?$CBaseList@UtagCorpsData@@@container@wylib@@QEAA_JAEBUtagCorpsData@@@Z 000000014007c170 f i CorpsMgr.obj
 0001:0007b270       ??B?$CBaseList@UtagCorpsData@@@container@wylib@@QEBAPEAUtagCorpsData@@XZ 000000014007c270 f i CorpsMgr.obj
 0001:0007b290       ?count@?$CBaseList@UtagDongFangInfo@@@container@wylib@@QEBA_JXZ 000000014007c290 f i CorpsMgr.obj
 0001:0007b2b0       ?add@?$CBaseList@UtagDongFangInfo@@@container@wylib@@QEAA_JAEBUtagDongFangInfo@@@Z 000000014007c2b0 f i CorpsMgr.obj
 0001:0007b3b0       ??B?$CBaseList@UtagDongFangInfo@@@container@wylib@@QEBAPEAUtagDongFangInfo@@XZ 000000014007c3b0 f i CorpsMgr.obj
 0001:0007b3d0       ??0?$CVector@UtagCorpsData@@@@QEAA@PEAVCBufferAllocator@@@Z 000000014007c3d0 f i CorpsMgr.obj
 0001:0007b480       ??1?$CVector@UtagCorpsData@@@@UEAA@XZ 000000014007c480 f i CorpsMgr.obj
 0001:0007b4e0       ?empty@?$CVector@UtagCorpsData@@@@UEAAXXZ 000000014007c4e0 f i CorpsMgr.obj
 0001:0007b580       ?reserve@?$CVector@UtagCorpsData@@@@UEAAX_J@Z 000000014007c580 f i CorpsMgr.obj
 0001:0007b710       ??0?$CVector@UtagDongFangInfo@@@@QEAA@PEAVCBufferAllocator@@@Z 000000014007c710 f i CorpsMgr.obj
 0001:0007b7c0       ??1?$CVector@UtagDongFangInfo@@@@UEAA@XZ 000000014007c7c0 f i CorpsMgr.obj
 0001:0007b820       ?empty@?$CVector@UtagDongFangInfo@@@@UEAAXXZ 000000014007c820 f i CorpsMgr.obj
 0001:0007b8c0       ?reserve@?$CVector@UtagDongFangInfo@@@@UEAAX_J@Z 000000014007c8c0 f i CorpsMgr.obj
 0001:0007ba40       ??_E?$CVector@UtagCorpsData@@@@UEAAPEAXI@Z 000000014007ca40 f i CorpsMgr.obj
 0001:0007ba40       ??_G?$CVector@UtagCorpsData@@@@UEAAPEAXI@Z 000000014007ca40 f i CorpsMgr.obj
 0001:0007baa0       ??_E?$CVector@UtagDongFangInfo@@@@UEAAPEAXI@Z 000000014007caa0 f i CorpsMgr.obj
 0001:0007baa0       ??_G?$CVector@UtagDongFangInfo@@@@UEAAPEAXI@Z 000000014007caa0 f i CorpsMgr.obj
 0001:0007bb00       ??0?$CBaseList@UtagCorpsData@@@container@wylib@@QEAA@XZ 000000014007cb00 f i CorpsMgr.obj
 0001:0007bb60       ??0?$CBaseList@UtagDongFangInfo@@@container@wylib@@QEAA@XZ 000000014007cb60 f i CorpsMgr.obj
 0001:0007bbc0       ??0tagCorpsData@@QEAA@XZ   000000014007cbc0 f i CorpsMgr.obj
 0001:0007bc40       ??0tagCorpsMemberData@@QEAA@XZ 000000014007cc40 f i CorpsMgr.obj
 0001:0007bc90       ??BGroupSeries@CCorpsComponet@@QEBA_JXZ 000000014007cc90 f i CorpsMgr.obj
 0001:0007bcb0       ?allocCorpsId@CCorpsComponet@@QEAA?ATGroupSeries@1@XZ 000000014007ccb0 f i CorpsMgr.obj
 0001:0007bdd0       ??1?$CBaseList@UtagCorpsData@@@container@wylib@@UEAA@XZ 000000014007cdd0 f i CorpsMgr.obj
 0001:0007be20       ?empty@?$CBaseList@UtagCorpsData@@@container@wylib@@UEAAXXZ 000000014007ce20 f i CorpsMgr.obj
 0001:0007bea0       ?reserve@?$CBaseList@UtagCorpsData@@@container@wylib@@UEAAX_J@Z 000000014007cea0 f i CorpsMgr.obj
 0001:0007bf40       ??1?$CBaseList@UtagDongFangInfo@@@container@wylib@@UEAA@XZ 000000014007cf40 f i CorpsMgr.obj
 0001:0007bf90       ?empty@?$CBaseList@UtagDongFangInfo@@@container@wylib@@UEAAXXZ 000000014007cf90 f i CorpsMgr.obj
 0001:0007c010       ?reserve@?$CBaseList@UtagDongFangInfo@@@container@wylib@@UEAAX_J@Z 000000014007d010 f i CorpsMgr.obj
 0001:0007c0b0       ??_E?$CBaseList@UtagCorpsData@@@container@wylib@@UEAAPEAXI@Z 000000014007d0b0 f i CorpsMgr.obj
 0001:0007c0b0       ??_G?$CBaseList@UtagCorpsData@@@container@wylib@@UEAAPEAXI@Z 000000014007d0b0 f i CorpsMgr.obj
 0001:0007c110       ??_E?$CBaseList@UtagDongFangInfo@@@container@wylib@@UEAAPEAXI@Z 000000014007d110 f i CorpsMgr.obj
 0001:0007c110       ??_G?$CBaseList@UtagDongFangInfo@@@container@wylib@@UEAAPEAXI@Z 000000014007d110 f i CorpsMgr.obj
 0001:0007c170       ?clear@?$CBaseList@UtagCorpsData@@@container@wylib@@QEAAXXZ 000000014007d170 f i CorpsMgr.obj
 0001:0007c190       ?clear@?$CBaseList@UtagDongFangInfo@@@container@wylib@@QEAAXXZ 000000014007d190 f i CorpsMgr.obj
 0001:0007c1b0       ??0CCrossComponet@@QEAA@XZ 000000014007d1b0 f   CrossMgr.obj
 0001:0007c350       ??1CCrossComponet@@UEAA@XZ 000000014007d350 f   CrossMgr.obj
 0001:0007c3d0       ?InitCrossBossData@CCrossComponet@@QEAAXXZ 000000014007d3d0 f   CrossMgr.obj
 0001:0007c420       ?AddCrossBossData@CCrossComponet@@QEAAXHHPEADIHH@Z 000000014007d420 f   CrossMgr.obj
 0001:0007c600       ?OnCommonCrossBossDie@CCrossComponet@@QEAAXAEAVCDataPacketReader@@@Z 000000014007d600 f   CrossMgr.obj
 0001:0007cac0       ?RevCrossWorldFirstOneMsg@CCrossComponet@@QEAAXAEAVCDataPacketReader@@@Z 000000014007dac0 f   CrossMgr.obj
 0001:0007cfd0       ?ResetWorldFirstNpc@CCrossComponet@@QEAAXXZ 000000014007dfd0 f   CrossMgr.obj
 0001:0007d0d0       ?SendCrossBossToClient@CCrossComponet@@QEAAXPEAVCActor@@@Z 000000014007e0d0 f   CrossMgr.obj
 0001:0007d240       ?InitCrossWorldFirstData@CCrossComponet@@QEAAXXZ 000000014007e240 f   CrossMgr.obj
 0001:0007d2d0       ?SetCrossWorldFirstData@CCrossComponet@@QEAAXPEAVCActor@@@Z 000000014007e2d0 f   CrossMgr.obj
 0001:0007d540       ?SendCrossWorldToClientOp@CCrossComponet@@QEAAXPEAVCActor@@@Z 000000014007e540 f   CrossMgr.obj
 0001:0007d720       ?SendCrossStartState@CCrossComponet@@QEAAXH@Z 000000014007e720 f   CrossMgr.obj
 0001:0007d850       ?RevSignUpCrossBattleField@CCrossComponet@@QEAAXAEAVCDataPacketReader@@H@Z 000000014007e850 f   CrossMgr.obj
 0001:0007db80       ?OnRetOtherServerSgMsg@CCrossComponet@@QEAAXAEAVCDataPacketReader@@@Z 000000014007eb80 f   CrossMgr.obj
 0001:0007dd80       ?SendBeginCrossBattle@CCrossComponet@@QEAAXI@Z 000000014007ed80 f   CrossMgr.obj
 0001:0007e150       ?OnRetBeginCrossBattleOp@CCrossComponet@@QEAAXAEAVCDataPacketReader@@@Z 000000014007f150 f   CrossMgr.obj
 0001:0007e2e0       ?OnRetOnterServerCanclBattle@CCrossComponet@@QEAAXAEAVCDataPacketReader@@@Z 000000014007f2e0 f   CrossMgr.obj
 0001:0007e3a0       ?SetOpenCrossBattleCount@CCrossComponet@@QEAAXH@Z 000000014007f3a0 f   CrossMgr.obj
 0001:0007e440       ?OnRetOpenCrossBattleCount@CCrossComponet@@QEAAXAEAVCDataPacketReader@@@Z 000000014007f440 f   CrossMgr.obj
 0001:0007e4b0       ?SetOpenCrossBattleFlag@CCrossComponet@@QEAAXH@Z 000000014007f4b0 f   CrossMgr.obj
 0001:0007e550       ?SendCrossBattleStateToAll@CCrossComponet@@QEAAXH@Z 000000014007f550 f   CrossMgr.obj
 0001:0007e640       ?OnRetOpenCrossBattleFlag@CCrossComponet@@QEAAXAEAVCDataPacketReader@@@Z 000000014007f640 f   CrossMgr.obj
 0001:0007e750       ?OnAotuAddTeamOP@CCrossComponet@@QEAAXPEAVCActor@@0@Z 000000014007f750 f   CrossMgr.obj
 0001:0007e820       ?RevSignUpCrossMatch@CCrossComponet@@QEAAXAEAVCDataPacketReader@@H@Z 000000014007f820 f   CrossMgr.obj
 0001:0007eb20       ?AddCrossMemberRank@CCrossComponet@@AEAAXAEAVCDataPacketReader@@H@Z 000000014007fb20 f   CrossMgr.obj
 0001:0007efc0       ?SendBeginSelectMatches@CCrossComponet@@QEAAXHHH@Z 000000014007ffc0 f   CrossMgr.obj
 0001:0007f0d0       ?SendReSetMatchTeamState@CCrossComponet@@QEAAXHH@Z 00000001400800d0 f   CrossMgr.obj
 0001:0007f1b0       ?SendSelectMatchesRet@CCrossComponet@@QEAAXH@Z 00000001400801b0 f   CrossMgr.obj
 0001:0007f620       ?SendGroupingRet@CCrossComponet@@QEAAXHH@Z 0000000140080620 f   CrossMgr.obj
 0001:0007fa30       ?SendSelectMatchesEnd@CCrossComponet@@QEAAXXZ 0000000140080a30 f   CrossMgr.obj
 0001:0007fab0       ?SendCrossMatchesRet@CCrossComponet@@QEAAXHHH@Z 0000000140080ab0 f   CrossMgr.obj
 0001:0007fdd0       ?SendCrossMatchesUpgrade@CCrossComponet@@QEAAXHHH@Z 0000000140080dd0 f   CrossMgr.obj
 0001:00080140       ?SendCrossMatchesEnd@CCrossComponet@@QEAAXXZ 0000000140081140 f   CrossMgr.obj
 0001:000801b0       ?SendUpdateCrossTeam@CCrossComponet@@QEAAXHHI@Z 00000001400811b0 f   CrossMgr.obj
 0001:000803f0       ?OnRetBeginSelectMatchesOp@CCrossComponet@@QEAAXAEAVCDataPacketReader@@@Z 00000001400813f0 f   CrossMgr.obj
 0001:00080550       ?RevBeginCrossMatches@CCrossComponet@@QEAAXAEAVCDataPacketReader@@H@Z 0000000140081550 f   CrossMgr.obj
 0001:00080ab0       ?RevReSetMatchTeamState@CCrossComponet@@QEAAXAEAVCDataPacketReader@@H@Z 0000000140081ab0 f   CrossMgr.obj
 0001:00080e50       ?RevUpdateCrossTeam@CCrossComponet@@QEAAXAEAVCDataPacketReader@@H@Z 0000000140081e50 f   CrossMgr.obj
 0001:00081150       ?UpdateCrossMemberInfo@CCrossComponet@@AEAA_NAEAVCDataPacketReader@@HHHIH@Z 0000000140082150 f   CrossMgr.obj
 0001:00081700       ?UpdateSelectMatchesInfo@CCrossComponet@@AEAAXHHH@Z 0000000140082700 f   CrossMgr.obj
 0001:00081830       ?RevReqBet@CCrossComponet@@QEAAXAEAVCDataPacketReader@@H@Z 0000000140082830 f   CrossMgr.obj
 0001:00081e80       ?OnRetSelectMatches@CCrossComponet@@QEAAXAEAVCDataPacketReader@@@Z 0000000140082e80 f   CrossMgr.obj
 0001:000829b0       ?OnRetGrouping@CCrossComponet@@QEAAXAEAVCDataPacketReader@@@Z 00000001400839b0 f   CrossMgr.obj
 0001:00083530       ?UpdateGroupingInfo@CCrossComponet@@AEAAXHH@Z 0000000140084530 f   CrossMgr.obj
 0001:00083790       ?UpdateTeamParam@CCrossComponet@@AEAAXXZ 0000000140084790 f   CrossMgr.obj
 0001:00083900       ?OnRetSelectMatchesEnd@CCrossComponet@@QEAAXAEAVCDataPacketReader@@@Z 0000000140084900 f   CrossMgr.obj
 0001:00083970       ?OnRetCrossMatches@CCrossComponet@@QEAAXAEAVCDataPacketReader@@@Z 0000000140084970 f   CrossMgr.obj
 0001:00083dd0       ?OnRetCrossMatchesUpgrade@CCrossComponet@@QEAAXAEAVCDataPacketReader@@@Z 0000000140084dd0 f   CrossMgr.obj
 0001:000841e0       ?OnRetCrossMatchesEnd@CCrossComponet@@QEAAXAEAVCDataPacketReader@@@Z 00000001400851e0 f   CrossMgr.obj
 0001:00084250       ?CreateCrossMatchesRank@CCrossComponet@@QEAAXXZ 0000000140085250 f   CrossMgr.obj
 0001:00085580       ?ClearCrossMatchesRank@CCrossComponet@@QEAAXXZ 0000000140086580 f   CrossMgr.obj
 0001:00085710       ?Save@CCrossComponet@@QEAAXXZ 0000000140086710 f   CrossMgr.obj
 0001:000858b0       ?SetOpenCrossMatches@CCrossComponet@@QEAAXH_N@Z 00000001400868b0 f   CrossMgr.obj
 0001:00085a20       ?SendCrossMatchesStateToAll@CCrossComponet@@QEAAXH@Z 0000000140086a20 f   CrossMgr.obj
 0001:00085b10       ?Initialize@CCrossComponet@@UEAA_NXZ 0000000140086b10 f   CrossMgr.obj
 0001:00085b50       ?Load@CCrossComponet@@QEAAXXZ 0000000140086b50 f   CrossMgr.obj
 0001:00085b90       ?CreateCsSendFlowersRank@CCrossComponet@@QEAAXXZ 0000000140086b90 f   CrossMgr.obj
 0001:000864b0       ?SendOneFlowerRankToAll@CCrossComponet@@QEAAXPEADHIH@Z 00000001400874b0 f   CrossMgr.obj
 0001:00086700       ?SendSendFlowersRank@CCrossComponet@@QEAAXHH@Z 0000000140087700 f   CrossMgr.obj
 0001:00086a60       ?RevSendFlowersRank@CCrossComponet@@QEAAXAEAVCDataPacketReader@@H@Z 0000000140087a60 f   CrossMgr.obj
 0001:000871f0       ?SendSfAwardRank@CCrossComponet@@QEAAXHHH@Z 00000001400881f0 f   CrossMgr.obj
 0001:00087570       ?OnRetSfAwardRank@CCrossComponet@@QEAAXAEAVCDataPacketReader@@@Z 0000000140088570 f   CrossMgr.obj
 0001:000879c0       ?ClearCsSfRank@CCrossComponet@@QEAAXXZ 00000001400889c0 f   CrossMgr.obj
 0001:00087bb0       ?SaveCsSfRank@CCrossComponet@@QEAAXXZ 0000000140088bb0 f   CrossMgr.obj
 0001:00087e00       ?SetCsSendFlowersStartDate@CCrossComponet@@QEAA_NPEADH_N@Z 0000000140088e00 f   CrossMgr.obj
 0001:00087ff0       ?OnCsSendFlowersTimer@CCrossComponet@@QEAA_NXZ 0000000140088ff0 f   CrossMgr.obj
 0001:00088170       ?SetOpenCsSendFlowers@CCrossComponet@@QEAAXH@Z 0000000140089170 f   CrossMgr.obj
 0001:000882f0       ?OnRetOpenCsSendFlowers@CCrossComponet@@QEAAXAEAVCDataPacketReader@@@Z 00000001400892f0 f   CrossMgr.obj
 0001:00088430       ?ClearCsSendFlowers@CCrossComponet@@QEAAXXZ 0000000140089430 f   CrossMgr.obj
 0001:00088470       ?RunOne@CCrossComponet@@QEAAXUCMiniDateTime@@_J@Z 0000000140089470 f   CrossMgr.obj
 0001:000884e0       ?LoadCsSendFlowers@CCrossComponet@@QEAAXXZ 00000001400894e0 f   CrossMgr.obj
 0001:000885c0       ?CheckCsSfTime@CCrossComponet@@QEAAHXZ 00000001400895c0 f   CrossMgr.obj
 0001:000886c0       ?AddToFlowersRankFile@CCrossComponet@@QEAAXPEAVCActor@@PEADH@Z 00000001400896c0 f   CrossMgr.obj
 0001:00088ae0       ?CloseCsSendFlowers@CCrossComponet@@QEAAXH@Z 0000000140089ae0 f   CrossMgr.obj
 0001:00088b50       ?SetCrossMatchesStartDate@CCrossComponet@@QEAA_NPEADH_N@Z 0000000140089b50 f   CrossMgr.obj
 0001:00088d40       ?SetCrossMatchesStartDate@CCrossComponet@@QEAAXH_N@Z 0000000140089d40 f   CrossMgr.obj
 0001:00088e30       ?OnCrossMatchesTimer@CCrossComponet@@QEAA_NXZ 0000000140089e30 f   CrossMgr.obj
 0001:00088fe0       ?SetCrossMatchesFlag@CCrossComponet@@QEAAXH@Z 0000000140089fe0 f   CrossMgr.obj
 0001:00089010       ?SendOpenCrossMatches@CCrossComponet@@QEAAXH@Z 000000014008a010 f   CrossMgr.obj
 0001:00089130       ?RevOpenCrossMatches@CCrossComponet@@QEAAXAEAVCDataPacketReader@@H@Z 000000014008a130 f   CrossMgr.obj
 0001:00089360       ?OnRetOpenCrossMatchesFlag@CCrossComponet@@QEAAXAEAVCDataPacketReader@@@Z 000000014008a360 f   CrossMgr.obj
 0001:00089510       ?SaveCrossMatches@CCrossComponet@@QEAAXXZ 000000014008a510 f   CrossMgr.obj
 0001:00089660       ?LoadCrossMatchtes@CCrossComponet@@QEAAXXZ 000000014008a660 f   CrossMgr.obj
 0001:00089740       ?SendWcGuessRankToAll@CCrossComponet@@QEAAXPEAVCActor@@@Z 000000014008a740 f   CrossMgr.obj
 0001:00089900       ?SendWcSupportRankToAll@CCrossComponet@@QEAAXHIHH@Z 000000014008a900 f   CrossMgr.obj
 0001:00089c30       ?RevWcGuessRank@CCrossComponet@@QEAAXAEAVCDataPacketReader@@H@Z 000000014008ac30 f   CrossMgr.obj
 0001:00089e80       ?RevWcSupportRank@CCrossComponet@@QEAAXAEAVCDataPacketReader@@H@Z 000000014008ae80 f   CrossMgr.obj
 0001:0008a2d0       ?SendWorldCupAward@CCrossComponet@@QEAAXH@Z 000000014008b2d0 f   CrossMgr.obj
 0001:0008a3e0       ?SendWorldCupAwardTip@CCrossComponet@@QEAAXHHPEBD@Z 000000014008b3e0 f   CrossMgr.obj
 0001:0008a4c0       ?RevWcAwardTip@CCrossComponet@@QEAAXAEAVCDataPacketReader@@H@Z 000000014008b4c0 f   CrossMgr.obj
 0001:0008dfa0       ??_GCCrossComponet@@UEAAPEAXI@Z 000000014008efa0 f i CrossMgr.obj
 0001:0008dfa0       ??_ECCrossComponet@@UEAAPEAXI@Z 000000014008efa0 f i CrossMgr.obj
 0001:0008e000       ?count@?$CBaseList@UtagCrossBossData@@@container@wylib@@QEBA_JXZ 000000014008f000 f i CrossMgr.obj
 0001:0008e020       ?add@?$CBaseList@UtagCrossBossData@@@container@wylib@@QEAA_JAEBUtagCrossBossData@@@Z 000000014008f020 f i CrossMgr.obj
 0001:0008e120       ??B?$CBaseList@UtagCrossBossData@@@container@wylib@@QEBAPEAUtagCrossBossData@@XZ 000000014008f120 f i CrossMgr.obj
 0001:0008e140       ??0?$CVector@UtagCrossBossData@@@@QEAA@PEAVCBufferAllocator@@@Z 000000014008f140 f i CrossMgr.obj
 0001:0008e1f0       ??1?$CVector@UtagCrossBossData@@@@UEAA@XZ 000000014008f1f0 f i CrossMgr.obj
 0001:0008e250       ?empty@?$CVector@UtagCrossBossData@@@@UEAAXXZ 000000014008f250 f i CrossMgr.obj
 0001:0008e2f0       ?reserve@?$CVector@UtagCrossBossData@@@@UEAAX_J@Z 000000014008f2f0 f i CrossMgr.obj
 0001:0008e470       ??$?6D@CDataPacket@@QEAAAEAV0@D@Z 000000014008f470 f i CrossMgr.obj
 0001:0008e4e0       ??$?6PEAD@CScriptValueList@@QEAAAEAV0@QEAD@Z 000000014008f4e0 f i CrossMgr.obj
 0001:0008e580       ??_G?$CVector@UtagCrossBossData@@@@UEAAPEAXI@Z 000000014008f580 f i CrossMgr.obj
 0001:0008e580       ??_E?$CVector@UtagCrossBossData@@@@UEAAPEAXI@Z 000000014008f580 f i CrossMgr.obj
 0001:0008e5e0       ??0?$CBaseList@UtagCrossBossData@@@container@wylib@@QEAA@XZ 000000014008f5e0 f i CrossMgr.obj
 0001:0008e640       ?getPositionPtr@CDataPacketReader@@QEAAPEAD_K@Z 000000014008f640 f i CrossMgr.obj
 0001:0008e660       ??4CScriptValue@@QEAAAEAV0@PEAD@Z 000000014008f660 f i CrossMgr.obj
 0001:0008e6b0       ??4CScriptValue@@QEAAAEAV0@PEBD@Z 000000014008f6b0 f i CrossMgr.obj
 0001:0008e780       ?SetTeamID@CTeam@@QEAAXI@Z 000000014008f780 f i CrossMgr.obj
 0001:0008e7a0       ?GetCrossSystem@CActor@@QEAAAEAVCCrossSystem@@XZ 000000014008f7a0 f i CrossMgr.obj
 0001:0008e7c0       ?CreateTeam@CTeamManager@@QEAAPEAVCTeam@@AEAI@Z 000000014008f7c0 f i CrossMgr.obj
 0001:0008e860       ??0tagCrossBossData@@QEAA@XZ 000000014008f860 f i CrossMgr.obj
 0001:0008e8b0       ??0tagCrossWorldFirstData@@QEAA@XZ 000000014008f8b0 f i CrossMgr.obj
 0001:0008e900       ??0tagCsSendFlowers@CCrossComponet@@QEAA@XZ 000000014008f900 f i CrossMgr.obj
 0001:0008e950       ??0tagCrossMatches@CCrossComponet@@QEAA@XZ 000000014008f950 f i CrossMgr.obj
 0001:0008e9a0       ?GetOpenCrossMatchesFlag@CCrossComponet@@QEAAHXZ 000000014008f9a0 f i CrossMgr.obj
 0001:0008e9c0       ?GetOpenCsSendFlowersFlag@CCrossComponet@@QEAAHXZ 000000014008f9c0 f i CrossMgr.obj
 0001:0008e9e0       ?GetCommonServerId@CLogicServer@@QEBAHXZ 000000014008f9e0 f i CrossMgr.obj
 0001:0008ea00       ?IsCommonServer@CLogicServer@@QEBA_NXZ 000000014008fa00 f i CrossMgr.obj
 0001:0008ea20       ?IsStartCommonServer@CLogicServer@@QEBA_NXZ 000000014008fa20 f i CrossMgr.obj
 0001:0008ea40       ??0?$Handle@VCTeam@@@@QEAA@XZ 000000014008fa40 f i CrossMgr.obj
 0001:0008ea60       ??B?$Handle@VCTeam@@@@QEBAIXZ 000000014008fa60 f i CrossMgr.obj
 0001:0008ea80       ??1?$CBaseList@UtagCrossBossData@@@container@wylib@@UEAA@XZ 000000014008fa80 f i CrossMgr.obj
 0001:0008ead0       ?empty@?$CBaseList@UtagCrossBossData@@@container@wylib@@UEAAXXZ 000000014008fad0 f i CrossMgr.obj
 0001:0008eb50       ?reserve@?$CBaseList@UtagCrossBossData@@@container@wylib@@UEAAX_J@Z 000000014008fb50 f i CrossMgr.obj
 0001:0008ebf0       ??_G?$CBaseList@UtagCrossBossData@@@container@wylib@@UEAAPEAXI@Z 000000014008fbf0 f i CrossMgr.obj
 0001:0008ebf0       ??_E?$CBaseList@UtagCrossBossData@@@container@wylib@@UEAAPEAXI@Z 000000014008fbf0 f i CrossMgr.obj
 0001:0008ec50       ?clear@?$CBaseList@UtagCrossBossData@@@container@wylib@@QEAAXXZ 000000014008fc50 f i CrossMgr.obj
 0001:0008ec70       ?Acquire@?$HandleMgr@VCTeam@@V?$Handle@VCTeam@@@@$0EAA@@@QEAAPEAVCTeam@@AEAV?$Handle@VCTeam@@@@@Z 000000014008fc70 f i CrossMgr.obj
 0001:0008f570       ??0CTeam@@QEAA@XZ          0000000140090570 f i CrossMgr.obj
 0001:0008f630       ??0CCLVariant@@QEAA@XZ     0000000140090630 f i CrossMgr.obj
 0001:0008f680       ?zd@CCLVariant@@AEAAXXZ    0000000140090680 f i CrossMgr.obj
 0001:0008f6d0       ??0?$Counter@VCCLVariant@@@@QEAA@XZ 00000001400906d0 f i CrossMgr.obj
 0001:0008f710       ?addToStat@?$Counter@VCCLVariant@@@@IEAAXXZ 0000000140090710 f i CrossMgr.obj
 0001:0008f7b0       ??1?$CBaseList@VCTeam@@@container@wylib@@UEAA@XZ 00000001400907b0 f i CrossMgr.obj
 0001:0008f800       ?empty@?$CBaseList@VCTeam@@@container@wylib@@UEAAXXZ 0000000140090800 f i CrossMgr.obj
 0001:0008f880       ?reserve@?$CBaseList@VCTeam@@@container@wylib@@UEAAX_J@Z 0000000140090880 f i CrossMgr.obj
 0001:0008f920       ??1?$CBaseList@V?$Handle@VCTeam@@@@@container@wylib@@UEAA@XZ 0000000140090920 f i CrossMgr.obj
 0001:0008f970       ?empty@?$CBaseList@V?$Handle@VCTeam@@@@@container@wylib@@UEAAXXZ 0000000140090970 f i CrossMgr.obj
 0001:0008f9f0       ?reserve@?$CBaseList@V?$Handle@VCTeam@@@@@container@wylib@@UEAAX_J@Z 00000001400909f0 f i CrossMgr.obj
 0001:0008fa90       ??_G?$CBaseList@VCTeam@@@container@wylib@@UEAAPEAXI@Z 0000000140090a90 f i CrossMgr.obj
 0001:0008fa90       ??_E?$CBaseList@VCTeam@@@container@wylib@@UEAAPEAXI@Z 0000000140090a90 f i CrossMgr.obj
 0001:0008faf0       ??_E?$CBaseList@V?$Handle@VCTeam@@@@@container@wylib@@UEAAPEAXI@Z 0000000140090af0 f i CrossMgr.obj
 0001:0008faf0       ??_G?$CBaseList@V?$Handle@VCTeam@@@@@container@wylib@@UEAAPEAXI@Z 0000000140090af0 f i CrossMgr.obj
 0001:0008fb50       ?getCount@?$Counter@VCCLVariant@@@@SA_KXZ 0000000140090b50 f i CrossMgr.obj
 0001:0008fb60       ?clear@?$CBaseList@VCTeam@@@container@wylib@@QEAAXXZ 0000000140090b60 f i CrossMgr.obj
 0001:0008fb80       ?clear@?$CBaseList@V?$Handle@VCTeam@@@@@container@wylib@@QEAAXXZ 0000000140090b80 f i CrossMgr.obj
 0001:0008fba0       ?GetUsedHandleCount@?$HandleMgr@VCTeam@@V?$Handle@VCTeam@@@@$0EAA@@@QEBAIXZ 0000000140090ba0 f i CrossMgr.obj
 0001:0008fbc0       ?GetTotalHandleCount@?$HandleMgr@VCTeam@@V?$Handle@VCTeam@@@@$0EAA@@@QEAAIXZ 0000000140090bc0 f i CrossMgr.obj
 0001:0008fc10       ?count@?$CBaseList@V?$CBaseList@VCTeam@@@container@wylib@@@container@wylib@@QEBA_JXZ 0000000140090c10 f i CrossMgr.obj
 0001:0008fc30       ?addArray@?$CBaseList@V?$CBaseList@VCTeam@@@container@wylib@@@container@wylib@@QEAAXPEAV?$CBaseList@VCTeam@@@23@_J@Z 0000000140090c30 f i CrossMgr.obj
 0001:0008fd20       ?addArray@?$CBaseList@V?$CBaseList@V?$Handle@VCTeam@@@@@container@wylib@@@container@wylib@@QEAAXPEAV?$CBaseList@V?$Handle@VCTeam@@@@@23@_J@Z 0000000140090d20 f i CrossMgr.obj
 0001:0008fe10       ?Init@?$Handle@VCTeam@@@@QEAAXI@Z 0000000140090e10 f i CrossMgr.obj
 0001:0008ff50       ?GetMaxIndex@?$Handle@VCTeam@@@@QEAAIXZ 0000000140090f50 f i CrossMgr.obj
 0001:0008ff60       ??0?$CBaseList@VCTeam@@@container@wylib@@QEAA@XZ 0000000140090f60 f i CrossMgr.obj
 0001:0008ffc0       ?trunc@?$CBaseList@VCTeam@@@container@wylib@@QEAAX_J@Z 0000000140090fc0 f i CrossMgr.obj
 0001:00090050       ??0?$CBaseList@V?$Handle@VCTeam@@@@@container@wylib@@QEAA@XZ 0000000140091050 f i CrossMgr.obj
 0001:000900b0       ?trunc@?$CBaseList@V?$Handle@VCTeam@@@@@container@wylib@@QEAAX_J@Z 00000001400910b0 f i CrossMgr.obj
 0001:00090140       ?IncMagicNumImpl@?$Handle@VCTeam@@@@IEAAXAEAI@Z 0000000140091140 f i CrossMgr.obj
 0001:00090190       ??0CDmkjMgr@@QEAA@XZ       0000000140091190 f   DmkjMgr.obj
 0001:00090310       ??1CDmkjMgr@@UEAA@XZ       0000000140091310 f   DmkjMgr.obj
 0001:000903e0       ?Destroy@CDmkjMgr@@UEAAXXZ 00000001400913e0 f   DmkjMgr.obj
 0001:00090480       ?Save@CDmkjMgr@@QEAAXXZ    0000000140091480 f   DmkjMgr.obj
 0001:00090530       ?Load@CDmkjMgr@@QEAAXXZ    0000000140091530 f   DmkjMgr.obj
 0001:00090570       ?ClearActorItem@CDmkjMgr@@QEAAXXZ 0000000140091570 f   DmkjMgr.obj
 0001:00090630       ?RunOne@CDmkjMgr@@QEAAXAEAUCMiniDateTime@@_J@Z 0000000140091630 f   DmkjMgr.obj
 0001:000906b0       ?AddDmkjLog@CDmkjMgr@@QEAAXEEEGHPEBDH@Z 00000001400916b0 f   DmkjMgr.obj
 0001:000908d0       ?AddDmkjDuiHuanLog@CDmkjMgr@@QEAAXEEEGHPEBDH@Z 00000001400918d0 f   DmkjMgr.obj
 0001:00090af0       ?ClearDmkjLog@CDmkjMgr@@QEAAXXZ 0000000140091af0 f   DmkjMgr.obj
 0001:00090c00       ?SendRequireAllRefresh@CDmkjMgr@@QEAAXXZ 0000000140091c00 f   DmkjMgr.obj
 0001:00090ce0       ?FindActorItemAndDelete@CDmkjMgr@@QEAA_NIAEAUtagdmkjactoritem@1@@Z 0000000140091ce0 f   DmkjMgr.obj
 0001:00090ec0       ?InsertActorItem@CDmkjMgr@@QEAAXIAEAUCMiniDateTime@@PEAH@Z 0000000140091ec0 f   DmkjMgr.obj
 0001:00091060       ?SetDmkjTimeLimitItem@CDmkjMgr@@QEAAXHHH@Z 0000000140092060 f   DmkjMgr.obj
 0001:000910b0       ?OnDmkjAddItem@CDmkjMgr@@QEAAXH@Z 00000001400920b0 f   DmkjMgr.obj
 0001:00091140       ?CanGetThisItem@CDmkjMgr@@QEAA_NH@Z 0000000140092140 f   DmkjMgr.obj
 0001:000911f0       ?SaveDataToScript@CDmkjMgr@@AEAA_NPEBD@Z 00000001400921f0 f   DmkjMgr.obj
 0001:000915f0       ?LoadDataFromScript@CDmkjMgr@@AEAA_NPEBD@Z 00000001400925f0 f   DmkjMgr.obj
 0001:000918e0       ?AddBownGiftLog@CDmkjMgr@@QEAAXPEADH@Z 00000001400928e0 f   DmkjMgr.obj
 0001:00091a00       ?SendBownGiftToClient@CDmkjMgr@@QEAAXPEAVCActor@@@Z 0000000140092a00 f   DmkjMgr.obj
 0001:000921b0       ??_GCDmkjMgr@@UEAAPEAXI@Z  00000001400931b0 f i DmkjMgr.obj
 0001:000921b0       ??_ECDmkjMgr@@UEAAPEAXI@Z  00000001400931b0 f i DmkjMgr.obj
 0001:00092210       ??1?$map@GIU?$less@G@std@@V?$allocator@U?$pair@$$CBGI@std@@@2@@std@@QEAA@XZ 0000000140093210 f i DmkjMgr.obj
 0001:00092250       ??0tagdmkjactoritem@CDmkjMgr@@QEAA@XZ 0000000140093250 f i DmkjMgr.obj
 0001:000922a0       ?add@?$CBaseList@Utagdmkjlog@CDmkjMgr@@@container@wylib@@QEAA_JAEBUtagdmkjlog@CDmkjMgr@@@Z 00000001400932a0 f i DmkjMgr.obj
 0001:000923a0       ?count@?$CBaseList@Utagdmkjactoritem@CDmkjMgr@@@container@wylib@@QEBA_JXZ 00000001400933a0 f i DmkjMgr.obj
 0001:000923c0       ?insert@?$CBaseList@Utagdmkjactoritem@CDmkjMgr@@@container@wylib@@QEAAX_JAEBUtagdmkjactoritem@CDmkjMgr@@@Z 00000001400933c0 f i DmkjMgr.obj
 0001:00092590       ?remove@?$CBaseList@Utagdmkjactoritem@CDmkjMgr@@@container@wylib@@QEAAX_J@Z 0000000140093590 f i DmkjMgr.obj
 0001:00092620       ??B?$CBaseList@Utagdmkjactoritem@CDmkjMgr@@@container@wylib@@QEBAPEAUtagdmkjactoritem@CDmkjMgr@@XZ 0000000140093620 f i DmkjMgr.obj
 0001:00092640       ?count@?$CBaseList@UtagGlobalBownGift@CDmkjMgr@@@container@wylib@@QEBA_JXZ 0000000140093640 f i DmkjMgr.obj
 0001:00092660       ?add@?$CBaseList@UtagGlobalBownGift@CDmkjMgr@@@container@wylib@@QEAA_JAEBUtagGlobalBownGift@CDmkjMgr@@@Z 0000000140093660 f i DmkjMgr.obj
 0001:00092760       ?remove@?$CBaseList@UtagGlobalBownGift@CDmkjMgr@@@container@wylib@@QEAAX_J@Z 0000000140093760 f i DmkjMgr.obj
 0001:000927f0       ??B?$CBaseList@UtagGlobalBownGift@CDmkjMgr@@@container@wylib@@QEBAPEAUtagGlobalBownGift@CDmkjMgr@@XZ 00000001400937f0 f i DmkjMgr.obj
 0001:00092810       ??0?$map@GIU?$less@G@std@@V?$allocator@U?$pair@$$CBGI@std@@@2@@std@@QEAA@XZ 0000000140093810 f i DmkjMgr.obj
 0001:00092870       ??1?$_Tree@V?$_Tmap_traits@GIU?$less@G@std@@V?$allocator@U?$pair@$$CBGI@std@@@2@$0A@@std@@@std@@QEAA@XZ 0000000140093870 f i DmkjMgr.obj
 0001:000928c0       ?size@?$_Tree@V?$_Tmap_traits@GIU?$less@G@std@@V?$allocator@U?$pair@$$CBGI@std@@@2@$0A@@std@@@std@@QEBA_KXZ 00000001400938c0 f i DmkjMgr.obj
 0001:000928e0       ??E?$_Tree_iterator@V?$_Tree_val@V?$_Tmap_traits@GIU?$less@G@std@@V?$allocator@U?$pair@$$CBGI@std@@@2@$0A@@std@@@std@@@std@@QEAA?AV01@H@Z 00000001400938e0 f i DmkjMgr.obj
 0001:00092980       ?remove@?$CBaseList@Utagdmkjactoritem@CDmkjMgr@@@container@wylib@@QEAAX_J0@Z 0000000140093980 f i DmkjMgr.obj
 0001:00092ab0       ?remove@?$CBaseList@UtagGlobalBownGift@CDmkjMgr@@@container@wylib@@QEAAX_J0@Z 0000000140093ab0 f i DmkjMgr.obj
 0001:00092be0       ??0?$_Tree@V?$_Tmap_traits@GIU?$less@G@std@@V?$allocator@U?$pair@$$CBGI@std@@@2@$0A@@std@@@std@@QEAA@AEBU?$less@G@1@AEBV?$allocator@U?$pair@$$CBGI@std@@@1@@Z 0000000140093be0 f i DmkjMgr.obj
 0001:00092c60       ?_Tidy@?$_Tree@V?$_Tmap_traits@GIU?$less@G@std@@V?$allocator@U?$pair@$$CBGI@std@@@2@$0A@@std@@@std@@IEAAXXZ 0000000140093c60 f i DmkjMgr.obj
 0001:00092d60       ??1?$_Tree_val@V?$_Tmap_traits@GIU?$less@G@std@@V?$allocator@U?$pair@$$CBGI@std@@@2@$0A@@std@@@std@@QEAA@XZ 0000000140093d60 f i DmkjMgr.obj
 0001:00092dd0       ??0?$allocator@U?$pair@$$CBGI@std@@@std@@QEAA@XZ 0000000140093dd0 f i DmkjMgr.obj
 0001:00092de0       ??E?$_Tree_iterator@V?$_Tree_val@V?$_Tmap_traits@GIU?$less@G@std@@V?$allocator@U?$pair@$$CBGI@std@@@2@$0A@@std@@@std@@@std@@QEAAAEAV01@XZ 0000000140093de0 f i DmkjMgr.obj
 0001:00092e20       ?erase@?$_Tree@V?$_Tmap_traits@GIU?$less@G@std@@V?$allocator@U?$pair@$$CBGI@std@@@2@$0A@@std@@@std@@QEAA?AV?$_Tree_iterator@V?$_Tree_val@V?$_Tmap_traits@GIU?$less@G@std@@V?$allocator@U?$pair@$$CBGI@std@@@2@$0A@@std@@@std@@@2@V?$_Tree_const_iterator@V?$_Tree_val@V?$_Tmap_traits@GIU?$less@G@std@@V?$allocator@U?$pair@$$CBGI@std@@@2@$0A@@std@@@std@@@2@0@Z 0000000140093e20 f i DmkjMgr.obj
 0001:000930d0       ??0?$_Tree_val@V?$_Tmap_traits@GIU?$less@G@std@@V?$allocator@U?$pair@$$CBGI@std@@@2@$0A@@std@@@std@@QEAA@AEBU?$less@G@1@V?$allocator@U?$pair@$$CBGI@std@@@1@@Z 00000001400940d0 f i DmkjMgr.obj
 0001:00093210       ??1?$_Tree_nod@V?$_Tmap_traits@GIU?$less@G@std@@V?$allocator@U?$pair@$$CBGI@std@@@2@$0A@@std@@@std@@QEAA@XZ 0000000140094210 f i DmkjMgr.obj
 0001:000932d0       ??0?$allocator@U?$pair@$$CBGI@std@@@std@@QEAA@AEBV01@@Z 00000001400942d0 f i DmkjMgr.obj
 0001:000932f0       ??E?$_Tree_const_iterator@V?$_Tree_val@V?$_Tmap_traits@GIU?$less@G@std@@V?$allocator@U?$pair@$$CBGI@std@@@2@$0A@@std@@@std@@@std@@QEAAAEAV01@XZ 00000001400942f0 f i DmkjMgr.obj
 0001:00093420       ??1?$_Tmap_traits@GIU?$less@G@std@@V?$allocator@U?$pair@$$CBGI@std@@@2@$0A@@std@@QEAA@XZ 0000000140094420 f i DmkjMgr.obj
 0001:00093460       ?erase@?$_Tree@V?$_Tmap_traits@GIU?$less@G@std@@V?$allocator@U?$pair@$$CBGI@std@@@2@$0A@@std@@@std@@QEAA?AV?$_Tree_iterator@V?$_Tree_val@V?$_Tmap_traits@GIU?$less@G@std@@V?$allocator@U?$pair@$$CBGI@std@@@2@$0A@@std@@@std@@@2@V?$_Tree_const_iterator@V?$_Tree_val@V?$_Tmap_traits@GIU?$less@G@std@@V?$allocator@U?$pair@$$CBGI@std@@@2@$0A@@std@@@std@@@2@@Z 0000000140094460 f i DmkjMgr.obj
 0001:00093f30       ??0?$_Tree_nod@V?$_Tmap_traits@GIU?$less@G@std@@V?$allocator@U?$pair@$$CBGI@std@@@2@$0A@@std@@@std@@QEAA@AEBU?$less@G@1@V?$allocator@U?$pair@$$CBGI@std@@@1@@Z 0000000140094f30 f i DmkjMgr.obj
 0001:00094050       ??E?$_Tree_const_iterator@V?$_Tree_val@V?$_Tmap_traits@GIU?$less@G@std@@V?$allocator@U?$pair@$$CBGI@std@@@2@$0A@@std@@@std@@@std@@QEAA?AV01@H@Z 0000000140095050 f i DmkjMgr.obj
 0001:000940f0       ??E?$_Tree_unchecked_const_iterator@V?$_Tree_val@V?$_Tmap_traits@GIU?$less@G@std@@V?$allocator@U?$pair@$$CBGI@std@@@2@$0A@@std@@@std@@U_Iterator_base12@2@@std@@QEAAAEAV01@XZ 00000001400950f0 f i DmkjMgr.obj
 0001:00094210       ?_Min@?$_Tree_val@V?$_Tmap_traits@GIU?$less@G@std@@V?$allocator@U?$pair@$$CBGI@std@@@2@$0A@@std@@@std@@SAPEAU_Node@?$_Tree_nod@V?$_Tmap_traits@GIU?$less@G@std@@V?$allocator@U?$pair@$$CBGI@std@@@2@$0A@@std@@@2@PEAU342@@Z 0000000140095210 f i DmkjMgr.obj
 0001:00094280       ??0?$_Tmap_traits@GIU?$less@G@std@@V?$allocator@U?$pair@$$CBGI@std@@@2@$0A@@std@@QEAA@U?$less@G@1@@Z 0000000140095280 f i DmkjMgr.obj
 0001:000942d0       ??0?$CVector@Utagdmkjlog@CDmkjMgr@@@@QEAA@PEAVCBufferAllocator@@@Z 00000001400952d0 f i DmkjMgr.obj
 0001:00094380       ??1?$CVector@Utagdmkjlog@CDmkjMgr@@@@UEAA@XZ 0000000140095380 f i DmkjMgr.obj
 0001:000943e0       ?empty@?$CVector@Utagdmkjlog@CDmkjMgr@@@@UEAAXXZ 00000001400953e0 f i DmkjMgr.obj
 0001:00094480       ?reserve@?$CVector@Utagdmkjlog@CDmkjMgr@@@@UEAAX_J@Z 0000000140095480 f i DmkjMgr.obj
 0001:00094600       ??0?$CVector@UtagGlobalLuckAwardLog@CDmkjMgr@@@@QEAA@PEAVCBufferAllocator@@@Z 0000000140095600 f i DmkjMgr.obj
 0001:000946b0       ??1?$CVector@UtagGlobalLuckAwardLog@CDmkjMgr@@@@UEAA@XZ 00000001400956b0 f i DmkjMgr.obj
 0001:00094710       ?empty@?$CVector@UtagGlobalLuckAwardLog@CDmkjMgr@@@@UEAAXXZ 0000000140095710 f i DmkjMgr.obj
 0001:000947b0       ?reserve@?$CVector@UtagGlobalLuckAwardLog@CDmkjMgr@@@@UEAAX_J@Z 00000001400957b0 f i DmkjMgr.obj
 0001:00094930       ??0?$CVector@UtagGlobalHorseLuckAwardLog@CDmkjMgr@@@@QEAA@PEAVCBufferAllocator@@@Z 0000000140095930 f i DmkjMgr.obj
 0001:000949e0       ??1?$CVector@UtagGlobalHorseLuckAwardLog@CDmkjMgr@@@@UEAA@XZ 00000001400959e0 f i DmkjMgr.obj
 0001:00094a40       ?empty@?$CVector@UtagGlobalHorseLuckAwardLog@CDmkjMgr@@@@UEAAXXZ 0000000140095a40 f i DmkjMgr.obj
 0001:00094ae0       ?reserve@?$CVector@UtagGlobalHorseLuckAwardLog@CDmkjMgr@@@@UEAAX_J@Z 0000000140095ae0 f i DmkjMgr.obj
 0001:00094c60       ??0?$CVector@Utagdmkjactoritem@CDmkjMgr@@@@QEAA@PEAVCBufferAllocator@@@Z 0000000140095c60 f i DmkjMgr.obj
 0001:00094d10       ??1?$CVector@Utagdmkjactoritem@CDmkjMgr@@@@UEAA@XZ 0000000140095d10 f i DmkjMgr.obj
 0001:00094d70       ?empty@?$CVector@Utagdmkjactoritem@CDmkjMgr@@@@UEAAXXZ 0000000140095d70 f i DmkjMgr.obj
 0001:00094e10       ?reserve@?$CVector@Utagdmkjactoritem@CDmkjMgr@@@@UEAAX_J@Z 0000000140095e10 f i DmkjMgr.obj
 0001:00094f90       ??0?$CVector@UtagGlobalBownGift@CDmkjMgr@@@@QEAA@PEAVCBufferAllocator@@@Z 0000000140095f90 f i DmkjMgr.obj
 0001:00095040       ??1?$CVector@UtagGlobalBownGift@CDmkjMgr@@@@UEAA@XZ 0000000140096040 f i DmkjMgr.obj
 0001:000950a0       ?empty@?$CVector@UtagGlobalBownGift@CDmkjMgr@@@@UEAAXXZ 00000001400960a0 f i DmkjMgr.obj
 0001:00095140       ?reserve@?$CVector@UtagGlobalBownGift@CDmkjMgr@@@@UEAAX_J@Z 0000000140096140 f i DmkjMgr.obj
 0001:000952c0       ??$?0U_Node@?$_Tree_nod@V?$_Tmap_traits@GIU?$less@G@std@@V?$allocator@U?$pair@$$CBGI@std@@@2@$0A@@std@@@std@@@?$allocator@U_Container_proxy@std@@@std@@QEAA@AEBV?$allocator@U_Node@?$_Tree_nod@V?$_Tmap_traits@GIU?$less@G@std@@V?$allocator@U?$pair@$$CBGI@std@@@2@$0A@@std@@@std@@@1@@Z 00000001400962c0 f i DmkjMgr.obj
 0001:000952e0       ??$?0U?$pair@$$CBGI@std@@@?$allocator@U_Node@?$_Tree_nod@V?$_Tmap_traits@GIU?$less@G@std@@V?$allocator@U?$pair@$$CBGI@std@@@2@$0A@@std@@@std@@@std@@QEAA@AEBV?$allocator@U?$pair@$$CBGI@std@@@1@@Z 00000001400962e0 f i DmkjMgr.obj
 0001:00095300       ??_E?$CVector@Utagdmkjlog@CDmkjMgr@@@@UEAAPEAXI@Z 0000000140096300 f i DmkjMgr.obj
 0001:00095300       ??_G?$CVector@Utagdmkjlog@CDmkjMgr@@@@UEAAPEAXI@Z 0000000140096300 f i DmkjMgr.obj
 0001:00095360       ??_G?$CVector@UtagGlobalLuckAwardLog@CDmkjMgr@@@@UEAAPEAXI@Z 0000000140096360 f i DmkjMgr.obj
 0001:00095360       ??_E?$CVector@UtagGlobalLuckAwardLog@CDmkjMgr@@@@UEAAPEAXI@Z 0000000140096360 f i DmkjMgr.obj
 0001:000953c0       ??_G?$CVector@UtagGlobalHorseLuckAwardLog@CDmkjMgr@@@@UEAAPEAXI@Z 00000001400963c0 f i DmkjMgr.obj
 0001:000953c0       ??_E?$CVector@UtagGlobalHorseLuckAwardLog@CDmkjMgr@@@@UEAAPEAXI@Z 00000001400963c0 f i DmkjMgr.obj
 0001:00095420       ??_E?$CVector@Utagdmkjactoritem@CDmkjMgr@@@@UEAAPEAXI@Z 0000000140096420 f i DmkjMgr.obj
 0001:00095420       ??_G?$CVector@Utagdmkjactoritem@CDmkjMgr@@@@UEAAPEAXI@Z 0000000140096420 f i DmkjMgr.obj
 0001:00095480       ??_E?$CVector@UtagGlobalBownGift@CDmkjMgr@@@@UEAAPEAXI@Z 0000000140096480 f i DmkjMgr.obj
 0001:00095480       ??_G?$CVector@UtagGlobalBownGift@CDmkjMgr@@@@UEAAPEAXI@Z 0000000140096480 f i DmkjMgr.obj
 0001:000954e0       ??0?$CBaseList@Utagdmkjlog@CDmkjMgr@@@container@wylib@@QEAA@XZ 00000001400964e0 f i DmkjMgr.obj
 0001:00095540       ??0?$CBaseList@UtagGlobalLuckAwardLog@CDmkjMgr@@@container@wylib@@QEAA@XZ 0000000140096540 f i DmkjMgr.obj
 0001:000955a0       ??0?$CBaseList@UtagGlobalHorseLuckAwardLog@CDmkjMgr@@@container@wylib@@QEAA@XZ 00000001400965a0 f i DmkjMgr.obj
 0001:00095600       ??0?$CBaseList@Utagdmkjactoritem@CDmkjMgr@@@container@wylib@@QEAA@XZ 0000000140096600 f i DmkjMgr.obj
 0001:00095660       ??0?$CBaseList@UtagGlobalBownGift@CDmkjMgr@@@container@wylib@@QEAA@XZ 0000000140096660 f i DmkjMgr.obj
 0001:000956c0       ??0_Container_proxy@std@@QEAA@XZ 00000001400966c0 f i DmkjMgr.obj
 0001:000956f0       ??OCMiniDateTime@@QEAA_NI@Z 00000001400966f0 f i DmkjMgr.obj
 0001:00095760       ?BroadCast@CEntityManager@@QEAAXPEAD_KHH@Z 0000000140096760 f i DmkjMgr.obj
 0001:000958f0       ??1?$_Tree_iterator@V?$_Tree_val@V?$_Tmap_traits@GIU?$less@G@std@@V?$allocator@U?$pair@$$CBGI@std@@@2@$0A@@std@@@std@@@std@@QEAA@XZ 00000001400968f0 f i DmkjMgr.obj
 0001:00095930       ??1?$pair@V?$_Tree_iterator@V?$_Tree_val@V?$_Tmap_traits@GIU?$less@G@std@@V?$allocator@U?$pair@$$CBGI@std@@@2@$0A@@std@@@std@@@std@@_N@std@@QEAA@XZ 0000000140096930 f i DmkjMgr.obj
 0001:00095970       ??1?$_Tree_const_iterator@V?$_Tree_val@V?$_Tmap_traits@GIU?$less@G@std@@V?$allocator@U?$pair@$$CBGI@std@@@2@$0A@@std@@@std@@@std@@QEAA@XZ 0000000140096970 f i DmkjMgr.obj
 0001:000959b0       ??1?$_Pair_base@V?$_Tree_iterator@V?$_Tree_val@V?$_Tmap_traits@GIU?$less@G@std@@V?$allocator@U?$pair@$$CBGI@std@@@2@$0A@@std@@@std@@@std@@_N@std@@QEAA@XZ 00000001400969b0 f i DmkjMgr.obj
 0001:000959f0       ??1?$_Tree_unchecked_const_iterator@V?$_Tree_val@V?$_Tmap_traits@GIU?$less@G@std@@V?$allocator@U?$pair@$$CBGI@std@@@2@$0A@@std@@@std@@U_Iterator_base12@2@@std@@QEAA@XZ 00000001400969f0 f i DmkjMgr.obj
 0001:00095a30       ??1?$_Iterator012@Ubidirectional_iterator_tag@std@@U?$pair@$$CBGI@2@_JPEBU32@AEBU32@U_Iterator_base12@2@@std@@QEAA@XZ 0000000140096a30 f i DmkjMgr.obj
 0001:00095a70       ??1?$CBaseList@Utagdmkjlog@CDmkjMgr@@@container@wylib@@UEAA@XZ 0000000140096a70 f i DmkjMgr.obj
 0001:00095ac0       ?empty@?$CBaseList@Utagdmkjlog@CDmkjMgr@@@container@wylib@@UEAAXXZ 0000000140096ac0 f i DmkjMgr.obj
 0001:00095b40       ?reserve@?$CBaseList@Utagdmkjlog@CDmkjMgr@@@container@wylib@@UEAAX_J@Z 0000000140096b40 f i DmkjMgr.obj
 0001:00095be0       ??1?$CBaseList@UtagGlobalLuckAwardLog@CDmkjMgr@@@container@wylib@@UEAA@XZ 0000000140096be0 f i DmkjMgr.obj
 0001:00095c30       ?empty@?$CBaseList@UtagGlobalLuckAwardLog@CDmkjMgr@@@container@wylib@@UEAAXXZ 0000000140096c30 f i DmkjMgr.obj
 0001:00095cb0       ?reserve@?$CBaseList@UtagGlobalLuckAwardLog@CDmkjMgr@@@container@wylib@@UEAAX_J@Z 0000000140096cb0 f i DmkjMgr.obj
 0001:00095d50       ??1?$CBaseList@UtagGlobalHorseLuckAwardLog@CDmkjMgr@@@container@wylib@@UEAA@XZ 0000000140096d50 f i DmkjMgr.obj
 0001:00095da0       ?empty@?$CBaseList@UtagGlobalHorseLuckAwardLog@CDmkjMgr@@@container@wylib@@UEAAXXZ 0000000140096da0 f i DmkjMgr.obj
 0001:00095e20       ?reserve@?$CBaseList@UtagGlobalHorseLuckAwardLog@CDmkjMgr@@@container@wylib@@UEAAX_J@Z 0000000140096e20 f i DmkjMgr.obj
 0001:00095ec0       ??1?$CBaseList@Utagdmkjactoritem@CDmkjMgr@@@container@wylib@@UEAA@XZ 0000000140096ec0 f i DmkjMgr.obj
 0001:00095f10       ?empty@?$CBaseList@Utagdmkjactoritem@CDmkjMgr@@@container@wylib@@UEAAXXZ 0000000140096f10 f i DmkjMgr.obj
 0001:00095f90       ?reserve@?$CBaseList@Utagdmkjactoritem@CDmkjMgr@@@container@wylib@@UEAAX_J@Z 0000000140096f90 f i DmkjMgr.obj
 0001:00096030       ??1?$CBaseList@UtagGlobalBownGift@CDmkjMgr@@@container@wylib@@UEAA@XZ 0000000140097030 f i DmkjMgr.obj
 0001:00096080       ?empty@?$CBaseList@UtagGlobalBownGift@CDmkjMgr@@@container@wylib@@UEAAXXZ 0000000140097080 f i DmkjMgr.obj
 0001:00096100       ?reserve@?$CBaseList@UtagGlobalBownGift@CDmkjMgr@@@container@wylib@@UEAAX_J@Z 0000000140097100 f i DmkjMgr.obj
 0001:000961a0       ?end@?$_Tree@V?$_Tmap_traits@GIU?$less@G@std@@V?$allocator@U?$pair@$$CBGI@std@@@2@$0A@@std@@@std@@QEAA?AV?$_Tree_iterator@V?$_Tree_val@V?$_Tmap_traits@GIU?$less@G@std@@V?$allocator@U?$pair@$$CBGI@std@@@2@$0A@@std@@@std@@@2@XZ 00000001400971a0 f i DmkjMgr.obj
 0001:00096200       ??C?$_Tree_iterator@V?$_Tree_val@V?$_Tmap_traits@GIU?$less@G@std@@V?$allocator@U?$pair@$$CBGI@std@@@2@$0A@@std@@@std@@@std@@QEBAPEAU?$pair@$$CBGI@1@XZ 0000000140097200 f i DmkjMgr.obj
 0001:00096240       ??9?$_Tree_const_iterator@V?$_Tree_val@V?$_Tmap_traits@GIU?$less@G@std@@V?$allocator@U?$pair@$$CBGI@std@@@2@$0A@@std@@@std@@@std@@QEBA_NAEBV01@@Z 0000000140097240 f i DmkjMgr.obj
 0001:000962b0       ??_G?$CBaseList@Utagdmkjlog@CDmkjMgr@@@container@wylib@@UEAAPEAXI@Z 00000001400972b0 f i DmkjMgr.obj
 0001:000962b0       ??_E?$CBaseList@Utagdmkjlog@CDmkjMgr@@@container@wylib@@UEAAPEAXI@Z 00000001400972b0 f i DmkjMgr.obj
 0001:00096310       ??_E?$CBaseList@UtagGlobalLuckAwardLog@CDmkjMgr@@@container@wylib@@UEAAPEAXI@Z 0000000140097310 f i DmkjMgr.obj
 0001:00096310       ??_G?$CBaseList@UtagGlobalLuckAwardLog@CDmkjMgr@@@container@wylib@@UEAAPEAXI@Z 0000000140097310 f i DmkjMgr.obj
 0001:00096370       ??_E?$CBaseList@UtagGlobalHorseLuckAwardLog@CDmkjMgr@@@container@wylib@@UEAAPEAXI@Z 0000000140097370 f i DmkjMgr.obj
 0001:00096370       ??_G?$CBaseList@UtagGlobalHorseLuckAwardLog@CDmkjMgr@@@container@wylib@@UEAAPEAXI@Z 0000000140097370 f i DmkjMgr.obj
 0001:000963d0       ??_E?$CBaseList@Utagdmkjactoritem@CDmkjMgr@@@container@wylib@@UEAAPEAXI@Z 00000001400973d0 f i DmkjMgr.obj
 0001:000963d0       ??_G?$CBaseList@Utagdmkjactoritem@CDmkjMgr@@@container@wylib@@UEAAPEAXI@Z 00000001400973d0 f i DmkjMgr.obj
 0001:00096430       ??_G?$CBaseList@UtagGlobalBownGift@CDmkjMgr@@@container@wylib@@UEAAPEAXI@Z 0000000140097430 f i DmkjMgr.obj
 0001:00096430       ??_E?$CBaseList@UtagGlobalBownGift@CDmkjMgr@@@container@wylib@@UEAAPEAXI@Z 0000000140097430 f i DmkjMgr.obj
 0001:00096490       ??0?$_Tree_iterator@V?$_Tree_val@V?$_Tmap_traits@GIU?$less@G@std@@V?$allocator@U?$pair@$$CBGI@std@@@2@$0A@@std@@@std@@@std@@QEAA@AEBV01@@Z 0000000140097490 f i DmkjMgr.obj
 0001:000964e0       ??0?$_Tree_const_iterator@V?$_Tree_val@V?$_Tmap_traits@GIU?$less@G@std@@V?$allocator@U?$pair@$$CBGI@std@@@2@$0A@@std@@@std@@@std@@QEAA@AEBV01@@Z 00000001400974e0 f i DmkjMgr.obj
 0001:00096530       ??0?$_Tree_unchecked_const_iterator@V?$_Tree_val@V?$_Tmap_traits@GIU?$less@G@std@@V?$allocator@U?$pair@$$CBGI@std@@@2@$0A@@std@@@std@@U_Iterator_base12@2@@std@@QEAA@AEBV01@@Z 0000000140097530 f i DmkjMgr.obj
 0001:000965a0       ??0?$_Iterator012@Ubidirectional_iterator_tag@std@@U?$pair@$$CBGI@2@_JPEBU32@AEBU32@U_Iterator_base12@2@@std@@QEAA@AEBU01@@Z 00000001400975a0 f i DmkjMgr.obj
 0001:000965f0       ?clear@?$CBaseList@Utagdmkjlog@CDmkjMgr@@@container@wylib@@QEAAXXZ 00000001400975f0 f i DmkjMgr.obj
 0001:00096610       ?clear@?$CBaseList@UtagGlobalLuckAwardLog@CDmkjMgr@@@container@wylib@@QEAAXXZ 0000000140097610 f i DmkjMgr.obj
 0001:00096630       ?clear@?$CBaseList@UtagGlobalHorseLuckAwardLog@CDmkjMgr@@@container@wylib@@QEAAXXZ 0000000140097630 f i DmkjMgr.obj
 0001:00096650       ?clear@?$CBaseList@Utagdmkjactoritem@CDmkjMgr@@@container@wylib@@QEAAXXZ 0000000140097650 f i DmkjMgr.obj
 0001:00096670       ?clear@?$CBaseList@UtagGlobalBownGift@CDmkjMgr@@@container@wylib@@QEAAXXZ 0000000140097670 f i DmkjMgr.obj
 0001:00096690       ??0?$_Tree_iterator@V?$_Tree_val@V?$_Tmap_traits@GIU?$less@G@std@@V?$allocator@U?$pair@$$CBGI@std@@@2@$0A@@std@@@std@@@std@@QEAA@PEAU_Node@?$_Tree_nod@V?$_Tmap_traits@GIU?$less@G@std@@V?$allocator@U?$pair@$$CBGI@std@@@2@$0A@@std@@@1@PEBV?$_Tree_val@V?$_Tmap_traits@GIU?$less@G@std@@V?$allocator@U?$pair@$$CBGI@std@@@2@$0A@@std@@@1@@Z 0000000140097690 f i DmkjMgr.obj
 0001:000966f0       ??D?$_Tree_iterator@V?$_Tree_val@V?$_Tmap_traits@GIU?$less@G@std@@V?$allocator@U?$pair@$$CBGI@std@@@2@$0A@@std@@@std@@@std@@QEBAAEAU?$pair@$$CBGI@1@XZ 00000001400976f0 f i DmkjMgr.obj
 0001:00096730       ??8?$_Tree_const_iterator@V?$_Tree_val@V?$_Tmap_traits@GIU?$less@G@std@@V?$allocator@U?$pair@$$CBGI@std@@@2@$0A@@std@@@std@@@std@@QEBA_NAEBV01@@Z 0000000140097730 f i DmkjMgr.obj
 0001:00096890       ?_Mynode@?$_Tree_unchecked_const_iterator@V?$_Tree_val@V?$_Tmap_traits@GIU?$less@G@std@@V?$allocator@U?$pair@$$CBGI@std@@@2@$0A@@std@@@std@@U_Iterator_base12@2@@std@@QEBAPEAU_Node@?$_Tree_nod@V?$_Tmap_traits@GIU?$less@G@std@@V?$allocator@U?$pair@$$CBGI@std@@@2@$0A@@std@@@2@XZ 0000000140097890 f i DmkjMgr.obj
 0001:000968b0       ??0?$_Tree_const_iterator@V?$_Tree_val@V?$_Tmap_traits@GIU?$less@G@std@@V?$allocator@U?$pair@$$CBGI@std@@@2@$0A@@std@@@std@@@std@@QEAA@PEAU_Node@?$_Tree_nod@V?$_Tmap_traits@GIU?$less@G@std@@V?$allocator@U?$pair@$$CBGI@std@@@2@$0A@@std@@@1@PEBV?$_Tree_val@V?$_Tmap_traits@GIU?$less@G@std@@V?$allocator@U?$pair@$$CBGI@std@@@2@$0A@@std@@@1@@Z 00000001400978b0 f i DmkjMgr.obj
 0001:00096910       ??D?$_Tree_const_iterator@V?$_Tree_val@V?$_Tmap_traits@GIU?$less@G@std@@V?$allocator@U?$pair@$$CBGI@std@@@2@$0A@@std@@@std@@@std@@QEBAAEBU?$pair@$$CBGI@1@XZ 0000000140097910 f i DmkjMgr.obj
 0001:00096a40       ?deallocate@?$allocator@U_Container_proxy@std@@@std@@QEAAXPEAU_Container_proxy@2@_K@Z 0000000140097a40 f i DmkjMgr.obj
 0001:00096a90       ?allocate@?$allocator@U_Container_proxy@std@@@std@@QEAAPEAU_Container_proxy@2@_K@Z 0000000140097a90 f i DmkjMgr.obj
 0001:00096ae0       ??0?$_Tree_unchecked_const_iterator@V?$_Tree_val@V?$_Tmap_traits@GIU?$less@G@std@@V?$allocator@U?$pair@$$CBGI@std@@@2@$0A@@std@@@std@@U_Iterator_base12@2@@std@@QEAA@PEAU_Node@?$_Tree_nod@V?$_Tmap_traits@GIU?$less@G@std@@V?$allocator@U?$pair@$$CBGI@std@@@2@$0A@@std@@@1@PEBV?$_Tree_val@V?$_Tmap_traits@GIU?$less@G@std@@V?$allocator@U?$pair@$$CBGI@std@@@2@$0A@@std@@@1@@Z 0000000140097ae0 f i DmkjMgr.obj
 0001:00096b50       ??0?$_Iterator012@Ubidirectional_iterator_tag@std@@U?$pair@$$CBGI@2@_JPEBU32@AEBU32@U_Iterator_base12@2@@std@@QEAA@XZ 0000000140097b50 f i DmkjMgr.obj
 0001:00096b90       ??$make_pair@GAEAI@std@@YA?AU?$pair@GI@0@$$QEAGAEAI@Z 0000000140097b90 f i DmkjMgr.obj
 0001:00096c10       ??$insert@U?$pair@GI@std@@@?$_Tree@V?$_Tmap_traits@GIU?$less@G@std@@V?$allocator@U?$pair@$$CBGI@std@@@2@$0A@@std@@@std@@QEAA?AU?$pair@V?$_Tree_iterator@V?$_Tree_val@V?$_Tmap_traits@GIU?$less@G@std@@V?$allocator@U?$pair@$$CBGI@std@@@2@$0A@@std@@@std@@@std@@_N@1@$$QEAU?$pair@GI@1@@Z 0000000140097c10 f i DmkjMgr.obj
 0001:00096c90       ??$swap@D@std@@YAXAEAD0@Z  0000000140097c90 f i DmkjMgr.obj
 0001:00096d20       ??$_Cons_val@V?$allocator@U_Container_proxy@std@@@std@@U_Container_proxy@2@U32@@std@@YAXAEAV?$allocator@U_Container_proxy@std@@@0@PEAU_Container_proxy@0@$$QEAU20@@Z 0000000140097d20 f i DmkjMgr.obj
 0001:00096d80       ??$_Dest_val@V?$allocator@U_Container_proxy@std@@@std@@U_Container_proxy@2@@std@@YAXAEAV?$allocator@U_Container_proxy@std@@@0@PEAU_Container_proxy@0@@Z 0000000140097d80 f i DmkjMgr.obj
 0001:00096dd0       ??$_Allocate@U_Container_proxy@std@@@std@@YAPEAU_Container_proxy@0@_KPEAU10@@Z 0000000140097dd0 f i DmkjMgr.obj
 0001:00096e90       ??0bad_alloc@std@@QEAA@PEBD@Z 0000000140097e90 f i DmkjMgr.obj
 0001:00096ef0       ??1bad_alloc@std@@UEAA@XZ  0000000140097ef0 f i DmkjMgr.obj
 0001:00096f40       ??_Ebad_alloc@std@@UEAAPEAXI@Z 0000000140097f40 f i DmkjMgr.obj
 0001:00096f40       ??_Gbad_alloc@std@@UEAAPEAXI@Z 0000000140097f40 f i DmkjMgr.obj
 0001:00096fa0       ??0bad_alloc@std@@QEAA@AEBV01@@Z 0000000140097fa0 f i DmkjMgr.obj
 0001:00097000       ?_Linsert@?$_Tree@V?$_Tmap_traits@GIU?$less@G@std@@V?$allocator@U?$pair@$$CBGI@std@@@2@$0A@@std@@@std@@QEAA?AU?$pair@V?$_Tree_iterator@V?$_Tree_val@V?$_Tmap_traits@GIU?$less@G@std@@V?$allocator@U?$pair@$$CBGI@std@@@2@$0A@@std@@@std@@@std@@_N@2@PEAU_Node@?$_Tree_nod@V?$_Tmap_traits@GIU?$less@G@std@@V?$allocator@U?$pair@$$CBGI@std@@@2@$0A@@std@@@2@_N@Z 0000000140098000 f i DmkjMgr.obj
 0001:00097580       ?_Key@?$_Tree_val@V?$_Tmap_traits@GIU?$less@G@std@@V?$allocator@U?$pair@$$CBGI@std@@@2@$0A@@std@@@std@@SAAEAGPEAU_Node@?$_Tree_nod@V?$_Tmap_traits@GIU?$less@G@std@@V?$allocator@U?$pair@$$CBGI@std@@@2@$0A@@std@@@2@@Z 0000000140098580 f i DmkjMgr.obj
 0001:000975d0       ??$_Debug_lt_pred@U?$less@G@std@@GG@std@@YA_NU?$less@G@0@AEBGAEAGPEB_WI@Z 00000001400985d0 f i DmkjMgr.obj
 0001:00097680       ??$_Kfn@$$CBGI@?$_Tmap_traits@GIU?$less@G@std@@V?$allocator@U?$pair@$$CBGI@std@@@2@$0A@@std@@SAAEBGAEBU?$pair@$$CBGI@1@@Z 0000000140098680 f i DmkjMgr.obj
 0001:00097690       ??$_Debug_lt_pred@U?$less@G@std@@GG@std@@YA_NU?$less@G@0@AEAGAEBGPEB_WI@Z 0000000140098690 f i DmkjMgr.obj
 0001:00097740       ??R?$less@G@std@@QEBA_NAEBG0@Z 0000000140098740 f i DmkjMgr.obj
 0001:000977b0       ?construct@?$allocator@U_Container_proxy@std@@@std@@QEAAXPEAU_Container_proxy@2@$$QEAU32@@Z 00000001400987b0 f i DmkjMgr.obj
 0001:00097870       ?destroy@?$allocator@U_Container_proxy@std@@@std@@QEAAXPEAU_Container_proxy@2@@Z 0000000140098870 f i DmkjMgr.obj
 0001:000978b0       ?begin@?$_Tree@V?$_Tmap_traits@GIU?$less@G@std@@V?$allocator@U?$pair@$$CBGI@std@@@2@$0A@@std@@@std@@QEAA?AV?$_Tree_iterator@V?$_Tree_val@V?$_Tmap_traits@GIU?$less@G@std@@V?$allocator@U?$pair@$$CBGI@std@@@2@$0A@@std@@@std@@@2@XZ 00000001400988b0 f i DmkjMgr.obj
 0001:00097910       ?_Insert@?$_Tree@V?$_Tmap_traits@GIU?$less@G@std@@V?$allocator@U?$pair@$$CBGI@std@@@2@$0A@@std@@@std@@IEAA?AV?$_Tree_iterator@V?$_Tree_val@V?$_Tmap_traits@GIU?$less@G@std@@V?$allocator@U?$pair@$$CBGI@std@@@2@$0A@@std@@@std@@@2@_NPEAU_Node@?$_Tree_nod@V?$_Tmap_traits@GIU?$less@G@std@@V?$allocator@U?$pair@$$CBGI@std@@@2@$0A@@std@@@2@1@Z 0000000140098910 f i DmkjMgr.obj
 0001:00097e80       ??F?$_Tree_iterator@V?$_Tree_val@V?$_Tmap_traits@GIU?$less@G@std@@V?$allocator@U?$pair@$$CBGI@std@@@2@$0A@@std@@@std@@@std@@QEAAAEAV01@XZ 0000000140098e80 f i DmkjMgr.obj
 0001:00097ec0       ??0?$pair@V?$_Tree_iterator@V?$_Tree_val@V?$_Tmap_traits@GIU?$less@G@std@@V?$allocator@U?$pair@$$CBGI@std@@@2@$0A@@std@@@std@@@std@@_N@std@@QEAA@$$QEAV?$_Tree_iterator@V?$_Tree_val@V?$_Tmap_traits@GIU?$less@G@std@@V?$allocator@U?$pair@$$CBGI@std@@@2@$0A@@std@@@std@@@1@$$QEA_N@Z 0000000140098ec0 f i DmkjMgr.obj
 0001:00097f40       ?max_size@?$_Tree@V?$_Tmap_traits@GIU?$less@G@std@@V?$allocator@U?$pair@$$CBGI@std@@@2@$0A@@std@@@std@@QEBA_KXZ 0000000140098f40 f i DmkjMgr.obj
 0001:00097f90       ?_Lrotate@?$_Tree@V?$_Tmap_traits@GIU?$less@G@std@@V?$allocator@U?$pair@$$CBGI@std@@@2@$0A@@std@@@std@@IEAAXPEAU_Node@?$_Tree_nod@V?$_Tmap_traits@GIU?$less@G@std@@V?$allocator@U?$pair@$$CBGI@std@@@2@$0A@@std@@@2@@Z 0000000140098f90 f i DmkjMgr.obj
 0001:00098140       ?_Rrotate@?$_Tree@V?$_Tmap_traits@GIU?$less@G@std@@V?$allocator@U?$pair@$$CBGI@std@@@2@$0A@@std@@@std@@IEAAXPEAU_Node@?$_Tree_nod@V?$_Tmap_traits@GIU?$less@G@std@@V?$allocator@U?$pair@$$CBGI@std@@@2@$0A@@std@@@2@@Z 0000000140099140 f i DmkjMgr.obj
 0001:000982f0       ?_Color@?$_Tree_val@V?$_Tmap_traits@GIU?$less@G@std@@V?$allocator@U?$pair@$$CBGI@std@@@2@$0A@@std@@@std@@SAAEADPEAU_Node@?$_Tree_nod@V?$_Tmap_traits@GIU?$less@G@std@@V?$allocator@U?$pair@$$CBGI@std@@@2@$0A@@std@@@2@@Z 00000001400992f0 f i DmkjMgr.obj
 0001:00098310       ??F?$_Tree_const_iterator@V?$_Tree_val@V?$_Tmap_traits@GIU?$less@G@std@@V?$allocator@U?$pair@$$CBGI@std@@@2@$0A@@std@@@std@@@std@@QEAAAEAV01@XZ 0000000140099310 f i DmkjMgr.obj
 0001:000984f0       ??0?$_Pair_base@V?$_Tree_iterator@V?$_Tree_val@V?$_Tmap_traits@GIU?$less@G@std@@V?$allocator@U?$pair@$$CBGI@std@@@2@$0A@@std@@@std@@@std@@_N@std@@QEAA@$$QEAV?$_Tree_iterator@V?$_Tree_val@V?$_Tmap_traits@GIU?$less@G@std@@V?$allocator@U?$pair@$$CBGI@std@@@2@$0A@@std@@@std@@@1@$$QEA_N@Z 00000001400994f0 f i DmkjMgr.obj
 0001:00098570       ?max_size@?$allocator@U?$pair@$$CBGI@std@@@std@@QEBA_KXZ 0000000140099570 f i DmkjMgr.obj
 0001:000985e0       ??F?$_Tree_unchecked_const_iterator@V?$_Tree_val@V?$_Tmap_traits@GIU?$less@G@std@@V?$allocator@U?$pair@$$CBGI@std@@@2@$0A@@std@@@std@@U_Iterator_base12@2@@std@@QEAAAEAV01@XZ 00000001400995e0 f i DmkjMgr.obj
 0001:00098740       ?_Max@?$_Tree_val@V?$_Tmap_traits@GIU?$less@G@std@@V?$allocator@U?$pair@$$CBGI@std@@@2@$0A@@std@@@std@@SAPEAU_Node@?$_Tree_nod@V?$_Tmap_traits@GIU?$less@G@std@@V?$allocator@U?$pair@$$CBGI@std@@@2@$0A@@std@@@2@PEAU342@@Z 0000000140099740 f i DmkjMgr.obj
 0001:000987b0       ??$forward@AEAI@std@@YAAEAIAEAI@Z 00000001400997b0 f i DmkjMgr.obj
 0001:000987c0       ??$forward@G@std@@YA$$QEAGAEAG@Z 00000001400997c0 f i DmkjMgr.obj
 0001:000987d0       ??$?0GAEAI@?$pair@GI@std@@QEAA@$$QEAGAEAI@Z 00000001400997d0 f i DmkjMgr.obj
 0001:00098850       ??$forward@U?$pair@GI@std@@@std@@YA$$QEAU?$pair@GI@0@AEAU10@@Z 0000000140099850 f i DmkjMgr.obj
 0001:00098860       ??$_Buynode@U?$pair@GI@std@@@?$_Tree_val@V?$_Tmap_traits@GIU?$less@G@std@@V?$allocator@U?$pair@$$CBGI@std@@@2@$0A@@std@@@std@@QEAAPEAU_Node@?$_Tree_nod@V?$_Tmap_traits@GIU?$less@G@std@@V?$allocator@U?$pair@$$CBGI@std@@@2@$0A@@std@@@1@$$QEAU?$pair@GI@1@@Z 0000000140099860 f i DmkjMgr.obj
 0001:00098910       ??$_Move@AEAD@std@@YA$$QEADAEAD@Z 0000000140099910 f i DmkjMgr.obj
 0001:00098920       ??$forward@U_Container_proxy@std@@@std@@YA$$QEAU_Container_proxy@0@AEAU10@@Z 0000000140099920 f i DmkjMgr.obj
 0001:00098930       ??$?0AEAV?$_Tree_iterator@V?$_Tree_val@V?$_Tmap_traits@GIU?$less@G@std@@V?$allocator@U?$pair@$$CBGI@std@@@2@$0A@@std@@@std@@@std@@_N@?$pair@V?$_Tree_iterator@V?$_Tree_val@V?$_Tmap_traits@GIU?$less@G@std@@V?$allocator@U?$pair@$$CBGI@std@@@2@$0A@@std@@@std@@@std@@_N@std@@QEAA@AEAV?$_Tree_iterator@V?$_Tree_val@V?$_Tmap_traits@GIU?$less@G@std@@V?$allocator@U?$pair@$$CBGI@std@@@2@$0A@@std@@@std@@@1@$$QEA_N@Z 0000000140099930 f i DmkjMgr.obj
 0001:000989b0       ??$_Destroy@U_Container_proxy@std@@@std@@YAXPEAU_Container_proxy@0@@Z 00000001400999b0 f i DmkjMgr.obj
 0001:000989c0       ??$move@AEA_N@std@@YA$$QEA_NAEA_N@Z 00000001400999c0 f i DmkjMgr.obj
 0001:000989d0       ??$move@AEAV?$_Tree_iterator@V?$_Tree_val@V?$_Tmap_traits@GIU?$less@G@std@@V?$allocator@U?$pair@$$CBGI@std@@@2@$0A@@std@@@std@@@std@@@std@@YA$$QEAV?$_Tree_iterator@V?$_Tree_val@V?$_Tmap_traits@GIU?$less@G@std@@V?$allocator@U?$pair@$$CBGI@std@@@2@$0A@@std@@@std@@@0@AEAV10@@Z 00000001400999d0 f i DmkjMgr.obj
 0001:000989e0       ?_Buynode@?$_Tree_val@V?$_Tmap_traits@GIU?$less@G@std@@V?$allocator@U?$pair@$$CBGI@std@@@2@$0A@@std@@@std@@QEAAPEAU_Node@?$_Tree_nod@V?$_Tmap_traits@GIU?$less@G@std@@V?$allocator@U?$pair@$$CBGI@std@@@2@$0A@@std@@@2@XZ 00000001400999e0 f i DmkjMgr.obj
 0001:00098ab0       ?allocate@?$allocator@U_Node@?$_Tree_nod@V?$_Tmap_traits@GIU?$less@G@std@@V?$allocator@U?$pair@$$CBGI@std@@@2@$0A@@std@@@std@@@std@@QEAAPEAU_Node@?$_Tree_nod@V?$_Tmap_traits@GIU?$less@G@std@@V?$allocator@U?$pair@$$CBGI@std@@@2@$0A@@std@@@2@_K@Z 0000000140099ab0 f i DmkjMgr.obj
 0001:00098b00       ??$?0GAEAI@?$_Pair_base@GI@std@@QEAA@$$QEAGAEAI@Z 0000000140099b00 f i DmkjMgr.obj
 0001:00098b80       ??$_Cons_val@V?$allocator@U?$pair@$$CBGI@std@@@std@@U?$pair@$$CBGI@2@U?$pair@GI@2@@std@@YAXAEAV?$allocator@U?$pair@$$CBGI@std@@@0@PEAU?$pair@$$CBGI@0@$$QEAU?$pair@GI@0@@Z 0000000140099b80 f i DmkjMgr.obj
 0001:00098be0       ??$forward@_N@std@@YA$$QEA_NAEA_N@Z 0000000140099be0 f i DmkjMgr.obj
 0001:00098bf0       ??$forward@AEAV?$_Tree_iterator@V?$_Tree_val@V?$_Tmap_traits@GIU?$less@G@std@@V?$allocator@U?$pair@$$CBGI@std@@@2@$0A@@std@@@std@@@std@@@std@@YAAEAV?$_Tree_iterator@V?$_Tree_val@V?$_Tmap_traits@GIU?$less@G@std@@V?$allocator@U?$pair@$$CBGI@std@@@2@$0A@@std@@@std@@@0@AEAV10@@Z 0000000140099bf0 f i DmkjMgr.obj
 0001:00098c00       ??$?0AEAV?$_Tree_iterator@V?$_Tree_val@V?$_Tmap_traits@GIU?$less@G@std@@V?$allocator@U?$pair@$$CBGI@std@@@2@$0A@@std@@@std@@@std@@_N@?$_Pair_base@V?$_Tree_iterator@V?$_Tree_val@V?$_Tmap_traits@GIU?$less@G@std@@V?$allocator@U?$pair@$$CBGI@std@@@2@$0A@@std@@@std@@@std@@_N@std@@QEAA@AEAV?$_Tree_iterator@V?$_Tree_val@V?$_Tmap_traits@GIU?$less@G@std@@V?$allocator@U?$pair@$$CBGI@std@@@2@$0A@@std@@@std@@@1@$$QEA_N@Z 0000000140099c00 f i DmkjMgr.obj
 0001:00098c80       ??$_Allocate@U_Node@?$_Tree_nod@V?$_Tmap_traits@GIU?$less@G@std@@V?$allocator@U?$pair@$$CBGI@std@@@2@$0A@@std@@@std@@@std@@YAPEAU_Node@?$_Tree_nod@V?$_Tmap_traits@GIU?$less@G@std@@V?$allocator@U?$pair@$$CBGI@std@@@2@$0A@@std@@@0@_KPEAU120@@Z 0000000140099c80 f i DmkjMgr.obj
 0001:00098d40       ??$construct@U?$pair@GI@std@@@?$allocator@U?$pair@$$CBGI@std@@@std@@QEAAXPEAU?$pair@$$CBGI@1@$$QEAU?$pair@GI@1@@Z 0000000140099d40 f i DmkjMgr.obj
 0001:00098dd0       ??$?0GI@?$pair@$$CBGI@std@@QEAA@$$QEAU?$pair@GI@1@@Z 0000000140099dd0 f i DmkjMgr.obj
 0001:00098e50       ??$forward@I@std@@YA$$QEAIAEAI@Z 0000000140099e50 f i DmkjMgr.obj
 0001:00098e60       ??$?0GI@?$_Pair_base@$$CBGI@std@@QEAA@$$QEAG$$QEAI@Z 0000000140099e60 f i DmkjMgr.obj
 0001:00098ee0       ?RunOne@CDropManager@@QEAAXXZ 0000000140099ee0 f   DropManager.obj
 0001:00098ef0       ?Destroy@CDropManager@@UEAAXXZ 0000000140099ef0 f   DropManager.obj
 0001:00098fe0       ?Empty@?$HandleMgr@VCDropBag@@V?$Handle@VCDropBag@@@@$0EAA@@@QEAAXXZ 0000000140099fe0 f i DropManager.obj
 0001:000992e0       ??_GCDropBag@@QEAAPEAXI@Z  000000014009a2e0 f i DropManager.obj
 0001:00099340       ??1CDropBag@@QEAA@XZ       000000014009a340 f i DropManager.obj
 0001:000993b0       ??1CDropItem@@QEAA@XZ      000000014009a3b0 f i DropManager.obj
 0001:000993f0       ??1?$Counter@VCDropItem@@@@QEAA@XZ 000000014009a3f0 f i DropManager.obj
 0001:00099410       ??1?$Counter@VCDropBag@@@@QEAA@XZ 000000014009a410 f i DropManager.obj
 0001:00099430       ?count@?$CBaseList@V?$CBaseList@VCDropBag@@@container@wylib@@@container@wylib@@QEBA_JXZ 000000014009a430 f i DropManager.obj
 0001:00099450       ??B?$CBaseList@V?$CBaseList@VCDropBag@@@container@wylib@@@container@wylib@@QEBAPEAV?$CBaseList@VCDropBag@@@12@XZ 000000014009a450 f i DropManager.obj
 0001:00099470       ??B?$CBaseList@V?$CBaseList@V?$Handle@VCDropBag@@@@@container@wylib@@@container@wylib@@QEBAPEAV?$CBaseList@V?$Handle@VCDropBag@@@@@12@XZ 000000014009a470 f i DropManager.obj
 0001:00099490       ?GetIndex@?$Handle@VCDropBag@@@@QEBAIXZ 000000014009a490 f i DropManager.obj
 0001:000994b0       ?GetHandle@?$Handle@VCDropBag@@@@QEBAIXZ 000000014009a4b0 f i DropManager.obj
 0001:000994d0       ?IsNull@?$Handle@VCDropBag@@@@QEBA_NXZ 000000014009a4d0 f i DropManager.obj
 0001:00099530       ??B?$CBaseList@VCDropBag@@@container@wylib@@QEBAPEAVCDropBag@@XZ 000000014009a530 f i DropManager.obj
 0001:00099550       ??B?$CBaseList@V?$Handle@VCDropBag@@@@@container@wylib@@QEBAPEAV?$Handle@VCDropBag@@@@XZ 000000014009a550 f i DropManager.obj
 0001:00099570       ??0CEncryptFunctionName@@QEAA@XZ 000000014009a570 f   EncryptFunctionName.obj
 0001:000995d0       ??1CEncryptFunctionName@@QEAA@XZ 000000014009a5d0 f   EncryptFunctionName.obj
 0001:00099620       ?ExtractMessageBox@CEncryptFunctionName@@QEAAPEADPEBDH@Z 000000014009a620 f   EncryptFunctionName.obj
 0001:00099840       ?EncryptExtractString@CEncryptFunctionName@@QEAAPEADPEBDH@Z 000000014009a840 f   EncryptFunctionName.obj
 0001:00099a70       ?EncryptFunctionName@CEncryptFunctionName@@QEAAXPEAD0H@Z 000000014009aa70 f   EncryptFunctionName.obj
 0001:00099bc0       ?DecryptFunctionName@CEncryptFunctionName@@QEAAXPEAD0H@Z 000000014009abc0 f   EncryptFunctionName.obj
 0001:00099da0       ?IsNeedEncrypt@CEncryptFunctionName@@QEAA_NPEAD@Z 000000014009ada0 f   EncryptFunctionName.obj
 0001:00099f90       ?StringMatching@CEncryptFunctionName@@QEAA_NPEAD0@Z 000000014009af90 f   EncryptFunctionName.obj
 0001:0009a360       ?count@?$CBaseList@UtagFunctionName@@@container@wylib@@QEBA_JXZ 000000014009b360 f i EncryptFunctionName.obj
 0001:0009a380       ??B?$CBaseList@UtagFunctionName@@@container@wylib@@QEBAPEAUtagFunctionName@@XZ 000000014009b380 f i EncryptFunctionName.obj
 0001:0009a3a0       ??0?$CVector@UtagFunctionName@@@@QEAA@PEAVCBufferAllocator@@@Z 000000014009b3a0 f i EncryptFunctionName.obj
 0001:0009a450       ??1?$CVector@UtagFunctionName@@@@UEAA@XZ 000000014009b450 f i EncryptFunctionName.obj
 0001:0009a4b0       ?empty@?$CVector@UtagFunctionName@@@@UEAAXXZ 000000014009b4b0 f i EncryptFunctionName.obj
 0001:0009a550       ?reserve@?$CVector@UtagFunctionName@@@@UEAAX_J@Z 000000014009b550 f i EncryptFunctionName.obj
 0001:0009a6d0       ??_G?$CVector@UtagFunctionName@@@@UEAAPEAXI@Z 000000014009b6d0 f i EncryptFunctionName.obj
 0001:0009a6d0       ??_E?$CVector@UtagFunctionName@@@@UEAAPEAXI@Z 000000014009b6d0 f i EncryptFunctionName.obj
 0001:0009a730       ??0?$CBaseList@UtagFunctionName@@@container@wylib@@QEAA@XZ 000000014009b730 f i EncryptFunctionName.obj
 0001:0009a790       ??1?$CBaseList@UtagFunctionName@@@container@wylib@@UEAA@XZ 000000014009b790 f i EncryptFunctionName.obj
 0001:0009a7e0       ?empty@?$CBaseList@UtagFunctionName@@@container@wylib@@UEAAXXZ 000000014009b7e0 f i EncryptFunctionName.obj
 0001:0009a860       ?reserve@?$CBaseList@UtagFunctionName@@@container@wylib@@UEAAX_J@Z 000000014009b860 f i EncryptFunctionName.obj
 0001:0009a900       ??_G?$CBaseList@UtagFunctionName@@@container@wylib@@UEAAPEAXI@Z 000000014009b900 f i EncryptFunctionName.obj
 0001:0009a900       ??_E?$CBaseList@UtagFunctionName@@@container@wylib@@UEAAPEAXI@Z 000000014009b900 f i EncryptFunctionName.obj
 0001:0009a960       ?clear@?$CBaseList@UtagFunctionName@@@container@wylib@@QEAAXXZ 000000014009b960 f i EncryptFunctionName.obj
 0001:0009a980       ??0CEntityManager@@QEAA@XZ 000000014009b980 f   EntityManager.obj
 0001:0009abf0       ?GetEntity@CEntityManager@@QEAAPEAVCEntity@@AEBVEntityHandle@@@Z 000000014009bbf0 f   EntityManager.obj
 0001:0009adf0       ?RunOne@CEntityManager@@QEAAXXZ 000000014009bdf0 f   EntityManager.obj
 0001:0009b090       ?CreateEntity@CEntityManager@@QEAAPEAVCEntity@@HAEAVEntityHandle@@@Z 000000014009c090 f   EntityManager.obj
 0001:0009b430       ?DestroyEntity@CEntityManager@@QEAA_NVEntityHandle@@_N@Z 000000014009c430 f   EntityManager.obj
 0001:0009b8f0       ?OnActorClosed@CEntityManager@@QEAAXPEAVCActor@@@Z 000000014009c8f0 f   EntityManager.obj
 0001:0009ba40       ?OnDbReturnData@CEntityManager@@QEAAX_JPEAD_K@Z 000000014009ca40 f   EntityManager.obj
 0001:0009ca20       ?OnSsReturnData@CEntityManager@@QEAAX_JPEAD_K@Z 000000014009da20 f   EntityManager.obj
 0001:0009ce60       ?OnCommonServerRetData@CEntityManager@@QEAAX_JPEAD_K@Z 000000014009de60 f   EntityManager.obj
 0001:0009ce80       ?OnLogicServerRetData@CEntityManager@@QEAAX_JPEAD_K@Z 000000014009de80 f   EntityManager.obj
 0001:0009cea0       ?Initialize@CEntityManager@@UEAA_NXZ 000000014009dea0 f   EntityManager.obj
 0001:0009cf10       ?Destroy@CEntityManager@@UEAAXXZ 000000014009df10 f   EntityManager.obj
 0001:0009d0c0       ?BroadcastTipmsg@CEntityManager@@QEAAXPEADHHH@Z 000000014009e0c0 f   EntityManager.obj
 0001:0009d1d0       ?BroadcastCampTipmsg@CEntityManager@@QEAAXHPEADHH@Z 000000014009e1d0 f   EntityManager.obj
 0001:0009d290       ?BroadcastTipmsgWithID@CEntityManager@@QEAAXHH@Z 000000014009e290 f   EntityManager.obj
 0001:0009d310       ?BroadTipmsgWithParams@CEntityManager@@QEAAXHHZZ 000000014009e310 f   EntityManager.obj
 0001:0009d3b0       ?FormatTipmsg@CEntityManager@@QEAA_JHAEAPEADH@Z 000000014009e3b0 f   EntityManager.obj
 0001:0009d530       ?CloseAllActor@CEntityManager@@QEAAXXZ 000000014009e530 f   EntityManager.obj
 0001:0009d5d0       ?updateMonsterHandle@CEntityManager@@QEAAXPEAVCEntity@@@Z 000000014009e5d0 f   EntityManager.obj
 0001:0009d750       ?CreateScriptCallbackParam@CEntityManager@@QEAAPEAVScriptCallbackParam@@AEAV?$Handle@I@@@Z 000000014009e750 f   EntityManager.obj
 0001:0009d7b0       ?DestroyScriptCallbackParam@CEntityManager@@QEAAXAEAV?$Handle@I@@@Z 000000014009e7b0 f   EntityManager.obj
 0001:0009d800       ?GetScriptCallbackParam@CEntityManager@@QEAAPEAVScriptCallbackParam@@AEBV?$Handle@I@@@Z 000000014009e800 f   EntityManager.obj
 0001:0009d850       ?SetKungFuMasterEntityPtr@CEntityManager@@QEAA_NI_N@Z 000000014009e850 f   EntityManager.obj
 0001:0009d8f0       ?OnRecvCommServerLogicMessage@CEntityManager@@QEAAXPEAD_K@Z 000000014009e8f0 f   EntityManager.obj
 0001:0009df60       ?OnRecvOtherLogicMessage@CEntityManager@@QEAAXPEAD_K@Z 000000014009ef60 f   EntityManager.obj
 0001:0009e150       ?DestroyLandscape@CEntityManager@@QEAAXHH@Z 000000014009f150 f   EntityManager.obj
 0001:0009e280       ?CalcMonsterDead@CEntityManager@@QEAAXH@Z 000000014009f280 f   EntityManager.obj
 0001:0009e3b0       ?SendMonsterDeadToLog@CEntityManager@@QEAAXXZ 000000014009f3b0 f   EntityManager.obj
 0001:0009e610       ?DumpEntityAllocData@CEntityManager@@QEAAXAEAVCBaseStream@stream@wylib@@@Z 000000014009f610 f   EntityManager.obj
 0001:0009f970       ??_ECEntityManager@@UEAAPEAXI@Z 00000001400a0970 f i EntityManager.obj
 0001:0009f970       ??_GCEntityManager@@UEAAPEAXI@Z 00000001400a0970 f i EntityManager.obj
 0001:0009f9d0       ??1CEntityManager@@UEAA@XZ 00000001400a09d0 f i EntityManager.obj
 0001:0009fb90       ??1?$CWorldEntityList@VCActor@@$0EA@@@QEAA@XZ 00000001400a0b90 f i EntityManager.obj
 0001:0009fc00       ??1?$CMonsterEntityList@VCMonster@@$0EAA@@@QEAA@XZ 00000001400a0c00 f i EntityManager.obj
 0001:0009fc40       ??1?$CMonsterEntityList@VCNpc@@$0EA@@@QEAA@XZ 00000001400a0c40 f i EntityManager.obj
 0001:0009fc80       ??1?$CWorldEntityList@VCDropItemEntity@@$0IA@@@QEAA@XZ 00000001400a0c80 f i EntityManager.obj
 0001:0009fcf0       ??1?$CWorldEntityList@VCTransfer@@$0EA@@@QEAA@XZ 00000001400a0cf0 f i EntityManager.obj
 0001:0009fd60       ??1?$CMonsterEntityList@VCPet@@$0IA@@@QEAA@XZ 00000001400a0d60 f i EntityManager.obj
 0001:0009fda0       ??1?$CWorldEntityList@VCFire@@$0CAA@@@QEAA@XZ 00000001400a0da0 f i EntityManager.obj
 0001:0009fe10       ??1?$CWorldEntityList@VCLandscape@@$0EA@@@QEAA@XZ 00000001400a0e10 f i EntityManager.obj
 0001:0009fe80       ??1?$CWorldEntityList@VCHero@@$0EA@@@QEAA@XZ 00000001400a0e80 f i EntityManager.obj
 0001:0009fef0       ??1?$map@HVEntityHandle@@U?$less@H@std@@V?$allocator@U?$pair@$$CBHVEntityHandle@@@std@@@3@@std@@QEAA@XZ 00000001400a0ef0 f i EntityManager.obj
 0001:0009ff30       ??1?$map@PEBDVEntityHandle@@VStringComp@@V?$allocator@U?$pair@QEBDVEntityHandle@@@std@@@std@@@std@@QEAA@XZ 00000001400a0f30 f i EntityManager.obj
 0001:0009ff70       ??1?$map@HHU?$less@H@std@@V?$allocator@U?$pair@$$CBHH@std@@@2@@std@@QEAA@XZ 00000001400a0f70 f i EntityManager.obj
 0001:0009ffb0       ??1?$CWorldEntityList@VCMonster@@$0EAA@@@QEAA@XZ 00000001400a0fb0 f i EntityManager.obj
 0001:000a0020       ??1?$CWorldEntityList@VCNpc@@$0EA@@@QEAA@XZ 00000001400a1020 f i EntityManager.obj
 0001:000a0090       ??1?$CWorldEntityList@VCPet@@$0IA@@@QEAA@XZ 00000001400a1090 f i EntityManager.obj
 0001:000a0100       ??1?$_Tree_iterator@V?$_Tree_val@V?$_Tmap_traits@HHU?$less@H@std@@V?$allocator@U?$pair@$$CBHH@std@@@2@$0A@@std@@@std@@@std@@QEAA@XZ 00000001400a1100 f i EntityManager.obj
 0001:000a0140       ??1?$pair@V?$_Tree_iterator@V?$_Tree_val@V?$_Tmap_traits@HHU?$less@H@std@@V?$allocator@U?$pair@$$CBHH@std@@@2@$0A@@std@@@std@@@std@@_N@std@@QEAA@XZ 00000001400a1140 f i EntityManager.obj
 0001:000a0180       ??1?$_Tree_const_iterator@V?$_Tree_val@V?$_Tmap_traits@HHU?$less@H@std@@V?$allocator@U?$pair@$$CBHH@std@@@2@$0A@@std@@@std@@@std@@QEAA@XZ 00000001400a1180 f i EntityManager.obj
 0001:000a01c0       ??1?$_Pair_base@V?$_Tree_iterator@V?$_Tree_val@V?$_Tmap_traits@HHU?$less@H@std@@V?$allocator@U?$pair@$$CBHH@std@@@2@$0A@@std@@@std@@@std@@_N@std@@QEAA@XZ 00000001400a11c0 f i EntityManager.obj
 0001:000a0200       ??1?$_Tree_unchecked_const_iterator@V?$_Tree_val@V?$_Tmap_traits@HHU?$less@H@std@@V?$allocator@U?$pair@$$CBHH@std@@@2@$0A@@std@@@std@@U_Iterator_base12@2@@std@@QEAA@XZ 00000001400a1200 f i EntityManager.obj
 0001:000a0240       ??1?$_Iterator012@Ubidirectional_iterator_tag@std@@U?$pair@$$CBHH@2@_JPEBU32@AEBU32@U_Iterator_base12@2@@std@@QEAA@XZ 00000001400a1240 f i EntityManager.obj
 0001:000a0280       ??4?$_Tree_iterator@V?$_Tree_val@V?$_Tmap_traits@HHU?$less@H@std@@V?$allocator@U?$pair@$$CBHH@std@@@2@$0A@@std@@@std@@@std@@QEAAAEAV01@AEBV01@@Z 00000001400a1280 f i EntityManager.obj
 0001:000a02d0       ??4?$_Tree_const_iterator@V?$_Tree_val@V?$_Tmap_traits@HHU?$less@H@std@@V?$allocator@U?$pair@$$CBHH@std@@@2@$0A@@std@@@std@@@std@@QEAAAEAV01@AEBV01@@Z 00000001400a12d0 f i EntityManager.obj
 0001:000a0320       ??4?$_Tree_unchecked_const_iterator@V?$_Tree_val@V?$_Tmap_traits@HHU?$less@H@std@@V?$allocator@U?$pair@$$CBHH@std@@@2@$0A@@std@@@std@@U_Iterator_base12@2@@std@@QEAAAEAV01@AEBV01@@Z 00000001400a1320 f i EntityManager.obj
 0001:000a0390       ??4?$_Iterator012@Ubidirectional_iterator_tag@std@@U?$pair@$$CBHH@2@_JPEBU32@AEBU32@U_Iterator_base12@2@@std@@QEAAAEAU01@AEBU01@@Z 00000001400a1390 f i EntityManager.obj
 0001:000a03e0       ?CheckAndSet@?$CTimer@$0BDII@@@QEAA_N_J_N@Z 00000001400a13e0 f i EntityManager.obj
 0001:000a0460       ?CheckAndSet@?$CTimer@$0BPE@@@QEAA_N_J_N@Z 00000001400a1460 f i EntityManager.obj
 0001:000a04e0       ??0?$CWorldEntityList@VCActor@@$0EA@@@QEAA@PEBD_J@Z 00000001400a14e0 f i EntityManager.obj
 0001:000a05a0       ?Add@?$CWorldEntityList@VCActor@@$0EA@@@QEAAXPEAVCEntity@@@Z 00000001400a15a0 f i EntityManager.obj
 0001:000a0630       ?Destroy@?$CWorldEntityList@VCActor@@$0EA@@@QEAA_NPEAVCEntity@@@Z 00000001400a1630 f i EntityManager.obj
 0001:000a06e0       ?Empty@?$CWorldEntityList@VCActor@@$0EA@@@QEAAXXZ 00000001400a16e0 f i EntityManager.obj
 0001:000a0740       ?Run@?$CWorldEntityList@VCActor@@$0EA@@@QEAA_N_J@Z 00000001400a1740 f i EntityManager.obj
 0001:000a08c0       ??1?$HandleMgr@VCActor@@V?$Handle@I@@$0EA@@@QEAA@XZ 00000001400a18c0 f i EntityManager.obj
 0001:000a0950       ?GetUserDataSize@?$HandleMgr@VCActor@@V?$Handle@I@@$0EA@@@QEAAHXZ 00000001400a1950 f i EntityManager.obj
 0001:000a0970       ??0?$CMonsterEntityList@VCMonster@@$0EAA@@@QEAA@PEBD_J_K@Z 00000001400a1970 f i EntityManager.obj
 0001:000a0a10       ?Run@?$CMonsterEntityList@VCMonster@@$0EAA@@@QEAA_N_J@Z 00000001400a1a10 f i EntityManager.obj
 0001:000a0c20       ?Add@?$CWorldEntityList@VCMonster@@$0EAA@@@QEAAXPEAVCEntity@@@Z 00000001400a1c20 f i EntityManager.obj
 0001:000a0cb0       ?Destroy@?$CWorldEntityList@VCMonster@@$0EAA@@@QEAA_NPEAVCEntity@@@Z 00000001400a1cb0 f i EntityManager.obj
 0001:000a0d60       ?Empty@?$CWorldEntityList@VCMonster@@$0EAA@@@QEAAXXZ 00000001400a1d60 f i EntityManager.obj
 0001:000a0dc0       ??1?$HandleMgr@VCMonster@@V?$Handle@I@@$0EAA@@@QEAA@XZ 00000001400a1dc0 f i EntityManager.obj
 0001:000a0e50       ?GetUserDataSize@?$HandleMgr@VCMonster@@V?$Handle@I@@$0EAA@@@QEAAHXZ 00000001400a1e50 f i EntityManager.obj
 0001:000a0e70       ??1?$CLinkedListIterator@PEAVCMonster@@@container@wylib@@QEAA@XZ 00000001400a1e70 f i EntityManager.obj
 0001:000a0f60       ??0?$CMonsterEntityList@VCNpc@@$0EA@@@QEAA@PEBD_J_K@Z 00000001400a1f60 f i EntityManager.obj
 0001:000a1000       ?Run@?$CMonsterEntityList@VCNpc@@$0EA@@@QEAA_N_J@Z 00000001400a2000 f i EntityManager.obj
 0001:000a1210       ?Add@?$CWorldEntityList@VCNpc@@$0EA@@@QEAAXPEAVCEntity@@@Z 00000001400a2210 f i EntityManager.obj
 0001:000a12a0       ?Destroy@?$CWorldEntityList@VCNpc@@$0EA@@@QEAA_NPEAVCEntity@@@Z 00000001400a22a0 f i EntityManager.obj
 0001:000a1350       ?Empty@?$CWorldEntityList@VCNpc@@$0EA@@@QEAAXXZ 00000001400a2350 f i EntityManager.obj
 0001:000a13b0       ??1?$HandleMgr@VCNpc@@V?$Handle@I@@$0EA@@@QEAA@XZ 00000001400a23b0 f i EntityManager.obj
 0001:000a1440       ?GetUserDataSize@?$HandleMgr@VCNpc@@V?$Handle@I@@$0EA@@@QEAAHXZ 00000001400a2440 f i EntityManager.obj
 0001:000a1460       ??1?$CLinkedListIterator@PEAVCNpc@@@container@wylib@@QEAA@XZ 00000001400a2460 f i EntityManager.obj
 0001:000a1550       ??0?$CWorldEntityList@VCDropItemEntity@@$0IA@@@QEAA@PEBD_J@Z 00000001400a2550 f i EntityManager.obj
 0001:000a1610       ?Add@?$CWorldEntityList@VCDropItemEntity@@$0IA@@@QEAAXPEAVCEntity@@@Z 00000001400a2610 f i EntityManager.obj
 0001:000a16a0       ?Destroy@?$CWorldEntityList@VCDropItemEntity@@$0IA@@@QEAA_NPEAVCEntity@@@Z 00000001400a26a0 f i EntityManager.obj
 0001:000a1750       ?Empty@?$CWorldEntityList@VCDropItemEntity@@$0IA@@@QEAAXXZ 00000001400a2750 f i EntityManager.obj
 0001:000a17b0       ?Run@?$CWorldEntityList@VCDropItemEntity@@$0IA@@@QEAA_N_J@Z 00000001400a27b0 f i EntityManager.obj
 0001:000a1930       ??1?$HandleMgr@VCDropItemEntity@@V?$Handle@I@@$0IA@@@QEAA@XZ 00000001400a2930 f i EntityManager.obj
 0001:000a19c0       ?GetUserDataSize@?$HandleMgr@VCDropItemEntity@@V?$Handle@I@@$0IA@@@QEAAHXZ 00000001400a29c0 f i EntityManager.obj
 0001:000a19e0       ??1?$CLinkedListIterator@PEAVCDropItemEntity@@@container@wylib@@QEAA@XZ 00000001400a29e0 f i EntityManager.obj
 0001:000a1ad0       ??0?$CWorldEntityList@VCTransfer@@$0EA@@@QEAA@PEBD_J@Z 00000001400a2ad0 f i EntityManager.obj
 0001:000a1b90       ?Add@?$CWorldEntityList@VCTransfer@@$0EA@@@QEAAXPEAVCEntity@@@Z 00000001400a2b90 f i EntityManager.obj
 0001:000a1c20       ?Destroy@?$CWorldEntityList@VCTransfer@@$0EA@@@QEAA_NPEAVCEntity@@@Z 00000001400a2c20 f i EntityManager.obj
 0001:000a1cd0       ?Empty@?$CWorldEntityList@VCTransfer@@$0EA@@@QEAAXXZ 00000001400a2cd0 f i EntityManager.obj
 0001:000a1d30       ??1?$HandleMgr@VCTransfer@@V?$Handle@I@@$0EA@@@QEAA@XZ 00000001400a2d30 f i EntityManager.obj
 0001:000a1dc0       ??1?$CLinkedListIterator@PEAVCTransfer@@@container@wylib@@QEAA@XZ 00000001400a2dc0 f i EntityManager.obj
 0001:000a1eb0       ??1?$HandleMgr@VScriptCallbackParam@@V?$Handle@I@@$0EA@@@QEAA@XZ 00000001400a2eb0 f i EntityManager.obj
 0001:000a1f40       ??0?$CMonsterEntityList@VCPet@@$0IA@@@QEAA@PEBD_J_K@Z 00000001400a2f40 f i EntityManager.obj
 0001:000a1fe0       ?Run@?$CMonsterEntityList@VCPet@@$0IA@@@QEAA_N_J@Z 00000001400a2fe0 f i EntityManager.obj
 0001:000a21f0       ?Add@?$CWorldEntityList@VCPet@@$0IA@@@QEAAXPEAVCEntity@@@Z 00000001400a31f0 f i EntityManager.obj
 0001:000a2280       ?Destroy@?$CWorldEntityList@VCPet@@$0IA@@@QEAA_NPEAVCEntity@@@Z 00000001400a3280 f i EntityManager.obj
 0001:000a2330       ?Empty@?$CWorldEntityList@VCPet@@$0IA@@@QEAAXXZ 00000001400a3330 f i EntityManager.obj
 0001:000a2390       ??1?$HandleMgr@VCPet@@V?$Handle@I@@$0IA@@@QEAA@XZ 00000001400a3390 f i EntityManager.obj
 0001:000a2420       ?GetUserDataSize@?$HandleMgr@VCPet@@V?$Handle@I@@$0IA@@@QEAAHXZ 00000001400a3420 f i EntityManager.obj
 0001:000a2440       ??1?$CLinkedListIterator@PEAVCPet@@@container@wylib@@QEAA@XZ 00000001400a3440 f i EntityManager.obj
 0001:000a2530       ??0?$CWorldEntityList@VCFire@@$0CAA@@@QEAA@PEBD_J@Z 00000001400a3530 f i EntityManager.obj
 0001:000a25f0       ?Add@?$CWorldEntityList@VCFire@@$0CAA@@@QEAAXPEAVCEntity@@@Z 00000001400a35f0 f i EntityManager.obj
 0001:000a2680       ?Destroy@?$CWorldEntityList@VCFire@@$0CAA@@@QEAA_NPEAVCEntity@@@Z 00000001400a3680 f i EntityManager.obj
 0001:000a2730       ?Empty@?$CWorldEntityList@VCFire@@$0CAA@@@QEAAXXZ 00000001400a3730 f i EntityManager.obj
 0001:000a2790       ?Run@?$CWorldEntityList@VCFire@@$0CAA@@@QEAA_N_J@Z 00000001400a3790 f i EntityManager.obj
 0001:000a2910       ??1?$HandleMgr@VCFire@@V?$Handle@I@@$0CAA@@@QEAA@XZ 00000001400a3910 f i EntityManager.obj
 0001:000a29a0       ?GetUserDataSize@?$HandleMgr@VCFire@@V?$Handle@I@@$0CAA@@@QEAAHXZ 00000001400a39a0 f i EntityManager.obj
 0001:000a29c0       ??1?$CLinkedListIterator@PEAVCFire@@@container@wylib@@QEAA@XZ 00000001400a39c0 f i EntityManager.obj
 0001:000a2ab0       ??0?$CWorldEntityList@VCLandscape@@$0EA@@@QEAA@PEBD_J@Z 00000001400a3ab0 f i EntityManager.obj
 0001:000a2b70       ?Add@?$CWorldEntityList@VCLandscape@@$0EA@@@QEAAXPEAVCEntity@@@Z 00000001400a3b70 f i EntityManager.obj
 0001:000a2c00       ?Destroy@?$CWorldEntityList@VCLandscape@@$0EA@@@QEAA_NPEAVCEntity@@@Z 00000001400a3c00 f i EntityManager.obj
 0001:000a2cb0       ?Empty@?$CWorldEntityList@VCLandscape@@$0EA@@@QEAAXXZ 00000001400a3cb0 f i EntityManager.obj
 0001:000a2d10       ?Run@?$CWorldEntityList@VCLandscape@@$0EA@@@QEAA_N_J@Z 00000001400a3d10 f i EntityManager.obj
 0001:000a2e90       ??1?$HandleMgr@VCLandscape@@V?$Handle@I@@$0EA@@@QEAA@XZ 00000001400a3e90 f i EntityManager.obj
 0001:000a2f20       ?GetUserDataSize@?$HandleMgr@VCLandscape@@V?$Handle@I@@$0EA@@@QEAAHXZ 00000001400a3f20 f i EntityManager.obj
 0001:000a2f40       ??0?$CLinkedListIterator@PEAVCLandscape@@@container@wylib@@QEAA@AEAV?$CBaseLinkedList@PEAVCLandscape@@@12@@Z 00000001400a3f40 f i EntityManager.obj
 0001:000a2fd0       ??1?$CLinkedListIterator@PEAVCLandscape@@@container@wylib@@QEAA@XZ 00000001400a3fd0 f i EntityManager.obj
 0001:000a30c0       ?first@?$CLinkedListIterator@PEAVCLandscape@@@container@wylib@@QEAAPEAV?$CLinkedNode@PEAVCLandscape@@@23@XZ 00000001400a40c0 f i EntityManager.obj
 0001:000a3120       ?next@?$CLinkedListIterator@PEAVCLandscape@@@container@wylib@@QEAAPEAV?$CLinkedNode@PEAVCLandscape@@@23@XZ 00000001400a4120 f i EntityManager.obj
 0001:000a31a0       ??0?$CWorldEntityList@VCHero@@$0EA@@@QEAA@PEBD_J@Z 00000001400a41a0 f i EntityManager.obj
 0001:000a3260       ?Add@?$CWorldEntityList@VCHero@@$0EA@@@QEAAXPEAVCEntity@@@Z 00000001400a4260 f i EntityManager.obj
 0001:000a32f0       ?Destroy@?$CWorldEntityList@VCHero@@$0EA@@@QEAA_NPEAVCEntity@@@Z 00000001400a42f0 f i EntityManager.obj
 0001:000a33a0       ?Empty@?$CWorldEntityList@VCHero@@$0EA@@@QEAAXXZ 00000001400a43a0 f i EntityManager.obj
 0001:000a3400       ?Run@?$CWorldEntityList@VCHero@@$0EA@@@QEAA_N_J@Z 00000001400a4400 f i EntityManager.obj
 0001:000a3580       ??1?$HandleMgr@VCHero@@V?$Handle@I@@$0EA@@@QEAA@XZ 00000001400a4580 f i EntityManager.obj
 0001:000a3610       ?GetUserDataSize@?$HandleMgr@VCHero@@V?$Handle@I@@$0EA@@@QEAAHXZ 00000001400a4610 f i EntityManager.obj
 0001:000a3630       ??1?$CLinkedListIterator@PEAVCHero@@@container@wylib@@QEAA@XZ 00000001400a4630 f i EntityManager.obj
 0001:000a3720       ??0?$map@HVEntityHandle@@U?$less@H@std@@V?$allocator@U?$pair@$$CBHVEntityHandle@@@std@@@3@@std@@QEAA@XZ 00000001400a4720 f i EntityManager.obj
 0001:000a3780       ??1?$_Tree@V?$_Tmap_traits@HVEntityHandle@@U?$less@H@std@@V?$allocator@U?$pair@$$CBHVEntityHandle@@@std@@@3@$0A@@std@@@std@@QEAA@XZ 00000001400a4780 f i EntityManager.obj
 0001:000a37d0       ?erase@?$_Tree@V?$_Tmap_traits@HVEntityHandle@@U?$less@H@std@@V?$allocator@U?$pair@$$CBHVEntityHandle@@@std@@@3@$0A@@std@@@std@@QEAA?AV?$_Tree_iterator@V?$_Tree_val@V?$_Tmap_traits@HVEntityHandle@@U?$less@H@std@@V?$allocator@U?$pair@$$CBHVEntityHandle@@@std@@@3@$0A@@std@@@std@@@2@V?$_Tree_const_iterator@V?$_Tree_val@V?$_Tmap_traits@HVEntityHandle@@U?$less@H@std@@V?$allocator@U?$pair@$$CBHVEntityHandle@@@std@@@3@$0A@@std@@@std@@@2@@Z 00000001400a47d0 f i EntityManager.obj
 0001:000a42a0       ??0?$map@PEBDVEntityHandle@@VStringComp@@V?$allocator@U?$pair@QEBDVEntityHandle@@@std@@@std@@@std@@QEAA@XZ 00000001400a52a0 f i EntityManager.obj
 0001:000a4310       ??1?$_Tree@V?$_Tmap_traits@PEBDVEntityHandle@@VStringComp@@V?$allocator@U?$pair@QEBDVEntityHandle@@@std@@@std@@$0A@@std@@@std@@QEAA@XZ 00000001400a5310 f i EntityManager.obj
 0001:000a4360       ??0?$map@HHU?$less@H@std@@V?$allocator@U?$pair@$$CBHH@std@@@2@@std@@QEAA@XZ 00000001400a5360 f i EntityManager.obj
 0001:000a43c0       ??1?$_Tree@V?$_Tmap_traits@HHU?$less@H@std@@V?$allocator@U?$pair@$$CBHH@std@@@2@$0A@@std@@@std@@QEAA@XZ 00000001400a53c0 f i EntityManager.obj
 0001:000a4410       ?begin@?$_Tree@V?$_Tmap_traits@HHU?$less@H@std@@V?$allocator@U?$pair@$$CBHH@std@@@2@$0A@@std@@@std@@QEAA?AV?$_Tree_iterator@V?$_Tree_val@V?$_Tmap_traits@HHU?$less@H@std@@V?$allocator@U?$pair@$$CBHH@std@@@2@$0A@@std@@@std@@@2@XZ 00000001400a5410 f i EntityManager.obj
 0001:000a4470       ?end@?$_Tree@V?$_Tmap_traits@HHU?$less@H@std@@V?$allocator@U?$pair@$$CBHH@std@@@2@$0A@@std@@@std@@QEAA?AV?$_Tree_iterator@V?$_Tree_val@V?$_Tmap_traits@HHU?$less@H@std@@V?$allocator@U?$pair@$$CBHH@std@@@2@$0A@@std@@@std@@@2@XZ 00000001400a5470 f i EntityManager.obj
 0001:000a44d0       ?clear@?$_Tree@V?$_Tmap_traits@HHU?$less@H@std@@V?$allocator@U?$pair@$$CBHH@std@@@2@$0A@@std@@@std@@QEAAXXZ 00000001400a54d0 f i EntityManager.obj
 0001:000a45a0       ?find@?$_Tree@V?$_Tmap_traits@HHU?$less@H@std@@V?$allocator@U?$pair@$$CBHH@std@@@2@$0A@@std@@@std@@QEAA?AV?$_Tree_iterator@V?$_Tree_val@V?$_Tmap_traits@HHU?$less@H@std@@V?$allocator@U?$pair@$$CBHH@std@@@2@$0A@@std@@@std@@@2@AEBH@Z 00000001400a55a0 f i EntityManager.obj
 0001:000a47d0       ??9?$_Tree_const_iterator@V?$_Tree_val@V?$_Tmap_traits@HVEntityHandle@@U?$less@H@std@@V?$allocator@U?$pair@$$CBHVEntityHandle@@@std@@@3@$0A@@std@@@std@@@std@@QEBA_NAEBV01@@Z 00000001400a57d0 f i EntityManager.obj
 0001:000a4840       ??B?$CLinkedNode@PEAVCLandscape@@@container@wylib@@QEAAAEAPEAVCLandscape@@XZ 00000001400a5840 f i EntityManager.obj
 0001:000a4850       ??0?$_Tree_iterator@V?$_Tree_val@V?$_Tmap_traits@HHU?$less@H@std@@V?$allocator@U?$pair@$$CBHH@std@@@2@$0A@@std@@@std@@@std@@QEAA@XZ 00000001400a5850 f i EntityManager.obj
 0001:000a4890       ??C?$_Tree_iterator@V?$_Tree_val@V?$_Tmap_traits@HHU?$less@H@std@@V?$allocator@U?$pair@$$CBHH@std@@@2@$0A@@std@@@std@@@std@@QEBAPEAU?$pair@$$CBHH@1@XZ 00000001400a5890 f i EntityManager.obj
 0001:000a48d0       ??E?$_Tree_iterator@V?$_Tree_val@V?$_Tmap_traits@HHU?$less@H@std@@V?$allocator@U?$pair@$$CBHH@std@@@2@$0A@@std@@@std@@@std@@QEAAAEAV01@XZ 00000001400a58d0 f i EntityManager.obj
 0001:000a4910       ??9?$_Tree_const_iterator@V?$_Tree_val@V?$_Tmap_traits@HHU?$less@H@std@@V?$allocator@U?$pair@$$CBHH@std@@@2@$0A@@std@@@std@@@std@@QEBA_NAEBV01@@Z 00000001400a5910 f i EntityManager.obj
 0001:000a4980       ??0?$_Tree_iterator@V?$_Tree_val@V?$_Tmap_traits@HHU?$less@H@std@@V?$allocator@U?$pair@$$CBHH@std@@@2@$0A@@std@@@std@@@std@@QEAA@AEBV01@@Z 00000001400a5980 f i EntityManager.obj
 0001:000a49d0       ??0?$_Tree_const_iterator@V?$_Tree_val@V?$_Tmap_traits@HHU?$less@H@std@@V?$allocator@U?$pair@$$CBHH@std@@@2@$0A@@std@@@std@@@std@@QEAA@AEBV01@@Z 00000001400a59d0 f i EntityManager.obj
 0001:000a4a20       ??0?$_Tree_unchecked_const_iterator@V?$_Tree_val@V?$_Tmap_traits@HHU?$less@H@std@@V?$allocator@U?$pair@$$CBHH@std@@@2@$0A@@std@@@std@@U_Iterator_base12@2@@std@@QEAA@AEBV01@@Z 00000001400a5a20 f i EntityManager.obj
 0001:000a4a90       ??0?$_Iterator012@Ubidirectional_iterator_tag@std@@U?$pair@$$CBHH@2@_JPEBU32@AEBU32@U_Iterator_base12@2@@std@@QEAA@AEBU01@@Z 00000001400a5a90 f i EntityManager.obj
 0001:000a4ae0       ?linkAfter@?$CBaseLinkedList@PEAVCActor@@@container@wylib@@QEAAPEAV?$CLinkedNode@PEAVCActor@@@23@AEBQEAVCActor@@PEAV423@@Z 00000001400a5ae0 f i EntityManager.obj
 0001:000a4c90       ??0?$CLinkedListIterator@PEAVCActor@@@container@wylib@@QEAA@XZ 00000001400a5c90 f i EntityManager.obj
 0001:000a4ce0       ?remove@?$CLinkedListIterator@PEAVCActor@@@container@wylib@@QEAAXPEAV?$CLinkedNode@PEAVCActor@@@23@H@Z 00000001400a5ce0 f i EntityManager.obj
 0001:000a4d60       ??0?$CWorldEntityList@VCMonster@@$0EAA@@@QEAA@PEBD_J@Z 00000001400a5d60 f i EntityManager.obj
 0001:000a4e20       ?count@?$CBaseLinkedList@PEAVCMonster@@@container@wylib@@QEBA_JXZ 00000001400a5e20 f i EntityManager.obj
 0001:000a4e40       ?linkAfter@?$CBaseLinkedList@PEAVCMonster@@@container@wylib@@QEAAPEAV?$CLinkedNode@PEAVCMonster@@@23@AEBQEAVCMonster@@PEAV423@@Z 00000001400a5e40 f i EntityManager.obj
 0001:000a4ff0       ?remove@?$CLinkedListIterator@PEAVCMonster@@@container@wylib@@QEAAXPEAV?$CLinkedNode@PEAVCMonster@@@23@H@Z 00000001400a5ff0 f i EntityManager.obj
 0001:000a5070       ?next@?$CLinkedListIterator@PEAVCMonster@@@container@wylib@@QEAAPEAV?$CLinkedNode@PEAVCMonster@@@23@XZ 00000001400a6070 f i EntityManager.obj
 0001:000a50f0       ??0?$CWorldEntityList@VCNpc@@$0EA@@@QEAA@PEBD_J@Z 00000001400a60f0 f i EntityManager.obj
 0001:000a51b0       ?count@?$CBaseLinkedList@PEAVCNpc@@@container@wylib@@QEBA_JXZ 00000001400a61b0 f i EntityManager.obj
 0001:000a51d0       ?linkAfter@?$CBaseLinkedList@PEAVCNpc@@@container@wylib@@QEAAPEAV?$CLinkedNode@PEAVCNpc@@@23@AEBQEAVCNpc@@PEAV423@@Z 00000001400a61d0 f i EntityManager.obj
 0001:000a5380       ?remove@?$CLinkedListIterator@PEAVCNpc@@@container@wylib@@QEAAXPEAV?$CLinkedNode@PEAVCNpc@@@23@H@Z 00000001400a6380 f i EntityManager.obj
 0001:000a5400       ?next@?$CLinkedListIterator@PEAVCNpc@@@container@wylib@@QEAAPEAV?$CLinkedNode@PEAVCNpc@@@23@XZ 00000001400a6400 f i EntityManager.obj
 0001:000a5480       ?linkAfter@?$CBaseLinkedList@PEAVCDropItemEntity@@@container@wylib@@QEAAPEAV?$CLinkedNode@PEAVCDropItemEntity@@@23@AEBQEAVCDropItemEntity@@PEAV423@@Z 00000001400a6480 f i EntityManager.obj
 0001:000a5630       ??0?$CLinkedListIterator@PEAVCDropItemEntity@@@container@wylib@@QEAA@XZ 00000001400a6630 f i EntityManager.obj
 0001:000a5680       ?setList@?$CLinkedListIterator@PEAVCDropItemEntity@@@container@wylib@@QEAAXAEAV?$CBaseLinkedList@PEAVCDropItemEntity@@@23@@Z 00000001400a6680 f i EntityManager.obj
 0001:000a5740       ?remove@?$CLinkedListIterator@PEAVCDropItemEntity@@@container@wylib@@QEAAXPEAV?$CLinkedNode@PEAVCDropItemEntity@@@23@H@Z 00000001400a6740 f i EntityManager.obj
 0001:000a57c0       ?next@?$CLinkedListIterator@PEAVCDropItemEntity@@@container@wylib@@QEAAPEAV?$CLinkedNode@PEAVCDropItemEntity@@@23@XZ 00000001400a67c0 f i EntityManager.obj
 0001:000a5840       ?linkAfter@?$CBaseLinkedList@PEAVCTransfer@@@container@wylib@@QEAAPEAV?$CLinkedNode@PEAVCTransfer@@@23@AEBQEAVCTransfer@@PEAV423@@Z 00000001400a6840 f i EntityManager.obj
 0001:000a59f0       ??0?$CLinkedListIterator@PEAVCTransfer@@@container@wylib@@QEAA@XZ 00000001400a69f0 f i EntityManager.obj
 0001:000a5a40       ?setList@?$CLinkedListIterator@PEAVCTransfer@@@container@wylib@@QEAAXAEAV?$CBaseLinkedList@PEAVCTransfer@@@23@@Z 00000001400a6a40 f i EntityManager.obj
 0001:000a5b00       ?remove@?$CLinkedListIterator@PEAVCTransfer@@@container@wylib@@QEAAXPEAV?$CLinkedNode@PEAVCTransfer@@@23@H@Z 00000001400a6b00 f i EntityManager.obj
 0001:000a5b80       ??0?$CWorldEntityList@VCPet@@$0IA@@@QEAA@PEBD_J@Z 00000001400a6b80 f i EntityManager.obj
 0001:000a5c40       ?count@?$CBaseLinkedList@PEAVCPet@@@container@wylib@@QEBA_JXZ 00000001400a6c40 f i EntityManager.obj
 0001:000a5c60       ?linkAfter@?$CBaseLinkedList@PEAVCPet@@@container@wylib@@QEAAPEAV?$CLinkedNode@PEAVCPet@@@23@AEBQEAVCPet@@PEAV423@@Z 00000001400a6c60 f i EntityManager.obj
 0001:000a5e10       ?remove@?$CLinkedListIterator@PEAVCPet@@@container@wylib@@QEAAXPEAV?$CLinkedNode@PEAVCPet@@@23@H@Z 00000001400a6e10 f i EntityManager.obj
 0001:000a5e90       ?next@?$CLinkedListIterator@PEAVCPet@@@container@wylib@@QEAAPEAV?$CLinkedNode@PEAVCPet@@@23@XZ 00000001400a6e90 f i EntityManager.obj
 0001:000a5f10       ?linkAfter@?$CBaseLinkedList@PEAVCFire@@@container@wylib@@QEAAPEAV?$CLinkedNode@PEAVCFire@@@23@AEBQEAVCFire@@PEAV423@@Z 00000001400a6f10 f i EntityManager.obj
 0001:000a60c0       ??0?$CLinkedListIterator@PEAVCFire@@@container@wylib@@QEAA@XZ 00000001400a70c0 f i EntityManager.obj
 0001:000a6110       ?setList@?$CLinkedListIterator@PEAVCFire@@@container@wylib@@QEAAXAEAV?$CBaseLinkedList@PEAVCFire@@@23@@Z 00000001400a7110 f i EntityManager.obj
 0001:000a61d0       ?remove@?$CLinkedListIterator@PEAVCFire@@@container@wylib@@QEAAXPEAV?$CLinkedNode@PEAVCFire@@@23@H@Z 00000001400a71d0 f i EntityManager.obj
 0001:000a6250       ?next@?$CLinkedListIterator@PEAVCFire@@@container@wylib@@QEAAPEAV?$CLinkedNode@PEAVCFire@@@23@XZ 00000001400a7250 f i EntityManager.obj
 0001:000a62d0       ?first@?$CBaseLinkedList@PEAVCLandscape@@@container@wylib@@QEAAPEAV?$CLinkedNode@PEAVCLandscape@@@23@XZ 00000001400a72d0 f i EntityManager.obj
 0001:000a62f0       ?linkAfter@?$CBaseLinkedList@PEAVCLandscape@@@container@wylib@@QEAAPEAV?$CLinkedNode@PEAVCLandscape@@@23@AEBQEAVCLandscape@@PEAV423@@Z 00000001400a72f0 f i EntityManager.obj
 0001:000a64a0       ??0?$CLinkedListIterator@PEAVCLandscape@@@container@wylib@@QEAA@XZ 00000001400a74a0 f i EntityManager.obj
 0001:000a64f0       ?setList@?$CLinkedListIterator@PEAVCLandscape@@@container@wylib@@QEAAXAEAV?$CBaseLinkedList@PEAVCLandscape@@@23@@Z 00000001400a74f0 f i EntityManager.obj
 0001:000a65b0       ?remove@?$CLinkedListIterator@PEAVCLandscape@@@container@wylib@@QEAAXPEAV?$CLinkedNode@PEAVCLandscape@@@23@H@Z 00000001400a75b0 f i EntityManager.obj
 0001:000a6630       ?linkAfter@?$CBaseLinkedList@PEAVCHero@@@container@wylib@@QEAAPEAV?$CLinkedNode@PEAVCHero@@@23@AEBQEAVCHero@@PEAV423@@Z 00000001400a7630 f i EntityManager.obj
 0001:000a67e0       ??0?$CLinkedListIterator@PEAVCHero@@@container@wylib@@QEAA@XZ 00000001400a77e0 f i EntityManager.obj
 0001:000a6830       ?setList@?$CLinkedListIterator@PEAVCHero@@@container@wylib@@QEAAXAEAV?$CBaseLinkedList@PEAVCHero@@@23@@Z 00000001400a7830 f i EntityManager.obj
 0001:000a68f0       ?remove@?$CLinkedListIterator@PEAVCHero@@@container@wylib@@QEAAXPEAV?$CLinkedNode@PEAVCHero@@@23@H@Z 00000001400a78f0 f i EntityManager.obj
 0001:000a6970       ?next@?$CLinkedListIterator@PEAVCHero@@@container@wylib@@QEAAPEAV?$CLinkedNode@PEAVCHero@@@23@XZ 00000001400a7970 f i EntityManager.obj
 0001:000a69f0       ??0?$_Tree@V?$_Tmap_traits@HVEntityHandle@@U?$less@H@std@@V?$allocator@U?$pair@$$CBHVEntityHandle@@@std@@@3@$0A@@std@@@std@@QEAA@AEBU?$less@H@1@AEBV?$allocator@U?$pair@$$CBHVEntityHandle@@@std@@@1@@Z 00000001400a79f0 f i EntityManager.obj
 0001:000a6a70       ?_Orphan_ptr@?$_Tree@V?$_Tmap_traits@HVEntityHandle@@U?$less@H@std@@V?$allocator@U?$pair@$$CBHVEntityHandle@@@std@@@3@$0A@@std@@@std@@IEBAXAEAV12@PEAU_Node@?$_Tree_nod@V?$_Tmap_traits@HVEntityHandle@@U?$less@H@std@@V?$allocator@U?$pair@$$CBHVEntityHandle@@@std@@@3@$0A@@std@@@2@@Z 00000001400a7a70 f i EntityManager.obj
 0001:000a6ba0       ?_Tidy@?$_Tree@V?$_Tmap_traits@HVEntityHandle@@U?$less@H@std@@V?$allocator@U?$pair@$$CBHVEntityHandle@@@std@@@3@$0A@@std@@@std@@IEAAXXZ 00000001400a7ba0 f i EntityManager.obj
 0001:000a6ca0       ??1?$_Tree_val@V?$_Tmap_traits@HVEntityHandle@@U?$less@H@std@@V?$allocator@U?$pair@$$CBHVEntityHandle@@@std@@@3@$0A@@std@@@std@@QEAA@XZ 00000001400a7ca0 f i EntityManager.obj
 0001:000a6d10       ?_Min@?$_Tree_val@V?$_Tmap_traits@HVEntityHandle@@U?$less@H@std@@V?$allocator@U?$pair@$$CBHVEntityHandle@@@std@@@3@$0A@@std@@@std@@SAPEAU_Node@?$_Tree_nod@V?$_Tmap_traits@HVEntityHandle@@U?$less@H@std@@V?$allocator@U?$pair@$$CBHVEntityHandle@@@std@@@3@$0A@@std@@@2@PEAU342@@Z 00000001400a7d10 f i EntityManager.obj
 0001:000a6d80       ??0?$allocator@U?$pair@$$CBHVEntityHandle@@@std@@@std@@QEAA@XZ 00000001400a7d80 f i EntityManager.obj
 0001:000a6d90       ??0?$_Tree@V?$_Tmap_traits@PEBDVEntityHandle@@VStringComp@@V?$allocator@U?$pair@QEBDVEntityHandle@@@std@@@std@@$0A@@std@@@std@@QEAA@AEBVStringComp@@AEBV?$allocator@U?$pair@QEBDVEntityHandle@@@std@@@1@@Z 00000001400a7d90 f i EntityManager.obj
 0001:000a6e10       ?_Tidy@?$_Tree@V?$_Tmap_traits@PEBDVEntityHandle@@VStringComp@@V?$allocator@U?$pair@QEBDVEntityHandle@@@std@@@std@@$0A@@std@@@std@@IEAAXXZ 00000001400a7e10 f i EntityManager.obj
 0001:000a6f10       ??1?$_Tree_val@V?$_Tmap_traits@PEBDVEntityHandle@@VStringComp@@V?$allocator@U?$pair@QEBDVEntityHandle@@@std@@@std@@$0A@@std@@@std@@QEAA@XZ 00000001400a7f10 f i EntityManager.obj
 0001:000a6f80       ??0?$allocator@U?$pair@QEBDVEntityHandle@@@std@@@std@@QEAA@XZ 00000001400a7f80 f i EntityManager.obj
 0001:000a6f90       ??0?$_Tree@V?$_Tmap_traits@HHU?$less@H@std@@V?$allocator@U?$pair@$$CBHH@std@@@2@$0A@@std@@@std@@QEAA@AEBU?$less@H@1@AEBV?$allocator@U?$pair@$$CBHH@std@@@1@@Z 00000001400a7f90 f i EntityManager.obj
 0001:000a7010       ?lower_bound@?$_Tree@V?$_Tmap_traits@HHU?$less@H@std@@V?$allocator@U?$pair@$$CBHH@std@@@2@$0A@@std@@@std@@QEAA?AV?$_Tree_iterator@V?$_Tree_val@V?$_Tmap_traits@HHU?$less@H@std@@V?$allocator@U?$pair@$$CBHH@std@@@2@$0A@@std@@@std@@@2@AEBH@Z 00000001400a8010 f i EntityManager.obj
 0001:000a7080       ?_Erase@?$_Tree@V?$_Tmap_traits@HHU?$less@H@std@@V?$allocator@U?$pair@$$CBHH@std@@@2@$0A@@std@@@std@@IEAAXPEAU_Node@?$_Tree_nod@V?$_Tmap_traits@HHU?$less@H@std@@V?$allocator@U?$pair@$$CBHH@std@@@2@$0A@@std@@@2@@Z 00000001400a8080 f i EntityManager.obj
 0001:000a7170       ?_Lmost@?$_Tree@V?$_Tmap_traits@HHU?$less@H@std@@V?$allocator@U?$pair@$$CBHH@std@@@2@$0A@@std@@@std@@IEBAAEAPEAU_Node@?$_Tree_nod@V?$_Tmap_traits@HHU?$less@H@std@@V?$allocator@U?$pair@$$CBHH@std@@@2@$0A@@std@@@2@XZ 00000001400a8170 f i EntityManager.obj
 0001:000a71b0       ?_Rmost@?$_Tree@V?$_Tmap_traits@HHU?$less@H@std@@V?$allocator@U?$pair@$$CBHH@std@@@2@$0A@@std@@@std@@IEBAAEAPEAU_Node@?$_Tree_nod@V?$_Tmap_traits@HHU?$less@H@std@@V?$allocator@U?$pair@$$CBHH@std@@@2@$0A@@std@@@2@XZ 00000001400a81b0 f i EntityManager.obj
 0001:000a71f0       ?_Root@?$_Tree@V?$_Tmap_traits@HHU?$less@H@std@@V?$allocator@U?$pair@$$CBHH@std@@@2@$0A@@std@@@std@@IEBAAEAPEAU_Node@?$_Tree_nod@V?$_Tmap_traits@HHU?$less@H@std@@V?$allocator@U?$pair@$$CBHH@std@@@2@$0A@@std@@@2@XZ 00000001400a81f0 f i EntityManager.obj
 0001:000a7230       ?_Orphan_ptr@?$_Tree@V?$_Tmap_traits@HHU?$less@H@std@@V?$allocator@U?$pair@$$CBHH@std@@@2@$0A@@std@@@std@@IEBAXAEAV12@PEAU_Node@?$_Tree_nod@V?$_Tmap_traits@HHU?$less@H@std@@V?$allocator@U?$pair@$$CBHH@std@@@2@$0A@@std@@@2@@Z 00000001400a8230 f i EntityManager.obj
 0001:000a7360       ?_Tidy@?$_Tree@V?$_Tmap_traits@HHU?$less@H@std@@V?$allocator@U?$pair@$$CBHH@std@@@2@$0A@@std@@@std@@IEAAXXZ 00000001400a8360 f i EntityManager.obj
 0001:000a7460       ??1?$_Tree_val@V?$_Tmap_traits@HHU?$less@H@std@@V?$allocator@U?$pair@$$CBHH@std@@@2@$0A@@std@@@std@@QEAA@XZ 00000001400a8460 f i EntityManager.obj
 0001:000a74d0       ?_Key@?$_Tree_val@V?$_Tmap_traits@HHU?$less@H@std@@V?$allocator@U?$pair@$$CBHH@std@@@2@$0A@@std@@@std@@SAAEAHPEAU_Node@?$_Tree_nod@V?$_Tmap_traits@HHU?$less@H@std@@V?$allocator@U?$pair@$$CBHH@std@@@2@$0A@@std@@@2@@Z 00000001400a84d0 f i EntityManager.obj
 0001:000a7520       ??0?$allocator@U?$pair@$$CBHH@std@@@std@@QEAA@XZ 00000001400a8520 f i EntityManager.obj
 0001:000a7530       ??E?$_Tree_const_iterator@V?$_Tree_val@V?$_Tmap_traits@HVEntityHandle@@U?$less@H@std@@V?$allocator@U?$pair@$$CBHVEntityHandle@@@std@@@3@$0A@@std@@@std@@@std@@QEAAAEAV01@XZ 00000001400a8530 f i EntityManager.obj
 0001:000a7660       ??B?$CLinkedNode@PEAVCMonster@@@container@wylib@@QEAAAEAPEAVCMonster@@XZ 00000001400a8660 f i EntityManager.obj
 0001:000a7670       ??B?$CLinkedNode@PEAVCNpc@@@container@wylib@@QEAAAEAPEAVCNpc@@XZ 00000001400a8670 f i EntityManager.obj
 0001:000a7680       ??B?$CLinkedNode@PEAVCDropItemEntity@@@container@wylib@@QEAAAEAPEAVCDropItemEntity@@XZ 00000001400a8680 f i EntityManager.obj
 0001:000a7690       ??B?$CLinkedNode@PEAVCPet@@@container@wylib@@QEAAAEAPEAVCPet@@XZ 00000001400a8690 f i EntityManager.obj
 0001:000a76a0       ??B?$CLinkedNode@PEAVCFire@@@container@wylib@@QEAAAEAPEAVCFire@@XZ 00000001400a86a0 f i EntityManager.obj
 0001:000a76b0       ??B?$CLinkedNode@PEAVCHero@@@container@wylib@@QEAAAEAPEAVCHero@@XZ 00000001400a86b0 f i EntityManager.obj
 0001:000a76c0       ??0?$_Tree_iterator@V?$_Tree_val@V?$_Tmap_traits@HHU?$less@H@std@@V?$allocator@U?$pair@$$CBHH@std@@@2@$0A@@std@@@std@@@std@@QEAA@PEAU_Node@?$_Tree_nod@V?$_Tmap_traits@HHU?$less@H@std@@V?$allocator@U?$pair@$$CBHH@std@@@2@$0A@@std@@@1@PEBV?$_Tree_val@V?$_Tmap_traits@HHU?$less@H@std@@V?$allocator@U?$pair@$$CBHH@std@@@2@$0A@@std@@@1@@Z 00000001400a86c0 f i EntityManager.obj
 0001:000a7720       ??D?$_Tree_iterator@V?$_Tree_val@V?$_Tmap_traits@HHU?$less@H@std@@V?$allocator@U?$pair@$$CBHH@std@@@2@$0A@@std@@@std@@@std@@QEBAAEAU?$pair@$$CBHH@1@XZ 00000001400a8720 f i EntityManager.obj
 0001:000a7760       ??0?$_Tree_const_iterator@V?$_Tree_val@V?$_Tmap_traits@HHU?$less@H@std@@V?$allocator@U?$pair@$$CBHH@std@@@2@$0A@@std@@@std@@@std@@QEAA@XZ 00000001400a8760 f i EntityManager.obj
 0001:000a77a0       ??E?$_Tree_const_iterator@V?$_Tree_val@V?$_Tmap_traits@HHU?$less@H@std@@V?$allocator@U?$pair@$$CBHH@std@@@2@$0A@@std@@@std@@@std@@QEAAAEAV01@XZ 00000001400a87a0 f i EntityManager.obj
 0001:000a78d0       ??8?$_Tree_const_iterator@V?$_Tree_val@V?$_Tmap_traits@HHU?$less@H@std@@V?$allocator@U?$pair@$$CBHH@std@@@2@$0A@@std@@@std@@@std@@QEBA_NAEBV01@@Z 00000001400a88d0 f i EntityManager.obj
 0001:000a7a30       ?_Mynode@?$_Tree_unchecked_const_iterator@V?$_Tree_val@V?$_Tmap_traits@HHU?$less@H@std@@V?$allocator@U?$pair@$$CBHH@std@@@2@$0A@@std@@@std@@U_Iterator_base12@2@@std@@QEBAPEAU_Node@?$_Tree_nod@V?$_Tmap_traits@HHU?$less@H@std@@V?$allocator@U?$pair@$$CBHH@std@@@2@$0A@@std@@@2@XZ 00000001400a8a30 f i EntityManager.obj
 0001:000a7a50       ??_G?$CLinkedListIterator@PEAVCDropItemEntity@@@container@wylib@@QEAAPEAXI@Z 00000001400a8a50 f i EntityManager.obj
 0001:000a7ab0       ??_G?$CLinkedListIterator@PEAVCTransfer@@@container@wylib@@QEAAPEAXI@Z 00000001400a8ab0 f i EntityManager.obj
 0001:000a7b10       ??_G?$CLinkedListIterator@PEAVCFire@@@container@wylib@@QEAAPEAXI@Z 00000001400a8b10 f i EntityManager.obj
 0001:000a7b70       ??_G?$CLinkedListIterator@PEAVCLandscape@@@container@wylib@@QEAAPEAXI@Z 00000001400a8b70 f i EntityManager.obj
 0001:000a7bd0       ??_G?$CLinkedListIterator@PEAVCHero@@@container@wylib@@QEAAPEAXI@Z 00000001400a8bd0 f i EntityManager.obj
 0001:000a7c30       ??1?$_Tree_iterator@V?$_Tree_val@V?$_Tmap_traits@PEBDVEntityHandle@@VStringComp@@V?$allocator@U?$pair@QEBDVEntityHandle@@@std@@@std@@$0A@@std@@@std@@@std@@QEAA@XZ 00000001400a8c30 f i EntityManager.obj
 0001:000a7c70       ??0?$_Tree_const_iterator@V?$_Tree_val@V?$_Tmap_traits@PEBDVEntityHandle@@VStringComp@@V?$allocator@U?$pair@QEBDVEntityHandle@@@std@@@std@@$0A@@std@@@std@@@std@@QEAA@AEBV01@@Z 00000001400a8c70 f i EntityManager.obj
 0001:000a7cc0       ??1?$_Tree_const_iterator@V?$_Tree_val@V?$_Tmap_traits@PEBDVEntityHandle@@VStringComp@@V?$allocator@U?$pair@QEBDVEntityHandle@@@std@@@std@@$0A@@std@@@std@@@std@@QEAA@XZ 00000001400a8cc0 f i EntityManager.obj
 0001:000a7d00       ??0?$_Tree_unchecked_const_iterator@V?$_Tree_val@V?$_Tmap_traits@PEBDVEntityHandle@@VStringComp@@V?$allocator@U?$pair@QEBDVEntityHandle@@@std@@@std@@$0A@@std@@@std@@U_Iterator_base12@2@@std@@QEAA@AEBV01@@Z 00000001400a8d00 f i EntityManager.obj
 0001:000a7d70       ??1?$_Tree_unchecked_const_iterator@V?$_Tree_val@V?$_Tmap_traits@PEBDVEntityHandle@@VStringComp@@V?$allocator@U?$pair@QEBDVEntityHandle@@@std@@@std@@$0A@@std@@@std@@U_Iterator_base12@2@@std@@QEAA@XZ 00000001400a8d70 f i EntityManager.obj
 0001:000a7db0       ??0?$_Iterator012@Ubidirectional_iterator_tag@std@@U?$pair@QEBDVEntityHandle@@@2@_JPEBU32@AEBU32@U_Iterator_base12@2@@std@@QEAA@AEBU01@@Z 00000001400a8db0 f i EntityManager.obj
 0001:000a7e00       ??1?$_Iterator012@Ubidirectional_iterator_tag@std@@U?$pair@QEBDVEntityHandle@@@2@_JPEBU32@AEBU32@U_Iterator_base12@2@@std@@QEAA@XZ 00000001400a8e00 f i EntityManager.obj
 0001:000a7e40       ?remove@?$CBaseLinkedList@PEAVCActor@@@container@wylib@@QEAAXPEAV?$CLinkedNode@PEAVCActor@@@23@H@Z 00000001400a8e40 f i EntityManager.obj
 0001:000a8050       ?first@?$CBaseLinkedList@PEAVCMonster@@@container@wylib@@QEAAPEAV?$CLinkedNode@PEAVCMonster@@@23@XZ 00000001400a9050 f i EntityManager.obj
 0001:000a8070       ?remove@?$CBaseLinkedList@PEAVCMonster@@@container@wylib@@QEAAXPEAV?$CLinkedNode@PEAVCMonster@@@23@H@Z 00000001400a9070 f i EntityManager.obj
 0001:000a8280       ??0?$CLinkedListIterator@PEAVCMonster@@@container@wylib@@QEAA@XZ 00000001400a9280 f i EntityManager.obj
 0001:000a82d0       ?setList@?$CLinkedListIterator@PEAVCMonster@@@container@wylib@@QEAAXAEAV?$CBaseLinkedList@PEAVCMonster@@@23@@Z 00000001400a92d0 f i EntityManager.obj
 0001:000a8390       ?first@?$CBaseLinkedList@PEAVCNpc@@@container@wylib@@QEAAPEAV?$CLinkedNode@PEAVCNpc@@@23@XZ 00000001400a9390 f i EntityManager.obj
 0001:000a83b0       ?remove@?$CBaseLinkedList@PEAVCNpc@@@container@wylib@@QEAAXPEAV?$CLinkedNode@PEAVCNpc@@@23@H@Z 00000001400a93b0 f i EntityManager.obj
 0001:000a85c0       ??0?$CLinkedListIterator@PEAVCNpc@@@container@wylib@@QEAA@XZ 00000001400a95c0 f i EntityManager.obj
 0001:000a8610       ?setList@?$CLinkedListIterator@PEAVCNpc@@@container@wylib@@QEAAXAEAV?$CBaseLinkedList@PEAVCNpc@@@23@@Z 00000001400a9610 f i EntityManager.obj
 0001:000a86d0       ?first@?$CBaseLinkedList@PEAVCDropItemEntity@@@container@wylib@@QEAAPEAV?$CLinkedNode@PEAVCDropItemEntity@@@23@XZ 00000001400a96d0 f i EntityManager.obj
 0001:000a86f0       ?remove@?$CBaseLinkedList@PEAVCDropItemEntity@@@container@wylib@@QEAAXPEAV?$CLinkedNode@PEAVCDropItemEntity@@@23@H@Z 00000001400a96f0 f i EntityManager.obj
 0001:000a8900       ?remove@?$CBaseLinkedList@PEAVCTransfer@@@container@wylib@@QEAAXPEAV?$CLinkedNode@PEAVCTransfer@@@23@H@Z 00000001400a9900 f i EntityManager.obj
 0001:000a8b10       ?first@?$CBaseLinkedList@PEAVCPet@@@container@wylib@@QEAAPEAV?$CLinkedNode@PEAVCPet@@@23@XZ 00000001400a9b10 f i EntityManager.obj
 0001:000a8b30       ?remove@?$CBaseLinkedList@PEAVCPet@@@container@wylib@@QEAAXPEAV?$CLinkedNode@PEAVCPet@@@23@H@Z 00000001400a9b30 f i EntityManager.obj
 0001:000a8d40       ??0?$CLinkedListIterator@PEAVCPet@@@container@wylib@@QEAA@XZ 00000001400a9d40 f i EntityManager.obj
 0001:000a8d90       ?setList@?$CLinkedListIterator@PEAVCPet@@@container@wylib@@QEAAXAEAV?$CBaseLinkedList@PEAVCPet@@@23@@Z 00000001400a9d90 f i EntityManager.obj
 0001:000a8e50       ?first@?$CBaseLinkedList@PEAVCFire@@@container@wylib@@QEAAPEAV?$CLinkedNode@PEAVCFire@@@23@XZ 00000001400a9e50 f i EntityManager.obj
 0001:000a8e70       ?remove@?$CBaseLinkedList@PEAVCFire@@@container@wylib@@QEAAXPEAV?$CLinkedNode@PEAVCFire@@@23@H@Z 00000001400a9e70 f i EntityManager.obj
 0001:000a9080       ?remove@?$CBaseLinkedList@PEAVCLandscape@@@container@wylib@@QEAAXPEAV?$CLinkedNode@PEAVCLandscape@@@23@H@Z 00000001400aa080 f i EntityManager.obj
 0001:000a9290       ?first@?$CBaseLinkedList@PEAVCHero@@@container@wylib@@QEAAPEAV?$CLinkedNode@PEAVCHero@@@23@XZ 00000001400aa290 f i EntityManager.obj
 0001:000a92b0       ?remove@?$CBaseLinkedList@PEAVCHero@@@container@wylib@@QEAAXPEAV?$CLinkedNode@PEAVCHero@@@23@H@Z 00000001400aa2b0 f i EntityManager.obj
 0001:000a94c0       ?erase@?$_Tree@V?$_Tmap_traits@HVEntityHandle@@U?$less@H@std@@V?$allocator@U?$pair@$$CBHVEntityHandle@@@std@@@3@$0A@@std@@@std@@QEAA?AV?$_Tree_iterator@V?$_Tree_val@V?$_Tmap_traits@HVEntityHandle@@U?$less@H@std@@V?$allocator@U?$pair@$$CBHVEntityHandle@@@std@@@3@$0A@@std@@@std@@@2@V?$_Tree_const_iterator@V?$_Tree_val@V?$_Tmap_traits@HVEntityHandle@@U?$less@H@std@@V?$allocator@U?$pair@$$CBHVEntityHandle@@@std@@@3@$0A@@std@@@std@@@2@0@Z 00000001400aa4c0 f i EntityManager.obj
 0001:000a9770       ??0?$_Tree_val@V?$_Tmap_traits@HVEntityHandle@@U?$less@H@std@@V?$allocator@U?$pair@$$CBHVEntityHandle@@@std@@@3@$0A@@std@@@std@@QEAA@AEBU?$less@H@1@V?$allocator@U?$pair@$$CBHVEntityHandle@@@std@@@1@@Z 00000001400aa770 f i EntityManager.obj
 0001:000a98b0       ??1?$_Tree_nod@V?$_Tmap_traits@HVEntityHandle@@U?$less@H@std@@V?$allocator@U?$pair@$$CBHVEntityHandle@@@std@@@3@$0A@@std@@@std@@QEAA@XZ 00000001400aa8b0 f i EntityManager.obj
 0001:000a9970       ??0?$allocator@U?$pair@$$CBHVEntityHandle@@@std@@@std@@QEAA@AEBV01@@Z 00000001400aa970 f i EntityManager.obj
 0001:000a9990       ?begin@?$_Tree@V?$_Tmap_traits@PEBDVEntityHandle@@VStringComp@@V?$allocator@U?$pair@QEBDVEntityHandle@@@std@@@std@@$0A@@std@@@std@@QEAA?AV?$_Tree_iterator@V?$_Tree_val@V?$_Tmap_traits@PEBDVEntityHandle@@VStringComp@@V?$allocator@U?$pair@QEBDVEntityHandle@@@std@@@std@@$0A@@std@@@std@@@2@XZ 00000001400aa990 f i EntityManager.obj
 0001:000a99f0       ?end@?$_Tree@V?$_Tmap_traits@PEBDVEntityHandle@@VStringComp@@V?$allocator@U?$pair@QEBDVEntityHandle@@@std@@@std@@$0A@@std@@@std@@QEAA?AV?$_Tree_iterator@V?$_Tree_val@V?$_Tmap_traits@PEBDVEntityHandle@@VStringComp@@V?$allocator@U?$pair@QEBDVEntityHandle@@@std@@@std@@$0A@@std@@@std@@@2@XZ 00000001400aa9f0 f i EntityManager.obj
 0001:000a9a50       ?erase@?$_Tree@V?$_Tmap_traits@PEBDVEntityHandle@@VStringComp@@V?$allocator@U?$pair@QEBDVEntityHandle@@@std@@@std@@$0A@@std@@@std@@QEAA?AV?$_Tree_iterator@V?$_Tree_val@V?$_Tmap_traits@PEBDVEntityHandle@@VStringComp@@V?$allocator@U?$pair@QEBDVEntityHandle@@@std@@@std@@$0A@@std@@@std@@@2@V?$_Tree_const_iterator@V?$_Tree_val@V?$_Tmap_traits@PEBDVEntityHandle@@VStringComp@@V?$allocator@U?$pair@QEBDVEntityHandle@@@std@@@std@@$0A@@std@@@std@@@2@0@Z 00000001400aaa50 f i EntityManager.obj
 0001:000a9d00       ??0?$_Tree_val@V?$_Tmap_traits@PEBDVEntityHandle@@VStringComp@@V?$allocator@U?$pair@QEBDVEntityHandle@@@std@@@std@@$0A@@std@@@std@@QEAA@AEBVStringComp@@V?$allocator@U?$pair@QEBDVEntityHandle@@@std@@@1@@Z 00000001400aad00 f i EntityManager.obj
 0001:000a9e40       ??1?$_Tree_nod@V?$_Tmap_traits@PEBDVEntityHandle@@VStringComp@@V?$allocator@U?$pair@QEBDVEntityHandle@@@std@@@std@@$0A@@std@@@std@@QEAA@XZ 00000001400aae40 f i EntityManager.obj
 0001:000a9f00       ??0?$allocator@U?$pair@QEBDVEntityHandle@@@std@@@std@@QEAA@AEBV01@@Z 00000001400aaf00 f i EntityManager.obj
 0001:000a9f20       ?deallocate@?$allocator@U_Node@?$_Tree_nod@V?$_Tmap_traits@PEBDVEntityHandle@@VStringComp@@V?$allocator@U?$pair@QEBDVEntityHandle@@@std@@@std@@$0A@@std@@@std@@@std@@QEAAXPEAU_Node@?$_Tree_nod@V?$_Tmap_traits@PEBDVEntityHandle@@VStringComp@@V?$allocator@U?$pair@QEBDVEntityHandle@@@std@@@std@@$0A@@std@@@2@_K@Z 00000001400aaf20 f i EntityManager.obj
 0001:000a9f70       ?erase@?$_Tree@V?$_Tmap_traits@HHU?$less@H@std@@V?$allocator@U?$pair@$$CBHH@std@@@2@$0A@@std@@@std@@QEAA?AV?$_Tree_iterator@V?$_Tree_val@V?$_Tmap_traits@HHU?$less@H@std@@V?$allocator@U?$pair@$$CBHH@std@@@2@$0A@@std@@@std@@@2@V?$_Tree_const_iterator@V?$_Tree_val@V?$_Tmap_traits@HHU?$less@H@std@@V?$allocator@U?$pair@$$CBHH@std@@@2@$0A@@std@@@std@@@2@0@Z 00000001400aaf70 f i EntityManager.obj
 0001:000aa220       ?_Lbound@?$_Tree@V?$_Tmap_traits@HHU?$less@H@std@@V?$allocator@U?$pair@$$CBHH@std@@@2@$0A@@std@@@std@@IEAAPEAU_Node@?$_Tree_nod@V?$_Tmap_traits@HHU?$less@H@std@@V?$allocator@U?$pair@$$CBHH@std@@@2@$0A@@std@@@2@AEBH@Z 00000001400ab220 f i EntityManager.obj
 0001:000aa320       ??0?$_Tree_val@V?$_Tmap_traits@HHU?$less@H@std@@V?$allocator@U?$pair@$$CBHH@std@@@2@$0A@@std@@@std@@QEAA@AEBU?$less@H@1@V?$allocator@U?$pair@$$CBHH@std@@@1@@Z 00000001400ab320 f i EntityManager.obj
 0001:000aa460       ?_Isnil@?$_Tree_val@V?$_Tmap_traits@HHU?$less@H@std@@V?$allocator@U?$pair@$$CBHH@std@@@2@$0A@@std@@@std@@SAAEADPEAU_Node@?$_Tree_nod@V?$_Tmap_traits@HHU?$less@H@std@@V?$allocator@U?$pair@$$CBHH@std@@@2@$0A@@std@@@2@@Z 00000001400ab460 f i EntityManager.obj
 0001:000aa480       ?_Left@?$_Tree_val@V?$_Tmap_traits@HHU?$less@H@std@@V?$allocator@U?$pair@$$CBHH@std@@@2@$0A@@std@@@std@@SAAEAPEAU_Node@?$_Tree_nod@V?$_Tmap_traits@HHU?$less@H@std@@V?$allocator@U?$pair@$$CBHH@std@@@2@$0A@@std@@@2@PEAU342@@Z 00000001400ab480 f i EntityManager.obj
 0001:000aa490       ?_Parent@?$_Tree_val@V?$_Tmap_traits@HHU?$less@H@std@@V?$allocator@U?$pair@$$CBHH@std@@@2@$0A@@std@@@std@@SAAEAPEAU_Node@?$_Tree_nod@V?$_Tmap_traits@HHU?$less@H@std@@V?$allocator@U?$pair@$$CBHH@std@@@2@$0A@@std@@@2@PEAU342@@Z 00000001400ab490 f i EntityManager.obj
 0001:000aa4b0       ?_Right@?$_Tree_val@V?$_Tmap_traits@HHU?$less@H@std@@V?$allocator@U?$pair@$$CBHH@std@@@2@$0A@@std@@@std@@SAAEAPEAU_Node@?$_Tree_nod@V?$_Tmap_traits@HHU?$less@H@std@@V?$allocator@U?$pair@$$CBHH@std@@@2@$0A@@std@@@2@PEAU342@@Z 00000001400ab4b0 f i EntityManager.obj
 0001:000aa4d0       ?_Myval@?$_Tree_val@V?$_Tmap_traits@HHU?$less@H@std@@V?$allocator@U?$pair@$$CBHH@std@@@2@$0A@@std@@@std@@SAAEAU?$pair@$$CBHH@2@PEAU_Node@?$_Tree_nod@V?$_Tmap_traits@HHU?$less@H@std@@V?$allocator@U?$pair@$$CBHH@std@@@2@$0A@@std@@@2@@Z 00000001400ab4d0 f i EntityManager.obj
 0001:000aa4f0       ??1?$_Tree_nod@V?$_Tmap_traits@HHU?$less@H@std@@V?$allocator@U?$pair@$$CBHH@std@@@2@$0A@@std@@@std@@QEAA@XZ 00000001400ab4f0 f i EntityManager.obj
 0001:000aa5b0       ??0?$allocator@U?$pair@$$CBHH@std@@@std@@QEAA@AEBV01@@Z 00000001400ab5b0 f i EntityManager.obj
 0001:000aa5d0       ?deallocate@?$allocator@U_Node@?$_Tree_nod@V?$_Tmap_traits@HHU?$less@H@std@@V?$allocator@U?$pair@$$CBHH@std@@@2@$0A@@std@@@std@@@std@@QEAAXPEAU_Node@?$_Tree_nod@V?$_Tmap_traits@HHU?$less@H@std@@V?$allocator@U?$pair@$$CBHH@std@@@2@$0A@@std@@@2@_K@Z 00000001400ab5d0 f i EntityManager.obj
 0001:000aa620       ??E?$_Tree_unchecked_const_iterator@V?$_Tree_val@V?$_Tmap_traits@HVEntityHandle@@U?$less@H@std@@V?$allocator@U?$pair@$$CBHVEntityHandle@@@std@@@3@$0A@@std@@@std@@U_Iterator_base12@2@@std@@QEAAAEAV01@XZ 00000001400ab620 f i EntityManager.obj
 0001:000aa740       ??0?$_Tree_const_iterator@V?$_Tree_val@V?$_Tmap_traits@HHU?$less@H@std@@V?$allocator@U?$pair@$$CBHH@std@@@2@$0A@@std@@@std@@@std@@QEAA@PEAU_Node@?$_Tree_nod@V?$_Tmap_traits@HHU?$less@H@std@@V?$allocator@U?$pair@$$CBHH@std@@@2@$0A@@std@@@1@PEBV?$_Tree_val@V?$_Tmap_traits@HHU?$less@H@std@@V?$allocator@U?$pair@$$CBHH@std@@@2@$0A@@std@@@1@@Z 00000001400ab740 f i EntityManager.obj
 0001:000aa7a0       ??D?$_Tree_const_iterator@V?$_Tree_val@V?$_Tmap_traits@HHU?$less@H@std@@V?$allocator@U?$pair@$$CBHH@std@@@2@$0A@@std@@@std@@@std@@QEBAAEBU?$pair@$$CBHH@1@XZ 00000001400ab7a0 f i EntityManager.obj
 0001:000aa8d0       ??0?$_Tree_unchecked_const_iterator@V?$_Tree_val@V?$_Tmap_traits@HHU?$less@H@std@@V?$allocator@U?$pair@$$CBHH@std@@@2@$0A@@std@@@std@@U_Iterator_base12@2@@std@@QEAA@XZ 00000001400ab8d0 f i EntityManager.obj
 0001:000aa920       ??E?$_Tree_unchecked_const_iterator@V?$_Tree_val@V?$_Tmap_traits@HHU?$less@H@std@@V?$allocator@U?$pair@$$CBHH@std@@@2@$0A@@std@@@std@@U_Iterator_base12@2@@std@@QEAAAEAV01@XZ 00000001400ab920 f i EntityManager.obj
 0001:000aaa40       ??_G?$CLinkedListIterator@PEAVCMonster@@@container@wylib@@QEAAPEAXI@Z 00000001400aba40 f i EntityManager.obj
 0001:000aaaa0       ??_G?$CLinkedListIterator@PEAVCNpc@@@container@wylib@@QEAAPEAXI@Z 00000001400abaa0 f i EntityManager.obj
 0001:000aab00       ??_G?$CLinkedListIterator@PEAVCPet@@@container@wylib@@QEAAPEAXI@Z 00000001400abb00 f i EntityManager.obj
 0001:000aab60       ??1?$_Tmap_traits@HVEntityHandle@@U?$less@H@std@@V?$allocator@U?$pair@$$CBHVEntityHandle@@@std@@@3@$0A@@std@@QEAA@XZ 00000001400abb60 f i EntityManager.obj
 0001:000aaba0       ??1?$_Tmap_traits@PEBDVEntityHandle@@VStringComp@@V?$allocator@U?$pair@QEBDVEntityHandle@@@std@@@std@@$0A@@std@@QEAA@XZ 00000001400abba0 f i EntityManager.obj
 0001:000aabe0       ??1?$_Tmap_traits@HHU?$less@H@std@@V?$allocator@U?$pair@$$CBHH@std@@@2@$0A@@std@@QEAA@XZ 00000001400abbe0 f i EntityManager.obj
 0001:000aac20       ??0?$_Iterator012@Ubidirectional_iterator_tag@std@@U?$pair@$$CBHH@2@_JPEBU32@AEBU32@U_Iterator_base12@2@@std@@QEAA@XZ 00000001400abc20 f i EntityManager.obj
 0001:000aac60       ?clear@?$_Tree@V?$_Tmap_traits@HVEntityHandle@@U?$less@H@std@@V?$allocator@U?$pair@$$CBHVEntityHandle@@@std@@@3@$0A@@std@@@std@@QEAAXXZ 00000001400abc60 f i EntityManager.obj
 0001:000aad30       ??0?$_Tree_nod@V?$_Tmap_traits@HVEntityHandle@@U?$less@H@std@@V?$allocator@U?$pair@$$CBHVEntityHandle@@@std@@@3@$0A@@std@@@std@@QEAA@AEBU?$less@H@1@V?$allocator@U?$pair@$$CBHVEntityHandle@@@std@@@1@@Z 00000001400abd30 f i EntityManager.obj
 0001:000aae50       ?erase@?$_Tree@V?$_Tmap_traits@PEBDVEntityHandle@@VStringComp@@V?$allocator@U?$pair@QEBDVEntityHandle@@@std@@@std@@$0A@@std@@@std@@QEAA?AV?$_Tree_iterator@V?$_Tree_val@V?$_Tmap_traits@PEBDVEntityHandle@@VStringComp@@V?$allocator@U?$pair@QEBDVEntityHandle@@@std@@@std@@$0A@@std@@@std@@@2@V?$_Tree_const_iterator@V?$_Tree_val@V?$_Tmap_traits@PEBDVEntityHandle@@VStringComp@@V?$allocator@U?$pair@QEBDVEntityHandle@@@std@@@std@@$0A@@std@@@std@@@2@@Z 00000001400abe50 f i EntityManager.obj
 0001:000ab920       ?clear@?$_Tree@V?$_Tmap_traits@PEBDVEntityHandle@@VStringComp@@V?$allocator@U?$pair@QEBDVEntityHandle@@@std@@@std@@$0A@@std@@@std@@QEAAXXZ 00000001400ac920 f i EntityManager.obj
 0001:000ab9f0       ?_Lmost@?$_Tree@V?$_Tmap_traits@PEBDVEntityHandle@@VStringComp@@V?$allocator@U?$pair@QEBDVEntityHandle@@@std@@@std@@$0A@@std@@@std@@IEBAAEAPEAU_Node@?$_Tree_nod@V?$_Tmap_traits@PEBDVEntityHandle@@VStringComp@@V?$allocator@U?$pair@QEBDVEntityHandle@@@std@@@std@@$0A@@std@@@2@XZ 00000001400ac9f0 f i EntityManager.obj
 0001:000aba30       ?_Color@?$_Tree_val@V?$_Tmap_traits@PEBDVEntityHandle@@VStringComp@@V?$allocator@U?$pair@QEBDVEntityHandle@@@std@@@std@@$0A@@std@@@std@@SAAEADPEAU_Node@?$_Tree_nod@V?$_Tmap_traits@PEBDVEntityHandle@@VStringComp@@V?$allocator@U?$pair@QEBDVEntityHandle@@@std@@@std@@$0A@@std@@@2@@Z 00000001400aca30 f i EntityManager.obj
 0001:000aba50       ?_Isnil@?$_Tree_val@V?$_Tmap_traits@PEBDVEntityHandle@@VStringComp@@V?$allocator@U?$pair@QEBDVEntityHandle@@@std@@@std@@$0A@@std@@@std@@SAAEADPEAU_Node@?$_Tree_nod@V?$_Tmap_traits@PEBDVEntityHandle@@VStringComp@@V?$allocator@U?$pair@QEBDVEntityHandle@@@std@@@std@@$0A@@std@@@2@@Z 00000001400aca50 f i EntityManager.obj
 0001:000aba70       ?_Left@?$_Tree_val@V?$_Tmap_traits@PEBDVEntityHandle@@VStringComp@@V?$allocator@U?$pair@QEBDVEntityHandle@@@std@@@std@@$0A@@std@@@std@@SAAEAPEAU_Node@?$_Tree_nod@V?$_Tmap_traits@PEBDVEntityHandle@@VStringComp@@V?$allocator@U?$pair@QEBDVEntityHandle@@@std@@@std@@$0A@@std@@@2@PEAU342@@Z 00000001400aca70 f i EntityManager.obj
 0001:000aba80       ?_Parent@?$_Tree_val@V?$_Tmap_traits@PEBDVEntityHandle@@VStringComp@@V?$allocator@U?$pair@QEBDVEntityHandle@@@std@@@std@@$0A@@std@@@std@@SAAEAPEAU_Node@?$_Tree_nod@V?$_Tmap_traits@PEBDVEntityHandle@@VStringComp@@V?$allocator@U?$pair@QEBDVEntityHandle@@@std@@@std@@$0A@@std@@@2@PEAU342@@Z 00000001400aca80 f i EntityManager.obj
 0001:000abaa0       ?_Right@?$_Tree_val@V?$_Tmap_traits@PEBDVEntityHandle@@VStringComp@@V?$allocator@U?$pair@QEBDVEntityHandle@@@std@@@std@@$0A@@std@@@std@@SAAEAPEAU_Node@?$_Tree_nod@V?$_Tmap_traits@PEBDVEntityHandle@@VStringComp@@V?$allocator@U?$pair@QEBDVEntityHandle@@@std@@@std@@$0A@@std@@@2@PEAU342@@Z 00000001400acaa0 f i EntityManager.obj
 0001:000abac0       ??0?$_Tree_nod@V?$_Tmap_traits@PEBDVEntityHandle@@VStringComp@@V?$allocator@U?$pair@QEBDVEntityHandle@@@std@@@std@@$0A@@std@@@std@@QEAA@AEBVStringComp@@V?$allocator@U?$pair@QEBDVEntityHandle@@@std@@@1@@Z 00000001400acac0 f i EntityManager.obj
 0001:000abbe0       ?allocate@?$allocator@U_Node@?$_Tree_nod@V?$_Tmap_traits@PEBDVEntityHandle@@VStringComp@@V?$allocator@U?$pair@QEBDVEntityHandle@@@std@@@std@@$0A@@std@@@std@@@std@@QEAAPEAU_Node@?$_Tree_nod@V?$_Tmap_traits@PEBDVEntityHandle@@VStringComp@@V?$allocator@U?$pair@QEBDVEntityHandle@@@std@@@std@@$0A@@std@@@2@_K@Z 00000001400acbe0 f i EntityManager.obj
 0001:000abc30       ?erase@?$_Tree@V?$_Tmap_traits@HHU?$less@H@std@@V?$allocator@U?$pair@$$CBHH@std@@@2@$0A@@std@@@std@@QEAA?AV?$_Tree_iterator@V?$_Tree_val@V?$_Tmap_traits@HHU?$less@H@std@@V?$allocator@U?$pair@$$CBHH@std@@@2@$0A@@std@@@std@@@2@V?$_Tree_const_iterator@V?$_Tree_val@V?$_Tmap_traits@HHU?$less@H@std@@V?$allocator@U?$pair@$$CBHH@std@@@2@$0A@@std@@@std@@@2@@Z 00000001400acc30 f i EntityManager.obj
 0001:000ac700       ?_Color@?$_Tree_val@V?$_Tmap_traits@HHU?$less@H@std@@V?$allocator@U?$pair@$$CBHH@std@@@2@$0A@@std@@@std@@SAAEADPEAU_Node@?$_Tree_nod@V?$_Tmap_traits@HHU?$less@H@std@@V?$allocator@U?$pair@$$CBHH@std@@@2@$0A@@std@@@2@@Z 00000001400ad700 f i EntityManager.obj
 0001:000ac720       ?_Min@?$_Tree_val@V?$_Tmap_traits@HHU?$less@H@std@@V?$allocator@U?$pair@$$CBHH@std@@@2@$0A@@std@@@std@@SAPEAU_Node@?$_Tree_nod@V?$_Tmap_traits@HHU?$less@H@std@@V?$allocator@U?$pair@$$CBHH@std@@@2@$0A@@std@@@2@PEAU342@@Z 00000001400ad720 f i EntityManager.obj
 0001:000ac790       ??0?$_Tree_nod@V?$_Tmap_traits@HHU?$less@H@std@@V?$allocator@U?$pair@$$CBHH@std@@@2@$0A@@std@@@std@@QEAA@AEBU?$less@H@1@V?$allocator@U?$pair@$$CBHH@std@@@1@@Z 00000001400ad790 f i EntityManager.obj
 0001:000ac8b0       ?allocate@?$allocator@U_Node@?$_Tree_nod@V?$_Tmap_traits@HHU?$less@H@std@@V?$allocator@U?$pair@$$CBHH@std@@@2@$0A@@std@@@std@@@std@@QEAAPEAU_Node@?$_Tree_nod@V?$_Tmap_traits@HHU?$less@H@std@@V?$allocator@U?$pair@$$CBHH@std@@@2@$0A@@std@@@2@_K@Z 00000001400ad8b0 f i EntityManager.obj
 0001:000ac900       ??E?$_Tree_const_iterator@V?$_Tree_val@V?$_Tmap_traits@HVEntityHandle@@U?$less@H@std@@V?$allocator@U?$pair@$$CBHVEntityHandle@@@std@@@3@$0A@@std@@@std@@@std@@QEAA?AV01@H@Z 00000001400ad900 f i EntityManager.obj
 0001:000ac9a0       ??E?$_Tree_const_iterator@V?$_Tree_val@V?$_Tmap_traits@HHU?$less@H@std@@V?$allocator@U?$pair@$$CBHH@std@@@2@$0A@@std@@@std@@@std@@QEAA?AV01@H@Z 00000001400ad9a0 f i EntityManager.obj
 0001:000aca40       ??0?$_Tree_unchecked_const_iterator@V?$_Tree_val@V?$_Tmap_traits@HHU?$less@H@std@@V?$allocator@U?$pair@$$CBHH@std@@@2@$0A@@std@@@std@@U_Iterator_base12@2@@std@@QEAA@PEAU_Node@?$_Tree_nod@V?$_Tmap_traits@HHU?$less@H@std@@V?$allocator@U?$pair@$$CBHH@std@@@2@$0A@@std@@@1@PEBV?$_Tree_val@V?$_Tmap_traits@HHU?$less@H@std@@V?$allocator@U?$pair@$$CBHH@std@@@2@$0A@@std@@@1@@Z 00000001400ada40 f i EntityManager.obj
 0001:000acab0       ??0?$_Tree_iterator@V?$_Tree_val@V?$_Tmap_traits@PEBDVEntityHandle@@VStringComp@@V?$allocator@U?$pair@QEBDVEntityHandle@@@std@@@std@@$0A@@std@@@std@@@std@@QEAA@PEAU_Node@?$_Tree_nod@V?$_Tmap_traits@PEBDVEntityHandle@@VStringComp@@V?$allocator@U?$pair@QEBDVEntityHandle@@@std@@@std@@$0A@@std@@@1@PEBV?$_Tree_val@V?$_Tmap_traits@PEBDVEntityHandle@@VStringComp@@V?$allocator@U?$pair@QEBDVEntityHandle@@@std@@@std@@$0A@@std@@@1@@Z 00000001400adab0 f i EntityManager.obj
 0001:000acb10       ??E?$_Tree_const_iterator@V?$_Tree_val@V?$_Tmap_traits@PEBDVEntityHandle@@VStringComp@@V?$allocator@U?$pair@QEBDVEntityHandle@@@std@@@std@@$0A@@std@@@std@@@std@@QEAA?AV01@H@Z 00000001400adb10 f i EntityManager.obj
 0001:000acbb0       ??8?$_Tree_const_iterator@V?$_Tree_val@V?$_Tmap_traits@PEBDVEntityHandle@@VStringComp@@V?$allocator@U?$pair@QEBDVEntityHandle@@@std@@@std@@$0A@@std@@@std@@@std@@QEBA_NAEBV01@@Z 00000001400adbb0 f i EntityManager.obj
 0001:000acd10       ??9?$_Tree_const_iterator@V?$_Tree_val@V?$_Tmap_traits@PEBDVEntityHandle@@VStringComp@@V?$allocator@U?$pair@QEBDVEntityHandle@@@std@@@std@@$0A@@std@@@std@@@std@@QEBA_NAEBV01@@Z 00000001400add10 f i EntityManager.obj
 0001:000acd80       ?_Erase@?$_Tree@V?$_Tmap_traits@HVEntityHandle@@U?$less@H@std@@V?$allocator@U?$pair@$$CBHVEntityHandle@@@std@@@3@$0A@@std@@@std@@IEAAXPEAU_Node@?$_Tree_nod@V?$_Tmap_traits@HVEntityHandle@@U?$less@H@std@@V?$allocator@U?$pair@$$CBHVEntityHandle@@@std@@@3@$0A@@std@@@2@@Z 00000001400add80 f i EntityManager.obj
 0001:000ace70       ??0?$_Tmap_traits@HVEntityHandle@@U?$less@H@std@@V?$allocator@U?$pair@$$CBHVEntityHandle@@@std@@@3@$0A@@std@@QEAA@U?$less@H@1@@Z 00000001400ade70 f i EntityManager.obj
 0001:000acec0       ?_Erase@?$_Tree@V?$_Tmap_traits@PEBDVEntityHandle@@VStringComp@@V?$allocator@U?$pair@QEBDVEntityHandle@@@std@@@std@@$0A@@std@@@std@@IEAAXPEAU_Node@?$_Tree_nod@V?$_Tmap_traits@PEBDVEntityHandle@@VStringComp@@V?$allocator@U?$pair@QEBDVEntityHandle@@@std@@@std@@$0A@@std@@@2@@Z 00000001400adec0 f i EntityManager.obj
 0001:000acfb0       ?_Lrotate@?$_Tree@V?$_Tmap_traits@PEBDVEntityHandle@@VStringComp@@V?$allocator@U?$pair@QEBDVEntityHandle@@@std@@@std@@$0A@@std@@@std@@IEAAXPEAU_Node@?$_Tree_nod@V?$_Tmap_traits@PEBDVEntityHandle@@VStringComp@@V?$allocator@U?$pair@QEBDVEntityHandle@@@std@@@std@@$0A@@std@@@2@@Z 00000001400adfb0 f i EntityManager.obj
 0001:000ad160       ?_Rmost@?$_Tree@V?$_Tmap_traits@PEBDVEntityHandle@@VStringComp@@V?$allocator@U?$pair@QEBDVEntityHandle@@@std@@@std@@$0A@@std@@@std@@IEBAAEAPEAU_Node@?$_Tree_nod@V?$_Tmap_traits@PEBDVEntityHandle@@VStringComp@@V?$allocator@U?$pair@QEBDVEntityHandle@@@std@@@std@@$0A@@std@@@2@XZ 00000001400ae160 f i EntityManager.obj
 0001:000ad1a0       ?_Root@?$_Tree@V?$_Tmap_traits@PEBDVEntityHandle@@VStringComp@@V?$allocator@U?$pair@QEBDVEntityHandle@@@std@@@std@@$0A@@std@@@std@@IEBAAEAPEAU_Node@?$_Tree_nod@V?$_Tmap_traits@PEBDVEntityHandle@@VStringComp@@V?$allocator@U?$pair@QEBDVEntityHandle@@@std@@@std@@$0A@@std@@@2@XZ 00000001400ae1a0 f i EntityManager.obj
 0001:000ad1e0       ?_Rrotate@?$_Tree@V?$_Tmap_traits@PEBDVEntityHandle@@VStringComp@@V?$allocator@U?$pair@QEBDVEntityHandle@@@std@@@std@@$0A@@std@@@std@@IEAAXPEAU_Node@?$_Tree_nod@V?$_Tmap_traits@PEBDVEntityHandle@@VStringComp@@V?$allocator@U?$pair@QEBDVEntityHandle@@@std@@@std@@$0A@@std@@@2@@Z 00000001400ae1e0 f i EntityManager.obj
 0001:000ad390       ?_Orphan_ptr@?$_Tree@V?$_Tmap_traits@PEBDVEntityHandle@@VStringComp@@V?$allocator@U?$pair@QEBDVEntityHandle@@@std@@@std@@$0A@@std@@@std@@IEBAXAEAV12@PEAU_Node@?$_Tree_nod@V?$_Tmap_traits@PEBDVEntityHandle@@VStringComp@@V?$allocator@U?$pair@QEBDVEntityHandle@@@std@@@std@@$0A@@std@@@2@@Z 00000001400ae390 f i EntityManager.obj
 0001:000ad4c0       ?_Myval@?$_Tree_val@V?$_Tmap_traits@PEBDVEntityHandle@@VStringComp@@V?$allocator@U?$pair@QEBDVEntityHandle@@@std@@@std@@$0A@@std@@@std@@SAAEAU?$pair@QEBDVEntityHandle@@@2@PEAU_Node@?$_Tree_nod@V?$_Tmap_traits@PEBDVEntityHandle@@VStringComp@@V?$allocator@U?$pair@QEBDVEntityHandle@@@std@@@std@@$0A@@std@@@2@@Z 00000001400ae4c0 f i EntityManager.obj
 0001:000ad4e0       ?_Max@?$_Tree_val@V?$_Tmap_traits@PEBDVEntityHandle@@VStringComp@@V?$allocator@U?$pair@QEBDVEntityHandle@@@std@@@std@@$0A@@std@@@std@@SAPEAU_Node@?$_Tree_nod@V?$_Tmap_traits@PEBDVEntityHandle@@VStringComp@@V?$allocator@U?$pair@QEBDVEntityHandle@@@std@@@std@@$0A@@std@@@2@PEAU342@@Z 00000001400ae4e0 f i EntityManager.obj
 0001:000ad550       ?_Min@?$_Tree_val@V?$_Tmap_traits@PEBDVEntityHandle@@VStringComp@@V?$allocator@U?$pair@QEBDVEntityHandle@@@std@@@std@@$0A@@std@@@std@@SAPEAU_Node@?$_Tree_nod@V?$_Tmap_traits@PEBDVEntityHandle@@VStringComp@@V?$allocator@U?$pair@QEBDVEntityHandle@@@std@@@std@@$0A@@std@@@2@PEAU342@@Z 00000001400ae550 f i EntityManager.obj
 0001:000ad5c0       ??0?$_Tmap_traits@PEBDVEntityHandle@@VStringComp@@V?$allocator@U?$pair@QEBDVEntityHandle@@@std@@@std@@$0A@@std@@QEAA@VStringComp@@@Z 00000001400ae5c0 f i EntityManager.obj
 0001:000ad610       ?_Lrotate@?$_Tree@V?$_Tmap_traits@HHU?$less@H@std@@V?$allocator@U?$pair@$$CBHH@std@@@2@$0A@@std@@@std@@IEAAXPEAU_Node@?$_Tree_nod@V?$_Tmap_traits@HHU?$less@H@std@@V?$allocator@U?$pair@$$CBHH@std@@@2@$0A@@std@@@2@@Z 00000001400ae610 f i EntityManager.obj
 0001:000ad7c0       ?_Rrotate@?$_Tree@V?$_Tmap_traits@HHU?$less@H@std@@V?$allocator@U?$pair@$$CBHH@std@@@2@$0A@@std@@@std@@IEAAXPEAU_Node@?$_Tree_nod@V?$_Tmap_traits@HHU?$less@H@std@@V?$allocator@U?$pair@$$CBHH@std@@@2@$0A@@std@@@2@@Z 00000001400ae7c0 f i EntityManager.obj
 0001:000ad970       ?_Max@?$_Tree_val@V?$_Tmap_traits@HHU?$less@H@std@@V?$allocator@U?$pair@$$CBHH@std@@@2@$0A@@std@@@std@@SAPEAU_Node@?$_Tree_nod@V?$_Tmap_traits@HHU?$less@H@std@@V?$allocator@U?$pair@$$CBHH@std@@@2@$0A@@std@@@2@PEAU342@@Z 00000001400ae970 f i EntityManager.obj
 0001:000ad9e0       ??0?$_Tmap_traits@HHU?$less@H@std@@V?$allocator@U?$pair@$$CBHH@std@@@2@$0A@@std@@QEAA@U?$less@H@1@@Z 00000001400ae9e0 f i EntityManager.obj
 0001:000ada30       ??0?$_Tree_const_iterator@V?$_Tree_val@V?$_Tmap_traits@PEBDVEntityHandle@@VStringComp@@V?$allocator@U?$pair@QEBDVEntityHandle@@@std@@@std@@$0A@@std@@@std@@@std@@QEAA@PEAU_Node@?$_Tree_nod@V?$_Tmap_traits@PEBDVEntityHandle@@VStringComp@@V?$allocator@U?$pair@QEBDVEntityHandle@@@std@@@std@@$0A@@std@@@1@PEBV?$_Tree_val@V?$_Tmap_traits@PEBDVEntityHandle@@VStringComp@@V?$allocator@U?$pair@QEBDVEntityHandle@@@std@@@std@@$0A@@std@@@1@@Z 00000001400aea30 f i EntityManager.obj
 0001:000ada90       ??E?$_Tree_const_iterator@V?$_Tree_val@V?$_Tmap_traits@PEBDVEntityHandle@@VStringComp@@V?$allocator@U?$pair@QEBDVEntityHandle@@@std@@@std@@$0A@@std@@@std@@@std@@QEAAAEAV01@XZ 00000001400aea90 f i EntityManager.obj
 0001:000adbc0       ?_Mynode@?$_Tree_unchecked_const_iterator@V?$_Tree_val@V?$_Tmap_traits@PEBDVEntityHandle@@VStringComp@@V?$allocator@U?$pair@QEBDVEntityHandle@@@std@@@std@@$0A@@std@@@std@@U_Iterator_base12@2@@std@@QEBAPEAU_Node@?$_Tree_nod@V?$_Tmap_traits@PEBDVEntityHandle@@VStringComp@@V?$allocator@U?$pair@QEBDVEntityHandle@@@std@@@std@@$0A@@std@@@2@XZ 00000001400aebc0 f i EntityManager.obj
 0001:000adbe0       ??0?$_Tree_unchecked_const_iterator@V?$_Tree_val@V?$_Tmap_traits@PEBDVEntityHandle@@VStringComp@@V?$allocator@U?$pair@QEBDVEntityHandle@@@std@@@std@@$0A@@std@@@std@@U_Iterator_base12@2@@std@@QEAA@PEAU_Node@?$_Tree_nod@V?$_Tmap_traits@PEBDVEntityHandle@@VStringComp@@V?$allocator@U?$pair@QEBDVEntityHandle@@@std@@@std@@$0A@@std@@@1@PEBV?$_Tree_val@V?$_Tmap_traits@PEBDVEntityHandle@@VStringComp@@V?$allocator@U?$pair@QEBDVEntityHandle@@@std@@@std@@$0A@@std@@@1@@Z 00000001400aebe0 f i EntityManager.obj
 0001:000adc50       ??E?$_Tree_unchecked_const_iterator@V?$_Tree_val@V?$_Tmap_traits@PEBDVEntityHandle@@VStringComp@@V?$allocator@U?$pair@QEBDVEntityHandle@@@std@@@std@@$0A@@std@@@std@@U_Iterator_base12@2@@std@@QEAAAEAV01@XZ 00000001400aec50 f i EntityManager.obj
 0001:000add70       ??0?$_Iterator012@Ubidirectional_iterator_tag@std@@U?$pair@QEBDVEntityHandle@@@2@_JPEBU32@AEBU32@U_Iterator_base12@2@@std@@QEAA@XZ 00000001400aed70 f i EntityManager.obj
 0001:000addb0       ??0?$HandleMgr@VScriptCallbackParam@@V?$Handle@I@@$0EA@@@QEAA@PEBD@Z 00000001400aedb0 f i EntityManager.obj
 0001:000ade80       ?Acquire@?$HandleMgr@VScriptCallbackParam@@V?$Handle@I@@$0EA@@@QEAAPEAVScriptCallbackParam@@AEAV?$Handle@I@@@Z 00000001400aee80 f i EntityManager.obj
 0001:000ae780       ?Release@?$HandleMgr@VScriptCallbackParam@@V?$Handle@I@@$0EA@@@QEAAXV?$Handle@I@@@Z 00000001400af780 f i EntityManager.obj
 0001:000aea40       ?GetDataPtr@?$HandleMgr@VScriptCallbackParam@@V?$Handle@I@@$0EA@@@QEAAPEAVScriptCallbackParam@@V?$Handle@I@@@Z 00000001400afa40 f i EntityManager.obj
 0001:000aebe0       ?Empty@?$HandleMgr@VScriptCallbackParam@@V?$Handle@I@@$0EA@@@QEAAXXZ 00000001400afbe0 f i EntityManager.obj
 0001:000aeee0       ??0?$CVector@VEntityHandle@@@@QEAA@PEAVCBufferAllocator@@@Z 00000001400afee0 f i EntityManager.obj
 0001:000aef90       ??1?$CVector@VEntityHandle@@@@UEAA@XZ 00000001400aff90 f i EntityManager.obj
 0001:000aeff0       ?empty@?$CVector@VEntityHandle@@@@UEAAXXZ 00000001400afff0 f i EntityManager.obj
 0001:000af090       ?reserve@?$CVector@VEntityHandle@@@@UEAAX_J@Z 00000001400b0090 f i EntityManager.obj
 0001:000af210       ??0?$CList@PEAVCActor@@@@QEAA@PEAVCBufferAllocator@@@Z 00000001400b0210 f i EntityManager.obj
 0001:000af2c0       ??1?$CList@PEAVCActor@@@@UEAA@XZ 00000001400b02c0 f i EntityManager.obj
 0001:000af320       ?allocNode@?$CList@PEAVCActor@@@@UEAAPEAV?$CLinkedNode@PEAVCActor@@@container@wylib@@XZ 00000001400b0320 f i EntityManager.obj
 0001:000af3f0       ?freeNode@?$CList@PEAVCActor@@@@UEAAXPEAV?$CLinkedNode@PEAVCActor@@@container@wylib@@@Z 00000001400b03f0 f i EntityManager.obj
 0001:000af460       ??0?$HandleMgr@VCActor@@V?$Handle@I@@$0EA@@@QEAA@PEBD@Z 00000001400b0460 f i EntityManager.obj
 0001:000af530       ?Acquire@?$HandleMgr@VCActor@@V?$Handle@I@@$0EA@@@QEAAPEAVCActor@@AEAV?$Handle@I@@@Z 00000001400b0530 f i EntityManager.obj
 0001:000afe30       ?Release@?$HandleMgr@VCActor@@V?$Handle@I@@$0EA@@@QEAAXV?$Handle@I@@@Z 00000001400b0e30 f i EntityManager.obj
 0001:000b00f0       ?GetDataPtr@?$HandleMgr@VCActor@@V?$Handle@I@@$0EA@@@QEAAPEAVCActor@@V?$Handle@I@@@Z 00000001400b10f0 f i EntityManager.obj
 0001:000b0290       ?First@?$HandleMgr@VCActor@@V?$Handle@I@@$0EA@@@QEAAPEAVCActor@@AEAV?$Handle@I@@@Z 00000001400b1290 f i EntityManager.obj
 0001:000b0450       ?Next@?$HandleMgr@VCActor@@V?$Handle@I@@$0EA@@@QEAAPEAVCActor@@AEAV?$Handle@I@@@Z 00000001400b1450 f i EntityManager.obj
 0001:000b06d0       ?Empty@?$HandleMgr@VCActor@@V?$Handle@I@@$0EA@@@QEAAXXZ 00000001400b16d0 f i EntityManager.obj
 0001:000b09d0       ??0?$CList@PEAVCDropItemEntity@@@@QEAA@PEAVCBufferAllocator@@@Z 00000001400b19d0 f i EntityManager.obj
 0001:000b0a80       ??1?$CList@PEAVCDropItemEntity@@@@UEAA@XZ 00000001400b1a80 f i EntityManager.obj
 0001:000b0ae0       ?allocNode@?$CList@PEAVCDropItemEntity@@@@UEAAPEAV?$CLinkedNode@PEAVCDropItemEntity@@@container@wylib@@XZ 00000001400b1ae0 f i EntityManager.obj
 0001:000b0bb0       ?freeNode@?$CList@PEAVCDropItemEntity@@@@UEAAXPEAV?$CLinkedNode@PEAVCDropItemEntity@@@container@wylib@@@Z 00000001400b1bb0 f i EntityManager.obj
 0001:000b0c20       ??0?$HandleMgr@VCDropItemEntity@@V?$Handle@I@@$0IA@@@QEAA@PEBD@Z 00000001400b1c20 f i EntityManager.obj
 0001:000b0cf0       ?Acquire@?$HandleMgr@VCDropItemEntity@@V?$Handle@I@@$0IA@@@QEAAPEAVCDropItemEntity@@AEAV?$Handle@I@@@Z 00000001400b1cf0 f i EntityManager.obj
 0001:000b15f0       ?Release@?$HandleMgr@VCDropItemEntity@@V?$Handle@I@@$0IA@@@QEAAXV?$Handle@I@@@Z 00000001400b25f0 f i EntityManager.obj
 0001:000b18b0       ?GetDataPtr@?$HandleMgr@VCDropItemEntity@@V?$Handle@I@@$0IA@@@QEAAPEAVCDropItemEntity@@V?$Handle@I@@@Z 00000001400b28b0 f i EntityManager.obj
 0001:000b1a50       ?Empty@?$HandleMgr@VCDropItemEntity@@V?$Handle@I@@$0IA@@@QEAAXXZ 00000001400b2a50 f i EntityManager.obj
 0001:000b1d50       ??0?$CList@PEAVCTransfer@@@@QEAA@PEAVCBufferAllocator@@@Z 00000001400b2d50 f i EntityManager.obj
 0001:000b1e00       ??1?$CList@PEAVCTransfer@@@@UEAA@XZ 00000001400b2e00 f i EntityManager.obj
 0001:000b1e60       ?getOffsetPtr@CDataPacketReader@@QEAAPEADXZ 00000001400b2e60 f i EntityManager.obj
 0001:000b1e80       ?allocNode@?$CList@PEAVCTransfer@@@@UEAAPEAV?$CLinkedNode@PEAVCTransfer@@@container@wylib@@XZ 00000001400b2e80 f i EntityManager.obj
 0001:000b1f50       ?freeNode@?$CList@PEAVCTransfer@@@@UEAAXPEAV?$CLinkedNode@PEAVCTransfer@@@container@wylib@@@Z 00000001400b2f50 f i EntityManager.obj
 0001:000b1fc0       ??0?$HandleMgr@VCTransfer@@V?$Handle@I@@$0EA@@@QEAA@PEBD@Z 00000001400b2fc0 f i EntityManager.obj
 0001:000b2090       ?Acquire@?$HandleMgr@VCTransfer@@V?$Handle@I@@$0EA@@@QEAAPEAVCTransfer@@AEAV?$Handle@I@@@Z 00000001400b3090 f i EntityManager.obj
 0001:000b2990       ?setPosition@CDataPacket@@QEAA_K_K@Z 00000001400b3990 f i EntityManager.obj
 0001:000b2a60       ?adjustOffset@CDataPacket@@QEAA_K_J@Z 00000001400b3a60 f i EntityManager.obj
 0001:000b2b70       ?Release@?$HandleMgr@VCTransfer@@V?$Handle@I@@$0EA@@@QEAAXV?$Handle@I@@@Z 00000001400b3b70 f i EntityManager.obj
 0001:000b2e30       ?GetDataPtr@?$HandleMgr@VCTransfer@@V?$Handle@I@@$0EA@@@QEAAPEAVCTransfer@@V?$Handle@I@@@Z 00000001400b3e30 f i EntityManager.obj
 0001:000b2fd0       ?Empty@?$HandleMgr@VCTransfer@@V?$Handle@I@@$0EA@@@QEAAXXZ 00000001400b3fd0 f i EntityManager.obj
 0001:000b32d0       ??0?$CList@PEAVCFire@@@@QEAA@PEAVCBufferAllocator@@@Z 00000001400b42d0 f i EntityManager.obj
 0001:000b3380       ??1?$CList@PEAVCFire@@@@UEAA@XZ 00000001400b4380 f i EntityManager.obj
 0001:000b33e0       ?allocNode@?$CList@PEAVCFire@@@@UEAAPEAV?$CLinkedNode@PEAVCFire@@@container@wylib@@XZ 00000001400b43e0 f i EntityManager.obj
 0001:000b34b0       ?freeNode@?$CList@PEAVCFire@@@@UEAAXPEAV?$CLinkedNode@PEAVCFire@@@container@wylib@@@Z 00000001400b44b0 f i EntityManager.obj
 0001:000b3520       ??0?$HandleMgr@VCFire@@V?$Handle@I@@$0CAA@@@QEAA@PEBD@Z 00000001400b4520 f i EntityManager.obj
 0001:000b35f0       ?Acquire@?$HandleMgr@VCFire@@V?$Handle@I@@$0CAA@@@QEAAPEAVCFire@@AEAV?$Handle@I@@@Z 00000001400b45f0 f i EntityManager.obj
 0001:000b3ef0       ?flushSendPacket@CSendPacketPool@@QEAAXAEAVCDataPacket@@@Z 00000001400b4ef0 f i EntityManager.obj
 0001:000b3fe0       ?Release@?$HandleMgr@VCFire@@V?$Handle@I@@$0CAA@@@QEAAXV?$Handle@I@@@Z 00000001400b4fe0 f i EntityManager.obj
 0001:000b42a0       ?getLastErrorDesc@CCustomLuaScript@@QEBAAEBV?$CTRefString@VCAnsiString@string@wylib@@D@string@wylib@@XZ 00000001400b52a0 f i EntityManager.obj
 0001:000b42c0       ?GetDataPtr@?$HandleMgr@VCFire@@V?$Handle@I@@$0CAA@@@QEAAPEAVCFire@@V?$Handle@I@@@Z 00000001400b52c0 f i EntityManager.obj
 0001:000b4460       ?Empty@?$HandleMgr@VCFire@@V?$Handle@I@@$0CAA@@@QEAAXXZ 00000001400b5460 f i EntityManager.obj
 0001:000b4760       ??0?$CList@PEAVCLandscape@@@@QEAA@PEAVCBufferAllocator@@@Z 00000001400b5760 f i EntityManager.obj
 0001:000b4810       ??1?$CList@PEAVCLandscape@@@@UEAA@XZ 00000001400b5810 f i EntityManager.obj
 0001:000b4870       ?allocNode@?$CList@PEAVCLandscape@@@@UEAAPEAV?$CLinkedNode@PEAVCLandscape@@@container@wylib@@XZ 00000001400b5870 f i EntityManager.obj
 0001:000b4940       ?freeNode@?$CList@PEAVCLandscape@@@@UEAAXPEAV?$CLinkedNode@PEAVCLandscape@@@container@wylib@@@Z 00000001400b5940 f i EntityManager.obj
 0001:000b49b0       ??0?$HandleMgr@VCLandscape@@V?$Handle@I@@$0EA@@@QEAA@PEBD@Z 00000001400b59b0 f i EntityManager.obj
 0001:000b4a80       ?Acquire@?$HandleMgr@VCLandscape@@V?$Handle@I@@$0EA@@@QEAAPEAVCLandscape@@AEAV?$Handle@I@@@Z 00000001400b5a80 f i EntityManager.obj
 0001:000b5380       ?Release@?$HandleMgr@VCLandscape@@V?$Handle@I@@$0EA@@@QEAAXV?$Handle@I@@@Z 00000001400b6380 f i EntityManager.obj
 0001:000b5640       ?GetDataPtr@?$HandleMgr@VCLandscape@@V?$Handle@I@@$0EA@@@QEAAPEAVCLandscape@@V?$Handle@I@@@Z 00000001400b6640 f i EntityManager.obj
 0001:000b57e0       ?Empty@?$HandleMgr@VCLandscape@@V?$Handle@I@@$0EA@@@QEAAXXZ 00000001400b67e0 f i EntityManager.obj
 0001:000b5ae0       ??0?$CList@PEAVCHero@@@@QEAA@PEAVCBufferAllocator@@@Z 00000001400b6ae0 f i EntityManager.obj
 0001:000b5b90       ??1?$CList@PEAVCHero@@@@UEAA@XZ 00000001400b6b90 f i EntityManager.obj
 0001:000b5bf0       ?allocNode@?$CList@PEAVCHero@@@@UEAAPEAV?$CLinkedNode@PEAVCHero@@@container@wylib@@XZ 00000001400b6bf0 f i EntityManager.obj
 0001:000b5cc0       ?freeNode@?$CList@PEAVCHero@@@@UEAAXPEAV?$CLinkedNode@PEAVCHero@@@container@wylib@@@Z 00000001400b6cc0 f i EntityManager.obj
 0001:000b5d30       ??0?$HandleMgr@VCHero@@V?$Handle@I@@$0EA@@@QEAA@PEBD@Z 00000001400b6d30 f i EntityManager.obj
 0001:000b5e00       ?Acquire@?$HandleMgr@VCHero@@V?$Handle@I@@$0EA@@@QEAAPEAVCHero@@AEAV?$Handle@I@@@Z 00000001400b6e00 f i EntityManager.obj
 0001:000b6700       ?Release@?$HandleMgr@VCHero@@V?$Handle@I@@$0EA@@@QEAAXV?$Handle@I@@@Z 00000001400b7700 f i EntityManager.obj
 0001:000b69c0       ?GetDataPtr@?$HandleMgr@VCHero@@V?$Handle@I@@$0EA@@@QEAAPEAVCHero@@V?$Handle@I@@@Z 00000001400b79c0 f i EntityManager.obj
 0001:000b6b60       ?Empty@?$HandleMgr@VCHero@@V?$Handle@I@@$0EA@@@QEAAXXZ 00000001400b7b60 f i EntityManager.obj
 0001:000b6e60       ??0?$CList@PEAVCMonster@@@@QEAA@PEAVCBufferAllocator@@@Z 00000001400b7e60 f i EntityManager.obj
 0001:000b6f10       ??1?$CList@PEAVCMonster@@@@UEAA@XZ 00000001400b7f10 f i EntityManager.obj
 0001:000b6f70       ?allocNode@?$CList@PEAVCMonster@@@@UEAAPEAV?$CLinkedNode@PEAVCMonster@@@container@wylib@@XZ 00000001400b7f70 f i EntityManager.obj
 0001:000b7040       ?freeNode@?$CList@PEAVCMonster@@@@UEAAXPEAV?$CLinkedNode@PEAVCMonster@@@container@wylib@@@Z 00000001400b8040 f i EntityManager.obj
 0001:000b70b0       ??0?$HandleMgr@VCMonster@@V?$Handle@I@@$0EAA@@@QEAA@PEBD@Z 00000001400b80b0 f i EntityManager.obj
 0001:000b7180       ?Acquire@?$HandleMgr@VCMonster@@V?$Handle@I@@$0EAA@@@QEAAPEAVCMonster@@AEAV?$Handle@I@@@Z 00000001400b8180 f i EntityManager.obj
 0001:000b7a80       ?Release@?$HandleMgr@VCMonster@@V?$Handle@I@@$0EAA@@@QEAAXV?$Handle@I@@@Z 00000001400b8a80 f i EntityManager.obj
 0001:000b7d40       ?ReNew@?$HandleMgr@VCMonster@@V?$Handle@I@@$0EAA@@@QEAA_NAEAV?$Handle@I@@@Z 00000001400b8d40 f i EntityManager.obj
 0001:000b7ef0       ?GetDataPtr@?$HandleMgr@VCMonster@@V?$Handle@I@@$0EAA@@@QEAAPEAVCMonster@@V?$Handle@I@@@Z 00000001400b8ef0 f i EntityManager.obj
 0001:000b8090       ?Empty@?$HandleMgr@VCMonster@@V?$Handle@I@@$0EAA@@@QEAAXXZ 00000001400b9090 f i EntityManager.obj
 0001:000b8390       ??0?$CList@PEAVCNpc@@@@QEAA@PEAVCBufferAllocator@@@Z 00000001400b9390 f i EntityManager.obj
 0001:000b8440       ??1?$CList@PEAVCNpc@@@@UEAA@XZ 00000001400b9440 f i EntityManager.obj
 0001:000b84a0       ?allocNode@?$CList@PEAVCNpc@@@@UEAAPEAV?$CLinkedNode@PEAVCNpc@@@container@wylib@@XZ 00000001400b94a0 f i EntityManager.obj
 0001:000b8570       ?freeNode@?$CList@PEAVCNpc@@@@UEAAXPEAV?$CLinkedNode@PEAVCNpc@@@container@wylib@@@Z 00000001400b9570 f i EntityManager.obj
 0001:000b85e0       ??0?$HandleMgr@VCNpc@@V?$Handle@I@@$0EA@@@QEAA@PEBD@Z 00000001400b95e0 f i EntityManager.obj
 0001:000b86b0       ?Acquire@?$HandleMgr@VCNpc@@V?$Handle@I@@$0EA@@@QEAAPEAVCNpc@@AEAV?$Handle@I@@@Z 00000001400b96b0 f i EntityManager.obj
 0001:000b8fb0       ?Release@?$HandleMgr@VCNpc@@V?$Handle@I@@$0EA@@@QEAAXV?$Handle@I@@@Z 00000001400b9fb0 f i EntityManager.obj
 0001:000b9270       ?GetDataPtr@?$HandleMgr@VCNpc@@V?$Handle@I@@$0EA@@@QEAAPEAVCNpc@@V?$Handle@I@@@Z 00000001400ba270 f i EntityManager.obj
 0001:000b9410       ?Empty@?$HandleMgr@VCNpc@@V?$Handle@I@@$0EA@@@QEAAXXZ 00000001400ba410 f i EntityManager.obj
 0001:000b9710       ??0?$CList@PEAVCPet@@@@QEAA@PEAVCBufferAllocator@@@Z 00000001400ba710 f i EntityManager.obj
 0001:000b97c0       ??1?$CList@PEAVCPet@@@@UEAA@XZ 00000001400ba7c0 f i EntityManager.obj
 0001:000b9820       ?allocNode@?$CList@PEAVCPet@@@@UEAAPEAV?$CLinkedNode@PEAVCPet@@@container@wylib@@XZ 00000001400ba820 f i EntityManager.obj
 0001:000b98f0       ?freeNode@?$CList@PEAVCPet@@@@UEAAXPEAV?$CLinkedNode@PEAVCPet@@@container@wylib@@@Z 00000001400ba8f0 f i EntityManager.obj
 0001:000b9960       ??0?$HandleMgr@VCPet@@V?$Handle@I@@$0IA@@@QEAA@PEBD@Z 00000001400ba960 f i EntityManager.obj
 0001:000b9a30       ?init@EntityHandle@@QEAAXII@Z 00000001400baa30 f i EntityManager.obj
 0001:000b9ac0       ?GetIndex@EntityHandle@@QEBAIXZ 00000001400baac0 f i EntityManager.obj
 0001:000b9ae0       ?Acquire@?$HandleMgr@VCPet@@V?$Handle@I@@$0IA@@@QEAAPEAVCPet@@AEAV?$Handle@I@@@Z 00000001400baae0 f i EntityManager.obj
 0001:000ba3e0       ?Release@?$HandleMgr@VCPet@@V?$Handle@I@@$0IA@@@QEAAXV?$Handle@I@@@Z 00000001400bb3e0 f i EntityManager.obj
 0001:000ba6a0       ?GetDataPtr@?$HandleMgr@VCPet@@V?$Handle@I@@$0IA@@@QEAAPEAVCPet@@V?$Handle@I@@@Z 00000001400bb6a0 f i EntityManager.obj
 0001:000ba840       ?Empty@?$HandleMgr@VCPet@@V?$Handle@I@@$0IA@@@QEAAXXZ 00000001400bb840 f i EntityManager.obj
 0001:000bab40       ??$?5UAMOPData@CAMClient@@@CDataPacketReader@@QEAAAEAV0@AEAUAMOPData@CAMClient@@@Z 00000001400bbb40 f i EntityManager.obj
 0001:000bac20       ??$?6PEAVCDataPacketReader@@@CScriptValueList@@QEAAAEAV0@QEAVCDataPacketReader@@@Z 00000001400bbc20 f i EntityManager.obj
 0001:000bacc0       ??$make_pair@AEAHH@std@@YA?AU?$pair@HH@0@AEAH$$QEAH@Z 00000001400bbcc0 f i EntityManager.obj
 0001:000bad40       ??$insert@U?$pair@HH@std@@@?$_Tree@V?$_Tmap_traits@HHU?$less@H@std@@V?$allocator@U?$pair@$$CBHH@std@@@2@$0A@@std@@@std@@QEAA?AU?$pair@V?$_Tree_iterator@V?$_Tree_val@V?$_Tmap_traits@HHU?$less@H@std@@V?$allocator@U?$pair@$$CBHH@std@@@2@$0A@@std@@@std@@@std@@_N@1@$$QEAU?$pair@HH@1@@Z 00000001400bbd40 f i EntityManager.obj
 0001:000badc0       ??$addressof@U?$pair@$$CBHH@std@@@std@@YAPEAU?$pair@$$CBHH@0@AEAU10@@Z 00000001400bbdc0 f i EntityManager.obj
 0001:000badd0       ??$_Dest_val@V?$allocator@U?$pair@$$CBHH@std@@@std@@U?$pair@$$CBHH@2@@std@@YAXAEAV?$allocator@U?$pair@$$CBHH@std@@@0@PEAU?$pair@$$CBHH@0@@Z 00000001400bbdd0 f i EntityManager.obj
 0001:000bae20       ??$_Kfn@$$CBHH@?$_Tmap_traits@HHU?$less@H@std@@V?$allocator@U?$pair@$$CBHH@std@@@2@$0A@@std@@SAAEBHAEBU?$pair@$$CBHH@1@@Z 00000001400bbe20 f i EntityManager.obj
 0001:000bae30       ??$?0U_Node@?$_Tree_nod@V?$_Tmap_traits@HVEntityHandle@@U?$less@H@std@@V?$allocator@U?$pair@$$CBHVEntityHandle@@@std@@@3@$0A@@std@@@std@@@?$allocator@U_Container_proxy@std@@@std@@QEAA@AEBV?$allocator@U_Node@?$_Tree_nod@V?$_Tmap_traits@HVEntityHandle@@U?$less@H@std@@V?$allocator@U?$pair@$$CBHVEntityHandle@@@std@@@3@$0A@@std@@@std@@@1@@Z 00000001400bbe30 f i EntityManager.obj
 0001:000bae50       ??$?0U_Node@?$_Tree_nod@V?$_Tmap_traits@PEBDVEntityHandle@@VStringComp@@V?$allocator@U?$pair@QEBDVEntityHandle@@@std@@@std@@$0A@@std@@@std@@@?$allocator@U_Container_proxy@std@@@std@@QEAA@AEBV?$allocator@U_Node@?$_Tree_nod@V?$_Tmap_traits@PEBDVEntityHandle@@VStringComp@@V?$allocator@U?$pair@QEBDVEntityHandle@@@std@@@std@@$0A@@std@@@std@@@1@@Z 00000001400bbe50 f i EntityManager.obj
 0001:000bae70       ??$?0U_Node@?$_Tree_nod@V?$_Tmap_traits@HHU?$less@H@std@@V?$allocator@U?$pair@$$CBHH@std@@@2@$0A@@std@@@std@@@?$allocator@U_Container_proxy@std@@@std@@QEAA@AEBV?$allocator@U_Node@?$_Tree_nod@V?$_Tmap_traits@HHU?$less@H@std@@V?$allocator@U?$pair@$$CBHH@std@@@2@$0A@@std@@@std@@@1@@Z 00000001400bbe70 f i EntityManager.obj
 0001:000bae90       ??$?0U?$pair@$$CBHVEntityHandle@@@std@@@?$allocator@U_Node@?$_Tree_nod@V?$_Tmap_traits@HVEntityHandle@@U?$less@H@std@@V?$allocator@U?$pair@$$CBHVEntityHandle@@@std@@@3@$0A@@std@@@std@@@std@@QEAA@AEBV?$allocator@U?$pair@$$CBHVEntityHandle@@@std@@@1@@Z 00000001400bbe90 f i EntityManager.obj
 0001:000baeb0       ??$addressof@U?$pair@QEBDVEntityHandle@@@std@@@std@@YAPEAU?$pair@QEBDVEntityHandle@@@0@AEAU10@@Z 00000001400bbeb0 f i EntityManager.obj
 0001:000baec0       ??$_Dest_val@V?$allocator@U?$pair@QEBDVEntityHandle@@@std@@@std@@U?$pair@QEBDVEntityHandle@@@2@@std@@YAXAEAV?$allocator@U?$pair@QEBDVEntityHandle@@@std@@@0@PEAU?$pair@QEBDVEntityHandle@@@0@@Z 00000001400bbec0 f i EntityManager.obj
 0001:000baf10       ??$?0U?$pair@QEBDVEntityHandle@@@std@@@?$allocator@U_Node@?$_Tree_nod@V?$_Tmap_traits@PEBDVEntityHandle@@VStringComp@@V?$allocator@U?$pair@QEBDVEntityHandle@@@std@@@std@@$0A@@std@@@std@@@std@@QEAA@AEBV?$allocator@U?$pair@QEBDVEntityHandle@@@std@@@1@@Z 00000001400bbf10 f i EntityManager.obj
 0001:000baf30       ??$_Allocate@U_Node@?$_Tree_nod@V?$_Tmap_traits@PEBDVEntityHandle@@VStringComp@@V?$allocator@U?$pair@QEBDVEntityHandle@@@std@@@std@@$0A@@std@@@std@@@std@@YAPEAU_Node@?$_Tree_nod@V?$_Tmap_traits@PEBDVEntityHandle@@VStringComp@@V?$allocator@U?$pair@QEBDVEntityHandle@@@std@@@std@@$0A@@std@@@0@_KPEAU120@@Z 00000001400bbf30 f i EntityManager.obj
 0001:000baff0       ??$?0U?$pair@$$CBHH@std@@@?$allocator@U_Node@?$_Tree_nod@V?$_Tmap_traits@HHU?$less@H@std@@V?$allocator@U?$pair@$$CBHH@std@@@2@$0A@@std@@@std@@@std@@QEAA@AEBV?$allocator@U?$pair@$$CBHH@std@@@1@@Z 00000001400bbff0 f i EntityManager.obj
 0001:000bb010       ??$_Allocate@U_Node@?$_Tree_nod@V?$_Tmap_traits@HHU?$less@H@std@@V?$allocator@U?$pair@$$CBHH@std@@@2@$0A@@std@@@std@@@std@@YAPEAU_Node@?$_Tree_nod@V?$_Tmap_traits@HHU?$less@H@std@@V?$allocator@U?$pair@$$CBHH@std@@@2@$0A@@std@@@0@_KPEAU120@@Z 00000001400bc010 f i EntityManager.obj
 0001:000bb0d0       ??_GScriptCallbackParam@@QEAAPEAXI@Z 00000001400bc0d0 f i EntityManager.obj
 0001:000bb130       ??_G?$CVector@VEntityHandle@@@@UEAAPEAXI@Z 00000001400bc130 f i EntityManager.obj
 0001:000bb130       ??_E?$CVector@VEntityHandle@@@@UEAAPEAXI@Z 00000001400bc130 f i EntityManager.obj
 0001:000bb190       ??_G?$CList@PEAVCActor@@@@UEAAPEAXI@Z 00000001400bc190 f i EntityManager.obj
 0001:000bb190       ??_E?$CList@PEAVCActor@@@@UEAAPEAXI@Z 00000001400bc190 f i EntityManager.obj
 0001:000bb1f0       ??_GCActor@@QEAAPEAXI@Z    00000001400bc1f0 f i EntityManager.obj
 0001:000bb250       ??_E?$CList@PEAVCDropItemEntity@@@@UEAAPEAXI@Z 00000001400bc250 f i EntityManager.obj
 0001:000bb250       ??_G?$CList@PEAVCDropItemEntity@@@@UEAAPEAXI@Z 00000001400bc250 f i EntityManager.obj
 0001:000bb2b0       ??0CDropItemEntity@@QEAA@XZ 00000001400bc2b0 f i EntityManager.obj
 0001:000bb320       ??_GCDropItemEntity@@QEAAPEAXI@Z 00000001400bc320 f i EntityManager.obj
 0001:000bb380       ??_G?$CList@PEAVCTransfer@@@@UEAAPEAXI@Z 00000001400bc380 f i EntityManager.obj
 0001:000bb380       ??_E?$CList@PEAVCTransfer@@@@UEAAPEAXI@Z 00000001400bc380 f i EntityManager.obj
 0001:000bb3e0       ??0CTransfer@@QEAA@XZ      00000001400bc3e0 f i EntityManager.obj
 0001:000bb450       ??_GCTransfer@@QEAAPEAXI@Z 00000001400bc450 f i EntityManager.obj
 0001:000bb4b0       ??_E?$CList@PEAVCFire@@@@UEAAPEAXI@Z 00000001400bc4b0 f i EntityManager.obj
 0001:000bb4b0       ??_G?$CList@PEAVCFire@@@@UEAAPEAXI@Z 00000001400bc4b0 f i EntityManager.obj
 0001:000bb510       ??0CFire@@QEAA@XZ          00000001400bc510 f i EntityManager.obj
 0001:000bb5b0       ??_GCFire@@QEAAPEAXI@Z     00000001400bc5b0 f i EntityManager.obj
 0001:000bb610       ??_E?$CList@PEAVCLandscape@@@@UEAAPEAXI@Z 00000001400bc610 f i EntityManager.obj
 0001:000bb610       ??_G?$CList@PEAVCLandscape@@@@UEAAPEAXI@Z 00000001400bc610 f i EntityManager.obj
 0001:000bb670       ??0CLandscape@@QEAA@XZ     00000001400bc670 f i EntityManager.obj
 0001:000bb6e0       ??_GCLandscape@@QEAAPEAXI@Z 00000001400bc6e0 f i EntityManager.obj
 0001:000bb740       ??_G?$CList@PEAVCHero@@@@UEAAPEAXI@Z 00000001400bc740 f i EntityManager.obj
 0001:000bb740       ??_E?$CList@PEAVCHero@@@@UEAAPEAXI@Z 00000001400bc740 f i EntityManager.obj
 0001:000bb7a0       ??_GCHero@@QEAAPEAXI@Z     00000001400bc7a0 f i EntityManager.obj
 0001:000bb800       ??_E?$CList@PEAVCMonster@@@@UEAAPEAXI@Z 00000001400bc800 f i EntityManager.obj
 0001:000bb800       ??_G?$CList@PEAVCMonster@@@@UEAAPEAXI@Z 00000001400bc800 f i EntityManager.obj
 0001:000bb860       ??0CMonster@@QEAA@XZ       00000001400bc860 f i EntityManager.obj
 0001:000bb990       ??_GCMonster@@QEAAPEAXI@Z  00000001400bc990 f i EntityManager.obj
 0001:000bb9f0       ??_G?$CList@PEAVCNpc@@@@UEAAPEAXI@Z 00000001400bc9f0 f i EntityManager.obj
 0001:000bb9f0       ??_E?$CList@PEAVCNpc@@@@UEAAPEAXI@Z 00000001400bc9f0 f i EntityManager.obj
 0001:000bba50       ??_GCNpc@@QEAAPEAXI@Z      00000001400bca50 f i EntityManager.obj
 0001:000bbab0       ??_E?$CList@PEAVCPet@@@@UEAAPEAXI@Z 00000001400bcab0 f i EntityManager.obj
 0001:000bbab0       ??_G?$CList@PEAVCPet@@@@UEAAPEAXI@Z 00000001400bcab0 f i EntityManager.obj
 0001:000bbb10       ??_GCPet@@QEAAPEAXI@Z      00000001400bcb10 f i EntityManager.obj
 0001:000bbb70       ??1ScriptCallbackParam@@QEAA@XZ 00000001400bcb70 f i EntityManager.obj
 0001:000bbbd0       ??1CActor@@QEAA@XZ         00000001400bcbd0 f i EntityManager.obj
 0001:000bc130       ??1CDropItemEntity@@QEAA@XZ 00000001400bd130 f i EntityManager.obj
 0001:000bc170       ??0CNolive@@QEAA@XZ        00000001400bd170 f i EntityManager.obj
 0001:000bc1d0       ??1CTransfer@@QEAA@XZ      00000001400bd1d0 f i EntityManager.obj
 0001:000bc210       ??1CNolive@@QEAA@XZ        00000001400bd210 f i EntityManager.obj
 0001:000bc250       ??1CFire@@QEAA@XZ          00000001400bd250 f i EntityManager.obj
 0001:000bc2b0       ??1CLandscape@@QEAA@XZ     00000001400bd2b0 f i EntityManager.obj
 0001:000bc2f0       ??1CHero@@QEAA@XZ          00000001400bd2f0 f i EntityManager.obj
 0001:000bc330       ??1CMonster@@QEAA@XZ       00000001400bd330 f i EntityManager.obj
 0001:000bc3e0       ??0CMonsterProperty@@QEAA@XZ 00000001400bd3e0 f i EntityManager.obj
 0001:000bc440       ??0CPropertySet@@QEAA@XZ   00000001400bd440 f i EntityManager.obj
 0001:000bc480       ??0CUpdateMask@@QEAA@XZ    00000001400bd480 f i EntityManager.obj
 0001:000bc4c0       ?ClearUpdateMask@CUpdateMask@@QEAAXXZ 00000001400bd4c0 f i EntityManager.obj
 0001:000bc520       ??1CNpc@@QEAA@XZ           00000001400bd520 f i EntityManager.obj
 0001:000bc580       ??1CPet@@QEAA@XZ           00000001400bd580 f i EntityManager.obj
 0001:000bc5c0       ??0CDropItemProperty@@QEAA@XZ 00000001400bd5c0 f i EntityManager.obj
 0001:000bc620       ??0CTransferProperty@@QEAA@XZ 00000001400bd620 f i EntityManager.obj
 0001:000bc680       ?updateMagic@?$Handle@I@@QEAAXXZ 00000001400bd680 f i EntityManager.obj
 0001:000bc720       ??0CFireProperty@@QEAA@XZ  00000001400bd720 f i EntityManager.obj
 0001:000bc780       ??0CLandscapeProperty@@QEAA@XZ 00000001400bd780 f i EntityManager.obj
 0001:000bc7e0       ??0?$CBaseLinkedList@PEAVCActor@@@container@wylib@@QEAA@XZ 00000001400bd7e0 f i EntityManager.obj
 0001:000bc850       ?GetUsedHandleCount@?$HandleMgr@VCActor@@V?$Handle@I@@$0EA@@@QEBAIXZ 00000001400bd850 f i EntityManager.obj
 0001:000bc870       ?GetTotalHandleCount@?$HandleMgr@VCActor@@V?$Handle@I@@$0EA@@@QEAAIXZ 00000001400bd870 f i EntityManager.obj
 0001:000bc8c0       ?GetChunkIdPos@?$HandleMgr@VCActor@@V?$Handle@I@@$0EA@@@QEAAXIAEAI0@Z 00000001400bd8c0 f i EntityManager.obj
 0001:000bc910       ??0?$CBaseList@V?$CBaseList@VCActor@@@container@wylib@@@container@wylib@@QEAA@XZ 00000001400bd910 f i EntityManager.obj
 0001:000bc970       ?count@?$CBaseList@V?$CBaseList@VCActor@@@container@wylib@@@container@wylib@@QEBA_JXZ 00000001400bd970 f i EntityManager.obj
 0001:000bc990       ?addArray@?$CBaseList@V?$CBaseList@VCActor@@@container@wylib@@@container@wylib@@QEAAXPEAV?$CBaseList@VCActor@@@23@_J@Z 00000001400bd990 f i EntityManager.obj
 0001:000bca80       ??B?$CBaseList@V?$CBaseList@VCActor@@@container@wylib@@@container@wylib@@QEBAPEAV?$CBaseList@VCActor@@@12@XZ 00000001400bda80 f i EntityManager.obj
 0001:000bcaa0       ??0?$CBaseLinkedList@PEAVCMonster@@@container@wylib@@QEAA@XZ 00000001400bdaa0 f i EntityManager.obj
 0001:000bcb10       ?GetUsedHandleCount@?$HandleMgr@VCMonster@@V?$Handle@I@@$0EAA@@@QEBAIXZ 00000001400bdb10 f i EntityManager.obj
 0001:000bcb30       ?GetTotalHandleCount@?$HandleMgr@VCMonster@@V?$Handle@I@@$0EAA@@@QEAAIXZ 00000001400bdb30 f i EntityManager.obj
 0001:000bcb80       ?GetChunkIdPos@?$HandleMgr@VCMonster@@V?$Handle@I@@$0EAA@@@QEAAXIAEAI0@Z 00000001400bdb80 f i EntityManager.obj
 0001:000bcbd0       ??0?$CBaseList@V?$CBaseList@VCMonster@@@container@wylib@@@container@wylib@@QEAA@XZ 00000001400bdbd0 f i EntityManager.obj
 0001:000bcc30       ?count@?$CBaseList@V?$CBaseList@VCMonster@@@container@wylib@@@container@wylib@@QEBA_JXZ 00000001400bdc30 f i EntityManager.obj
 0001:000bcc50       ?addArray@?$CBaseList@V?$CBaseList@VCMonster@@@container@wylib@@@container@wylib@@QEAAXPEAV?$CBaseList@VCMonster@@@23@_J@Z 00000001400bdc50 f i EntityManager.obj
 0001:000bcd40       ??B?$CBaseList@V?$CBaseList@VCMonster@@@container@wylib@@@container@wylib@@QEBAPEAV?$CBaseList@VCMonster@@@12@XZ 00000001400bdd40 f i EntityManager.obj
 0001:000bcd60       ??0?$CBaseLinkedList@PEAVCNpc@@@container@wylib@@QEAA@XZ 00000001400bdd60 f i EntityManager.obj
 0001:000bcdd0       ?GetUsedHandleCount@?$HandleMgr@VCNpc@@V?$Handle@I@@$0EA@@@QEBAIXZ 00000001400bddd0 f i EntityManager.obj
 0001:000bcdf0       ?GetTotalHandleCount@?$HandleMgr@VCNpc@@V?$Handle@I@@$0EA@@@QEAAIXZ 00000001400bddf0 f i EntityManager.obj
 0001:000bce40       ?GetChunkIdPos@?$HandleMgr@VCNpc@@V?$Handle@I@@$0EA@@@QEAAXIAEAI0@Z 00000001400bde40 f i EntityManager.obj
 0001:000bce90       ??0?$CBaseList@V?$CBaseList@VCNpc@@@container@wylib@@@container@wylib@@QEAA@XZ 00000001400bde90 f i EntityManager.obj
 0001:000bcef0       ?count@?$CBaseList@V?$CBaseList@VCNpc@@@container@wylib@@@container@wylib@@QEBA_JXZ 00000001400bdef0 f i EntityManager.obj
 0001:000bcf10       ?addArray@?$CBaseList@V?$CBaseList@VCNpc@@@container@wylib@@@container@wylib@@QEAAXPEAV?$CBaseList@VCNpc@@@23@_J@Z 00000001400bdf10 f i EntityManager.obj
 0001:000bd000       ??B?$CBaseList@V?$CBaseList@VCNpc@@@container@wylib@@@container@wylib@@QEBAPEAV?$CBaseList@VCNpc@@@12@XZ 00000001400be000 f i EntityManager.obj
 0001:000bd020       ??0?$CBaseLinkedList@PEAVCDropItemEntity@@@container@wylib@@QEAA@XZ 00000001400be020 f i EntityManager.obj
 0001:000bd090       ?GetUsedHandleCount@?$HandleMgr@VCDropItemEntity@@V?$Handle@I@@$0IA@@@QEBAIXZ 00000001400be090 f i EntityManager.obj
 0001:000bd0b0       ?GetTotalHandleCount@?$HandleMgr@VCDropItemEntity@@V?$Handle@I@@$0IA@@@QEAAIXZ 00000001400be0b0 f i EntityManager.obj
 0001:000bd100       ?GetChunkIdPos@?$HandleMgr@VCDropItemEntity@@V?$Handle@I@@$0IA@@@QEAAXIAEAI0@Z 00000001400be100 f i EntityManager.obj
 0001:000bd150       ??0?$CBaseList@V?$CBaseList@VCDropItemEntity@@@container@wylib@@@container@wylib@@QEAA@XZ 00000001400be150 f i EntityManager.obj
 0001:000bd1b0       ?count@?$CBaseList@V?$CBaseList@VCDropItemEntity@@@container@wylib@@@container@wylib@@QEBA_JXZ 00000001400be1b0 f i EntityManager.obj
 0001:000bd1d0       ?addArray@?$CBaseList@V?$CBaseList@VCDropItemEntity@@@container@wylib@@@container@wylib@@QEAAXPEAV?$CBaseList@VCDropItemEntity@@@23@_J@Z 00000001400be1d0 f i EntityManager.obj
 0001:000bd2c0       ??B?$CBaseList@V?$CBaseList@VCDropItemEntity@@@container@wylib@@@container@wylib@@QEBAPEAV?$CBaseList@VCDropItemEntity@@@12@XZ 00000001400be2c0 f i EntityManager.obj
 0001:000bd2e0       ??0?$CBaseLinkedList@PEAVCTransfer@@@container@wylib@@QEAA@XZ 00000001400be2e0 f i EntityManager.obj
 0001:000bd350       ?GetUsedHandleCount@?$HandleMgr@VCTransfer@@V?$Handle@I@@$0EA@@@QEBAIXZ 00000001400be350 f i EntityManager.obj
 0001:000bd370       ?GetTotalHandleCount@?$HandleMgr@VCTransfer@@V?$Handle@I@@$0EA@@@QEAAIXZ 00000001400be370 f i EntityManager.obj
 0001:000bd3c0       ?GetChunkIdPos@?$HandleMgr@VCTransfer@@V?$Handle@I@@$0EA@@@QEAAXIAEAI0@Z 00000001400be3c0 f i EntityManager.obj
 0001:000bd410       ??0?$CBaseList@V?$CBaseList@VCTransfer@@@container@wylib@@@container@wylib@@QEAA@XZ 00000001400be410 f i EntityManager.obj
 0001:000bd470       ?count@?$CBaseList@V?$CBaseList@VCTransfer@@@container@wylib@@@container@wylib@@QEBA_JXZ 00000001400be470 f i EntityManager.obj
 0001:000bd490       ?addArray@?$CBaseList@V?$CBaseList@VCTransfer@@@container@wylib@@@container@wylib@@QEAAXPEAV?$CBaseList@VCTransfer@@@23@_J@Z 00000001400be490 f i EntityManager.obj
 0001:000bd580       ??B?$CBaseList@V?$CBaseList@VCTransfer@@@container@wylib@@@container@wylib@@QEBAPEAV?$CBaseList@VCTransfer@@@12@XZ 00000001400be580 f i EntityManager.obj
 0001:000bd5a0       ?GetUsedHandleCount@?$HandleMgr@VScriptCallbackParam@@V?$Handle@I@@$0EA@@@QEBAIXZ 00000001400be5a0 f i EntityManager.obj
 0001:000bd5c0       ?GetTotalHandleCount@?$HandleMgr@VScriptCallbackParam@@V?$Handle@I@@$0EA@@@QEAAIXZ 00000001400be5c0 f i EntityManager.obj
 0001:000bd610       ?GetChunkIdPos@?$HandleMgr@VScriptCallbackParam@@V?$Handle@I@@$0EA@@@QEAAXIAEAI0@Z 00000001400be610 f i EntityManager.obj
 0001:000bd660       ??0?$CBaseList@V?$CBaseList@VScriptCallbackParam@@@container@wylib@@@container@wylib@@QEAA@XZ 00000001400be660 f i EntityManager.obj
 0001:000bd6c0       ?count@?$CBaseList@V?$CBaseList@VScriptCallbackParam@@@container@wylib@@@container@wylib@@QEBA_JXZ 00000001400be6c0 f i EntityManager.obj
 0001:000bd6e0       ?addArray@?$CBaseList@V?$CBaseList@VScriptCallbackParam@@@container@wylib@@@container@wylib@@QEAAXPEAV?$CBaseList@VScriptCallbackParam@@@23@_J@Z 00000001400be6e0 f i EntityManager.obj
 0001:000bd7d0       ??B?$CBaseList@V?$CBaseList@VScriptCallbackParam@@@container@wylib@@@container@wylib@@QEBAPEAV?$CBaseList@VScriptCallbackParam@@@12@XZ 00000001400be7d0 f i EntityManager.obj
 0001:000bd7f0       ??0?$CBaseLinkedList@PEAVCPet@@@container@wylib@@QEAA@XZ 00000001400be7f0 f i EntityManager.obj
 0001:000bd860       ?GetUsedHandleCount@?$HandleMgr@VCPet@@V?$Handle@I@@$0IA@@@QEBAIXZ 00000001400be860 f i EntityManager.obj
 0001:000bd880       ?GetTotalHandleCount@?$HandleMgr@VCPet@@V?$Handle@I@@$0IA@@@QEAAIXZ 00000001400be880 f i EntityManager.obj
 0001:000bd8d0       ?GetChunkIdPos@?$HandleMgr@VCPet@@V?$Handle@I@@$0IA@@@QEAAXIAEAI0@Z 00000001400be8d0 f i EntityManager.obj
 0001:000bd920       ??0?$CBaseList@V?$CBaseList@VCPet@@@container@wylib@@@container@wylib@@QEAA@XZ 00000001400be920 f i EntityManager.obj
 0001:000bd980       ?count@?$CBaseList@V?$CBaseList@VCPet@@@container@wylib@@@container@wylib@@QEBA_JXZ 00000001400be980 f i EntityManager.obj
 0001:000bd9a0       ?addArray@?$CBaseList@V?$CBaseList@VCPet@@@container@wylib@@@container@wylib@@QEAAXPEAV?$CBaseList@VCPet@@@23@_J@Z 00000001400be9a0 f i EntityManager.obj
 0001:000bda90       ??B?$CBaseList@V?$CBaseList@VCPet@@@container@wylib@@@container@wylib@@QEBAPEAV?$CBaseList@VCPet@@@12@XZ 00000001400bea90 f i EntityManager.obj
 0001:000bdab0       ??0?$CBaseLinkedList@PEAVCFire@@@container@wylib@@QEAA@XZ 00000001400beab0 f i EntityManager.obj
 0001:000bdb20       ?GetUsedHandleCount@?$HandleMgr@VCFire@@V?$Handle@I@@$0CAA@@@QEBAIXZ 00000001400beb20 f i EntityManager.obj
 0001:000bdb40       ?GetTotalHandleCount@?$HandleMgr@VCFire@@V?$Handle@I@@$0CAA@@@QEAAIXZ 00000001400beb40 f i EntityManager.obj
 0001:000bdb90       ?GetChunkIdPos@?$HandleMgr@VCFire@@V?$Handle@I@@$0CAA@@@QEAAXIAEAI0@Z 00000001400beb90 f i EntityManager.obj
 0001:000bdbe0       ??0?$CBaseList@V?$CBaseList@VCFire@@@container@wylib@@@container@wylib@@QEAA@XZ 00000001400bebe0 f i EntityManager.obj
 0001:000bdc40       ?count@?$CBaseList@V?$CBaseList@VCFire@@@container@wylib@@@container@wylib@@QEBA_JXZ 00000001400bec40 f i EntityManager.obj
 0001:000bdc60       ?addArray@?$CBaseList@V?$CBaseList@VCFire@@@container@wylib@@@container@wylib@@QEAAXPEAV?$CBaseList@VCFire@@@23@_J@Z 00000001400bec60 f i EntityManager.obj
 0001:000bdd50       ??B?$CBaseList@V?$CBaseList@VCFire@@@container@wylib@@@container@wylib@@QEBAPEAV?$CBaseList@VCFire@@@12@XZ 00000001400bed50 f i EntityManager.obj
 0001:000bdd70       ??0?$CBaseLinkedList@PEAVCLandscape@@@container@wylib@@QEAA@XZ 00000001400bed70 f i EntityManager.obj
 0001:000bdde0       ?GetUsedHandleCount@?$HandleMgr@VCLandscape@@V?$Handle@I@@$0EA@@@QEBAIXZ 00000001400bede0 f i EntityManager.obj
 0001:000bde00       ?GetTotalHandleCount@?$HandleMgr@VCLandscape@@V?$Handle@I@@$0EA@@@QEAAIXZ 00000001400bee00 f i EntityManager.obj
 0001:000bde50       ?GetChunkIdPos@?$HandleMgr@VCLandscape@@V?$Handle@I@@$0EA@@@QEAAXIAEAI0@Z 00000001400bee50 f i EntityManager.obj
 0001:000bdea0       ??0?$CBaseList@V?$CBaseList@VCLandscape@@@container@wylib@@@container@wylib@@QEAA@XZ 00000001400beea0 f i EntityManager.obj
 0001:000bdf00       ?count@?$CBaseList@V?$CBaseList@VCLandscape@@@container@wylib@@@container@wylib@@QEBA_JXZ 00000001400bef00 f i EntityManager.obj
 0001:000bdf20       ?addArray@?$CBaseList@V?$CBaseList@VCLandscape@@@container@wylib@@@container@wylib@@QEAAXPEAV?$CBaseList@VCLandscape@@@23@_J@Z 00000001400bef20 f i EntityManager.obj
 0001:000be010       ??B?$CBaseList@V?$CBaseList@VCLandscape@@@container@wylib@@@container@wylib@@QEBAPEAV?$CBaseList@VCLandscape@@@12@XZ 00000001400bf010 f i EntityManager.obj
 0001:000be030       ??0?$CBaseLinkedList@PEAVCHero@@@container@wylib@@QEAA@XZ 00000001400bf030 f i EntityManager.obj
 0001:000be0a0       ?GetUsedHandleCount@?$HandleMgr@VCHero@@V?$Handle@I@@$0EA@@@QEBAIXZ 00000001400bf0a0 f i EntityManager.obj
 0001:000be0c0       ?GetTotalHandleCount@?$HandleMgr@VCHero@@V?$Handle@I@@$0EA@@@QEAAIXZ 00000001400bf0c0 f i EntityManager.obj
 0001:000be110       ?GetChunkIdPos@?$HandleMgr@VCHero@@V?$Handle@I@@$0EA@@@QEAAXIAEAI0@Z 00000001400bf110 f i EntityManager.obj
 0001:000be160       ??0?$CBaseList@V?$CBaseList@VCHero@@@container@wylib@@@container@wylib@@QEAA@XZ 00000001400bf160 f i EntityManager.obj
 0001:000be1c0       ?count@?$CBaseList@V?$CBaseList@VCHero@@@container@wylib@@@container@wylib@@QEBA_JXZ 00000001400bf1c0 f i EntityManager.obj
 0001:000be1e0       ?addArray@?$CBaseList@V?$CBaseList@VCHero@@@container@wylib@@@container@wylib@@QEAAXPEAV?$CBaseList@VCHero@@@23@_J@Z 00000001400bf1e0 f i EntityManager.obj
 0001:000be2d0       ??B?$CBaseList@V?$CBaseList@VCHero@@@container@wylib@@@container@wylib@@QEBAPEAV?$CBaseList@VCHero@@@12@XZ 00000001400bf2d0 f i EntityManager.obj
 0001:000be2f0       ??0?$CBaseList@VEntityHandle@@@container@wylib@@QEAA@XZ 00000001400bf2f0 f i EntityManager.obj
 0001:000be350       ?destroy@?$allocator@U?$pair@QEBDVEntityHandle@@@std@@@std@@QEAAXPEAU?$pair@QEBDVEntityHandle@@@2@@Z 00000001400bf350 f i EntityManager.obj
 0001:000be390       ?_Linsert@?$_Tree@V?$_Tmap_traits@HHU?$less@H@std@@V?$allocator@U?$pair@$$CBHH@std@@@2@$0A@@std@@@std@@QEAA?AU?$pair@V?$_Tree_iterator@V?$_Tree_val@V?$_Tmap_traits@HHU?$less@H@std@@V?$allocator@U?$pair@$$CBHH@std@@@2@$0A@@std@@@std@@@std@@_N@2@PEAU_Node@?$_Tree_nod@V?$_Tmap_traits@HHU?$less@H@std@@V?$allocator@U?$pair@$$CBHH@std@@@2@$0A@@std@@@2@_N@Z 00000001400bf390 f i EntityManager.obj
 0001:000be910       ?destroy@?$allocator@U?$pair@$$CBHH@std@@@std@@QEAAXPEAU?$pair@$$CBHH@2@@Z 00000001400bf910 f i EntityManager.obj
 0001:000be950       ??0?$CBaseList@VCActor@@@container@wylib@@QEAA@XZ 00000001400bf950 f i EntityManager.obj
 0001:000be9b0       ?trunc@?$CBaseList@VCActor@@@container@wylib@@QEAAX_J@Z 00000001400bf9b0 f i EntityManager.obj
 0001:000bea40       ??B?$CBaseList@VCActor@@@container@wylib@@QEBAPEAVCActor@@XZ 00000001400bfa40 f i EntityManager.obj
 0001:000bea60       ??0?$CBaseList@VCMonster@@@container@wylib@@QEAA@XZ 00000001400bfa60 f i EntityManager.obj
 0001:000beac0       ?trunc@?$CBaseList@VCMonster@@@container@wylib@@QEAAX_J@Z 00000001400bfac0 f i EntityManager.obj
 0001:000beb50       ??B?$CBaseList@VCMonster@@@container@wylib@@QEBAPEAVCMonster@@XZ 00000001400bfb50 f i EntityManager.obj
 0001:000beb70       ??0?$CBaseList@VCNpc@@@container@wylib@@QEAA@XZ 00000001400bfb70 f i EntityManager.obj
 0001:000bebd0       ?trunc@?$CBaseList@VCNpc@@@container@wylib@@QEAAX_J@Z 00000001400bfbd0 f i EntityManager.obj
 0001:000bec60       ??B?$CBaseList@VCNpc@@@container@wylib@@QEBAPEAVCNpc@@XZ 00000001400bfc60 f i EntityManager.obj
 0001:000bec80       ??0?$CBaseList@VCDropItemEntity@@@container@wylib@@QEAA@XZ 00000001400bfc80 f i EntityManager.obj
 0001:000bece0       ?trunc@?$CBaseList@VCDropItemEntity@@@container@wylib@@QEAAX_J@Z 00000001400bfce0 f i EntityManager.obj
 0001:000bed70       ??B?$CBaseList@VCDropItemEntity@@@container@wylib@@QEBAPEAVCDropItemEntity@@XZ 00000001400bfd70 f i EntityManager.obj
 0001:000bed90       ??0?$CBaseList@VCTransfer@@@container@wylib@@QEAA@XZ 00000001400bfd90 f i EntityManager.obj
 0001:000bedf0       ?trunc@?$CBaseList@VCTransfer@@@container@wylib@@QEAAX_J@Z 00000001400bfdf0 f i EntityManager.obj
 0001:000bee80       ??B?$CBaseList@VCTransfer@@@container@wylib@@QEBAPEAVCTransfer@@XZ 00000001400bfe80 f i EntityManager.obj
 0001:000beea0       ??0?$CBaseList@VScriptCallbackParam@@@container@wylib@@QEAA@XZ 00000001400bfea0 f i EntityManager.obj
 0001:000bef00       ?trunc@?$CBaseList@VScriptCallbackParam@@@container@wylib@@QEAAX_J@Z 00000001400bff00 f i EntityManager.obj
 0001:000bef90       ??B?$CBaseList@VScriptCallbackParam@@@container@wylib@@QEBAPEAVScriptCallbackParam@@XZ 00000001400bff90 f i EntityManager.obj
 0001:000befb0       ??0?$CBaseList@VCPet@@@container@wylib@@QEAA@XZ 00000001400bffb0 f i EntityManager.obj
 0001:000bf010       ?trunc@?$CBaseList@VCPet@@@container@wylib@@QEAAX_J@Z 00000001400c0010 f i EntityManager.obj
 0001:000bf0a0       ??B?$CBaseList@VCPet@@@container@wylib@@QEBAPEAVCPet@@XZ 00000001400c00a0 f i EntityManager.obj
 0001:000bf0c0       ??0?$CBaseList@VCFire@@@container@wylib@@QEAA@XZ 00000001400c00c0 f i EntityManager.obj
 0001:000bf120       ?trunc@?$CBaseList@VCFire@@@container@wylib@@QEAAX_J@Z 00000001400c0120 f i EntityManager.obj
 0001:000bf1b0       ??B?$CBaseList@VCFire@@@container@wylib@@QEBAPEAVCFire@@XZ 00000001400c01b0 f i EntityManager.obj
 0001:000bf1d0       ??0?$CBaseList@VCLandscape@@@container@wylib@@QEAA@XZ 00000001400c01d0 f i EntityManager.obj
 0001:000bf230       ?trunc@?$CBaseList@VCLandscape@@@container@wylib@@QEAAX_J@Z 00000001400c0230 f i EntityManager.obj
 0001:000bf2c0       ??B?$CBaseList@VCLandscape@@@container@wylib@@QEBAPEAVCLandscape@@XZ 00000001400c02c0 f i EntityManager.obj
 0001:000bf2e0       ??0?$CBaseList@VCHero@@@container@wylib@@QEAA@XZ 00000001400c02e0 f i EntityManager.obj
 0001:000bf340       ?trunc@?$CBaseList@VCHero@@@container@wylib@@QEAAX_J@Z 00000001400c0340 f i EntityManager.obj
 0001:000bf3d0       ??B?$CBaseList@VCHero@@@container@wylib@@QEBAPEAVCHero@@XZ 00000001400c03d0 f i EntityManager.obj
 0001:000bf3f0       ?_Insert@?$_Tree@V?$_Tmap_traits@HHU?$less@H@std@@V?$allocator@U?$pair@$$CBHH@std@@@2@$0A@@std@@@std@@IEAA?AV?$_Tree_iterator@V?$_Tree_val@V?$_Tmap_traits@HHU?$less@H@std@@V?$allocator@U?$pair@$$CBHH@std@@@2@$0A@@std@@@std@@@2@_NPEAU_Node@?$_Tree_nod@V?$_Tmap_traits@HHU?$less@H@std@@V?$allocator@U?$pair@$$CBHH@std@@@2@$0A@@std@@@2@1@Z 00000001400c03f0 f i EntityManager.obj
 0001:000bf960       ??F?$_Tree_iterator@V?$_Tree_val@V?$_Tmap_traits@HHU?$less@H@std@@V?$allocator@U?$pair@$$CBHH@std@@@2@$0A@@std@@@std@@@std@@QEAAAEAV01@XZ 00000001400c0960 f i EntityManager.obj
 0001:000bf9a0       ??0?$pair@V?$_Tree_iterator@V?$_Tree_val@V?$_Tmap_traits@HHU?$less@H@std@@V?$allocator@U?$pair@$$CBHH@std@@@2@$0A@@std@@@std@@@std@@_N@std@@QEAA@$$QEAV?$_Tree_iterator@V?$_Tree_val@V?$_Tmap_traits@HHU?$less@H@std@@V?$allocator@U?$pair@$$CBHH@std@@@2@$0A@@std@@@std@@@1@$$QEA_N@Z 00000001400c09a0 f i EntityManager.obj
 0001:000bfa20       ?max_size@?$_Tree@V?$_Tmap_traits@HHU?$less@H@std@@V?$allocator@U?$pair@$$CBHH@std@@@2@$0A@@std@@@std@@QEBA_KXZ 00000001400c0a20 f i EntityManager.obj
 0001:000bfa70       ??F?$_Tree_const_iterator@V?$_Tree_val@V?$_Tmap_traits@HHU?$less@H@std@@V?$allocator@U?$pair@$$CBHH@std@@@2@$0A@@std@@@std@@@std@@QEAAAEAV01@XZ 00000001400c0a70 f i EntityManager.obj
 0001:000bfc50       ??0?$_Pair_base@V?$_Tree_iterator@V?$_Tree_val@V?$_Tmap_traits@HHU?$less@H@std@@V?$allocator@U?$pair@$$CBHH@std@@@2@$0A@@std@@@std@@@std@@_N@std@@QEAA@$$QEAV?$_Tree_iterator@V?$_Tree_val@V?$_Tmap_traits@HHU?$less@H@std@@V?$allocator@U?$pair@$$CBHH@std@@@2@$0A@@std@@@std@@@1@$$QEA_N@Z 00000001400c0c50 f i EntityManager.obj
 0001:000bfcd0       ?max_size@?$allocator@U?$pair@$$CBHH@std@@@std@@QEBA_KXZ 00000001400c0cd0 f i EntityManager.obj
 0001:000bfd40       ??F?$_Tree_unchecked_const_iterator@V?$_Tree_val@V?$_Tmap_traits@HHU?$less@H@std@@V?$allocator@U?$pair@$$CBHH@std@@@2@$0A@@std@@@std@@U_Iterator_base12@2@@std@@QEAAAEAV01@XZ 00000001400c0d40 f i EntityManager.obj
 0001:000bfea0       ??1?$CVector@UtagActorSrcEffect@@@@UEAA@XZ 00000001400c0ea0 f i EntityManager.obj
 0001:000bff00       ?empty@?$CVector@UtagActorSrcEffect@@@@UEAAXXZ 00000001400c0f00 f i EntityManager.obj
 0001:000bffa0       ?reserve@?$CVector@UtagActorSrcEffect@@@@UEAAX_J@Z 00000001400c0fa0 f i EntityManager.obj
 0001:000c0120       ??0?$CVector@I@@QEAA@PEAVCBufferAllocator@@@Z 00000001400c1120 f i EntityManager.obj
 0001:000c01d0       ??1?$CVector@I@@UEAA@XZ    00000001400c11d0 f i EntityManager.obj
 0001:000c0230       ?empty@?$CVector@I@@UEAAXXZ 00000001400c1230 f i EntityManager.obj
 0001:000c02d0       ?reserve@?$CVector@I@@UEAAX_J@Z 00000001400c12d0 f i EntityManager.obj
 0001:000c0450       ??0ScriptCallbackParam@@QEAA@XZ 00000001400c1450 f i EntityManager.obj
 0001:000c0520       ?init@ScriptCallbackParam@@QEAAXIVEntityHandle@@IIHPEBDPEBVCScriptValueList@@@Z 00000001400c1520 f i EntityManager.obj
 0001:000c0670       ??4CScriptValueList@@QEAAAEAV0@AEBV0@@Z 00000001400c1670 f i EntityManager.obj
 0001:000c0750       ??4CScriptValue@@QEAAAEAV0@AEBV0@@Z 00000001400c1750 f i EntityManager.obj
 0001:000c08b0       ??4CScriptValue@@QEAAAEAV0@N@Z 00000001400c18b0 f i EntityManager.obj
 0001:000c0920       ??4CScriptValue@@QEAAAEAV0@_N@Z 00000001400c1920 f i EntityManager.obj
 0001:000c0990       ??4CScriptValue@@QEAAAEAV0@Q6AHPEAUlua_State@@@Z@Z 00000001400c1990 f i EntityManager.obj
 0001:000c0a00       ?SetUserData@CScriptValue@@QEAAAEAV1@PEBX_K@Z 00000001400c1a00 f i EntityManager.obj
 0001:000c0ab0       ?clear@CScriptValueList@@QEAAXXZ 00000001400c1ab0 f i EntityManager.obj
 0001:000c0b50       ??0CEntity@@QEAA@XZ        00000001400c1b50 f i EntityManager.obj
 0001:000c0d60       ??4EntityHandle@@QEAAAEAV0@_K@Z 00000001400c1d60 f i EntityManager.obj
 0001:000c0d90       ??0EntityFlags@@QEAA@XZ    00000001400c1d90 f i EntityManager.obj
 0001:000c0db0       ??0?$CVector@VOwnedBabyInfo@@@@QEAA@PEAVCBufferAllocator@@@Z 00000001400c1db0 f i EntityManager.obj
 0001:000c0e60       ?empty@?$CVector@VOwnedBabyInfo@@@@UEAAXXZ 00000001400c1e60 f i EntityManager.obj
 0001:000c0f00       ??1CEntity@@QEAA@XZ        00000001400c1f00 f i EntityManager.obj
 0001:000c1050       ??1CCLVariant@@QEAA@XZ     00000001400c2050 f i EntityManager.obj
 0001:000c10a0       ?clear@CCLVariant@@QEAAXXZ 00000001400c20a0 f i EntityManager.obj
 0001:000c1220       ??_GCCLVariant@@QEAAPEAXI@Z 00000001400c2220 f i EntityManager.obj
 0001:000c1280       ??1?$CVector@VOwnedBabyInfo@@@@UEAA@XZ 00000001400c2280 f i EntityManager.obj
 0001:000c12e0       ?reserve@?$CVector@VOwnedBabyInfo@@@@UEAAX_J@Z 00000001400c22e0 f i EntityManager.obj
 0001:000c1460       ?RunOne@CEntity@@QEAAX_J@Z 00000001400c2460 f i EntityManager.obj
 0001:000c14f0       ?GetPropertyPtr@CEntity@@UEAAPEAVCPropertySet@@XZ 00000001400c24f0 f i EntityManager.obj
 0001:000c1500       ?GetPropertyPtr@CEntity@@UEBAPEBVCPropertySet@@XZ 00000001400c2500 f i EntityManager.obj
 0001:000c1510       ??0?$CVector@PEAVScriptCallbackParam@@@@QEAA@PEAVCBufferAllocator@@@Z 00000001400c2510 f i EntityManager.obj
 0001:000c15c0       ?OnLevelUp@CEntity@@UEAAXH@Z 00000001400c25c0 f i EntityManager.obj
 0001:000c15d0       ??1?$CVector@PEAVScriptCallbackParam@@@@UEAA@XZ 00000001400c25d0 f i EntityManager.obj
 0001:000c1630       ?empty@?$CVector@PEAVScriptCallbackParam@@@@UEAAXXZ 00000001400c2630 f i EntityManager.obj
 0001:000c16d0       ?reserve@?$CVector@PEAVScriptCallbackParam@@@@UEAAX_J@Z 00000001400c26d0 f i EntityManager.obj
 0001:000c1850       ?GetFuBen@CEntity@@QEBAPEAVCFuBen@@XZ 00000001400c2850 f i EntityManager.obj
 0001:000c1870       ??0?$CList@PEAVCEntityMsg@@@@QEAA@PEAVCBufferAllocator@@@Z 00000001400c2870 f i EntityManager.obj
 0001:000c1920       ??1?$CList@PEAVCEntityMsg@@@@UEAA@XZ 00000001400c2920 f i EntityManager.obj
 0001:000c1980       ?allocNode@?$CList@PEAVCEntityMsg@@@@UEAAPEAV?$CLinkedNode@PEAVCEntityMsg@@@container@wylib@@XZ 00000001400c2980 f i EntityManager.obj
 0001:000c1a50       ?SetHandle@CEntity@@QEAAXVEntityHandle@@@Z 00000001400c2a50 f i EntityManager.obj
 0001:000c1af0       ?SetRace@CEntity@@QEAAX_J@Z 00000001400c2af0 f i EntityManager.obj
 0001:000c1b20       ?freeNode@?$CList@PEAVCEntityMsg@@@@UEAAXPEAV?$CLinkedNode@PEAVCEntityMsg@@@container@wylib@@@Z 00000001400c2b20 f i EntityManager.obj
 0001:000c1b90       ?SetInitFlag@CEntity@@QEAAX_N@Z 00000001400c2b90 f i EntityManager.obj
 0001:000c1bc0       ?GetBroadCastMask@CEntity@@UEAAPEAVCUpdateMask@@XZ 00000001400c2bc0 f i EntityManager.obj
 0001:000c1bd0       ??$readAtom@UAMOPData@CAMClient@@@CDataPacketReader@@QEAA?AUAMOPData@CAMClient@@XZ 00000001400c2bd0 f i EntityManager.obj
 0001:000c1d90       ?isNPC@CEntity@@QEAA_NXZ   00000001400c2d90 f i EntityManager.obj
 0001:000c1df0       ??$forward@AEAH@std@@YAAEAHAEAH@Z 00000001400c2df0 f i EntityManager.obj
 0001:000c1e00       ??$forward@H@std@@YA$$QEAHAEAH@Z 00000001400c2e00 f i EntityManager.obj
 0001:000c1e10       ??$?0AEAHH@?$pair@HH@std@@QEAA@AEAH$$QEAH@Z 00000001400c2e10 f i EntityManager.obj
 0001:000c1e90       ??$forward@U?$pair@HH@std@@@std@@YA$$QEAU?$pair@HH@0@AEAU10@@Z 00000001400c2e90 f i EntityManager.obj
 0001:000c1ea0       ??$_Buynode@U?$pair@HH@std@@@?$_Tree_val@V?$_Tmap_traits@HHU?$less@H@std@@V?$allocator@U?$pair@$$CBHH@std@@@2@$0A@@std@@@std@@QEAAPEAU_Node@?$_Tree_nod@V?$_Tmap_traits@HHU?$less@H@std@@V?$allocator@U?$pair@$$CBHH@std@@@2@$0A@@std@@@1@$$QEAU?$pair@HH@1@@Z 00000001400c2ea0 f i EntityManager.obj
 0001:000c1f50       ??0?$CVector@H@@QEAA@PEAVCBufferAllocator@@@Z 00000001400c2f50 f i EntityManager.obj
 0001:000c2000       ?SetNode@CEntity@@QEAAXPEAV?$CLinkedNode@PEAVCEntity@@@container@wylib@@@Z 00000001400c3000 f i EntityManager.obj
 0001:000c2030       ?GetNode@CEntity@@QEAAPEAV?$CLinkedNode@PEAVCEntity@@@container@wylib@@XZ 00000001400c3030 f i EntityManager.obj
 0001:000c2050       ??1?$CVector@H@@UEAA@XZ    00000001400c3050 f i EntityManager.obj
 0001:000c20b0       ?empty@?$CVector@H@@UEAAXXZ 00000001400c30b0 f i EntityManager.obj
 0001:000c2150       ?reserve@?$CVector@H@@UEAAX_J@Z 00000001400c3150 f i EntityManager.obj
 0001:000c22d0       ??$_Destroy@U?$pair@QEBDVEntityHandle@@@std@@@std@@YAXPEAU?$pair@QEBDVEntityHandle@@@0@@Z 00000001400c32d0 f i EntityManager.obj
 0001:000c2310       ??$?0AEAV?$_Tree_iterator@V?$_Tree_val@V?$_Tmap_traits@HHU?$less@H@std@@V?$allocator@U?$pair@$$CBHH@std@@@2@$0A@@std@@@std@@@std@@_N@?$pair@V?$_Tree_iterator@V?$_Tree_val@V?$_Tmap_traits@HHU?$less@H@std@@V?$allocator@U?$pair@$$CBHH@std@@@2@$0A@@std@@@std@@@std@@_N@std@@QEAA@AEAV?$_Tree_iterator@V?$_Tree_val@V?$_Tmap_traits@HHU?$less@H@std@@V?$allocator@U?$pair@$$CBHH@std@@@2@$0A@@std@@@std@@@1@$$QEA_N@Z 00000001400c3310 f i EntityManager.obj
 0001:000c2390       ??$_Destroy@U?$pair@$$CBHH@std@@@std@@YAXPEAU?$pair@$$CBHH@0@@Z 00000001400c3390 f i EntityManager.obj
 0001:000c23a0       ??$move@AEAV?$_Tree_iterator@V?$_Tree_val@V?$_Tmap_traits@HHU?$less@H@std@@V?$allocator@U?$pair@$$CBHH@std@@@2@$0A@@std@@@std@@@std@@@std@@YA$$QEAV?$_Tree_iterator@V?$_Tree_val@V?$_Tmap_traits@HHU?$less@H@std@@V?$allocator@U?$pair@$$CBHH@std@@@2@$0A@@std@@@std@@@0@AEAV10@@Z 00000001400c33a0 f i EntityManager.obj
 0001:000c23b0       ??_E?$CVector@UtagActorSrcEffect@@@@UEAAPEAXI@Z 00000001400c33b0 f i EntityManager.obj
 0001:000c23b0       ??_G?$CVector@UtagActorSrcEffect@@@@UEAAPEAXI@Z 00000001400c33b0 f i EntityManager.obj
 0001:000c2410       ??_G?$CVector@I@@UEAAPEAXI@Z 00000001400c3410 f i EntityManager.obj
 0001:000c2410       ??_E?$CVector@I@@UEAAPEAXI@Z 00000001400c3410 f i EntityManager.obj
 0001:000c2470       ??_E?$CVector@VOwnedBabyInfo@@@@UEAAPEAXI@Z 00000001400c3470 f i EntityManager.obj
 0001:000c2470       ??_G?$CVector@VOwnedBabyInfo@@@@UEAAPEAXI@Z 00000001400c3470 f i EntityManager.obj
 0001:000c24d0       ??_G?$CVector@PEAVScriptCallbackParam@@@@UEAAPEAXI@Z 00000001400c34d0 f i EntityManager.obj
 0001:000c24d0       ??_E?$CVector@PEAVScriptCallbackParam@@@@UEAAPEAXI@Z 00000001400c34d0 f i EntityManager.obj
 0001:000c2530       ??_G?$CList@PEAVCEntityMsg@@@@UEAAPEAXI@Z 00000001400c3530 f i EntityManager.obj
 0001:000c2530       ??_E?$CList@PEAVCEntityMsg@@@@UEAAPEAXI@Z 00000001400c3530 f i EntityManager.obj
 0001:000c2590       ??_E?$CVector@H@@UEAAPEAXI@Z 00000001400c3590 f i EntityManager.obj
 0001:000c2590       ??_G?$CVector@H@@UEAAPEAXI@Z 00000001400c3590 f i EntityManager.obj
 0001:000c25f0       ??_G?$pair@QEBDVEntityHandle@@@std@@QEAAPEAXI@Z 00000001400c35f0 f i EntityManager.obj
 0001:000c2650       ??1?$pair@QEBDVEntityHandle@@@std@@QEAA@XZ 00000001400c3650 f i EntityManager.obj
 0001:000c2690       ??1?$_Pair_base@QEBDVEntityHandle@@@std@@QEAA@XZ 00000001400c3690 f i EntityManager.obj
 0001:000c26e0       ??0?$CBaseList@H@container@wylib@@QEAA@XZ 00000001400c36e0 f i EntityManager.obj
 0001:000c2740       ??0?$CBaseLinkedList@PEAVCEntityMsg@@@container@wylib@@QEAA@XZ 00000001400c3740 f i EntityManager.obj
 0001:000c27b0       ??0?$CBaseList@PEAVScriptCallbackParam@@@container@wylib@@QEAA@XZ 00000001400c37b0 f i EntityManager.obj
 0001:000c2810       ??0?$CBaseList@VOwnedBabyInfo@@@container@wylib@@QEAA@XZ 00000001400c3810 f i EntityManager.obj
 0001:000c2870       ?_Buynode@?$_Tree_val@V?$_Tmap_traits@HHU?$less@H@std@@V?$allocator@U?$pair@$$CBHH@std@@@2@$0A@@std@@@std@@QEAAPEAU_Node@?$_Tree_nod@V?$_Tmap_traits@HHU?$less@H@std@@V?$allocator@U?$pair@$$CBHH@std@@@2@$0A@@std@@@2@XZ 00000001400c3870 f i EntityManager.obj
 0001:000c2940       ??$?0AEAHH@?$_Pair_base@HH@std@@QEAA@AEAH$$QEAH@Z 00000001400c3940 f i EntityManager.obj
 0001:000c29b0       ??$_Cons_val@V?$allocator@U?$pair@$$CBHH@std@@@std@@U?$pair@$$CBHH@2@U?$pair@HH@2@@std@@YAXAEAV?$allocator@U?$pair@$$CBHH@std@@@0@PEAU?$pair@$$CBHH@0@$$QEAU?$pair@HH@0@@Z 00000001400c39b0 f i EntityManager.obj
 0001:000c2a10       ??$forward@AEAV?$_Tree_iterator@V?$_Tree_val@V?$_Tmap_traits@HHU?$less@H@std@@V?$allocator@U?$pair@$$CBHH@std@@@2@$0A@@std@@@std@@@std@@@std@@YAAEAV?$_Tree_iterator@V?$_Tree_val@V?$_Tmap_traits@HHU?$less@H@std@@V?$allocator@U?$pair@$$CBHH@std@@@2@$0A@@std@@@std@@@0@AEAV10@@Z 00000001400c3a10 f i EntityManager.obj
 0001:000c2a20       ??$?0AEAV?$_Tree_iterator@V?$_Tree_val@V?$_Tmap_traits@HHU?$less@H@std@@V?$allocator@U?$pair@$$CBHH@std@@@2@$0A@@std@@@std@@@std@@_N@?$_Pair_base@V?$_Tree_iterator@V?$_Tree_val@V?$_Tmap_traits@HHU?$less@H@std@@V?$allocator@U?$pair@$$CBHH@std@@@2@$0A@@std@@@std@@@std@@_N@std@@QEAA@AEAV?$_Tree_iterator@V?$_Tree_val@V?$_Tmap_traits@HHU?$less@H@std@@V?$allocator@U?$pair@$$CBHH@std@@@2@$0A@@std@@@std@@@1@$$QEA_N@Z 00000001400c3a20 f i EntityManager.obj
 0001:000c2aa0       ??$construct@U?$pair@HH@std@@@?$allocator@U?$pair@$$CBHH@std@@@std@@QEAAXPEAU?$pair@$$CBHH@1@$$QEAU?$pair@HH@1@@Z 00000001400c3aa0 f i EntityManager.obj
 0001:000c2b30       ??$?0HH@?$pair@$$CBHH@std@@QEAA@$$QEAU?$pair@HH@1@@Z 00000001400c3b30 f i EntityManager.obj
 0001:000c2bb0       ??$?0HH@?$_Pair_base@$$CBHH@std@@QEAA@$$QEAH0@Z 00000001400c3bb0 f i EntityManager.obj
 0001:000c2c20       ??1CMiscSystem@@UEAA@XZ    00000001400c3c20 f i EntityManager.obj
 0001:000c2c80       ??1?$CVector@UtagRankItem@CMiscSystem@@@@UEAA@XZ 00000001400c3c80 f i EntityManager.obj
 0001:000c2ce0       ?empty@?$CVector@UtagRankItem@CMiscSystem@@@@UEAAXXZ 00000001400c3ce0 f i EntityManager.obj
 0001:000c2d80       ?reserve@?$CVector@UtagRankItem@CMiscSystem@@@@UEAAX_J@Z 00000001400c3d80 f i EntityManager.obj
 0001:000c2f00       ??_G?$CVector@UtagRankItem@CMiscSystem@@@@UEAAPEAXI@Z 00000001400c3f00 f i EntityManager.obj
 0001:000c2f00       ??_E?$CVector@UtagRankItem@CMiscSystem@@@@UEAAPEAXI@Z 00000001400c3f00 f i EntityManager.obj
 0001:000c2f60       ??_GCMiscSystem@@UEAAPEAXI@Z 00000001400c3f60 f i EntityManager.obj
 0001:000c2f60       ??_ECMiscSystem@@UEAAPEAXI@Z 00000001400c3f60 f i EntityManager.obj
 0001:000c2fc0       ??1CCombatSystem@@QEAA@XZ  00000001400c3fc0 f i EntityManager.obj
 0001:000c3020       ??1?$CVector@UtagCombatRecord@@@@UEAA@XZ 00000001400c4020 f i EntityManager.obj
 0001:000c3080       ?empty@?$CVector@UtagCombatRecord@@@@UEAAXXZ 00000001400c4080 f i EntityManager.obj
 0001:000c3120       ?reserve@?$CVector@UtagCombatRecord@@@@UEAAX_J@Z 00000001400c4120 f i EntityManager.obj
 0001:000c32a0       ??_G?$CVector@UtagCombatRecord@@@@UEAAPEAXI@Z 00000001400c42a0 f i EntityManager.obj
 0001:000c32a0       ??_E?$CVector@UtagCombatRecord@@@@UEAAPEAXI@Z 00000001400c42a0 f i EntityManager.obj
 0001:000c3300       ??1CFriendSystem@@QEAA@XZ  00000001400c4300 f i EntityManager.obj
 0001:000c33a0       ??1?$CVector@UtagSocialMsgList@@@@UEAA@XZ 00000001400c43a0 f i EntityManager.obj
 0001:000c3400       ?empty@?$CVector@UtagSocialMsgList@@@@UEAAXXZ 00000001400c4400 f i EntityManager.obj
 0001:000c34a0       ?reserve@?$CVector@UtagSocialMsgList@@@@UEAAX_J@Z 00000001400c44a0 f i EntityManager.obj
 0001:000c3620       ??1?$CVector@UtagOffChatMsg@@@@UEAA@XZ 00000001400c4620 f i EntityManager.obj
 0001:000c3680       ?empty@?$CVector@UtagOffChatMsg@@@@UEAAXXZ 00000001400c4680 f i EntityManager.obj
 0001:000c3720       ?reserve@?$CVector@UtagOffChatMsg@@@@UEAAX_J@Z 00000001400c4720 f i EntityManager.obj
 0001:000c38b0       ??1?$CVector@UtagFriendRelation@@@@UEAA@XZ 00000001400c48b0 f i EntityManager.obj
 0001:000c3910       ?empty@?$CVector@UtagFriendRelation@@@@UEAAXXZ 00000001400c4910 f i EntityManager.obj
 0001:000c39b0       ?reserve@?$CVector@UtagFriendRelation@@@@UEAAX_J@Z 00000001400c49b0 f i EntityManager.obj
 0001:000c3b40       ??_E?$CVector@UtagSocialMsgList@@@@UEAAPEAXI@Z 00000001400c4b40 f i EntityManager.obj
 0001:000c3b40       ??_G?$CVector@UtagSocialMsgList@@@@UEAAPEAXI@Z 00000001400c4b40 f i EntityManager.obj
 0001:000c3ba0       ??_E?$CVector@UtagOffChatMsg@@@@UEAAPEAXI@Z 00000001400c4ba0 f i EntityManager.obj
 0001:000c3ba0       ??_G?$CVector@UtagOffChatMsg@@@@UEAAPEAXI@Z 00000001400c4ba0 f i EntityManager.obj
 0001:000c3c00       ??_E?$CVector@UtagFriendRelation@@@@UEAAPEAXI@Z 00000001400c4c00 f i EntityManager.obj
 0001:000c3c00       ??_G?$CVector@UtagFriendRelation@@@@UEAAPEAXI@Z 00000001400c4c00 f i EntityManager.obj
 0001:000c3c60       ??1tagDeathRecorder@@QEAA@XZ 00000001400c4c60 f i EntityManager.obj
 0001:000c3ca0       ??1?$CVector@UtagDeathRecord@@@@UEAA@XZ 00000001400c4ca0 f i EntityManager.obj
 0001:000c3d00       ?empty@?$CVector@UtagDeathRecord@@@@UEAAXXZ 00000001400c4d00 f i EntityManager.obj
 0001:000c3da0       ?reserve@?$CVector@UtagDeathRecord@@@@UEAAX_J@Z 00000001400c4da0 f i EntityManager.obj
 0001:000c3f30       ??_G?$CVector@UtagDeathRecord@@@@UEAAPEAXI@Z 00000001400c4f30 f i EntityManager.obj
 0001:000c3f30       ??_E?$CVector@UtagDeathRecord@@@@UEAAPEAXI@Z 00000001400c4f30 f i EntityManager.obj
 0001:000c3f90       ??1CRideSystem@@QEAA@XZ    00000001400c4f90 f i EntityManager.obj
 0001:000c3ff0       ??1?$CVector@UtagTimeRideData@@@@UEAA@XZ 00000001400c4ff0 f i EntityManager.obj
 0001:000c4050       ?empty@?$CVector@UtagTimeRideData@@@@UEAAXXZ 00000001400c5050 f i EntityManager.obj
 0001:000c40f0       ?reserve@?$CVector@UtagTimeRideData@@@@UEAAX_J@Z 00000001400c50f0 f i EntityManager.obj
 0001:000c4270       ??_G?$CVector@UtagTimeRideData@@@@UEAAPEAXI@Z 00000001400c5270 f i EntityManager.obj
 0001:000c4270       ??_E?$CVector@UtagTimeRideData@@@@UEAAPEAXI@Z 00000001400c5270 f i EntityManager.obj
 0001:000c42d0       ??1CCheckSpeedSystem@@QEAA@XZ 00000001400c52d0 f i EntityManager.obj
 0001:000c42f0       ??0CAnimal@@QEAA@XZ        00000001400c52f0 f i EntityManager.obj
 0001:000c45e0       ??0CEntityOPCollector@@QEAA@XZ 00000001400c55e0 f i EntityManager.obj
 0001:000c4630       ?Reset@CEntityOPCollector@@QEAAXXZ 00000001400c5630 f i EntityManager.obj
 0001:000c4680       ??0CMovementSystem@@QEAA@XZ 00000001400c5680 f i EntityManager.obj
 0001:000c4750       ??0?$CVector@USMALLCPOINT@@@@QEAA@PEAVCBufferAllocator@@@Z 00000001400c5750 f i EntityManager.obj
 0001:000c4800       ?empty@?$CVector@USMALLCPOINT@@@@UEAAXXZ 00000001400c5800 f i EntityManager.obj
 0001:000c48a0       ?reserve@?$CVector@USMALLCPOINT@@@@UEAAX_J@Z 00000001400c58a0 f i EntityManager.obj
 0001:000c4a20       ??_G?$CVector@USMALLCPOINT@@@@UEAAPEAXI@Z 00000001400c5a20 f i EntityManager.obj
 0001:000c4a20       ??_E?$CVector@USMALLCPOINT@@@@UEAAPEAXI@Z 00000001400c5a20 f i EntityManager.obj
 0001:000c4a80       ??1?$CVector@USMALLCPOINT@@@@UEAA@XZ 00000001400c5a80 f i EntityManager.obj
 0001:000c4ae0       ??0CMotionStack@@QEAA@XZ   00000001400c5ae0 f i EntityManager.obj
 0001:000c4b30       ?Initialize@CMovementSystem@@UEAA_NPEAX_K@Z 00000001400c5b30 f i EntityManager.obj
 0001:000c4b90       ??0CSkillAdornFlagSystem@@QEAA@XZ 00000001400c5b90 f i EntityManager.obj
 0001:000c4c10       ?OnTimeCheck@CSkillAdornFlagSystem@@UEAAX_J@Z 00000001400c5c10 f i EntityManager.obj
 0001:000c4ce0       ?Destroy@CSkillAdornFlagSystem@@UEAAXXZ 00000001400c5ce0 f i EntityManager.obj
 0001:000c4cf0       ??0CSkillSubSystem@@QEAA@XZ 00000001400c5cf0 f i EntityManager.obj
 0001:000c4dd0       ??0?$CVector@UtagSkillData@CSkillSubSystem@@@@QEAA@PEAVCBufferAllocator@@@Z 00000001400c5dd0 f i EntityManager.obj
 0001:000c4e80       ?empty@?$CVector@UtagSkillData@CSkillSubSystem@@@@UEAAXXZ 00000001400c5e80 f i EntityManager.obj
 0001:000c4f20       ?reserve@?$CVector@UtagSkillData@CSkillSubSystem@@@@UEAAX_J@Z 00000001400c5f20 f i EntityManager.obj
 0001:000c50a0       ??_E?$CVector@UtagSkillData@CSkillSubSystem@@@@UEAAPEAXI@Z 00000001400c60a0 f i EntityManager.obj
 0001:000c50a0       ??_G?$CVector@UtagSkillData@CSkillSubSystem@@@@UEAAPEAXI@Z 00000001400c60a0 f i EntityManager.obj
 0001:000c5100       ??1?$CVector@UtagSkillData@CSkillSubSystem@@@@UEAA@XZ 00000001400c6100 f i EntityManager.obj
 0001:000c5160       ??0?$CBaseList@UtagSkillData@CSkillSubSystem@@@container@wylib@@QEAA@XZ 00000001400c6160 f i EntityManager.obj
 0001:000c51c0       ?Destroy@CSkillSubSystem@@UEAAXXZ 00000001400c61c0 f i EntityManager.obj
 0001:000c5220       ??0CreatureBattleProp@@QEAA@XZ 00000001400c6220 f i EntityManager.obj
 0001:000c5270       ?Destroy@CAnimal@@UEAAXXZ  00000001400c6270 f i EntityManager.obj
 0001:000c5540       ?CollectOperate@CAnimal@@QEAAXW4CollecteOPType@CEntityOPCollector@@@Z 00000001400c6540 f i EntityManager.obj
 0001:000c5590       ?Collect@CEntityOPCollector@@QEAAAEAV1@W4CollecteOPType@1@@Z 00000001400c6590 f i EntityManager.obj
 0001:000c5660       ?OnKilledByEntity@CAnimal@@UEAAXPEAVCEntity@@@Z 00000001400c6660 f i EntityManager.obj
 0001:000c56f0       ?OnEntityScriptDelayMsgCallback@CAnimal@@UEAAXIHHHHH@Z 00000001400c66f0 f i EntityManager.obj
 0001:000c5710       ?getLeaveCombatTime@CAnimal@@EEAAHXZ 00000001400c6710 f i EntityManager.obj
 0001:000c5720       ??0CCreature@@QEAA@XZ      00000001400c6720 f i EntityManager.obj
 0001:000c5780       ?Init@CCreature@@UEAA_NPEAX_K@Z 00000001400c6780 f i EntityManager.obj
 0001:000c57b0       ?BeforeLogicRun@CCreature@@UEAAX_J@Z 00000001400c67b0 f i EntityManager.obj
 0001:000c5800       ?LogicRun@CCreature@@UEAAX_J@Z 00000001400c6800 f i EntityManager.obj
 0001:000c5850       ?AfterLogicRun@CCreature@@UEAAX_J@Z 00000001400c6850 f i EntityManager.obj
 0001:000c58a0       ?OnEntityRelive@CCreature@@UEAAXXZ 00000001400c68a0 f i EntityManager.obj
 0001:000c58b0       ?ChangeMP@CCreature@@UEAAXH@Z 00000001400c68b0 f i EntityManager.obj
 0001:000c5990       ??0CObserverSystem@@QEAA@XZ 00000001400c6990 f i EntityManager.obj
 0001:000c5a00       ??0?$CVector@UEntityHandleTag@@@@QEAA@PEAVCBufferAllocator@@@Z 00000001400c6a00 f i EntityManager.obj
 0001:000c5ab0       ?empty@?$CVector@UEntityHandleTag@@@@UEAAXXZ 00000001400c6ab0 f i EntityManager.obj
 0001:000c5b50       ?reserve@?$CVector@UEntityHandleTag@@@@UEAAX_J@Z 00000001400c6b50 f i EntityManager.obj
 0001:000c5cd0       ??_G?$CVector@UEntityHandleTag@@@@UEAAPEAXI@Z 00000001400c6cd0 f i EntityManager.obj
 0001:000c5cd0       ??_E?$CVector@UEntityHandleTag@@@@UEAAPEAXI@Z 00000001400c6cd0 f i EntityManager.obj
 0001:000c5d30       ??1?$CVector@UEntityHandleTag@@@@UEAA@XZ 00000001400c6d30 f i EntityManager.obj
 0001:000c5d90       ??0?$CBaseList@UEntityHandleTag@@@container@wylib@@QEAA@XZ 00000001400c6d90 f i EntityManager.obj
 0001:000c5df0       ?Destroy@CObserverSystem@@UEAAXXZ 00000001400c6df0 f i EntityManager.obj
 0001:000c5e40       ??0CPropertySystem@@QEAA@XZ 00000001400c6e40 f i EntityManager.obj
 0001:000c5ea0       ??0CBuffSystem@@QEAA@XZ    00000001400c6ea0 f i EntityManager.obj
 0001:000c5f30       ??0?$CVector@UtagBuffColorData@CBuffSystem@@@@QEAA@PEAVCBufferAllocator@@@Z 00000001400c6f30 f i EntityManager.obj
 0001:000c5fe0       ?empty@?$CVector@UtagBuffColorData@CBuffSystem@@@@UEAAXXZ 00000001400c6fe0 f i EntityManager.obj
 0001:000c6080       ?reserve@?$CVector@UtagBuffColorData@CBuffSystem@@@@UEAAX_J@Z 00000001400c7080 f i EntityManager.obj
 0001:000c6200       ??_E?$CVector@UtagBuffColorData@CBuffSystem@@@@UEAAPEAXI@Z 00000001400c7200 f i EntityManager.obj
 0001:000c6200       ??_G?$CVector@UtagBuffColorData@CBuffSystem@@@@UEAAPEAXI@Z 00000001400c7200 f i EntityManager.obj
 0001:000c6260       ??1?$CVector@UtagBuffColorData@CBuffSystem@@@@UEAA@XZ 00000001400c7260 f i EntityManager.obj
 0001:000c62c0       ??0?$CBaseList@UtagBuffColorData@CBuffSystem@@@container@wylib@@QEAA@XZ 00000001400c72c0 f i EntityManager.obj
 0001:000c6320       ?Initialize@CBuffSystem@@UEAA_NPEAX_K@Z 00000001400c7320 f i EntityManager.obj
 0001:000c63a0       ?Destroy@CBuffSystem@@UEAAXXZ 00000001400c73a0 f i EntityManager.obj
 0001:000c6420       ??0CEffectSystem@@QEAA@XZ  00000001400c7420 f i EntityManager.obj
 0001:000c6490       ??0?$CList@PEAUCEntityEffect@@@@QEAA@PEAVCBufferAllocator@@@Z 00000001400c7490 f i EntityManager.obj
 0001:000c6540       ?allocNode@?$CList@PEAUCEntityEffect@@@@UEAAPEAV?$CLinkedNode@PEAUCEntityEffect@@@container@wylib@@XZ 00000001400c7540 f i EntityManager.obj
 0001:000c6610       ?freeNode@?$CList@PEAUCEntityEffect@@@@UEAAXPEAV?$CLinkedNode@PEAUCEntityEffect@@@container@wylib@@@Z 00000001400c7610 f i EntityManager.obj
 0001:000c6680       ??_G?$CList@PEAUCEntityEffect@@@@UEAAPEAXI@Z 00000001400c7680 f i EntityManager.obj
 0001:000c6680       ??_E?$CList@PEAUCEntityEffect@@@@UEAAPEAXI@Z 00000001400c7680 f i EntityManager.obj
 0001:000c66e0       ??1?$CList@PEAUCEntityEffect@@@@UEAA@XZ 00000001400c76e0 f i EntityManager.obj
 0001:000c6740       ??0?$CBaseLinkedList@PEAUCEntityEffect@@@container@wylib@@QEAA@XZ 00000001400c7740 f i EntityManager.obj
 0001:000c67b0       ?Destroy@CEffectSystem@@UEAAXXZ 00000001400c77b0 f i EntityManager.obj
 0001:000c67f0       ?Init@CTransfer@@UEAA_NPEAX_K@Z 00000001400c77f0 f i EntityManager.obj
 0001:000c6860       ?Destroy@CTransfer@@UEAAXXZ 00000001400c7860 f i EntityManager.obj
 0001:000c68a0       ?GetPropertySize@CTransfer@@UEBA_JXZ 00000001400c78a0 f i EntityManager.obj
 0001:000c68b0       ?GetPropertyPtr@CTransfer@@UEAAPEAVCPropertySet@@XZ 00000001400c78b0 f i EntityManager.obj
 0001:000c68d0       ?GetPropertyPtr@CTransfer@@UEBAPEBVCPropertySet@@XZ 00000001400c78d0 f i EntityManager.obj
 0001:000c68f0       ?GetPropertySetTotalSize@CTransfer@@UEBAHXZ 00000001400c78f0 f i EntityManager.obj
 0001:000c6900       ?DestroyPetBroadcastMask@CPet@@SAXXZ 00000001400c7900 f i EntityManager.obj
 0001:000c6960       ?GetPropertySize@CFire@@UEBA_JXZ 00000001400c7960 f i EntityManager.obj
 0001:000c6970       ?GetPropertyPtr@CFire@@UEAAPEAVCPropertySet@@XZ 00000001400c7970 f i EntityManager.obj
 0001:000c6990       ?GetPropertyPtr@CFire@@UEBAPEBVCPropertySet@@XZ 00000001400c7990 f i EntityManager.obj
 0001:000c69b0       ?GetPropertySetTotalSize@CFire@@UEBAHXZ 00000001400c79b0 f i EntityManager.obj
 0001:000c69c0       ?GetPropertySize@CLandscape@@UEBA_JXZ 00000001400c79c0 f i EntityManager.obj
 0001:000c69d0       ?GetPropertyPtr@CLandscape@@UEAAPEAVCPropertySet@@XZ 00000001400c79d0 f i EntityManager.obj
 0001:000c69f0       ?GetPropertyPtr@CLandscape@@UEBAPEBVCPropertySet@@XZ 00000001400c79f0 f i EntityManager.obj
 0001:000c6a10       ?GetPropertySetTotalSize@CLandscape@@UEBAHXZ 00000001400c7a10 f i EntityManager.obj
 0001:000c6a20       ?DestroyHeroBroadcastMask@CHero@@SAXXZ 00000001400c7a20 f i EntityManager.obj
 0001:000c6a80       ??0CActor@@QEAA@XZ         00000001400c7a80 f i EntityManager.obj
 0001:000c77c0       ??0CActorProperty@@QEAA@XZ 00000001400c87c0 f i EntityManager.obj
 0001:000c7820       ??0?$CVector@UtagActorSrcEffect@@@@QEAA@PEAVCBufferAllocator@@@Z 00000001400c8820 f i EntityManager.obj
 0001:000c78d0       ??0?$CBaseList@UtagActorSrcEffect@@@container@wylib@@QEAA@XZ 00000001400c88d0 f i EntityManager.obj
 0001:000c7930       ??0CEquipVessel@@QEAA@XZ   00000001400c8930 f i EntityManager.obj
 0001:000c7990       ?clear@CEquipVessel@@QEAAXXZ 00000001400c8990 f i EntityManager.obj
 0001:000c7a00       ?AfterEquipTakenOn@CEquipVessel@@UEAAXPEAVCActor@@_JPEAUCUserItem@@1@Z 00000001400c8a00 f i EntityManager.obj
 0001:000c7a20       ?AfterEquipTakenOff@CEquipVessel@@UEAAXPEAVCActor@@PEAUCUserItem@@@Z 00000001400c8a20 f i EntityManager.obj
 0001:000c7a40       ?AfterEquipDirectRemove@CEquipVessel@@UEAAXPEAVCActor@@PEAUCUserItem@@@Z 00000001400c8a40 f i EntityManager.obj
 0001:000c7a60       ??0CFubenSystem@@QEAA@XZ   00000001400c8a60 f i EntityManager.obj
 0001:000c7ad0       ??0AsyncOpCollector@@QEAA@XZ 00000001400c8ad0 f i EntityManager.obj
 0001:000c7b30       ??0?$CVector@VAsyncOpItem@@@@QEAA@PEAVCBufferAllocator@@@Z 00000001400c8b30 f i EntityManager.obj
 0001:000c7be0       ?empty@?$CVector@VAsyncOpItem@@@@UEAAXXZ 00000001400c8be0 f i EntityManager.obj
 0001:000c7c80       ?reserve@?$CVector@VAsyncOpItem@@@@UEAAX_J@Z 00000001400c8c80 f i EntityManager.obj
 0001:000c7e00       ??_G?$CVector@VAsyncOpItem@@@@UEAAPEAXI@Z 00000001400c8e00 f i EntityManager.obj
 0001:000c7e00       ??_E?$CVector@VAsyncOpItem@@@@UEAAPEAXI@Z 00000001400c8e00 f i EntityManager.obj
 0001:000c7e60       ??1?$CVector@VAsyncOpItem@@@@UEAA@XZ 00000001400c8e60 f i EntityManager.obj
 0001:000c7ec0       ??0?$CBaseList@VAsyncOpItem@@@container@wylib@@QEAA@XZ 00000001400c8ec0 f i EntityManager.obj
 0001:000c7f20       ??0CMiscSystem@@QEAA@XZ    00000001400c8f20 f i EntityManager.obj
 0001:000c80a0       ??0?$CVector@UtagRankItem@CMiscSystem@@@@QEAA@PEAVCBufferAllocator@@@Z 00000001400c90a0 f i EntityManager.obj
 0001:000c8150       ??0?$CBaseList@UtagRankItem@CMiscSystem@@@container@wylib@@QEAA@XZ 00000001400c9150 f i EntityManager.obj
 0001:000c81b0       ??0YbData@CMiscSystem@@QEAA@XZ 00000001400c91b0 f i EntityManager.obj
 0001:000c8200       ?ResetMiscData@CMiscSystem@@AEAAXXZ 00000001400c9200 f i EntityManager.obj
 0001:000c8250       ??0CAchieveSystem@@QEAA@XZ 00000001400c9250 f i EntityManager.obj
 0001:000c83a0       ??0?$CVector@UtagTitleTime@CAchieveSystem@@@@QEAA@PEAVCBufferAllocator@@@Z 00000001400c93a0 f i EntityManager.obj
 0001:000c8450       ?empty@?$CVector@UtagTitleTime@CAchieveSystem@@@@UEAAXXZ 00000001400c9450 f i EntityManager.obj
 0001:000c84f0       ?reserve@?$CVector@UtagTitleTime@CAchieveSystem@@@@UEAAX_J@Z 00000001400c94f0 f i EntityManager.obj
 0001:000c8670       ??_G?$CVector@UtagTitleTime@CAchieveSystem@@@@UEAAPEAXI@Z 00000001400c9670 f i EntityManager.obj
 0001:000c8670       ??_E?$CVector@UtagTitleTime@CAchieveSystem@@@@UEAAPEAXI@Z 00000001400c9670 f i EntityManager.obj
 0001:000c86d0       ??1?$CVector@UtagTitleTime@CAchieveSystem@@@@UEAA@XZ 00000001400c96d0 f i EntityManager.obj
 0001:000c8730       ??0?$CBaseList@UtagTitleTime@CAchieveSystem@@@container@wylib@@QEAA@XZ 00000001400c9730 f i EntityManager.obj
 0001:000c8790       ??0CAcupointSystem@@QEAA@XZ 00000001400c9790 f i EntityManager.obj
 0001:000c8820       ??0?$CVector@UtagAcupointStrongCount@CAcupointSystem@@@@QEAA@PEAVCBufferAllocator@@@Z 00000001400c9820 f i EntityManager.obj
 0001:000c88d0       ?empty@?$CVector@UtagAcupointStrongCount@CAcupointSystem@@@@UEAAXXZ 00000001400c98d0 f i EntityManager.obj
 0001:000c8970       ?reserve@?$CVector@UtagAcupointStrongCount@CAcupointSystem@@@@UEAAX_J@Z 00000001400c9970 f i EntityManager.obj
 0001:000c8af0       ??0?$CVector@UtagAcupointData@CAcupointSystem@@@@QEAA@PEAVCBufferAllocator@@@Z 00000001400c9af0 f i EntityManager.obj
 0001:000c8ba0       ?empty@?$CVector@UtagAcupointData@CAcupointSystem@@@@UEAAXXZ 00000001400c9ba0 f i EntityManager.obj
 0001:000c8c40       ?reserve@?$CVector@UtagAcupointData@CAcupointSystem@@@@UEAAX_J@Z 00000001400c9c40 f i EntityManager.obj
 0001:000c8dc0       ??_E?$CVector@UtagAcupointStrongCount@CAcupointSystem@@@@UEAAPEAXI@Z 00000001400c9dc0 f i EntityManager.obj
 0001:000c8dc0       ??_G?$CVector@UtagAcupointStrongCount@CAcupointSystem@@@@UEAAPEAXI@Z 00000001400c9dc0 f i EntityManager.obj
 0001:000c8e20       ??1?$CVector@UtagAcupointStrongCount@CAcupointSystem@@@@UEAA@XZ 00000001400c9e20 f i EntityManager.obj
 0001:000c8e80       ??_G?$CVector@UtagAcupointData@CAcupointSystem@@@@UEAAPEAXI@Z 00000001400c9e80 f i EntityManager.obj
 0001:000c8e80       ??_E?$CVector@UtagAcupointData@CAcupointSystem@@@@UEAAPEAXI@Z 00000001400c9e80 f i EntityManager.obj
 0001:000c8ee0       ??1?$CVector@UtagAcupointData@CAcupointSystem@@@@UEAA@XZ 00000001400c9ee0 f i EntityManager.obj
 0001:000c8f40       ??0?$CBaseList@UtagAcupointData@CAcupointSystem@@@container@wylib@@QEAA@XZ 00000001400c9f40 f i EntityManager.obj
 0001:000c8fa0       ??0?$CBaseList@UtagAcupointStrongCount@CAcupointSystem@@@container@wylib@@QEAA@XZ 00000001400c9fa0 f i EntityManager.obj
 0001:000c9000       ?Initialize@CAcupointSystem@@UEAA_NPEAX_K@Z 00000001400ca000 f i EntityManager.obj
 0001:000c9080       ?SetAttackLevel@CAnimal@@QEAAXH@Z 00000001400ca080 f i EntityManager.obj
 0001:000c90b0       ??0PracticeStoneDamage@@QEAA@XZ 00000001400ca0b0 f i EntityManager.obj
 0001:000c90f0       ?Reset@PracticeStoneDamage@@QEAAXXZ 00000001400ca0f0 f i EntityManager.obj
 0001:000c9140       ??0CActorBattleProp@@QEAA@XZ 00000001400ca140 f i EntityManager.obj
 0001:000c9190       ?DestroyActorBroadcastMask@CActor@@SAXXZ 00000001400ca190 f i EntityManager.obj
 0001:000c91f0       ?GetQuestSystem@CActor@@QEAAPEAVCQuestSystem@@XZ 00000001400ca1f0 f i EntityManager.obj
 0001:000c9210       ?GetGuildSystem@CActor@@QEAAPEAVCGuildSystem@@XZ 00000001400ca210 f i EntityManager.obj
 0001:000c9230       ?GetStoreSystem@CActor@@QEAAAEAVCGameStoreBuySystem@@XZ 00000001400ca230 f i EntityManager.obj
 0001:000c9250       ?GetBroadCastMask@CActor@@UEAAPEAVCUpdateMask@@XZ 00000001400ca250 f i EntityManager.obj
 0001:000c9270       ?GetPropertyPtr@CActor@@UEAAPEAVCPropertySet@@XZ 00000001400ca270 f i EntityManager.obj
 0001:000c9290       ?GetPropertyPtr@CActor@@UEBAPEBVCPropertySet@@XZ 00000001400ca290 f i EntityManager.obj
 0001:000c92b0       ?GetPropertySetTotalSize@CActor@@UEBAHXZ 00000001400ca2b0 f i EntityManager.obj
 0001:000c92c0       ?GetInterActionSystem@CActor@@QEAAAEAVCInteractionSystem@@XZ 00000001400ca2c0 f i EntityManager.obj
 0001:000c92e0       ?GetMsgSystem@CActor@@QEAAAEAVCMsgSystem@@XZ 00000001400ca2e0 f i EntityManager.obj
 0001:000c9300       ?GetPropertySize@CActor@@UEBA_JXZ 00000001400ca300 f i EntityManager.obj
 0001:000c9310       ?GetActorVarSystem@CActor@@QEAAAEAVCActorVarSubSystem@@XZ 00000001400ca310 f i EntityManager.obj
 0001:000c9330       ?GetMiscSystem@CActor@@QEAAAEAVCMiscSystem@@XZ 00000001400ca330 f i EntityManager.obj
 0001:000c9350       ?GetAcupointSystem@CActor@@QEAAAEAVCAcupointSystem@@XZ 00000001400ca350 f i EntityManager.obj
 0001:000c9370       ?GetGemSystem@CActor@@QEAAAEAVCGemSystem@@XZ 00000001400ca370 f i EntityManager.obj
 0001:000c9390       ?GetCombatSystem@CActor@@QEAAAEAVCCombatSystem@@XZ 00000001400ca390 f i EntityManager.obj
 0001:000c93b0       ?GetFriendSystem@CActor@@QEAAAEAVCFriendSystem@@XZ 00000001400ca3b0 f i EntityManager.obj
 0001:000c93d0       ?GetRideSystem@CActor@@QEAAAEAVCRideSystem@@XZ 00000001400ca3d0 f i EntityManager.obj
 0001:000c93f0       ?GetDiamondSystem@CActor@@QEAAAEAVCDiamondSystem@@XZ 00000001400ca3f0 f i EntityManager.obj
 0001:000c9410       ?GetCorpsSystem@CActor@@QEAAAEAVCCorpsSystem@@XZ 00000001400ca410 f i EntityManager.obj
 0001:000c9430       ?GetGodWealthSystem@CActor@@QEAAAEAVCGodWealthSystem@@XZ 00000001400ca430 f i EntityManager.obj
 0001:000c9450       ?GetTalentSystem@CActor@@QEAAAEAVCTalentSystem@@XZ 00000001400ca450 f i EntityManager.obj
 0001:000c9470       ?GetArtifactSystem@CActor@@QEAAAEAVCArtifactSystem@@XZ 00000001400ca470 f i EntityManager.obj
 0001:000c9490       ?GetRuneSystem@CActor@@QEAAAEAVCRuneSystem@@XZ 00000001400ca490 f i EntityManager.obj
 0001:000c94b0       ?GetCardsSystem@CActor@@QEAAAEAVCCardsSystem@@XZ 00000001400ca4b0 f i EntityManager.obj
 0001:000c94d0       ?GetBeastSoulSystem@CActor@@QEAAAEAVCBeastSoulSystem@@XZ 00000001400ca4d0 f i EntityManager.obj
 0001:000c94f0       ?GetGodArmSystem@CActor@@QEAAAEAVCGodArmSystem@@XZ 00000001400ca4f0 f i EntityManager.obj
 0001:000c9510       ?GetWordrobeSystem@CActor@@QEAAAEAVCWordrobeSystem@@XZ 00000001400ca510 f i EntityManager.obj
 0001:000c9530       ?GetWingSystem@CActor@@QEAAAEAVCWingSystem@@XZ 00000001400ca530 f i EntityManager.obj
 0001:000c9550       ?GetYuanSoulSystem@CActor@@QEAAAEAVCYuanSoulSystem@@XZ 00000001400ca550 f i EntityManager.obj
 0001:000c9570       ?GetBloodSystem@CActor@@QEAAAEAVCBloodSystem@@XZ 00000001400ca570 f i EntityManager.obj
 0001:000c9590       ?GetMailSystem@CActor@@QEAAAEAVCMailSystem@@XZ 00000001400ca590 f i EntityManager.obj
 0001:000c95b0       ?GetActorId@CActor@@QEBAIXZ 00000001400ca5b0 f i EntityManager.obj
 0001:000c95f0       ?getLeaveCombatTime@CActor@@EEAAHXZ 00000001400ca5f0 f i EntityManager.obj
 0001:000c9610       ??0CAdvanceAnimal@@QEAA@XZ 00000001400ca610 f i EntityManager.obj
 0001:000c9680       ??0AdvanceAnimalProp@@QEAA@XZ 00000001400ca680 f i EntityManager.obj
 0001:000c96d0       ??1CAdvanceAnimal@@QEAA@XZ 00000001400ca6d0 f i EntityManager.obj
 0001:000c9710       ??0CChatSystem@@QEAA@XZ    00000001400ca710 f i EntityManager.obj
 0001:000c9790       ?Initialize@CChatSystem@@UEAA_NPEAX_K@Z 00000001400ca790 f i EntityManager.obj
 0001:000c9840       ??0CGameStoreBuySystem@@QEAA@XZ 00000001400ca840 f i EntityManager.obj
 0001:000c98a0       ??0CLootSystem@@QEAA@XZ    00000001400ca8a0 f i EntityManager.obj
 0001:000c9900       ??0CTeamSystem@@QEAA@XZ    00000001400ca900 f i EntityManager.obj
 0001:000c9960       ??0CUserDepot@@QEAA@XZ     00000001400ca960 f i EntityManager.obj
 0001:000c99e0       ??0CDeportBag@@QEAA@XZ     00000001400ca9e0 f i EntityManager.obj
 0001:000c9a60       ?empty@?$CVector@PEAUCUserItem@@@@UEAAXXZ 00000001400caa60 f i EntityManager.obj
 0001:000c9b00       ?reserve@?$CVector@PEAUCUserItem@@@@UEAAX_J@Z 00000001400cab00 f i EntityManager.obj
 0001:000c9c80       ?OnAddItemById@CUserItemContainer@@MEAAXH_J0PEBUCUserItem@@@Z 00000001400cac80 f i EntityManager.obj
 0001:000c9ca0       ?CheckAutoSell@CUserItemContainer@@MEAA_NPEBUCUserItem@@PEBUItemOPParam@1@_N@Z 00000001400caca0 f i EntityManager.obj
 0001:000c9cc0       ?AddCardsItemToBag@CUserItemContainer@@MEAAXHH@Z 00000001400cacc0 f i EntityManager.obj
 0001:000c9ce0       ?OnDataModified@CDeportBag@@UEAAXXZ 00000001400cace0 f i EntityManager.obj
 0001:000c9d20       ?SetDataModifyFlag@CDeportBag@@QEAAX_N@Z 00000001400cad20 f i EntityManager.obj
 0001:000c9d70       ??_ECDeportBag@@UEAAPEAXI@Z 00000001400cad70 f i EntityManager.obj
 0001:000c9d70       ??_GCDeportBag@@UEAAPEAXI@Z 00000001400cad70 f i EntityManager.obj
 0001:000c9dd0       ??0CUserItemContainer@@QEAA@XZ 00000001400cadd0 f i EntityManager.obj
 0001:000c9e30       ??0?$CVector@PEAUCUserItem@@@@QEAA@PEAVCBufferAllocator@@@Z 00000001400cae30 f i EntityManager.obj
 0001:000c9ee0       ??_G?$CVector@PEAUCUserItem@@@@UEAAPEAXI@Z 00000001400caee0 f i EntityManager.obj
 0001:000c9ee0       ??_E?$CVector@PEAUCUserItem@@@@UEAAPEAXI@Z 00000001400caee0 f i EntityManager.obj
 0001:000c9f40       ??1?$CVector@PEAUCUserItem@@@@UEAA@XZ 00000001400caf40 f i EntityManager.obj
 0001:000c9fa0       ??0?$CBaseList@PEAUCUserItem@@@container@wylib@@QEAA@XZ 00000001400cafa0 f i EntityManager.obj
 0001:000ca000       ?OnAddItem@CUserItemContainer@@MEAAXPEBVCStdItem@@_J1PEBUCUserItem@@@Z 00000001400cb000 f i EntityManager.obj
 0001:000ca020       ?OnDeleteItem@CUserItemContainer@@MEAAXPEBVCStdItem@@_J1HPEBUCUserItem@@@Z 00000001400cb020 f i EntityManager.obj
 0001:000ca040       ?OnDataModified@CUserItemContainer@@MEAAXXZ 00000001400cb040 f i EntityManager.obj
 0001:000ca050       ??1CDeportBag@@UEAA@XZ     00000001400cb050 f i EntityManager.obj
 0001:000ca090       ??1CUserItemContainer@@UEAA@XZ 00000001400cb090 f i EntityManager.obj
 0001:000ca0d0       ??_GCUserItemContainer@@UEAAPEAXI@Z 00000001400cb0d0 f i EntityManager.obj
 0001:000ca0d0       ??_ECUserItemContainer@@UEAAPEAXI@Z 00000001400cb0d0 f i EntityManager.obj
 0001:000ca130       ?Destroy@CUserDepot@@UEAAXXZ 00000001400cb130 f i EntityManager.obj
 0001:000ca1c0       ??1CUserDepot@@QEAA@XZ     00000001400cb1c0 f i EntityManager.obj
 0001:000ca220       ??0CActorVarSubSystem@@QEAA@XZ 00000001400cb220 f i EntityManager.obj
 0001:000ca280       ??1CActorVarSubSystem@@QEAA@XZ 00000001400cb280 f i EntityManager.obj
 0001:000ca2c0       ??1CAchieveSystem@@QEAA@XZ 00000001400cb2c0 f i EntityManager.obj
 0001:000ca310       ??1CAcupointSystem@@QEAA@XZ 00000001400cb310 f i EntityManager.obj
 0001:000ca370       ??0CPetSystem@@QEAA@XZ     00000001400cb370 f i EntityManager.obj
 0001:000ca3f0       ??0?$CVector@UPETDATA@CPetSystem@@@@QEAA@PEAVCBufferAllocator@@@Z 00000001400cb3f0 f i EntityManager.obj
 0001:000ca4a0       ?empty@?$CVector@UPETDATA@CPetSystem@@@@UEAAXXZ 00000001400cb4a0 f i EntityManager.obj
 0001:000ca540       ?reserve@?$CVector@UPETDATA@CPetSystem@@@@UEAAX_J@Z 00000001400cb540 f i EntityManager.obj
 0001:000ca6c0       ??_G?$CVector@UPETDATA@CPetSystem@@@@UEAAPEAXI@Z 00000001400cb6c0 f i EntityManager.obj
 0001:000ca6c0       ??_E?$CVector@UPETDATA@CPetSystem@@@@UEAAPEAXI@Z 00000001400cb6c0 f i EntityManager.obj
 0001:000ca720       ??1?$CVector@UPETDATA@CPetSystem@@@@UEAA@XZ 00000001400cb720 f i EntityManager.obj
 0001:000ca780       ??0?$CBaseList@UPETDATA@CPetSystem@@@container@wylib@@QEAA@XZ 00000001400cb780 f i EntityManager.obj
 0001:000ca7e0       ??1CTeacherSystem@@QEAA@XZ 00000001400cb7e0 f i EntityManager.obj
 0001:000ca830       ??0CUserEquipment@@QEAA@XZ 00000001400cb830 f i EntityManager.obj
 0001:000ca940       ??0CRandHit@@QEAA@XZ       00000001400cb940 f i EntityManager.obj
 0001:000ca9c0       ?Destroy@CUserEquipment@@UEAAXXZ 00000001400cb9c0 f i EntityManager.obj
 0001:000caa20       ??1CUserEquipment@@QEAA@XZ 00000001400cba20 f i EntityManager.obj
 0001:000caaa0       ??1AsyncOpCollector@@QEAA@XZ 00000001400cbaa0 f i EntityManager.obj
 0001:000caaf0       ??0CUserBag@@QEAA@XZ       00000001400cbaf0 f i EntityManager.obj
 0001:000cabd0       ??0?$CVector@UtagLuckAwardLog@CStdItemProvider@@@@QEAA@PEAVCBufferAllocator@@@Z 00000001400cbbd0 f i EntityManager.obj
 0001:000cac80       ?empty@?$CVector@UtagLuckAwardLog@CStdItemProvider@@@@UEAAXXZ 00000001400cbc80 f i EntityManager.obj
 0001:000cad20       ?reserve@?$CVector@UtagLuckAwardLog@CStdItemProvider@@@@UEAAX_J@Z 00000001400cbd20 f i EntityManager.obj
 0001:000caea0       ??_G?$CVector@UtagLuckAwardLog@CStdItemProvider@@@@UEAAPEAXI@Z 00000001400cbea0 f i EntityManager.obj
 0001:000caea0       ??_E?$CVector@UtagLuckAwardLog@CStdItemProvider@@@@UEAAPEAXI@Z 00000001400cbea0 f i EntityManager.obj
 0001:000caf00       ??1?$CVector@UtagLuckAwardLog@CStdItemProvider@@@@UEAA@XZ 00000001400cbf00 f i EntityManager.obj
 0001:000caf60       ??0?$CBaseList@UtagLuckAwardLog@CStdItemProvider@@@container@wylib@@QEAA@XZ 00000001400cbf60 f i EntityManager.obj
 0001:000cafc0       ?OnDataModified@CUserBag@@UEAAXXZ 00000001400cbfc0 f i EntityManager.obj
 0001:000cb010       ??1CUserBag@@UEAA@XZ       00000001400cc010 f i EntityManager.obj
 0001:000cb090       ??0CActorDataPacketStat@@QEAA@XZ 00000001400cc090 f i EntityManager.obj
 0001:000cb0f0       ??0?$CVector@UtagDataPacketRecord@@@@QEAA@PEAVCBufferAllocator@@@Z 00000001400cc0f0 f i EntityManager.obj
 0001:000cb1a0       ?empty@?$CVector@UtagDataPacketRecord@@@@UEAAXXZ 00000001400cc1a0 f i EntityManager.obj
 0001:000cb240       ?reserve@?$CVector@UtagDataPacketRecord@@@@UEAAX_J@Z 00000001400cc240 f i EntityManager.obj
 0001:000cb3c0       ??_G?$CVector@UtagDataPacketRecord@@@@UEAAPEAXI@Z 00000001400cc3c0 f i EntityManager.obj
 0001:000cb3c0       ??_E?$CVector@UtagDataPacketRecord@@@@UEAAPEAXI@Z 00000001400cc3c0 f i EntityManager.obj
 0001:000cb420       ??1?$CVector@UtagDataPacketRecord@@@@UEAA@XZ 00000001400cc420 f i EntityManager.obj
 0001:000cb480       ??0?$CBaseList@UtagDataPacketRecord@@@container@wylib@@QEAA@XZ 00000001400cc480 f i EntityManager.obj
 0001:000cb4e0       ??1CAnimal@@QEAA@XZ        00000001400cc4e0 f i EntityManager.obj
 0001:000cb5c0       ??1CCreature@@QEAA@XZ      00000001400cc5c0 f i EntityManager.obj
 0001:000cb600       ??1CObserverSystem@@QEAA@XZ 00000001400cc600 f i EntityManager.obj
 0001:000cb650       ??1CMovementSystem@@QEAA@XZ 00000001400cc650 f i EntityManager.obj
 0001:000cb6a0       ??1CBuffSystem@@QEAA@XZ    00000001400cc6a0 f i EntityManager.obj
 0001:000cb6f0       ??1CEntityOPCollector@@QEAA@XZ 00000001400cc6f0 f i EntityManager.obj
 0001:000cb730       ??1CSkillSubSystem@@QEAA@XZ 00000001400cc730 f i EntityManager.obj
 0001:000cb790       ??1CEffectSystem@@QEAA@XZ  00000001400cc790 f i EntityManager.obj
 0001:000cb7e0       ??0?$CCustomEntityVarSubSystem@$0O@VCActorVarSubSystem@@VCActor@@@@QEAA@XZ 00000001400cc7e0 f i EntityManager.obj
 0001:000cb850       ??1?$CCustomEntityVarSubSystem@$0O@VCActorVarSubSystem@@VCActor@@@@QEAA@XZ 00000001400cc850 f i EntityManager.obj
 0001:000cb8a0       ??1CTeacherMgr@@QEAA@XZ    00000001400cc8a0 f i EntityManager.obj
 0001:000cb8e0       ??1CRandHit@@QEAA@XZ       00000001400cc8e0 f i EntityManager.obj
 0001:000cb920       ??_ECUserBag@@UEAAPEAXI@Z  00000001400cc920 f i EntityManager.obj
 0001:000cb920       ??_GCUserBag@@UEAAPEAXI@Z  00000001400cc920 f i EntityManager.obj
 0001:000cb980       ?Init@CMonster@@UEAA_NPEAX_K@Z 00000001400cc980 f i EntityManager.obj
 0001:000cbb20       ?Destroy@CMonster@@UEAAXXZ 00000001400ccb20 f i EntityManager.obj
 0001:000cbb90       ?GetPropertySize@CMonster@@UEBA_JXZ 00000001400ccb90 f i EntityManager.obj
 0001:000cbba0       ?GetPropertyPtr@CMonster@@UEAAPEAVCPropertySet@@XZ 00000001400ccba0 f i EntityManager.obj
 0001:000cbbc0       ?GetPropertyPtr@CMonster@@UEBAPEBVCPropertySet@@XZ 00000001400ccbc0 f i EntityManager.obj
 0001:000cbbe0       ?GetPropertySetTotalSize@CMonster@@UEBAHXZ 00000001400ccbe0 f i EntityManager.obj
 0001:000cbbf0       ?GetBroadCastMask@CMonster@@UEAAPEAVCUpdateMask@@XZ 00000001400ccbf0 f i EntityManager.obj
 0001:000cbc10       ?DestroyMonsterBroadcastMask@CMonster@@SAXXZ 00000001400ccc10 f i EntityManager.obj
 0001:000cbc70       ?GetPropertySize@CDropItemEntity@@UEBA_JXZ 00000001400ccc70 f i EntityManager.obj
 0001:000cbc80       ?GetPropertyPtr@CDropItemEntity@@UEAAPEAVCPropertySet@@XZ 00000001400ccc80 f i EntityManager.obj
 0001:000cbca0       ?GetPropertyPtr@CDropItemEntity@@UEBAPEBVCPropertySet@@XZ 00000001400ccca0 f i EntityManager.obj
 0001:000cbcc0       ?GetPropertySetTotalSize@CDropItemEntity@@UEBAHXZ 00000001400cccc0 f i EntityManager.obj
 0001:000cbcd0       ?GetEntityPtrByAccountID@CEntityManager@@QEAAPEAVCActor@@I@Z 00000001400cccd0 f i EntityManager.obj
 0001:000cbdf0       ?GetAccountID@CActor@@QEAAIXZ 00000001400ccdf0 f i EntityManager.obj
 0001:000cbe10       ?GetGlobalVarMgr@CLogicEngine@@QEAAAEAVCGlobalVarMgr@@XZ 00000001400cce10 f i EntityManager.obj
 0001:000cbe30       ?GetTopTitleMgr@CLogicEngine@@QEAAAEAVCTopTitleMgr@@XZ 00000001400cce30 f i EntityManager.obj
 0001:000cbe50       ?append@?$CQueueList@PEAVCDataPacket@@@container@wylib@@QEAAXAEBQEAVCDataPacket@@@Z 00000001400cce50 f i EntityManager.obj
 0001:000cbec0       ?lock@?$CLockList@PEAVCDataPacket@@@container@wylib@@QEAAXXZ 00000001400ccec0 f i EntityManager.obj
 0001:000cbf30       ?unlock@?$CLockList@PEAVCDataPacket@@@container@wylib@@QEAAXXZ 00000001400ccf30 f i EntityManager.obj
 0001:000cbfa0       ??0?$CBaseList@PEAVCDataPacket@@@container@wylib@@QEAA@XZ 00000001400ccfa0 f i EntityManager.obj
 0001:000cc000       ??1?$CBaseList@PEAVCDataPacket@@@container@wylib@@UEAA@XZ 00000001400cd000 f i EntityManager.obj
 0001:000cc050       ?count@?$CBaseList@PEAVCDataPacket@@@container@wylib@@QEBA_JXZ 00000001400cd050 f i EntityManager.obj
 0001:000cc070       ?add@?$CBaseList@PEAVCDataPacket@@@container@wylib@@QEAA_JAEBQEAVCDataPacket@@@Z 00000001400cd070 f i EntityManager.obj
 0001:000cc170       ?empty@?$CBaseList@PEAVCDataPacket@@@container@wylib@@UEAAXXZ 00000001400cd170 f i EntityManager.obj
 0001:000cc1f0       ?clear@?$CBaseList@PEAVCDataPacket@@@container@wylib@@QEAAXXZ 00000001400cd1f0 f i EntityManager.obj
 0001:000cc210       ?reserve@?$CBaseList@PEAVCDataPacket@@@container@wylib@@UEAAX_J@Z 00000001400cd210 f i EntityManager.obj
 0001:000cc2b0       ??B?$CBaseList@PEAVCDataPacket@@@container@wylib@@QEBAPEAPEAVCDataPacket@@XZ 00000001400cd2b0 f i EntityManager.obj
 0001:000cc2d0       ??1?$Counter@VCCLVariant@@@@QEAA@XZ 00000001400cd2d0 f i EntityManager.obj
 0001:000cc2f0       ??0?$Counter@VCRandHit@@@@QEAA@XZ 00000001400cd2f0 f i EntityManager.obj
 0001:000cc330       ??1?$Counter@VCRandHit@@@@QEAA@XZ 00000001400cd330 f i EntityManager.obj
 0001:000cc350       ??0?$CBaseList@USMALLCPOINT@@@container@wylib@@QEAA@XZ 00000001400cd350 f i EntityManager.obj
 0001:000cc3b0       ??1?$CBaseList@USMALLCPOINT@@@container@wylib@@UEAA@XZ 00000001400cd3b0 f i EntityManager.obj
 0001:000cc400       ?empty@?$CBaseList@USMALLCPOINT@@@container@wylib@@UEAAXXZ 00000001400cd400 f i EntityManager.obj
 0001:000cc480       ?reserve@?$CBaseList@USMALLCPOINT@@@container@wylib@@UEAAX_J@Z 00000001400cd480 f i EntityManager.obj
 0001:000cc520       ??0?$CTimer@$0BDII@@@QEAA@XZ 00000001400cd520 f i EntityManager.obj
 0001:000cc570       ??1?$CBaseList@H@container@wylib@@UEAA@XZ 00000001400cd570 f i EntityManager.obj
 0001:000cc5c0       ?empty@?$CBaseList@H@container@wylib@@UEAAXXZ 00000001400cd5c0 f i EntityManager.obj
 0001:000cc640       ?clear@?$CBaseList@H@container@wylib@@QEAAXXZ 00000001400cd640 f i EntityManager.obj
 0001:000cc660       ?reserve@?$CBaseList@H@container@wylib@@UEAAX_J@Z 00000001400cd660 f i EntityManager.obj
 0001:000cc700       ?count@?$CBaseList@I@container@wylib@@QEBA_JXZ 00000001400cd700 f i EntityManager.obj
 0001:000cc720       ??0?$Counter@VCEntityOPCollector@@@@QEAA@XZ 00000001400cd720 f i EntityManager.obj
 0001:000cc760       ??1?$Counter@VCEntityOPCollector@@@@QEAA@XZ 00000001400cd760 f i EntityManager.obj
 0001:000cc780       ??0?$Counter@VScriptCallbackParam@@@@QEAA@XZ 00000001400cd780 f i EntityManager.obj
 0001:000cc7c0       ??1?$Counter@VScriptCallbackParam@@@@QEAA@XZ 00000001400cd7c0 f i EntityManager.obj
 0001:000cc7e0       ??1?$CBaseLinkedList@PEAVCEntityMsg@@@container@wylib@@UEAA@XZ 00000001400cd7e0 f i EntityManager.obj
 0001:000cc830       ?clear@?$CBaseLinkedList@PEAVCEntityMsg@@@container@wylib@@UEAAXXZ 00000001400cd830 f i EntityManager.obj
 0001:000cc8f0       ?allocNode@?$CBaseLinkedList@PEAVCEntityMsg@@@container@wylib@@MEAAPEAV?$CLinkedNode@PEAVCEntityMsg@@@23@XZ 00000001400cd8f0 f i EntityManager.obj
 0001:000cc960       ?freeNode@?$CBaseLinkedList@PEAVCEntityMsg@@@container@wylib@@MEAAXPEAV?$CLinkedNode@PEAVCEntityMsg@@@23@@Z 00000001400cd960 f i EntityManager.obj
 0001:000cc9e0       ??1?$CBaseList@PEAVScriptCallbackParam@@@container@wylib@@UEAA@XZ 00000001400cd9e0 f i EntityManager.obj
 0001:000cca30       ?empty@?$CBaseList@PEAVScriptCallbackParam@@@container@wylib@@UEAAXXZ 00000001400cda30 f i EntityManager.obj
 0001:000ccab0       ?reserve@?$CBaseList@PEAVScriptCallbackParam@@@container@wylib@@UEAAX_J@Z 00000001400cdab0 f i EntityManager.obj
 0001:000ccb50       ??1?$CBaseList@VOwnedBabyInfo@@@container@wylib@@UEAA@XZ 00000001400cdb50 f i EntityManager.obj
 0001:000ccba0       ?empty@?$CBaseList@VOwnedBabyInfo@@@container@wylib@@UEAAXXZ 00000001400cdba0 f i EntityManager.obj
 0001:000ccc20       ?reserve@?$CBaseList@VOwnedBabyInfo@@@container@wylib@@UEAAX_J@Z 00000001400cdc20 f i EntityManager.obj
 0001:000cccc0       ??0?$Counter@VCEntity@@@@QEAA@XZ 00000001400cdcc0 f i EntityManager.obj
 0001:000ccd00       ??1?$Counter@VCEntity@@@@QEAA@XZ 00000001400cdd00 f i EntityManager.obj
 0001:000ccd20       ??1?$CBaseList@PEAUCUserItem@@@container@wylib@@UEAA@XZ 00000001400cdd20 f i EntityManager.obj
 0001:000ccd70       ?empty@?$CBaseList@PEAUCUserItem@@@container@wylib@@UEAAXXZ 00000001400cdd70 f i EntityManager.obj
 0001:000ccdf0       ?reserve@?$CBaseList@PEAUCUserItem@@@container@wylib@@UEAAX_J@Z 00000001400cddf0 f i EntityManager.obj
 0001:000cce90       ??0?$CEntitySubSystem@$07VCUserBag@@VCAnimal@@@@QEAA@XZ 00000001400cde90 f i EntityManager.obj
 0001:000ccef0       ?Initialize@?$CEntitySubSystem@$07VCUserBag@@VCAnimal@@@@UEAA_NPEAX_K@Z 00000001400cdef0 f i EntityManager.obj
 0001:000ccf10       ?OnDbRetData@?$CEntitySubSystem@$07VCUserBag@@VCAnimal@@@@UEAAX_J0AEAVCDataPacketReader@@@Z 00000001400cdf10 f i EntityManager.obj
 0001:000ccf30       ?Save@?$CEntitySubSystem@$07VCUserBag@@VCAnimal@@@@UEAAXPEAUtagActorDbData@@@Z 00000001400cdf30 f i EntityManager.obj
 0001:000ccf40       ?Destroy@?$CEntitySubSystem@$07VCUserBag@@VCAnimal@@@@UEAAXXZ 00000001400cdf40 f i EntityManager.obj
 0001:000ccf50       ?ProcessNetData@?$CEntitySubSystem@$07VCUserBag@@VCAnimal@@@@UEAAX_JAEAVCDataPacketReader@@@Z 00000001400cdf50 f i EntityManager.obj
 0001:000ccf70       ?OnTimeCheck@?$CEntitySubSystem@$07VCUserBag@@VCAnimal@@@@UEAAX_J@Z 00000001400cdf70 f i EntityManager.obj
 0001:000ccf80       ?OnEnterGame@?$CEntitySubSystem@$07VCUserBag@@VCAnimal@@@@UEAAXXZ 00000001400cdf80 f i EntityManager.obj
 0001:000ccf90       ?SetDataModifyFlag@?$CEntitySubSystem@$07VCUserBag@@VCAnimal@@@@QEAAX_N@Z 00000001400cdf90 f i EntityManager.obj
 0001:000ccfe0       ??0?$CTimer@$0HFDA@@@QEAA@XZ 00000001400cdfe0 f i EntityManager.obj
 0001:000cd030       ??1?$CBaseList@UtagLuckAwardLog@CStdItemProvider@@@container@wylib@@UEAA@XZ 00000001400ce030 f i EntityManager.obj
 0001:000cd080       ?empty@?$CBaseList@UtagLuckAwardLog@CStdItemProvider@@@container@wylib@@UEAAXXZ 00000001400ce080 f i EntityManager.obj
 0001:000cd100       ?reserve@?$CBaseList@UtagLuckAwardLog@CStdItemProvider@@@container@wylib@@UEAAX_J@Z 00000001400ce100 f i EntityManager.obj
 0001:000cd1a0       ??0?$CEntitySubSystem@$0BH@VCUserDepot@@VCActor@@@@QEAA@XZ 00000001400ce1a0 f i EntityManager.obj
 0001:000cd200       ?Initialize@?$CEntitySubSystem@$0BH@VCUserDepot@@VCActor@@@@UEAA_NPEAX_K@Z 00000001400ce200 f i EntityManager.obj
 0001:000cd220       ?OnDbRetData@?$CEntitySubSystem@$0BH@VCUserDepot@@VCActor@@@@UEAAX_J0AEAVCDataPacketReader@@@Z 00000001400ce220 f i EntityManager.obj
 0001:000cd240       ?Save@?$CEntitySubSystem@$0BH@VCUserDepot@@VCActor@@@@UEAAXPEAUtagActorDbData@@@Z 00000001400ce240 f i EntityManager.obj
 0001:000cd250       ?Destroy@?$CEntitySubSystem@$0BH@VCUserDepot@@VCActor@@@@UEAAXXZ 00000001400ce250 f i EntityManager.obj
 0001:000cd260       ?ProcessNetData@?$CEntitySubSystem@$0BH@VCUserDepot@@VCActor@@@@UEAAX_JAEAVCDataPacketReader@@@Z 00000001400ce260 f i EntityManager.obj
 0001:000cd280       ?OnTimeCheck@?$CEntitySubSystem@$0BH@VCUserDepot@@VCActor@@@@UEAAX_J@Z 00000001400ce280 f i EntityManager.obj
 0001:000cd290       ?OnEnterGame@?$CEntitySubSystem@$0BH@VCUserDepot@@VCActor@@@@UEAAXXZ 00000001400ce290 f i EntityManager.obj
 0001:000cd2a0       ??0?$CEntitySubSystem@$03VCBuffSystem@@VCAnimal@@@@QEAA@XZ 00000001400ce2a0 f i EntityManager.obj
 0001:000cd300       ?Initialize@?$CEntitySubSystem@$03VCBuffSystem@@VCAnimal@@@@UEAA_NPEAX_K@Z 00000001400ce300 f i EntityManager.obj
 0001:000cd320       ?OnDbRetData@?$CEntitySubSystem@$03VCBuffSystem@@VCAnimal@@@@UEAAX_J0AEAVCDataPacketReader@@@Z 00000001400ce320 f i EntityManager.obj
 0001:000cd340       ?Save@?$CEntitySubSystem@$03VCBuffSystem@@VCAnimal@@@@UEAAXPEAUtagActorDbData@@@Z 00000001400ce340 f i EntityManager.obj
 0001:000cd350       ?Destroy@?$CEntitySubSystem@$03VCBuffSystem@@VCAnimal@@@@UEAAXXZ 00000001400ce350 f i EntityManager.obj
 0001:000cd360       ?ProcessNetData@?$CEntitySubSystem@$03VCBuffSystem@@VCAnimal@@@@UEAAX_JAEAVCDataPacketReader@@@Z 00000001400ce360 f i EntityManager.obj
 0001:000cd380       ?OnTimeCheck@?$CEntitySubSystem@$03VCBuffSystem@@VCAnimal@@@@UEAAX_J@Z 00000001400ce380 f i EntityManager.obj
 0001:000cd390       ?OnEnterGame@?$CEntitySubSystem@$03VCBuffSystem@@VCAnimal@@@@UEAAXXZ 00000001400ce390 f i EntityManager.obj
 0001:000cd3a0       ??1?$CBaseList@UtagBuffColorData@CBuffSystem@@@container@wylib@@UEAA@XZ 00000001400ce3a0 f i EntityManager.obj
 0001:000cd3f0       ?empty@?$CBaseList@UtagBuffColorData@CBuffSystem@@@container@wylib@@UEAAXXZ 00000001400ce3f0 f i EntityManager.obj
 0001:000cd470       ?clear@?$CBaseList@UtagBuffColorData@CBuffSystem@@@container@wylib@@QEAAXXZ 00000001400ce470 f i EntityManager.obj
 0001:000cd490       ?reserve@?$CBaseList@UtagBuffColorData@CBuffSystem@@@container@wylib@@UEAAX_J@Z 00000001400ce490 f i EntityManager.obj
 0001:000cd530       ??0?$CEntitySubSystem@$02VCObserverSystem@@VCAnimal@@@@QEAA@XZ 00000001400ce530 f i EntityManager.obj
 0001:000cd590       ?Initialize@?$CEntitySubSystem@$02VCObserverSystem@@VCAnimal@@@@UEAA_NPEAX_K@Z 00000001400ce590 f i EntityManager.obj
 0001:000cd5b0       ?OnDbRetData@?$CEntitySubSystem@$02VCObserverSystem@@VCAnimal@@@@UEAAX_J0AEAVCDataPacketReader@@@Z 00000001400ce5b0 f i EntityManager.obj
 0001:000cd5d0       ?Save@?$CEntitySubSystem@$02VCObserverSystem@@VCAnimal@@@@UEAAXPEAUtagActorDbData@@@Z 00000001400ce5d0 f i EntityManager.obj
 0001:000cd5e0       ?Destroy@?$CEntitySubSystem@$02VCObserverSystem@@VCAnimal@@@@UEAAXXZ 00000001400ce5e0 f i EntityManager.obj
 0001:000cd5f0       ?ProcessNetData@?$CEntitySubSystem@$02VCObserverSystem@@VCAnimal@@@@UEAAX_JAEAVCDataPacketReader@@@Z 00000001400ce5f0 f i EntityManager.obj
 0001:000cd610       ?OnTimeCheck@?$CEntitySubSystem@$02VCObserverSystem@@VCAnimal@@@@UEAAX_J@Z 00000001400ce610 f i EntityManager.obj
 0001:000cd620       ?OnEnterGame@?$CEntitySubSystem@$02VCObserverSystem@@VCAnimal@@@@UEAAXXZ 00000001400ce620 f i EntityManager.obj
 0001:000cd630       ??1?$CBaseList@UEntityHandleTag@@@container@wylib@@UEAA@XZ 00000001400ce630 f i EntityManager.obj
 0001:000cd680       ?empty@?$CBaseList@UEntityHandleTag@@@container@wylib@@UEAAXXZ 00000001400ce680 f i EntityManager.obj
 0001:000cd700       ?clear@?$CBaseList@UEntityHandleTag@@@container@wylib@@QEAAXXZ 00000001400ce700 f i EntityManager.obj
 0001:000cd720       ?reserve@?$CBaseList@UEntityHandleTag@@@container@wylib@@UEAAX_J@Z 00000001400ce720 f i EntityManager.obj
 0001:000cd7c0       ??0?$CEntitySubSystem@$00VCMovementSystem@@VCAnimal@@@@QEAA@XZ 00000001400ce7c0 f i EntityManager.obj
 0001:000cd820       ?Initialize@?$CEntitySubSystem@$00VCMovementSystem@@VCAnimal@@@@UEAA_NPEAX_K@Z 00000001400ce820 f i EntityManager.obj
 0001:000cd840       ?OnDbRetData@?$CEntitySubSystem@$00VCMovementSystem@@VCAnimal@@@@UEAAX_J0AEAVCDataPacketReader@@@Z 00000001400ce840 f i EntityManager.obj
 0001:000cd860       ?Save@?$CEntitySubSystem@$00VCMovementSystem@@VCAnimal@@@@UEAAXPEAUtagActorDbData@@@Z 00000001400ce860 f i EntityManager.obj
 0001:000cd870       ?Destroy@?$CEntitySubSystem@$00VCMovementSystem@@VCAnimal@@@@UEAAXXZ 00000001400ce870 f i EntityManager.obj
 0001:000cd880       ?ProcessNetData@?$CEntitySubSystem@$00VCMovementSystem@@VCAnimal@@@@UEAAX_JAEAVCDataPacketReader@@@Z 00000001400ce880 f i EntityManager.obj
 0001:000cd8a0       ?OnTimeCheck@?$CEntitySubSystem@$00VCMovementSystem@@VCAnimal@@@@UEAAX_J@Z 00000001400ce8a0 f i EntityManager.obj
 0001:000cd8b0       ?OnEnterGame@?$CEntitySubSystem@$00VCMovementSystem@@VCAnimal@@@@UEAAXXZ 00000001400ce8b0 f i EntityManager.obj
 0001:000cd8c0       ??0?$CTimer@$0BPE@@@QEAA@XZ 00000001400ce8c0 f i EntityManager.obj
 0001:000cd910       ??0?$CTimer@$0HFDAA@@@QEAA@XZ 00000001400ce910 f i EntityManager.obj
 0001:000cd960       ??0?$CEntitySubSystem@$01VCPropertySystem@@VCCreature@@@@QEAA@XZ 00000001400ce960 f i EntityManager.obj
 0001:000cd9c0       ?Initialize@?$CEntitySubSystem@$01VCPropertySystem@@VCCreature@@@@UEAA_NPEAX_K@Z 00000001400ce9c0 f i EntityManager.obj
 0001:000cd9e0       ?OnDbRetData@?$CEntitySubSystem@$01VCPropertySystem@@VCCreature@@@@UEAAX_J0AEAVCDataPacketReader@@@Z 00000001400ce9e0 f i EntityManager.obj
 0001:000cda00       ?Save@?$CEntitySubSystem@$01VCPropertySystem@@VCCreature@@@@UEAAXPEAUtagActorDbData@@@Z 00000001400cea00 f i EntityManager.obj
 0001:000cda10       ?Destroy@?$CEntitySubSystem@$01VCPropertySystem@@VCCreature@@@@UEAAXXZ 00000001400cea10 f i EntityManager.obj
 0001:000cda20       ?ProcessNetData@?$CEntitySubSystem@$01VCPropertySystem@@VCCreature@@@@UEAAX_JAEAVCDataPacketReader@@@Z 00000001400cea20 f i EntityManager.obj
 0001:000cda40       ?OnTimeCheck@?$CEntitySubSystem@$01VCPropertySystem@@VCCreature@@@@UEAAX_J@Z 00000001400cea40 f i EntityManager.obj
 0001:000cda50       ?OnEnterGame@?$CEntitySubSystem@$01VCPropertySystem@@VCCreature@@@@UEAAXXZ 00000001400cea50 f i EntityManager.obj
 0001:000cda60       ??0?$CEntitySubSystem@$06VCUserEquipment@@VCActor@@@@QEAA@XZ 00000001400cea60 f i EntityManager.obj
 0001:000cdac0       ?Initialize@?$CEntitySubSystem@$06VCUserEquipment@@VCActor@@@@UEAA_NPEAX_K@Z 00000001400ceac0 f i EntityManager.obj
 0001:000cdae0       ?OnDbRetData@?$CEntitySubSystem@$06VCUserEquipment@@VCActor@@@@UEAAX_J0AEAVCDataPacketReader@@@Z 00000001400ceae0 f i EntityManager.obj
 0001:000cdb00       ?Save@?$CEntitySubSystem@$06VCUserEquipment@@VCActor@@@@UEAAXPEAUtagActorDbData@@@Z 00000001400ceb00 f i EntityManager.obj
 0001:000cdb10       ?Destroy@?$CEntitySubSystem@$06VCUserEquipment@@VCActor@@@@UEAAXXZ 00000001400ceb10 f i EntityManager.obj
 0001:000cdb20       ?ProcessNetData@?$CEntitySubSystem@$06VCUserEquipment@@VCActor@@@@UEAAX_JAEAVCDataPacketReader@@@Z 00000001400ceb20 f i EntityManager.obj
 0001:000cdb40       ?OnTimeCheck@?$CEntitySubSystem@$06VCUserEquipment@@VCActor@@@@UEAAX_J@Z 00000001400ceb40 f i EntityManager.obj
 0001:000cdb50       ?OnEnterGame@?$CEntitySubSystem@$06VCUserEquipment@@VCActor@@@@UEAAXXZ 00000001400ceb50 f i EntityManager.obj
 0001:000cdb60       ??0?$CTimer@$0EJDOA@@@QEAA@XZ 00000001400ceb60 f i EntityManager.obj
 0001:000cdbb0       ??0?$CTimer@$0CHBA@@@QEAA@XZ 00000001400cebb0 f i EntityManager.obj
 0001:000cdc00       ??0?$CEntitySubSystem@$08VCChatSystem@@VCActor@@@@QEAA@XZ 00000001400cec00 f i EntityManager.obj
 0001:000cdc60       ?Initialize@?$CEntitySubSystem@$08VCChatSystem@@VCActor@@@@UEAA_NPEAX_K@Z 00000001400cec60 f i EntityManager.obj
 0001:000cdc80       ?OnDbRetData@?$CEntitySubSystem@$08VCChatSystem@@VCActor@@@@UEAAX_J0AEAVCDataPacketReader@@@Z 00000001400cec80 f i EntityManager.obj
 0001:000cdca0       ?Save@?$CEntitySubSystem@$08VCChatSystem@@VCActor@@@@UEAAXPEAUtagActorDbData@@@Z 00000001400ceca0 f i EntityManager.obj
 0001:000cdcb0       ?Destroy@?$CEntitySubSystem@$08VCChatSystem@@VCActor@@@@UEAAXXZ 00000001400cecb0 f i EntityManager.obj
 0001:000cdcc0       ?ProcessNetData@?$CEntitySubSystem@$08VCChatSystem@@VCActor@@@@UEAAX_JAEAVCDataPacketReader@@@Z 00000001400cecc0 f i EntityManager.obj
 0001:000cdce0       ?OnTimeCheck@?$CEntitySubSystem@$08VCChatSystem@@VCActor@@@@UEAAX_J@Z 00000001400cece0 f i EntityManager.obj
 0001:000cdcf0       ?OnEnterGame@?$CEntitySubSystem@$08VCChatSystem@@VCActor@@@@UEAAXXZ 00000001400cecf0 f i EntityManager.obj
 0001:000cdd00       ??0?$CEntitySubSystem@$0L@VCSkillAdornFlagSystem@@VCAnimal@@@@QEAA@XZ 00000001400ced00 f i EntityManager.obj
 0001:000cdd60       ?Initialize@?$CEntitySubSystem@$0L@VCSkillAdornFlagSystem@@VCAnimal@@@@UEAA_NPEAX_K@Z 00000001400ced60 f i EntityManager.obj
 0001:000cdd80       ?OnDbRetData@?$CEntitySubSystem@$0L@VCSkillAdornFlagSystem@@VCAnimal@@@@UEAAX_J0AEAVCDataPacketReader@@@Z 00000001400ced80 f i EntityManager.obj
 0001:000cdda0       ?Save@?$CEntitySubSystem@$0L@VCSkillAdornFlagSystem@@VCAnimal@@@@UEAAXPEAUtagActorDbData@@@Z 00000001400ceda0 f i EntityManager.obj
 0001:000cddb0       ?Destroy@?$CEntitySubSystem@$0L@VCSkillAdornFlagSystem@@VCAnimal@@@@UEAAXXZ 00000001400cedb0 f i EntityManager.obj
 0001:000cddc0       ?ProcessNetData@?$CEntitySubSystem@$0L@VCSkillAdornFlagSystem@@VCAnimal@@@@UEAAX_JAEAVCDataPacketReader@@@Z 00000001400cedc0 f i EntityManager.obj
 0001:000cdde0       ?OnTimeCheck@?$CEntitySubSystem@$0L@VCSkillAdornFlagSystem@@VCAnimal@@@@UEAAX_J@Z 00000001400cede0 f i EntityManager.obj
 0001:000cddf0       ?OnEnterGame@?$CEntitySubSystem@$0L@VCSkillAdornFlagSystem@@VCAnimal@@@@UEAAXXZ 00000001400cedf0 f i EntityManager.obj
 0001:000cde00       ??0?$CEntitySubSystem@$0BO@VCEffectSystem@@VCAnimal@@@@QEAA@XZ 00000001400cee00 f i EntityManager.obj
 0001:000cde60       ?Initialize@?$CEntitySubSystem@$0BO@VCEffectSystem@@VCAnimal@@@@UEAA_NPEAX_K@Z 00000001400cee60 f i EntityManager.obj
 0001:000cde80       ?OnDbRetData@?$CEntitySubSystem@$0BO@VCEffectSystem@@VCAnimal@@@@UEAAX_J0AEAVCDataPacketReader@@@Z 00000001400cee80 f i EntityManager.obj
 0001:000cdea0       ?Save@?$CEntitySubSystem@$0BO@VCEffectSystem@@VCAnimal@@@@UEAAXPEAUtagActorDbData@@@Z 00000001400ceea0 f i EntityManager.obj
 0001:000cdeb0       ?Destroy@?$CEntitySubSystem@$0BO@VCEffectSystem@@VCAnimal@@@@UEAAXXZ 00000001400ceeb0 f i EntityManager.obj
 0001:000cdec0       ?ProcessNetData@?$CEntitySubSystem@$0BO@VCEffectSystem@@VCAnimal@@@@UEAAX_JAEAVCDataPacketReader@@@Z 00000001400ceec0 f i EntityManager.obj
 0001:000cdee0       ?OnTimeCheck@?$CEntitySubSystem@$0BO@VCEffectSystem@@VCAnimal@@@@UEAAX_J@Z 00000001400ceee0 f i EntityManager.obj
 0001:000cdef0       ?OnEnterGame@?$CEntitySubSystem@$0BO@VCEffectSystem@@VCAnimal@@@@UEAAXXZ 00000001400ceef0 f i EntityManager.obj
 0001:000cdf00       ??1?$CBaseLinkedList@PEAUCEntityEffect@@@container@wylib@@UEAA@XZ 00000001400cef00 f i EntityManager.obj
 0001:000cdf50       ?clear@?$CBaseLinkedList@PEAUCEntityEffect@@@container@wylib@@UEAAXXZ 00000001400cef50 f i EntityManager.obj
 0001:000ce010       ?allocNode@?$CBaseLinkedList@PEAUCEntityEffect@@@container@wylib@@MEAAPEAV?$CLinkedNode@PEAUCEntityEffect@@@23@XZ 00000001400cf010 f i EntityManager.obj
 0001:000ce080       ?freeNode@?$CBaseLinkedList@PEAUCEntityEffect@@@container@wylib@@MEAAXPEAV?$CLinkedNode@PEAUCEntityEffect@@@23@@Z 00000001400cf080 f i EntityManager.obj
 0001:000ce100       ??0?$CEntitySubSystem@$04VCSkillSubSystem@@VCAnimal@@@@QEAA@XZ 00000001400cf100 f i EntityManager.obj
 0001:000ce160       ?Initialize@?$CEntitySubSystem@$04VCSkillSubSystem@@VCAnimal@@@@UEAA_NPEAX_K@Z 00000001400cf160 f i EntityManager.obj
 0001:000ce180       ?OnDbRetData@?$CEntitySubSystem@$04VCSkillSubSystem@@VCAnimal@@@@UEAAX_J0AEAVCDataPacketReader@@@Z 00000001400cf180 f i EntityManager.obj
 0001:000ce1a0       ?Save@?$CEntitySubSystem@$04VCSkillSubSystem@@VCAnimal@@@@UEAAXPEAUtagActorDbData@@@Z 00000001400cf1a0 f i EntityManager.obj
 0001:000ce1b0       ?Destroy@?$CEntitySubSystem@$04VCSkillSubSystem@@VCAnimal@@@@UEAAXXZ 00000001400cf1b0 f i EntityManager.obj
 0001:000ce1c0       ?ProcessNetData@?$CEntitySubSystem@$04VCSkillSubSystem@@VCAnimal@@@@UEAAX_JAEAVCDataPacketReader@@@Z 00000001400cf1c0 f i EntityManager.obj
 0001:000ce1e0       ?OnTimeCheck@?$CEntitySubSystem@$04VCSkillSubSystem@@VCAnimal@@@@UEAAX_J@Z 00000001400cf1e0 f i EntityManager.obj
 0001:000ce1f0       ?OnEnterGame@?$CEntitySubSystem@$04VCSkillSubSystem@@VCAnimal@@@@UEAAXXZ 00000001400cf1f0 f i EntityManager.obj
 0001:000ce200       ??1?$CBaseList@UtagSkillData@CSkillSubSystem@@@container@wylib@@UEAA@XZ 00000001400cf200 f i EntityManager.obj
 0001:000ce250       ?empty@?$CBaseList@UtagSkillData@CSkillSubSystem@@@container@wylib@@UEAAXXZ 00000001400cf250 f i EntityManager.obj
 0001:000ce2d0       ?reserve@?$CBaseList@UtagSkillData@CSkillSubSystem@@@container@wylib@@UEAAX_J@Z 00000001400cf2d0 f i EntityManager.obj
 0001:000ce370       ??0?$CEntitySubSystem@$0M@VCGameStoreBuySystem@@VCActor@@@@QEAA@XZ 00000001400cf370 f i EntityManager.obj
 0001:000ce3d0       ?Initialize@?$CEntitySubSystem@$0M@VCGameStoreBuySystem@@VCActor@@@@UEAA_NPEAX_K@Z 00000001400cf3d0 f i EntityManager.obj
 0001:000ce3f0       ?OnDbRetData@?$CEntitySubSystem@$0M@VCGameStoreBuySystem@@VCActor@@@@UEAAX_J0AEAVCDataPacketReader@@@Z 00000001400cf3f0 f i EntityManager.obj
 0001:000ce410       ?Save@?$CEntitySubSystem@$0M@VCGameStoreBuySystem@@VCActor@@@@UEAAXPEAUtagActorDbData@@@Z 00000001400cf410 f i EntityManager.obj
 0001:000ce420       ?Destroy@?$CEntitySubSystem@$0M@VCGameStoreBuySystem@@VCActor@@@@UEAAXXZ 00000001400cf420 f i EntityManager.obj
 0001:000ce430       ?ProcessNetData@?$CEntitySubSystem@$0M@VCGameStoreBuySystem@@VCActor@@@@UEAAX_JAEAVCDataPacketReader@@@Z 00000001400cf430 f i EntityManager.obj
 0001:000ce450       ?OnTimeCheck@?$CEntitySubSystem@$0M@VCGameStoreBuySystem@@VCActor@@@@UEAAX_J@Z 00000001400cf450 f i EntityManager.obj
 0001:000ce460       ?OnEnterGame@?$CEntitySubSystem@$0M@VCGameStoreBuySystem@@VCActor@@@@UEAAXXZ 00000001400cf460 f i EntityManager.obj
 0001:000ce470       ??0?$CEntitySubSystem@$0P@VCLootSystem@@VCActor@@@@QEAA@XZ 00000001400cf470 f i EntityManager.obj
 0001:000ce4d0       ?Initialize@?$CEntitySubSystem@$0P@VCLootSystem@@VCActor@@@@UEAA_NPEAX_K@Z 00000001400cf4d0 f i EntityManager.obj
 0001:000ce4f0       ?OnDbRetData@?$CEntitySubSystem@$0P@VCLootSystem@@VCActor@@@@UEAAX_J0AEAVCDataPacketReader@@@Z 00000001400cf4f0 f i EntityManager.obj
 0001:000ce510       ?Save@?$CEntitySubSystem@$0P@VCLootSystem@@VCActor@@@@UEAAXPEAUtagActorDbData@@@Z 00000001400cf510 f i EntityManager.obj
 0001:000ce520       ?Destroy@?$CEntitySubSystem@$0P@VCLootSystem@@VCActor@@@@UEAAXXZ 00000001400cf520 f i EntityManager.obj
 0001:000ce530       ?ProcessNetData@?$CEntitySubSystem@$0P@VCLootSystem@@VCActor@@@@UEAAX_JAEAVCDataPacketReader@@@Z 00000001400cf530 f i EntityManager.obj
 0001:000ce550       ?OnTimeCheck@?$CEntitySubSystem@$0P@VCLootSystem@@VCActor@@@@UEAAX_J@Z 00000001400cf550 f i EntityManager.obj
 0001:000ce560       ?OnEnterGame@?$CEntitySubSystem@$0P@VCLootSystem@@VCActor@@@@UEAAXXZ 00000001400cf560 f i EntityManager.obj
 0001:000ce570       ??0?$CEntitySubSystem@$0BA@VCTeamSystem@@VCActor@@@@QEAA@XZ 00000001400cf570 f i EntityManager.obj
 0001:000ce5d0       ?Initialize@?$CEntitySubSystem@$0BA@VCTeamSystem@@VCActor@@@@UEAA_NPEAX_K@Z 00000001400cf5d0 f i EntityManager.obj
 0001:000ce5f0       ?OnDbRetData@?$CEntitySubSystem@$0BA@VCTeamSystem@@VCActor@@@@UEAAX_J0AEAVCDataPacketReader@@@Z 00000001400cf5f0 f i EntityManager.obj
 0001:000ce610       ?Save@?$CEntitySubSystem@$0BA@VCTeamSystem@@VCActor@@@@UEAAXPEAUtagActorDbData@@@Z 00000001400cf610 f i EntityManager.obj
 0001:000ce620       ?Destroy@?$CEntitySubSystem@$0BA@VCTeamSystem@@VCActor@@@@UEAAXXZ 00000001400cf620 f i EntityManager.obj
 0001:000ce630       ?ProcessNetData@?$CEntitySubSystem@$0BA@VCTeamSystem@@VCActor@@@@UEAAX_JAEAVCDataPacketReader@@@Z 00000001400cf630 f i EntityManager.obj
 0001:000ce650       ?OnTimeCheck@?$CEntitySubSystem@$0BA@VCTeamSystem@@VCActor@@@@UEAAX_J@Z 00000001400cf650 f i EntityManager.obj
 0001:000ce660       ?OnEnterGame@?$CEntitySubSystem@$0BA@VCTeamSystem@@VCActor@@@@UEAAXXZ 00000001400cf660 f i EntityManager.obj
 0001:000ce670       ??0?$CEntitySubSystem@$0BE@VCFubenSystem@@VCActor@@@@QEAA@XZ 00000001400cf670 f i EntityManager.obj
 0001:000ce6d0       ?Initialize@?$CEntitySubSystem@$0BE@VCFubenSystem@@VCActor@@@@UEAA_NPEAX_K@Z 00000001400cf6d0 f i EntityManager.obj
 0001:000ce6f0       ?OnDbRetData@?$CEntitySubSystem@$0BE@VCFubenSystem@@VCActor@@@@UEAAX_J0AEAVCDataPacketReader@@@Z 00000001400cf6f0 f i EntityManager.obj
 0001:000ce710       ?Save@?$CEntitySubSystem@$0BE@VCFubenSystem@@VCActor@@@@UEAAXPEAUtagActorDbData@@@Z 00000001400cf710 f i EntityManager.obj
 0001:000ce720       ?Destroy@?$CEntitySubSystem@$0BE@VCFubenSystem@@VCActor@@@@UEAAXXZ 00000001400cf720 f i EntityManager.obj
 0001:000ce730       ?ProcessNetData@?$CEntitySubSystem@$0BE@VCFubenSystem@@VCActor@@@@UEAAX_JAEAVCDataPacketReader@@@Z 00000001400cf730 f i EntityManager.obj
 0001:000ce750       ?OnTimeCheck@?$CEntitySubSystem@$0BE@VCFubenSystem@@VCActor@@@@UEAAX_J@Z 00000001400cf750 f i EntityManager.obj
 0001:000ce760       ?OnEnterGame@?$CEntitySubSystem@$0BE@VCFubenSystem@@VCActor@@@@UEAAXXZ 00000001400cf760 f i EntityManager.obj
 0001:000ce770       ??1?$CBaseList@VAsyncOpItem@@@container@wylib@@UEAA@XZ 00000001400cf770 f i EntityManager.obj
 0001:000ce7c0       ?empty@?$CBaseList@VAsyncOpItem@@@container@wylib@@UEAAXXZ 00000001400cf7c0 f i EntityManager.obj
 0001:000ce840       ?reserve@?$CBaseList@VAsyncOpItem@@@container@wylib@@UEAAX_J@Z 00000001400cf840 f i EntityManager.obj
 0001:000ce8e0       ??0?$CEntitySubSystem@$0BK@VCMiscSystem@@VCActor@@@@QEAA@XZ 00000001400cf8e0 f i EntityManager.obj
 0001:000ce940       ?Initialize@?$CEntitySubSystem@$0BK@VCMiscSystem@@VCActor@@@@UEAA_NPEAX_K@Z 00000001400cf940 f i EntityManager.obj
 0001:000ce960       ?OnDbRetData@?$CEntitySubSystem@$0BK@VCMiscSystem@@VCActor@@@@UEAAX_J0AEAVCDataPacketReader@@@Z 00000001400cf960 f i EntityManager.obj
 0001:000ce980       ?Save@?$CEntitySubSystem@$0BK@VCMiscSystem@@VCActor@@@@UEAAXPEAUtagActorDbData@@@Z 00000001400cf980 f i EntityManager.obj
 0001:000ce990       ?Destroy@?$CEntitySubSystem@$0BK@VCMiscSystem@@VCActor@@@@UEAAXXZ 00000001400cf990 f i EntityManager.obj
 0001:000ce9a0       ?ProcessNetData@?$CEntitySubSystem@$0BK@VCMiscSystem@@VCActor@@@@UEAAX_JAEAVCDataPacketReader@@@Z 00000001400cf9a0 f i EntityManager.obj
 0001:000ce9c0       ?OnTimeCheck@?$CEntitySubSystem@$0BK@VCMiscSystem@@VCActor@@@@UEAAX_J@Z 00000001400cf9c0 f i EntityManager.obj
 0001:000ce9d0       ?OnEnterGame@?$CEntitySubSystem@$0BK@VCMiscSystem@@VCActor@@@@UEAAXXZ 00000001400cf9d0 f i EntityManager.obj
 0001:000ce9e0       ??1?$CBaseList@UtagRankItem@CMiscSystem@@@container@wylib@@UEAA@XZ 00000001400cf9e0 f i EntityManager.obj
 0001:000cea30       ?empty@?$CBaseList@UtagRankItem@CMiscSystem@@@container@wylib@@UEAAXXZ 00000001400cfa30 f i EntityManager.obj
 0001:000ceab0       ?reserve@?$CBaseList@UtagRankItem@CMiscSystem@@@container@wylib@@UEAAX_J@Z 00000001400cfab0 f i EntityManager.obj
 0001:000ceb50       ??0?$CEntitySubSystem@$0BM@VCAchieveSystem@@VCActor@@@@QEAA@XZ 00000001400cfb50 f i EntityManager.obj
 0001:000cebb0       ?Initialize@?$CEntitySubSystem@$0BM@VCAchieveSystem@@VCActor@@@@UEAA_NPEAX_K@Z 00000001400cfbb0 f i EntityManager.obj
 0001:000cebd0       ?OnDbRetData@?$CEntitySubSystem@$0BM@VCAchieveSystem@@VCActor@@@@UEAAX_J0AEAVCDataPacketReader@@@Z 00000001400cfbd0 f i EntityManager.obj
 0001:000cebf0       ?Save@?$CEntitySubSystem@$0BM@VCAchieveSystem@@VCActor@@@@UEAAXPEAUtagActorDbData@@@Z 00000001400cfbf0 f i EntityManager.obj
 0001:000cec00       ?Destroy@?$CEntitySubSystem@$0BM@VCAchieveSystem@@VCActor@@@@UEAAXXZ 00000001400cfc00 f i EntityManager.obj
 0001:000cec10       ?ProcessNetData@?$CEntitySubSystem@$0BM@VCAchieveSystem@@VCActor@@@@UEAAX_JAEAVCDataPacketReader@@@Z 00000001400cfc10 f i EntityManager.obj
 0001:000cec30       ?OnTimeCheck@?$CEntitySubSystem@$0BM@VCAchieveSystem@@VCActor@@@@UEAAX_J@Z 00000001400cfc30 f i EntityManager.obj
 0001:000cec40       ?OnEnterGame@?$CEntitySubSystem@$0BM@VCAchieveSystem@@VCActor@@@@UEAAXXZ 00000001400cfc40 f i EntityManager.obj
 0001:000cec50       ??1?$CBaseList@UtagTitleTime@CAchieveSystem@@@container@wylib@@UEAA@XZ 00000001400cfc50 f i EntityManager.obj
 0001:000ceca0       ?empty@?$CBaseList@UtagTitleTime@CAchieveSystem@@@container@wylib@@UEAAXXZ 00000001400cfca0 f i EntityManager.obj
 0001:000ced20       ?reserve@?$CBaseList@UtagTitleTime@CAchieveSystem@@@container@wylib@@UEAAX_J@Z 00000001400cfd20 f i EntityManager.obj
 0001:000cedc0       ?Initialize@?$CCustomEntityVarSubSystem@$0O@VCActorVarSubSystem@@VCActor@@@@UEAA_NPEAX_K@Z 00000001400cfdc0 f i EntityManager.obj
 0001:000cee40       ?Destroy@?$CCustomEntityVarSubSystem@$0O@VCActorVarSubSystem@@VCActor@@@@UEAAXXZ 00000001400cfe40 f i EntityManager.obj
 0001:000cee90       ??0?$CEntitySubSystem@$0O@VCActorVarSubSystem@@VCActor@@@@QEAA@XZ 00000001400cfe90 f i EntityManager.obj
 0001:000ceef0       ?Initialize@?$CEntitySubSystem@$0O@VCActorVarSubSystem@@VCActor@@@@UEAA_NPEAX_K@Z 00000001400cfef0 f i EntityManager.obj
 0001:000cef10       ?OnDbRetData@?$CEntitySubSystem@$0O@VCActorVarSubSystem@@VCActor@@@@UEAAX_J0AEAVCDataPacketReader@@@Z 00000001400cff10 f i EntityManager.obj
 0001:000cef30       ?Save@?$CEntitySubSystem@$0O@VCActorVarSubSystem@@VCActor@@@@UEAAXPEAUtagActorDbData@@@Z 00000001400cff30 f i EntityManager.obj
 0001:000cef40       ?Destroy@?$CEntitySubSystem@$0O@VCActorVarSubSystem@@VCActor@@@@UEAAXXZ 00000001400cff40 f i EntityManager.obj
 0001:000cef50       ?ProcessNetData@?$CEntitySubSystem@$0O@VCActorVarSubSystem@@VCActor@@@@UEAAX_JAEAVCDataPacketReader@@@Z 00000001400cff50 f i EntityManager.obj
 0001:000cef70       ?OnTimeCheck@?$CEntitySubSystem@$0O@VCActorVarSubSystem@@VCActor@@@@UEAAX_J@Z 00000001400cff70 f i EntityManager.obj
 0001:000cef80       ?OnEnterGame@?$CEntitySubSystem@$0O@VCActorVarSubSystem@@VCActor@@@@UEAAXXZ 00000001400cff80 f i EntityManager.obj
 0001:000cef90       ??0?$CEntitySubSystem@$0IJ@VCAcupointSystem@@VCActor@@@@QEAA@XZ 00000001400cff90 f i EntityManager.obj
 0001:000ceff0       ?Initialize@?$CEntitySubSystem@$0IJ@VCAcupointSystem@@VCActor@@@@UEAA_NPEAX_K@Z 00000001400cfff0 f i EntityManager.obj
 0001:000cf010       ?OnDbRetData@?$CEntitySubSystem@$0IJ@VCAcupointSystem@@VCActor@@@@UEAAX_J0AEAVCDataPacketReader@@@Z 00000001400d0010 f i EntityManager.obj
 0001:000cf030       ?Save@?$CEntitySubSystem@$0IJ@VCAcupointSystem@@VCActor@@@@UEAAXPEAUtagActorDbData@@@Z 00000001400d0030 f i EntityManager.obj
 0001:000cf040       ?Destroy@?$CEntitySubSystem@$0IJ@VCAcupointSystem@@VCActor@@@@UEAAXXZ 00000001400d0040 f i EntityManager.obj
 0001:000cf050       ?ProcessNetData@?$CEntitySubSystem@$0IJ@VCAcupointSystem@@VCActor@@@@UEAAX_JAEAVCDataPacketReader@@@Z 00000001400d0050 f i EntityManager.obj
 0001:000cf070       ?OnTimeCheck@?$CEntitySubSystem@$0IJ@VCAcupointSystem@@VCActor@@@@UEAAX_J@Z 00000001400d0070 f i EntityManager.obj
 0001:000cf080       ?OnEnterGame@?$CEntitySubSystem@$0IJ@VCAcupointSystem@@VCActor@@@@UEAAXXZ 00000001400d0080 f i EntityManager.obj
 0001:000cf090       ??1?$CBaseList@UtagAcupointData@CAcupointSystem@@@container@wylib@@UEAA@XZ 00000001400d0090 f i EntityManager.obj
 0001:000cf0e0       ?empty@?$CBaseList@UtagAcupointData@CAcupointSystem@@@container@wylib@@UEAAXXZ 00000001400d00e0 f i EntityManager.obj
 0001:000cf160       ?clear@?$CBaseList@UtagAcupointData@CAcupointSystem@@@container@wylib@@QEAAXXZ 00000001400d0160 f i EntityManager.obj
 0001:000cf180       ?reserve@?$CBaseList@UtagAcupointData@CAcupointSystem@@@container@wylib@@UEAAX_J@Z 00000001400d0180 f i EntityManager.obj
 0001:000cf220       ??1?$CBaseList@UtagAcupointStrongCount@CAcupointSystem@@@container@wylib@@UEAA@XZ 00000001400d0220 f i EntityManager.obj
 0001:000cf270       ?empty@?$CBaseList@UtagAcupointStrongCount@CAcupointSystem@@@container@wylib@@UEAAXXZ 00000001400d0270 f i EntityManager.obj
 0001:000cf2f0       ?reserve@?$CBaseList@UtagAcupointStrongCount@CAcupointSystem@@@container@wylib@@UEAAX_J@Z 00000001400d02f0 f i EntityManager.obj
 0001:000cf390       ??1?$Counter@VCTeacherMgr@@@@QEAA@XZ 00000001400d0390 f i EntityManager.obj
 0001:000cf3b0       ?Destroy@?$CEntitySubSystem@$0CG@VCCombatSystem@@VCActor@@@@UEAAXXZ 00000001400d03b0 f i EntityManager.obj
 0001:000cf3c0       ?OnTimeCheck@?$CEntitySubSystem@$0CG@VCCombatSystem@@VCActor@@@@UEAAX_J@Z 00000001400d03c0 f i EntityManager.obj
 0001:000cf3d0       ?OnEnterGame@?$CEntitySubSystem@$0CG@VCCombatSystem@@VCActor@@@@UEAAXXZ 00000001400d03d0 f i EntityManager.obj
 0001:000cf3e0       ??1?$CBaseList@UtagCombatRecord@@@container@wylib@@UEAA@XZ 00000001400d03e0 f i EntityManager.obj
 0001:000cf430       ?empty@?$CBaseList@UtagCombatRecord@@@container@wylib@@UEAAXXZ 00000001400d0430 f i EntityManager.obj
 0001:000cf4b0       ?reserve@?$CBaseList@UtagCombatRecord@@@container@wylib@@UEAAX_J@Z 00000001400d04b0 f i EntityManager.obj
 0001:000cf550       ??1?$CBaseList@UtagDeathRecord@@@container@wylib@@UEAA@XZ 00000001400d0550 f i EntityManager.obj
 0001:000cf5a0       ?empty@?$CBaseList@UtagDeathRecord@@@container@wylib@@UEAAXXZ 00000001400d05a0 f i EntityManager.obj
 0001:000cf620       ?reserve@?$CBaseList@UtagDeathRecord@@@container@wylib@@UEAAX_J@Z 00000001400d0620 f i EntityManager.obj
 0001:000cf6c0       ?Save@?$CEntitySubSystem@$0CJ@VCFriendSystem@@VCActor@@@@UEAAXPEAUtagActorDbData@@@Z 00000001400d06c0 f i EntityManager.obj
 0001:000cf6d0       ?Destroy@?$CEntitySubSystem@$0CJ@VCFriendSystem@@VCActor@@@@UEAAXXZ 00000001400d06d0 f i EntityManager.obj
 0001:000cf6e0       ?OnTimeCheck@?$CEntitySubSystem@$0CJ@VCFriendSystem@@VCActor@@@@UEAAX_J@Z 00000001400d06e0 f i EntityManager.obj
 0001:000cf6f0       ??1?$CBaseList@UtagFriendRelation@@@container@wylib@@UEAA@XZ 00000001400d06f0 f i EntityManager.obj
 0001:000cf740       ?empty@?$CBaseList@UtagFriendRelation@@@container@wylib@@UEAAXXZ 00000001400d0740 f i EntityManager.obj
 0001:000cf7c0       ?reserve@?$CBaseList@UtagFriendRelation@@@container@wylib@@UEAAX_J@Z 00000001400d07c0 f i EntityManager.obj
 0001:000cf860       ??1?$CBaseList@UtagOffChatMsg@@@container@wylib@@UEAA@XZ 00000001400d0860 f i EntityManager.obj
 0001:000cf8b0       ?empty@?$CBaseList@UtagOffChatMsg@@@container@wylib@@UEAAXXZ 00000001400d08b0 f i EntityManager.obj
 0001:000cf930       ?reserve@?$CBaseList@UtagOffChatMsg@@@container@wylib@@UEAAX_J@Z 00000001400d0930 f i EntityManager.obj
 0001:000cf9d0       ??1?$CBaseList@UtagSocialMsgList@@@container@wylib@@UEAA@XZ 00000001400d09d0 f i EntityManager.obj
 0001:000cfa20       ?empty@?$CBaseList@UtagSocialMsgList@@@container@wylib@@UEAAXXZ 00000001400d0a20 f i EntityManager.obj
 0001:000cfaa0       ?reserve@?$CBaseList@UtagSocialMsgList@@@container@wylib@@UEAAX_J@Z 00000001400d0aa0 f i EntityManager.obj
 0001:000cfb40       ?Save@?$CEntitySubSystem@$0CK@VCRideSystem@@VCActor@@@@UEAAXPEAUtagActorDbData@@@Z 00000001400d0b40 f i EntityManager.obj
 0001:000cfb50       ?Destroy@?$CEntitySubSystem@$0CK@VCRideSystem@@VCActor@@@@UEAAXXZ 00000001400d0b50 f i EntityManager.obj
 0001:000cfb60       ??1?$CBaseList@UtagTimeRideData@@@container@wylib@@UEAA@XZ 00000001400d0b60 f i EntityManager.obj
 0001:000cfbb0       ?empty@?$CBaseList@UtagTimeRideData@@@container@wylib@@UEAAXXZ 00000001400d0bb0 f i EntityManager.obj
 0001:000cfc30       ?reserve@?$CBaseList@UtagTimeRideData@@@container@wylib@@UEAAX_J@Z 00000001400d0c30 f i EntityManager.obj
 0001:000cfcd0       ?OnDbRetData@?$CEntitySubSystem@$0DB@VCCorpsSystem@@VCActor@@@@UEAAX_J0AEAVCDataPacketReader@@@Z 00000001400d0cd0 f i EntityManager.obj
 0001:000cfcf0       ?Save@?$CEntitySubSystem@$0DB@VCCorpsSystem@@VCActor@@@@UEAAXPEAUtagActorDbData@@@Z 00000001400d0cf0 f i EntityManager.obj
 0001:000cfd00       ?Destroy@?$CEntitySubSystem@$0DB@VCCorpsSystem@@VCActor@@@@UEAAXXZ 00000001400d0d00 f i EntityManager.obj
 0001:000cfd10       ?OnTimeCheck@?$CEntitySubSystem@$0DB@VCCorpsSystem@@VCActor@@@@UEAAX_J@Z 00000001400d0d10 f i EntityManager.obj
 0001:000cfd20       ??0?$CEntitySubSystem@$0CC@VCPetSystem@@VCActor@@@@QEAA@XZ 00000001400d0d20 f i EntityManager.obj
 0001:000cfd80       ?Initialize@?$CEntitySubSystem@$0CC@VCPetSystem@@VCActor@@@@UEAA_NPEAX_K@Z 00000001400d0d80 f i EntityManager.obj
 0001:000cfda0       ?OnDbRetData@?$CEntitySubSystem@$0CC@VCPetSystem@@VCActor@@@@UEAAX_J0AEAVCDataPacketReader@@@Z 00000001400d0da0 f i EntityManager.obj
 0001:000cfdc0       ?Save@?$CEntitySubSystem@$0CC@VCPetSystem@@VCActor@@@@UEAAXPEAUtagActorDbData@@@Z 00000001400d0dc0 f i EntityManager.obj
 0001:000cfdd0       ?Destroy@?$CEntitySubSystem@$0CC@VCPetSystem@@VCActor@@@@UEAAXXZ 00000001400d0dd0 f i EntityManager.obj
 0001:000cfde0       ?ProcessNetData@?$CEntitySubSystem@$0CC@VCPetSystem@@VCActor@@@@UEAAX_JAEAVCDataPacketReader@@@Z 00000001400d0de0 f i EntityManager.obj
 0001:000cfe00       ?OnTimeCheck@?$CEntitySubSystem@$0CC@VCPetSystem@@VCActor@@@@UEAAX_J@Z 00000001400d0e00 f i EntityManager.obj
 0001:000cfe10       ?OnEnterGame@?$CEntitySubSystem@$0CC@VCPetSystem@@VCActor@@@@UEAAXXZ 00000001400d0e10 f i EntityManager.obj
 0001:000cfe20       ??1?$CBaseList@UPETDATA@CPetSystem@@@container@wylib@@UEAA@XZ 00000001400d0e20 f i EntityManager.obj
 0001:000cfe70       ?empty@?$CBaseList@UPETDATA@CPetSystem@@@container@wylib@@UEAAXXZ 00000001400d0e70 f i EntityManager.obj
 0001:000cfef0       ?reserve@?$CBaseList@UPETDATA@CPetSystem@@@container@wylib@@UEAAX_J@Z 00000001400d0ef0 f i EntityManager.obj
 0001:000cff90       ??0?$CTimer@$0EOCA@@@QEAA@XZ 00000001400d0f90 f i EntityManager.obj
 0001:000cffe0       ??0?$CBaseList@PEAVCDataPacketRecord@@@container@wylib@@QEAA@XZ 00000001400d0fe0 f i EntityManager.obj
 0001:000d0040       ??1?$CBaseList@UtagDataPacketRecord@@@container@wylib@@UEAA@XZ 00000001400d1040 f i EntityManager.obj
 0001:000d0090       ?empty@?$CBaseList@UtagDataPacketRecord@@@container@wylib@@UEAAXXZ 00000001400d1090 f i EntityManager.obj
 0001:000d0110       ?reserve@?$CBaseList@UtagDataPacketRecord@@@container@wylib@@UEAAX_J@Z 00000001400d1110 f i EntityManager.obj
 0001:000d01b0       ??1?$CBaseList@UtagActorSrcEffect@@@container@wylib@@UEAA@XZ 00000001400d11b0 f i EntityManager.obj
 0001:000d0200       ?empty@?$CBaseList@UtagActorSrcEffect@@@container@wylib@@UEAAXXZ 00000001400d1200 f i EntityManager.obj
 0001:000d0280       ?clear@?$CBaseList@UtagActorSrcEffect@@@container@wylib@@QEAAXXZ 00000001400d1280 f i EntityManager.obj
 0001:000d02a0       ?reserve@?$CBaseList@UtagActorSrcEffect@@@container@wylib@@UEAAX_J@Z 00000001400d12a0 f i EntityManager.obj
 0001:000d0340       ??1?$CBaseLinkedList@PEAVCActor@@@container@wylib@@UEAA@XZ 00000001400d1340 f i EntityManager.obj
 0001:000d0390       ?clear@?$CBaseLinkedList@PEAVCActor@@@container@wylib@@UEAAXXZ 00000001400d1390 f i EntityManager.obj
 0001:000d0450       ?allocNode@?$CBaseLinkedList@PEAVCActor@@@container@wylib@@MEAAPEAV?$CLinkedNode@PEAVCActor@@@23@XZ 00000001400d1450 f i EntityManager.obj
 0001:000d04c0       ?freeNode@?$CBaseLinkedList@PEAVCActor@@@container@wylib@@MEAAXPEAV?$CLinkedNode@PEAVCActor@@@23@@Z 00000001400d14c0 f i EntityManager.obj
 0001:000d0540       ??1?$CBaseList@V?$CBaseList@VCActor@@@container@wylib@@@container@wylib@@UEAA@XZ 00000001400d1540 f i EntityManager.obj
 0001:000d0590       ?empty@?$CBaseList@V?$CBaseList@VCActor@@@container@wylib@@@container@wylib@@UEAAXXZ 00000001400d1590 f i EntityManager.obj
 0001:000d0610       ?reserve@?$CBaseList@V?$CBaseList@VCActor@@@container@wylib@@@container@wylib@@UEAAX_J@Z 00000001400d1610 f i EntityManager.obj
 0001:000d06b0       ??1?$CBaseLinkedList@PEAVCMonster@@@container@wylib@@UEAA@XZ 00000001400d16b0 f i EntityManager.obj
 0001:000d0700       ?clear@?$CBaseLinkedList@PEAVCMonster@@@container@wylib@@UEAAXXZ 00000001400d1700 f i EntityManager.obj
 0001:000d07c0       ?allocNode@?$CBaseLinkedList@PEAVCMonster@@@container@wylib@@MEAAPEAV?$CLinkedNode@PEAVCMonster@@@23@XZ 00000001400d17c0 f i EntityManager.obj
 0001:000d0830       ?freeNode@?$CBaseLinkedList@PEAVCMonster@@@container@wylib@@MEAAXPEAV?$CLinkedNode@PEAVCMonster@@@23@@Z 00000001400d1830 f i EntityManager.obj
 0001:000d08b0       ??1?$CBaseList@V?$CBaseList@VCMonster@@@container@wylib@@@container@wylib@@UEAA@XZ 00000001400d18b0 f i EntityManager.obj
 0001:000d0900       ?empty@?$CBaseList@V?$CBaseList@VCMonster@@@container@wylib@@@container@wylib@@UEAAXXZ 00000001400d1900 f i EntityManager.obj
 0001:000d0980       ?reserve@?$CBaseList@V?$CBaseList@VCMonster@@@container@wylib@@@container@wylib@@UEAAX_J@Z 00000001400d1980 f i EntityManager.obj
 0001:000d0a20       ??1?$CBaseLinkedList@PEAVCNpc@@@container@wylib@@UEAA@XZ 00000001400d1a20 f i EntityManager.obj
 0001:000d0a70       ?clear@?$CBaseLinkedList@PEAVCNpc@@@container@wylib@@UEAAXXZ 00000001400d1a70 f i EntityManager.obj
 0001:000d0b30       ?allocNode@?$CBaseLinkedList@PEAVCNpc@@@container@wylib@@MEAAPEAV?$CLinkedNode@PEAVCNpc@@@23@XZ 00000001400d1b30 f i EntityManager.obj
 0001:000d0ba0       ?freeNode@?$CBaseLinkedList@PEAVCNpc@@@container@wylib@@MEAAXPEAV?$CLinkedNode@PEAVCNpc@@@23@@Z 00000001400d1ba0 f i EntityManager.obj
 0001:000d0c20       ??1?$CBaseList@V?$CBaseList@VCNpc@@@container@wylib@@@container@wylib@@UEAA@XZ 00000001400d1c20 f i EntityManager.obj
 0001:000d0c70       ?empty@?$CBaseList@V?$CBaseList@VCNpc@@@container@wylib@@@container@wylib@@UEAAXXZ 00000001400d1c70 f i EntityManager.obj
 0001:000d0cf0       ?reserve@?$CBaseList@V?$CBaseList@VCNpc@@@container@wylib@@@container@wylib@@UEAAX_J@Z 00000001400d1cf0 f i EntityManager.obj
 0001:000d0d90       ??1?$CBaseLinkedList@PEAVCDropItemEntity@@@container@wylib@@UEAA@XZ 00000001400d1d90 f i EntityManager.obj
 0001:000d0de0       ?clear@?$CBaseLinkedList@PEAVCDropItemEntity@@@container@wylib@@UEAAXXZ 00000001400d1de0 f i EntityManager.obj
 0001:000d0ea0       ?allocNode@?$CBaseLinkedList@PEAVCDropItemEntity@@@container@wylib@@MEAAPEAV?$CLinkedNode@PEAVCDropItemEntity@@@23@XZ 00000001400d1ea0 f i EntityManager.obj
 0001:000d0f10       ?freeNode@?$CBaseLinkedList@PEAVCDropItemEntity@@@container@wylib@@MEAAXPEAV?$CLinkedNode@PEAVCDropItemEntity@@@23@@Z 00000001400d1f10 f i EntityManager.obj
 0001:000d0f90       ??1?$CBaseList@V?$CBaseList@VCDropItemEntity@@@container@wylib@@@container@wylib@@UEAA@XZ 00000001400d1f90 f i EntityManager.obj
 0001:000d0fe0       ?empty@?$CBaseList@V?$CBaseList@VCDropItemEntity@@@container@wylib@@@container@wylib@@UEAAXXZ 00000001400d1fe0 f i EntityManager.obj
 0001:000d1060       ?reserve@?$CBaseList@V?$CBaseList@VCDropItemEntity@@@container@wylib@@@container@wylib@@UEAAX_J@Z 00000001400d2060 f i EntityManager.obj
 0001:000d1100       ??1?$CBaseLinkedList@PEAVCTransfer@@@container@wylib@@UEAA@XZ 00000001400d2100 f i EntityManager.obj
 0001:000d1150       ?clear@?$CBaseLinkedList@PEAVCTransfer@@@container@wylib@@UEAAXXZ 00000001400d2150 f i EntityManager.obj
 0001:000d1210       ?allocNode@?$CBaseLinkedList@PEAVCTransfer@@@container@wylib@@MEAAPEAV?$CLinkedNode@PEAVCTransfer@@@23@XZ 00000001400d2210 f i EntityManager.obj
 0001:000d1280       ?freeNode@?$CBaseLinkedList@PEAVCTransfer@@@container@wylib@@MEAAXPEAV?$CLinkedNode@PEAVCTransfer@@@23@@Z 00000001400d2280 f i EntityManager.obj
 0001:000d1300       ??1?$CBaseList@V?$CBaseList@VCTransfer@@@container@wylib@@@container@wylib@@UEAA@XZ 00000001400d2300 f i EntityManager.obj
 0001:000d1350       ?empty@?$CBaseList@V?$CBaseList@VCTransfer@@@container@wylib@@@container@wylib@@UEAAXXZ 00000001400d2350 f i EntityManager.obj
 0001:000d13d0       ?reserve@?$CBaseList@V?$CBaseList@VCTransfer@@@container@wylib@@@container@wylib@@UEAAX_J@Z 00000001400d23d0 f i EntityManager.obj
 0001:000d1470       ??1?$CBaseList@V?$CBaseList@VScriptCallbackParam@@@container@wylib@@@container@wylib@@UEAA@XZ 00000001400d2470 f i EntityManager.obj
 0001:000d14c0       ?empty@?$CBaseList@V?$CBaseList@VScriptCallbackParam@@@container@wylib@@@container@wylib@@UEAAXXZ 00000001400d24c0 f i EntityManager.obj
 0001:000d1540       ?reserve@?$CBaseList@V?$CBaseList@VScriptCallbackParam@@@container@wylib@@@container@wylib@@UEAAX_J@Z 00000001400d2540 f i EntityManager.obj
 0001:000d15e0       ??1?$CBaseLinkedList@PEAVCPet@@@container@wylib@@UEAA@XZ 00000001400d25e0 f i EntityManager.obj
 0001:000d1630       ?clear@?$CBaseLinkedList@PEAVCPet@@@container@wylib@@UEAAXXZ 00000001400d2630 f i EntityManager.obj
 0001:000d16f0       ?allocNode@?$CBaseLinkedList@PEAVCPet@@@container@wylib@@MEAAPEAV?$CLinkedNode@PEAVCPet@@@23@XZ 00000001400d26f0 f i EntityManager.obj
 0001:000d1760       ?freeNode@?$CBaseLinkedList@PEAVCPet@@@container@wylib@@MEAAXPEAV?$CLinkedNode@PEAVCPet@@@23@@Z 00000001400d2760 f i EntityManager.obj
 0001:000d17e0       ??1?$CBaseList@V?$CBaseList@VCPet@@@container@wylib@@@container@wylib@@UEAA@XZ 00000001400d27e0 f i EntityManager.obj
 0001:000d1830       ?empty@?$CBaseList@V?$CBaseList@VCPet@@@container@wylib@@@container@wylib@@UEAAXXZ 00000001400d2830 f i EntityManager.obj
 0001:000d18b0       ?reserve@?$CBaseList@V?$CBaseList@VCPet@@@container@wylib@@@container@wylib@@UEAAX_J@Z 00000001400d28b0 f i EntityManager.obj
 0001:000d1950       ??1?$CBaseLinkedList@PEAVCFire@@@container@wylib@@UEAA@XZ 00000001400d2950 f i EntityManager.obj
 0001:000d19a0       ?clear@?$CBaseLinkedList@PEAVCFire@@@container@wylib@@UEAAXXZ 00000001400d29a0 f i EntityManager.obj
 0001:000d1a60       ?allocNode@?$CBaseLinkedList@PEAVCFire@@@container@wylib@@MEAAPEAV?$CLinkedNode@PEAVCFire@@@23@XZ 00000001400d2a60 f i EntityManager.obj
 0001:000d1ad0       ?freeNode@?$CBaseLinkedList@PEAVCFire@@@container@wylib@@MEAAXPEAV?$CLinkedNode@PEAVCFire@@@23@@Z 00000001400d2ad0 f i EntityManager.obj
 0001:000d1b50       ??1?$CBaseList@V?$CBaseList@VCFire@@@container@wylib@@@container@wylib@@UEAA@XZ 00000001400d2b50 f i EntityManager.obj
 0001:000d1ba0       ?empty@?$CBaseList@V?$CBaseList@VCFire@@@container@wylib@@@container@wylib@@UEAAXXZ 00000001400d2ba0 f i EntityManager.obj
 0001:000d1c20       ?reserve@?$CBaseList@V?$CBaseList@VCFire@@@container@wylib@@@container@wylib@@UEAAX_J@Z 00000001400d2c20 f i EntityManager.obj
 0001:000d1cc0       ??1?$CBaseLinkedList@PEAVCLandscape@@@container@wylib@@UEAA@XZ 00000001400d2cc0 f i EntityManager.obj
 0001:000d1d10       ?clear@?$CBaseLinkedList@PEAVCLandscape@@@container@wylib@@UEAAXXZ 00000001400d2d10 f i EntityManager.obj
 0001:000d1dd0       ?allocNode@?$CBaseLinkedList@PEAVCLandscape@@@container@wylib@@MEAAPEAV?$CLinkedNode@PEAVCLandscape@@@23@XZ 00000001400d2dd0 f i EntityManager.obj
 0001:000d1e40       ?freeNode@?$CBaseLinkedList@PEAVCLandscape@@@container@wylib@@MEAAXPEAV?$CLinkedNode@PEAVCLandscape@@@23@@Z 00000001400d2e40 f i EntityManager.obj
 0001:000d1ec0       ??1?$CBaseList@V?$CBaseList@VCLandscape@@@container@wylib@@@container@wylib@@UEAA@XZ 00000001400d2ec0 f i EntityManager.obj
 0001:000d1f10       ?empty@?$CBaseList@V?$CBaseList@VCLandscape@@@container@wylib@@@container@wylib@@UEAAXXZ 00000001400d2f10 f i EntityManager.obj
 0001:000d1f90       ?reserve@?$CBaseList@V?$CBaseList@VCLandscape@@@container@wylib@@@container@wylib@@UEAAX_J@Z 00000001400d2f90 f i EntityManager.obj
 0001:000d2030       ??1?$CBaseLinkedList@PEAVCHero@@@container@wylib@@UEAA@XZ 00000001400d3030 f i EntityManager.obj
 0001:000d2080       ?clear@?$CBaseLinkedList@PEAVCHero@@@container@wylib@@UEAAXXZ 00000001400d3080 f i EntityManager.obj
 0001:000d2140       ?allocNode@?$CBaseLinkedList@PEAVCHero@@@container@wylib@@MEAAPEAV?$CLinkedNode@PEAVCHero@@@23@XZ 00000001400d3140 f i EntityManager.obj
 0001:000d21b0       ?freeNode@?$CBaseLinkedList@PEAVCHero@@@container@wylib@@MEAAXPEAV?$CLinkedNode@PEAVCHero@@@23@@Z 00000001400d31b0 f i EntityManager.obj
 0001:000d2230       ??1?$CBaseList@V?$CBaseList@VCHero@@@container@wylib@@@container@wylib@@UEAA@XZ 00000001400d3230 f i EntityManager.obj
 0001:000d2280       ?empty@?$CBaseList@V?$CBaseList@VCHero@@@container@wylib@@@container@wylib@@UEAAXXZ 00000001400d3280 f i EntityManager.obj
 0001:000d2300       ?reserve@?$CBaseList@V?$CBaseList@VCHero@@@container@wylib@@@container@wylib@@UEAAX_J@Z 00000001400d3300 f i EntityManager.obj
 0001:000d23a0       ??1?$CBaseList@VEntityHandle@@@container@wylib@@UEAA@XZ 00000001400d33a0 f i EntityManager.obj
 0001:000d23f0       ?empty@?$CBaseList@VEntityHandle@@@container@wylib@@UEAAXXZ 00000001400d33f0 f i EntityManager.obj
 0001:000d2470       ?reserve@?$CBaseList@VEntityHandle@@@container@wylib@@UEAAX_J@Z 00000001400d3470 f i EntityManager.obj
 0001:000d2510       ??_E?$CBaseList@PEAVCDataPacket@@@container@wylib@@UEAAPEAXI@Z 00000001400d3510 f i EntityManager.obj
 0001:000d2510       ??_G?$CBaseList@PEAVCDataPacket@@@container@wylib@@UEAAPEAXI@Z 00000001400d3510 f i EntityManager.obj
 0001:000d2570       ??_G?$CBaseList@USMALLCPOINT@@@container@wylib@@UEAAPEAXI@Z 00000001400d3570 f i EntityManager.obj
 0001:000d2570       ??_E?$CBaseList@USMALLCPOINT@@@container@wylib@@UEAAPEAXI@Z 00000001400d3570 f i EntityManager.obj
 0001:000d25d0       ??_E?$CBaseList@H@container@wylib@@UEAAPEAXI@Z 00000001400d35d0 f i EntityManager.obj
 0001:000d25d0       ??_G?$CBaseList@H@container@wylib@@UEAAPEAXI@Z 00000001400d35d0 f i EntityManager.obj
 0001:000d2630       ??_G?$CBaseLinkedList@PEAVCEntityMsg@@@container@wylib@@UEAAPEAXI@Z 00000001400d3630 f i EntityManager.obj
 0001:000d2630       ??_E?$CBaseLinkedList@PEAVCEntityMsg@@@container@wylib@@UEAAPEAXI@Z 00000001400d3630 f i EntityManager.obj
 0001:000d2690       ??0?$CLinkedNode@PEAVCEntityMsg@@@container@wylib@@QEAA@XZ 00000001400d3690 f i EntityManager.obj
 0001:000d26d0       ??_G?$CLinkedNode@PEAVCEntityMsg@@@container@wylib@@QEAAPEAXI@Z 00000001400d36d0 f i EntityManager.obj
 0001:000d2730       ??_E?$CBaseList@PEAVScriptCallbackParam@@@container@wylib@@UEAAPEAXI@Z 00000001400d3730 f i EntityManager.obj
 0001:000d2730       ??_G?$CBaseList@PEAVScriptCallbackParam@@@container@wylib@@UEAAPEAXI@Z 00000001400d3730 f i EntityManager.obj
 0001:000d2790       ??_E?$CBaseList@VOwnedBabyInfo@@@container@wylib@@UEAAPEAXI@Z 00000001400d3790 f i EntityManager.obj
 0001:000d2790       ??_G?$CBaseList@VOwnedBabyInfo@@@container@wylib@@UEAAPEAXI@Z 00000001400d3790 f i EntityManager.obj
 0001:000d27f0       ??_G?$CBaseList@PEAUCUserItem@@@container@wylib@@UEAAPEAXI@Z 00000001400d37f0 f i EntityManager.obj
 0001:000d27f0       ??_E?$CBaseList@PEAUCUserItem@@@container@wylib@@UEAAPEAXI@Z 00000001400d37f0 f i EntityManager.obj
 0001:000d2850       ??_G?$CBaseList@UtagLuckAwardLog@CStdItemProvider@@@container@wylib@@UEAAPEAXI@Z 00000001400d3850 f i EntityManager.obj
 0001:000d2850       ??_E?$CBaseList@UtagLuckAwardLog@CStdItemProvider@@@container@wylib@@UEAAPEAXI@Z 00000001400d3850 f i EntityManager.obj
 0001:000d28b0       ??_G?$CBaseList@UtagBuffColorData@CBuffSystem@@@container@wylib@@UEAAPEAXI@Z 00000001400d38b0 f i EntityManager.obj
 0001:000d28b0       ??_E?$CBaseList@UtagBuffColorData@CBuffSystem@@@container@wylib@@UEAAPEAXI@Z 00000001400d38b0 f i EntityManager.obj
 0001:000d2910       ??_E?$CBaseList@UEntityHandleTag@@@container@wylib@@UEAAPEAXI@Z 00000001400d3910 f i EntityManager.obj
 0001:000d2910       ??_G?$CBaseList@UEntityHandleTag@@@container@wylib@@UEAAPEAXI@Z 00000001400d3910 f i EntityManager.obj
 0001:000d2970       ??_G?$CBaseLinkedList@PEAUCEntityEffect@@@container@wylib@@UEAAPEAXI@Z 00000001400d3970 f i EntityManager.obj
 0001:000d2970       ??_E?$CBaseLinkedList@PEAUCEntityEffect@@@container@wylib@@UEAAPEAXI@Z 00000001400d3970 f i EntityManager.obj
 0001:000d29d0       ??0?$CLinkedNode@PEAUCEntityEffect@@@container@wylib@@QEAA@XZ 00000001400d39d0 f i EntityManager.obj
 0001:000d2a10       ??_G?$CLinkedNode@PEAUCEntityEffect@@@container@wylib@@QEAAPEAXI@Z 00000001400d3a10 f i EntityManager.obj
 0001:000d2a70       ??_E?$CBaseList@UtagSkillData@CSkillSubSystem@@@container@wylib@@UEAAPEAXI@Z 00000001400d3a70 f i EntityManager.obj
 0001:000d2a70       ??_G?$CBaseList@UtagSkillData@CSkillSubSystem@@@container@wylib@@UEAAPEAXI@Z 00000001400d3a70 f i EntityManager.obj
 0001:000d2ad0       ??_G?$CBaseList@VAsyncOpItem@@@container@wylib@@UEAAPEAXI@Z 00000001400d3ad0 f i EntityManager.obj
 0001:000d2ad0       ??_E?$CBaseList@VAsyncOpItem@@@container@wylib@@UEAAPEAXI@Z 00000001400d3ad0 f i EntityManager.obj
 0001:000d2b30       ??_G?$CBaseList@UtagRankItem@CMiscSystem@@@container@wylib@@UEAAPEAXI@Z 00000001400d3b30 f i EntityManager.obj
 0001:000d2b30       ??_E?$CBaseList@UtagRankItem@CMiscSystem@@@container@wylib@@UEAAPEAXI@Z 00000001400d3b30 f i EntityManager.obj
 0001:000d2b90       ??_G?$CBaseList@UtagTitleTime@CAchieveSystem@@@container@wylib@@UEAAPEAXI@Z 00000001400d3b90 f i EntityManager.obj
 0001:000d2b90       ??_E?$CBaseList@UtagTitleTime@CAchieveSystem@@@container@wylib@@UEAAPEAXI@Z 00000001400d3b90 f i EntityManager.obj
 0001:000d2bf0       ??_E?$CBaseList@UtagAcupointData@CAcupointSystem@@@container@wylib@@UEAAPEAXI@Z 00000001400d3bf0 f i EntityManager.obj
 0001:000d2bf0       ??_G?$CBaseList@UtagAcupointData@CAcupointSystem@@@container@wylib@@UEAAPEAXI@Z 00000001400d3bf0 f i EntityManager.obj
 0001:000d2c50       ??_G?$CBaseList@UtagAcupointStrongCount@CAcupointSystem@@@container@wylib@@UEAAPEAXI@Z 00000001400d3c50 f i EntityManager.obj
 0001:000d2c50       ??_E?$CBaseList@UtagAcupointStrongCount@CAcupointSystem@@@container@wylib@@UEAAPEAXI@Z 00000001400d3c50 f i EntityManager.obj
 0001:000d2cb0       ??_E?$CBaseList@UtagCombatRecord@@@container@wylib@@UEAAPEAXI@Z 00000001400d3cb0 f i EntityManager.obj
 0001:000d2cb0       ??_G?$CBaseList@UtagCombatRecord@@@container@wylib@@UEAAPEAXI@Z 00000001400d3cb0 f i EntityManager.obj
 0001:000d2d10       ??_G?$CBaseList@UtagDeathRecord@@@container@wylib@@UEAAPEAXI@Z 00000001400d3d10 f i EntityManager.obj
 0001:000d2d10       ??_E?$CBaseList@UtagDeathRecord@@@container@wylib@@UEAAPEAXI@Z 00000001400d3d10 f i EntityManager.obj
 0001:000d2d70       ??_E?$CBaseList@UtagFriendRelation@@@container@wylib@@UEAAPEAXI@Z 00000001400d3d70 f i EntityManager.obj
 0001:000d2d70       ??_G?$CBaseList@UtagFriendRelation@@@container@wylib@@UEAAPEAXI@Z 00000001400d3d70 f i EntityManager.obj
 0001:000d2dd0       ??_G?$CBaseList@UtagOffChatMsg@@@container@wylib@@UEAAPEAXI@Z 00000001400d3dd0 f i EntityManager.obj
 0001:000d2dd0       ??_E?$CBaseList@UtagOffChatMsg@@@container@wylib@@UEAAPEAXI@Z 00000001400d3dd0 f i EntityManager.obj
 0001:000d2e30       ??_E?$CBaseList@UtagSocialMsgList@@@container@wylib@@UEAAPEAXI@Z 00000001400d3e30 f i EntityManager.obj
 0001:000d2e30       ??_G?$CBaseList@UtagSocialMsgList@@@container@wylib@@UEAAPEAXI@Z 00000001400d3e30 f i EntityManager.obj
 0001:000d2e90       ??_G?$CBaseList@UtagTimeRideData@@@container@wylib@@UEAAPEAXI@Z 00000001400d3e90 f i EntityManager.obj
 0001:000d2e90       ??_E?$CBaseList@UtagTimeRideData@@@container@wylib@@UEAAPEAXI@Z 00000001400d3e90 f i EntityManager.obj
 0001:000d2ef0       ??_E?$CBaseList@UPETDATA@CPetSystem@@@container@wylib@@UEAAPEAXI@Z 00000001400d3ef0 f i EntityManager.obj
 0001:000d2ef0       ??_G?$CBaseList@UPETDATA@CPetSystem@@@container@wylib@@UEAAPEAXI@Z 00000001400d3ef0 f i EntityManager.obj
 0001:000d2f50       ??_G?$CBaseList@UtagDataPacketRecord@@@container@wylib@@UEAAPEAXI@Z 00000001400d3f50 f i EntityManager.obj
 0001:000d2f50       ??_E?$CBaseList@UtagDataPacketRecord@@@container@wylib@@UEAAPEAXI@Z 00000001400d3f50 f i EntityManager.obj
 0001:000d2fb0       ??_G?$CBaseList@UtagActorSrcEffect@@@container@wylib@@UEAAPEAXI@Z 00000001400d3fb0 f i EntityManager.obj
 0001:000d2fb0       ??_E?$CBaseList@UtagActorSrcEffect@@@container@wylib@@UEAAPEAXI@Z 00000001400d3fb0 f i EntityManager.obj
 0001:000d3010       ??_G?$CBaseLinkedList@PEAVCActor@@@container@wylib@@UEAAPEAXI@Z 00000001400d4010 f i EntityManager.obj
 0001:000d3010       ??_E?$CBaseLinkedList@PEAVCActor@@@container@wylib@@UEAAPEAXI@Z 00000001400d4010 f i EntityManager.obj
 0001:000d3070       ??0?$CLinkedNode@PEAVCActor@@@container@wylib@@QEAA@XZ 00000001400d4070 f i EntityManager.obj
 0001:000d30b0       ??_G?$CLinkedNode@PEAVCActor@@@container@wylib@@QEAAPEAXI@Z 00000001400d40b0 f i EntityManager.obj
 0001:000d3110       ??_G?$CBaseList@V?$CBaseList@VCActor@@@container@wylib@@@container@wylib@@UEAAPEAXI@Z 00000001400d4110 f i EntityManager.obj
 0001:000d3110       ??_E?$CBaseList@V?$CBaseList@VCActor@@@container@wylib@@@container@wylib@@UEAAPEAXI@Z 00000001400d4110 f i EntityManager.obj
 0001:000d3170       ??_G?$CBaseLinkedList@PEAVCMonster@@@container@wylib@@UEAAPEAXI@Z 00000001400d4170 f i EntityManager.obj
 0001:000d3170       ??_E?$CBaseLinkedList@PEAVCMonster@@@container@wylib@@UEAAPEAXI@Z 00000001400d4170 f i EntityManager.obj
 0001:000d31d0       ??0?$CLinkedNode@PEAVCMonster@@@container@wylib@@QEAA@XZ 00000001400d41d0 f i EntityManager.obj
 0001:000d3210       ??_G?$CLinkedNode@PEAVCMonster@@@container@wylib@@QEAAPEAXI@Z 00000001400d4210 f i EntityManager.obj
 0001:000d3270       ??_G?$CBaseList@V?$CBaseList@VCMonster@@@container@wylib@@@container@wylib@@UEAAPEAXI@Z 00000001400d4270 f i EntityManager.obj
 0001:000d3270       ??_E?$CBaseList@V?$CBaseList@VCMonster@@@container@wylib@@@container@wylib@@UEAAPEAXI@Z 00000001400d4270 f i EntityManager.obj
 0001:000d32d0       ??_G?$CBaseLinkedList@PEAVCNpc@@@container@wylib@@UEAAPEAXI@Z 00000001400d42d0 f i EntityManager.obj
 0001:000d32d0       ??_E?$CBaseLinkedList@PEAVCNpc@@@container@wylib@@UEAAPEAXI@Z 00000001400d42d0 f i EntityManager.obj
 0001:000d3330       ??0?$CLinkedNode@PEAVCNpc@@@container@wylib@@QEAA@XZ 00000001400d4330 f i EntityManager.obj
 0001:000d3370       ??_G?$CLinkedNode@PEAVCNpc@@@container@wylib@@QEAAPEAXI@Z 00000001400d4370 f i EntityManager.obj
 0001:000d33d0       ??_E?$CBaseList@V?$CBaseList@VCNpc@@@container@wylib@@@container@wylib@@UEAAPEAXI@Z 00000001400d43d0 f i EntityManager.obj
 0001:000d33d0       ??_G?$CBaseList@V?$CBaseList@VCNpc@@@container@wylib@@@container@wylib@@UEAAPEAXI@Z 00000001400d43d0 f i EntityManager.obj
 0001:000d3430       ??_G?$CBaseLinkedList@PEAVCDropItemEntity@@@container@wylib@@UEAAPEAXI@Z 00000001400d4430 f i EntityManager.obj
 0001:000d3430       ??_E?$CBaseLinkedList@PEAVCDropItemEntity@@@container@wylib@@UEAAPEAXI@Z 00000001400d4430 f i EntityManager.obj
 0001:000d3490       ??0?$CLinkedNode@PEAVCDropItemEntity@@@container@wylib@@QEAA@XZ 00000001400d4490 f i EntityManager.obj
 0001:000d34d0       ??_G?$CLinkedNode@PEAVCDropItemEntity@@@container@wylib@@QEAAPEAXI@Z 00000001400d44d0 f i EntityManager.obj
 0001:000d3530       ??_E?$CBaseList@V?$CBaseList@VCDropItemEntity@@@container@wylib@@@container@wylib@@UEAAPEAXI@Z 00000001400d4530 f i EntityManager.obj
 0001:000d3530       ??_G?$CBaseList@V?$CBaseList@VCDropItemEntity@@@container@wylib@@@container@wylib@@UEAAPEAXI@Z 00000001400d4530 f i EntityManager.obj
 0001:000d3590       ??_E?$CBaseLinkedList@PEAVCTransfer@@@container@wylib@@UEAAPEAXI@Z 00000001400d4590 f i EntityManager.obj
 0001:000d3590       ??_G?$CBaseLinkedList@PEAVCTransfer@@@container@wylib@@UEAAPEAXI@Z 00000001400d4590 f i EntityManager.obj
 0001:000d35f0       ??0?$CLinkedNode@PEAVCTransfer@@@container@wylib@@QEAA@XZ 00000001400d45f0 f i EntityManager.obj
 0001:000d3630       ??_G?$CLinkedNode@PEAVCTransfer@@@container@wylib@@QEAAPEAXI@Z 00000001400d4630 f i EntityManager.obj
 0001:000d3690       ??_E?$CBaseList@V?$CBaseList@VCTransfer@@@container@wylib@@@container@wylib@@UEAAPEAXI@Z 00000001400d4690 f i EntityManager.obj
 0001:000d3690       ??_G?$CBaseList@V?$CBaseList@VCTransfer@@@container@wylib@@@container@wylib@@UEAAPEAXI@Z 00000001400d4690 f i EntityManager.obj
 0001:000d36f0       ??_E?$CBaseList@V?$CBaseList@VScriptCallbackParam@@@container@wylib@@@container@wylib@@UEAAPEAXI@Z 00000001400d46f0 f i EntityManager.obj
 0001:000d36f0       ??_G?$CBaseList@V?$CBaseList@VScriptCallbackParam@@@container@wylib@@@container@wylib@@UEAAPEAXI@Z 00000001400d46f0 f i EntityManager.obj
 0001:000d3750       ??_G?$CBaseLinkedList@PEAVCPet@@@container@wylib@@UEAAPEAXI@Z 00000001400d4750 f i EntityManager.obj
 0001:000d3750       ??_E?$CBaseLinkedList@PEAVCPet@@@container@wylib@@UEAAPEAXI@Z 00000001400d4750 f i EntityManager.obj
 0001:000d37b0       ??0?$CLinkedNode@PEAVCPet@@@container@wylib@@QEAA@XZ 00000001400d47b0 f i EntityManager.obj
 0001:000d37f0       ??_G?$CLinkedNode@PEAVCPet@@@container@wylib@@QEAAPEAXI@Z 00000001400d47f0 f i EntityManager.obj
 0001:000d3850       ??_G?$CBaseList@V?$CBaseList@VCPet@@@container@wylib@@@container@wylib@@UEAAPEAXI@Z 00000001400d4850 f i EntityManager.obj
 0001:000d3850       ??_E?$CBaseList@V?$CBaseList@VCPet@@@container@wylib@@@container@wylib@@UEAAPEAXI@Z 00000001400d4850 f i EntityManager.obj
 0001:000d38b0       ??_E?$CBaseLinkedList@PEAVCFire@@@container@wylib@@UEAAPEAXI@Z 00000001400d48b0 f i EntityManager.obj
 0001:000d38b0       ??_G?$CBaseLinkedList@PEAVCFire@@@container@wylib@@UEAAPEAXI@Z 00000001400d48b0 f i EntityManager.obj
 0001:000d3910       ??0?$CLinkedNode@PEAVCFire@@@container@wylib@@QEAA@XZ 00000001400d4910 f i EntityManager.obj
 0001:000d3950       ??_G?$CLinkedNode@PEAVCFire@@@container@wylib@@QEAAPEAXI@Z 00000001400d4950 f i EntityManager.obj
 0001:000d39b0       ??_G?$CBaseList@V?$CBaseList@VCFire@@@container@wylib@@@container@wylib@@UEAAPEAXI@Z 00000001400d49b0 f i EntityManager.obj
 0001:000d39b0       ??_E?$CBaseList@V?$CBaseList@VCFire@@@container@wylib@@@container@wylib@@UEAAPEAXI@Z 00000001400d49b0 f i EntityManager.obj
 0001:000d3a10       ??_G?$CBaseLinkedList@PEAVCLandscape@@@container@wylib@@UEAAPEAXI@Z 00000001400d4a10 f i EntityManager.obj
 0001:000d3a10       ??_E?$CBaseLinkedList@PEAVCLandscape@@@container@wylib@@UEAAPEAXI@Z 00000001400d4a10 f i EntityManager.obj
 0001:000d3a70       ??0?$CLinkedNode@PEAVCLandscape@@@container@wylib@@QEAA@XZ 00000001400d4a70 f i EntityManager.obj
 0001:000d3ab0       ??_G?$CLinkedNode@PEAVCLandscape@@@container@wylib@@QEAAPEAXI@Z 00000001400d4ab0 f i EntityManager.obj
 0001:000d3b10       ??_G?$CBaseList@V?$CBaseList@VCLandscape@@@container@wylib@@@container@wylib@@UEAAPEAXI@Z 00000001400d4b10 f i EntityManager.obj
 0001:000d3b10       ??_E?$CBaseList@V?$CBaseList@VCLandscape@@@container@wylib@@@container@wylib@@UEAAPEAXI@Z 00000001400d4b10 f i EntityManager.obj
 0001:000d3b70       ??_G?$CBaseLinkedList@PEAVCHero@@@container@wylib@@UEAAPEAXI@Z 00000001400d4b70 f i EntityManager.obj
 0001:000d3b70       ??_E?$CBaseLinkedList@PEAVCHero@@@container@wylib@@UEAAPEAXI@Z 00000001400d4b70 f i EntityManager.obj
 0001:000d3bd0       ??0?$CLinkedNode@PEAVCHero@@@container@wylib@@QEAA@XZ 00000001400d4bd0 f i EntityManager.obj
 0001:000d3c10       ??_G?$CLinkedNode@PEAVCHero@@@container@wylib@@QEAAPEAXI@Z 00000001400d4c10 f i EntityManager.obj
 0001:000d3c70       ??_E?$CBaseList@V?$CBaseList@VCHero@@@container@wylib@@@container@wylib@@UEAAPEAXI@Z 00000001400d4c70 f i EntityManager.obj
 0001:000d3c70       ??_G?$CBaseList@V?$CBaseList@VCHero@@@container@wylib@@@container@wylib@@UEAAPEAXI@Z 00000001400d4c70 f i EntityManager.obj
 0001:000d3cd0       ??_G?$CBaseList@VEntityHandle@@@container@wylib@@UEAAPEAXI@Z 00000001400d4cd0 f i EntityManager.obj
 0001:000d3cd0       ??_E?$CBaseList@VEntityHandle@@@container@wylib@@UEAAPEAXI@Z 00000001400d4cd0 f i EntityManager.obj
 0001:000d3d30       ??1?$CLinkedNode@PEAVCEntityMsg@@@container@wylib@@QEAA@XZ 00000001400d4d30 f i EntityManager.obj
 0001:000d3d70       ??1?$CLinkedNode@PEAUCEntityEffect@@@container@wylib@@QEAA@XZ 00000001400d4d70 f i EntityManager.obj
 0001:000d3db0       ??1?$CLinkedNode@PEAVCActor@@@container@wylib@@QEAA@XZ 00000001400d4db0 f i EntityManager.obj
 0001:000d3df0       ??1?$CLinkedNode@PEAVCMonster@@@container@wylib@@QEAA@XZ 00000001400d4df0 f i EntityManager.obj
 0001:000d3e30       ??1?$CLinkedNode@PEAVCNpc@@@container@wylib@@QEAA@XZ 00000001400d4e30 f i EntityManager.obj
 0001:000d3e70       ??1?$CLinkedNode@PEAVCDropItemEntity@@@container@wylib@@QEAA@XZ 00000001400d4e70 f i EntityManager.obj
 0001:000d3eb0       ??1?$CLinkedNode@PEAVCTransfer@@@container@wylib@@QEAA@XZ 00000001400d4eb0 f i EntityManager.obj
 0001:000d3ef0       ??1?$CLinkedNode@PEAVCPet@@@container@wylib@@QEAA@XZ 00000001400d4ef0 f i EntityManager.obj
 0001:000d3f30       ??1?$CLinkedNode@PEAVCFire@@@container@wylib@@QEAA@XZ 00000001400d4f30 f i EntityManager.obj
 0001:000d3f70       ??1?$CLinkedNode@PEAVCLandscape@@@container@wylib@@QEAA@XZ 00000001400d4f70 f i EntityManager.obj
 0001:000d3fb0       ??1?$CLinkedNode@PEAVCHero@@@container@wylib@@QEAA@XZ 00000001400d4fb0 f i EntityManager.obj
 0001:000d3ff0       ?addToStat@?$Counter@VCRandHit@@@@IEAAXXZ 00000001400d4ff0 f i EntityManager.obj
 0001:000d4090       ?clear@?$CBaseList@USMALLCPOINT@@@container@wylib@@QEAAXXZ 00000001400d5090 f i EntityManager.obj
 0001:000d40b0       ?addToStat@?$Counter@VCEntityOPCollector@@@@IEAAXXZ 00000001400d50b0 f i EntityManager.obj
 0001:000d4150       ?addToStat@?$Counter@VScriptCallbackParam@@@@IEAAXXZ 00000001400d5150 f i EntityManager.obj
 0001:000d41f0       ?clear@?$CBaseList@PEAVScriptCallbackParam@@@container@wylib@@QEAAXXZ 00000001400d51f0 f i EntityManager.obj
 0001:000d4210       ?clear@?$CBaseList@VOwnedBabyInfo@@@container@wylib@@QEAAXXZ 00000001400d5210 f i EntityManager.obj
 0001:000d4230       ?addToStat@?$Counter@VCEntity@@@@IEAAXXZ 00000001400d5230 f i EntityManager.obj
 0001:000d42d0       ?clear@?$CBaseList@PEAUCUserItem@@@container@wylib@@QEAAXXZ 00000001400d52d0 f i EntityManager.obj
 0001:000d42f0       ?clear@?$CBaseList@UtagLuckAwardLog@CStdItemProvider@@@container@wylib@@QEAAXXZ 00000001400d52f0 f i EntityManager.obj
 0001:000d4310       ?clear@?$CBaseList@UtagSkillData@CSkillSubSystem@@@container@wylib@@QEAAXXZ 00000001400d5310 f i EntityManager.obj
 0001:000d4330       ?clear@?$CBaseList@VAsyncOpItem@@@container@wylib@@QEAAXXZ 00000001400d5330 f i EntityManager.obj
 0001:000d4350       ?clear@?$CBaseList@UtagRankItem@CMiscSystem@@@container@wylib@@QEAAXXZ 00000001400d5350 f i EntityManager.obj
 0001:000d4370       ?clear@?$CBaseList@UtagTitleTime@CAchieveSystem@@@container@wylib@@QEAAXXZ 00000001400d5370 f i EntityManager.obj
 0001:000d4390       ?clear@?$CBaseList@UtagAcupointStrongCount@CAcupointSystem@@@container@wylib@@QEAAXXZ 00000001400d5390 f i EntityManager.obj
 0001:000d43b0       ?clear@?$CBaseList@UtagCombatRecord@@@container@wylib@@QEAAXXZ 00000001400d53b0 f i EntityManager.obj
 0001:000d43d0       ?clear@?$CBaseList@UtagDeathRecord@@@container@wylib@@QEAAXXZ 00000001400d53d0 f i EntityManager.obj
 0001:000d43f0       ?clear@?$CBaseList@UtagFriendRelation@@@container@wylib@@QEAAXXZ 00000001400d53f0 f i EntityManager.obj
 0001:000d4410       ?clear@?$CBaseList@UtagOffChatMsg@@@container@wylib@@QEAAXXZ 00000001400d5410 f i EntityManager.obj
 0001:000d4430       ?clear@?$CBaseList@UtagSocialMsgList@@@container@wylib@@QEAAXXZ 00000001400d5430 f i EntityManager.obj
 0001:000d4450       ?clear@?$CBaseList@UtagTimeRideData@@@container@wylib@@QEAAXXZ 00000001400d5450 f i EntityManager.obj
 0001:000d4470       ?clear@?$CBaseList@UPETDATA@CPetSystem@@@container@wylib@@QEAAXXZ 00000001400d5470 f i EntityManager.obj
 0001:000d4490       ?clear@?$CBaseList@V?$CBaseList@VCActor@@@container@wylib@@@container@wylib@@QEAAXXZ 00000001400d5490 f i EntityManager.obj
 0001:000d44b0       ?clear@?$CBaseList@V?$CBaseList@VCMonster@@@container@wylib@@@container@wylib@@QEAAXXZ 00000001400d54b0 f i EntityManager.obj
 0001:000d44d0       ?clear@?$CBaseList@V?$CBaseList@VCNpc@@@container@wylib@@@container@wylib@@QEAAXXZ 00000001400d54d0 f i EntityManager.obj
 0001:000d44f0       ?clear@?$CBaseList@V?$CBaseList@VCDropItemEntity@@@container@wylib@@@container@wylib@@QEAAXXZ 00000001400d54f0 f i EntityManager.obj
 0001:000d4510       ?clear@?$CBaseList@V?$CBaseList@VCTransfer@@@container@wylib@@@container@wylib@@QEAAXXZ 00000001400d5510 f i EntityManager.obj
 0001:000d4530       ?clear@?$CBaseList@V?$CBaseList@VScriptCallbackParam@@@container@wylib@@@container@wylib@@QEAAXXZ 00000001400d5530 f i EntityManager.obj
 0001:000d4550       ?clear@?$CBaseList@V?$CBaseList@VCPet@@@container@wylib@@@container@wylib@@QEAAXXZ 00000001400d5550 f i EntityManager.obj
 0001:000d4570       ?clear@?$CBaseList@V?$CBaseList@VCFire@@@container@wylib@@@container@wylib@@QEAAXXZ 00000001400d5570 f i EntityManager.obj
 0001:000d4590       ?clear@?$CBaseList@V?$CBaseList@VCLandscape@@@container@wylib@@@container@wylib@@QEAAXXZ 00000001400d5590 f i EntityManager.obj
 0001:000d45b0       ?clear@?$CBaseList@V?$CBaseList@VCHero@@@container@wylib@@@container@wylib@@QEAAXXZ 00000001400d55b0 f i EntityManager.obj
 0001:000d45d0       ?add@?$CBaseList@VEntityHandle@@@container@wylib@@QEAA_JAEBVEntityHandle@@@Z 00000001400d55d0 f i EntityManager.obj
 0001:000d46d0       ??0?$Counter@V?$CLinkedNode@PEAVCActor@@@container@wylib@@@@QEAA@XZ 00000001400d56d0 f i EntityManager.obj
 0001:000d4710       ??1?$Counter@V?$CLinkedNode@PEAVCActor@@@container@wylib@@@@QEAA@XZ 00000001400d5710 f i EntityManager.obj
 0001:000d4730       ??0?$Counter@V?$CLinkedNode@PEAVCEntityMsg@@@container@wylib@@@@QEAA@XZ 00000001400d5730 f i EntityManager.obj
 0001:000d4770       ??1?$Counter@V?$CLinkedNode@PEAVCEntityMsg@@@container@wylib@@@@QEAA@XZ 00000001400d5770 f i EntityManager.obj
 0001:000d4790       ??0?$Counter@V?$CLinkedNode@PEAUCEntityEffect@@@container@wylib@@@@QEAA@XZ 00000001400d5790 f i EntityManager.obj
 0001:000d47d0       ??1?$Counter@V?$CLinkedNode@PEAUCEntityEffect@@@container@wylib@@@@QEAA@XZ 00000001400d57d0 f i EntityManager.obj
 0001:000d47f0       ??1?$CBaseList@VCActor@@@container@wylib@@UEAA@XZ 00000001400d57f0 f i EntityManager.obj
 0001:000d4840       ?empty@?$CBaseList@VCActor@@@container@wylib@@UEAAXXZ 00000001400d5840 f i EntityManager.obj
 0001:000d48c0       ?reserve@?$CBaseList@VCActor@@@container@wylib@@UEAAX_J@Z 00000001400d58c0 f i EntityManager.obj
 0001:000d4960       ??0?$Counter@V?$CLinkedNode@PEAVCMonster@@@container@wylib@@@@QEAA@XZ 00000001400d5960 f i EntityManager.obj
 0001:000d49a0       ??1?$Counter@V?$CLinkedNode@PEAVCMonster@@@container@wylib@@@@QEAA@XZ 00000001400d59a0 f i EntityManager.obj
 0001:000d49c0       ??1?$CBaseList@VCMonster@@@container@wylib@@UEAA@XZ 00000001400d59c0 f i EntityManager.obj
 0001:000d4a10       ?empty@?$CBaseList@VCMonster@@@container@wylib@@UEAAXXZ 00000001400d5a10 f i EntityManager.obj
 0001:000d4a90       ?reserve@?$CBaseList@VCMonster@@@container@wylib@@UEAAX_J@Z 00000001400d5a90 f i EntityManager.obj
 0001:000d4b30       ??0?$Counter@V?$CLinkedNode@PEAVCNpc@@@container@wylib@@@@QEAA@XZ 00000001400d5b30 f i EntityManager.obj
 0001:000d4b70       ??1?$Counter@V?$CLinkedNode@PEAVCNpc@@@container@wylib@@@@QEAA@XZ 00000001400d5b70 f i EntityManager.obj
 0001:000d4b90       ??1?$CBaseList@VCNpc@@@container@wylib@@UEAA@XZ 00000001400d5b90 f i EntityManager.obj
 0001:000d4be0       ?empty@?$CBaseList@VCNpc@@@container@wylib@@UEAAXXZ 00000001400d5be0 f i EntityManager.obj
 0001:000d4c60       ?reserve@?$CBaseList@VCNpc@@@container@wylib@@UEAAX_J@Z 00000001400d5c60 f i EntityManager.obj
 0001:000d4d00       ??0?$Counter@V?$CLinkedNode@PEAVCDropItemEntity@@@container@wylib@@@@QEAA@XZ 00000001400d5d00 f i EntityManager.obj
 0001:000d4d40       ??1?$Counter@V?$CLinkedNode@PEAVCDropItemEntity@@@container@wylib@@@@QEAA@XZ 00000001400d5d40 f i EntityManager.obj
 0001:000d4d60       ??1?$CBaseList@VCDropItemEntity@@@container@wylib@@UEAA@XZ 00000001400d5d60 f i EntityManager.obj
 0001:000d4db0       ?empty@?$CBaseList@VCDropItemEntity@@@container@wylib@@UEAAXXZ 00000001400d5db0 f i EntityManager.obj
 0001:000d4e30       ?reserve@?$CBaseList@VCDropItemEntity@@@container@wylib@@UEAAX_J@Z 00000001400d5e30 f i EntityManager.obj
 0001:000d4ed0       ??0?$Counter@V?$CLinkedNode@PEAVCTransfer@@@container@wylib@@@@QEAA@XZ 00000001400d5ed0 f i EntityManager.obj
 0001:000d4f10       ??1?$Counter@V?$CLinkedNode@PEAVCTransfer@@@container@wylib@@@@QEAA@XZ 00000001400d5f10 f i EntityManager.obj
 0001:000d4f30       ??1?$CBaseList@VCTransfer@@@container@wylib@@UEAA@XZ 00000001400d5f30 f i EntityManager.obj
 0001:000d4f80       ?empty@?$CBaseList@VCTransfer@@@container@wylib@@UEAAXXZ 00000001400d5f80 f i EntityManager.obj
 0001:000d5000       ?reserve@?$CBaseList@VCTransfer@@@container@wylib@@UEAAX_J@Z 00000001400d6000 f i EntityManager.obj
 0001:000d50a0       ??1?$CBaseList@VScriptCallbackParam@@@container@wylib@@UEAA@XZ 00000001400d60a0 f i EntityManager.obj
 0001:000d50f0       ?empty@?$CBaseList@VScriptCallbackParam@@@container@wylib@@UEAAXXZ 00000001400d60f0 f i EntityManager.obj
 0001:000d5170       ?reserve@?$CBaseList@VScriptCallbackParam@@@container@wylib@@UEAAX_J@Z 00000001400d6170 f i EntityManager.obj
 0001:000d5210       ??0?$Counter@V?$CLinkedNode@PEAVCPet@@@container@wylib@@@@QEAA@XZ 00000001400d6210 f i EntityManager.obj
 0001:000d5250       ??1?$Counter@V?$CLinkedNode@PEAVCPet@@@container@wylib@@@@QEAA@XZ 00000001400d6250 f i EntityManager.obj
 0001:000d5270       ??1?$CBaseList@VCPet@@@container@wylib@@UEAA@XZ 00000001400d6270 f i EntityManager.obj
 0001:000d52c0       ?empty@?$CBaseList@VCPet@@@container@wylib@@UEAAXXZ 00000001400d62c0 f i EntityManager.obj
 0001:000d5340       ?reserve@?$CBaseList@VCPet@@@container@wylib@@UEAAX_J@Z 00000001400d6340 f i EntityManager.obj
 0001:000d53e0       ??0?$Counter@V?$CLinkedNode@PEAVCFire@@@container@wylib@@@@QEAA@XZ 00000001400d63e0 f i EntityManager.obj
 0001:000d5420       ??1?$Counter@V?$CLinkedNode@PEAVCFire@@@container@wylib@@@@QEAA@XZ 00000001400d6420 f i EntityManager.obj
 0001:000d5440       ??1?$CBaseList@VCFire@@@container@wylib@@UEAA@XZ 00000001400d6440 f i EntityManager.obj
 0001:000d5490       ?empty@?$CBaseList@VCFire@@@container@wylib@@UEAAXXZ 00000001400d6490 f i EntityManager.obj
 0001:000d5510       ?reserve@?$CBaseList@VCFire@@@container@wylib@@UEAAX_J@Z 00000001400d6510 f i EntityManager.obj
 0001:000d55b0       ??0?$Counter@V?$CLinkedNode@PEAVCLandscape@@@container@wylib@@@@QEAA@XZ 00000001400d65b0 f i EntityManager.obj
 0001:000d55f0       ??1?$Counter@V?$CLinkedNode@PEAVCLandscape@@@container@wylib@@@@QEAA@XZ 00000001400d65f0 f i EntityManager.obj
 0001:000d5610       ??1?$CBaseList@VCLandscape@@@container@wylib@@UEAA@XZ 00000001400d6610 f i EntityManager.obj
 0001:000d5660       ?empty@?$CBaseList@VCLandscape@@@container@wylib@@UEAAXXZ 00000001400d6660 f i EntityManager.obj
 0001:000d56e0       ?reserve@?$CBaseList@VCLandscape@@@container@wylib@@UEAAX_J@Z 00000001400d66e0 f i EntityManager.obj
 0001:000d5780       ??0?$Counter@V?$CLinkedNode@PEAVCHero@@@container@wylib@@@@QEAA@XZ 00000001400d6780 f i EntityManager.obj
 0001:000d57c0       ??1?$Counter@V?$CLinkedNode@PEAVCHero@@@container@wylib@@@@QEAA@XZ 00000001400d67c0 f i EntityManager.obj
 0001:000d57e0       ??1?$CBaseList@VCHero@@@container@wylib@@UEAA@XZ 00000001400d67e0 f i EntityManager.obj
 0001:000d5830       ?empty@?$CBaseList@VCHero@@@container@wylib@@UEAAXXZ 00000001400d6830 f i EntityManager.obj
 0001:000d58b0       ?reserve@?$CBaseList@VCHero@@@container@wylib@@UEAAX_J@Z 00000001400d68b0 f i EntityManager.obj
 0001:000d5950       ??_E?$CBaseList@VCActor@@@container@wylib@@UEAAPEAXI@Z 00000001400d6950 f i EntityManager.obj
 0001:000d5950       ??_G?$CBaseList@VCActor@@@container@wylib@@UEAAPEAXI@Z 00000001400d6950 f i EntityManager.obj
 0001:000d59b0       ??_E?$CBaseList@VCMonster@@@container@wylib@@UEAAPEAXI@Z 00000001400d69b0 f i EntityManager.obj
 0001:000d59b0       ??_G?$CBaseList@VCMonster@@@container@wylib@@UEAAPEAXI@Z 00000001400d69b0 f i EntityManager.obj
 0001:000d5a10       ??_E?$CBaseList@VCNpc@@@container@wylib@@UEAAPEAXI@Z 00000001400d6a10 f i EntityManager.obj
 0001:000d5a10       ??_G?$CBaseList@VCNpc@@@container@wylib@@UEAAPEAXI@Z 00000001400d6a10 f i EntityManager.obj
 0001:000d5a70       ??_E?$CBaseList@VCDropItemEntity@@@container@wylib@@UEAAPEAXI@Z 00000001400d6a70 f i EntityManager.obj
 0001:000d5a70       ??_G?$CBaseList@VCDropItemEntity@@@container@wylib@@UEAAPEAXI@Z 00000001400d6a70 f i EntityManager.obj
 0001:000d5ad0       ??_E?$CBaseList@VCTransfer@@@container@wylib@@UEAAPEAXI@Z 00000001400d6ad0 f i EntityManager.obj
 0001:000d5ad0       ??_G?$CBaseList@VCTransfer@@@container@wylib@@UEAAPEAXI@Z 00000001400d6ad0 f i EntityManager.obj
 0001:000d5b30       ??_E?$CBaseList@VScriptCallbackParam@@@container@wylib@@UEAAPEAXI@Z 00000001400d6b30 f i EntityManager.obj
 0001:000d5b30       ??_G?$CBaseList@VScriptCallbackParam@@@container@wylib@@UEAAPEAXI@Z 00000001400d6b30 f i EntityManager.obj
 0001:000d5b90       ??_E?$CBaseList@VCPet@@@container@wylib@@UEAAPEAXI@Z 00000001400d6b90 f i EntityManager.obj
 0001:000d5b90       ??_G?$CBaseList@VCPet@@@container@wylib@@UEAAPEAXI@Z 00000001400d6b90 f i EntityManager.obj
 0001:000d5bf0       ??_E?$CBaseList@VCFire@@@container@wylib@@UEAAPEAXI@Z 00000001400d6bf0 f i EntityManager.obj
 0001:000d5bf0       ??_G?$CBaseList@VCFire@@@container@wylib@@UEAAPEAXI@Z 00000001400d6bf0 f i EntityManager.obj
 0001:000d5c50       ??_E?$CBaseList@VCLandscape@@@container@wylib@@UEAAPEAXI@Z 00000001400d6c50 f i EntityManager.obj
 0001:000d5c50       ??_G?$CBaseList@VCLandscape@@@container@wylib@@UEAAPEAXI@Z 00000001400d6c50 f i EntityManager.obj
 0001:000d5cb0       ??_G?$CBaseList@VCHero@@@container@wylib@@UEAAPEAXI@Z 00000001400d6cb0 f i EntityManager.obj
 0001:000d5cb0       ??_E?$CBaseList@VCHero@@@container@wylib@@UEAAPEAXI@Z 00000001400d6cb0 f i EntityManager.obj
 0001:000d5d10       ?getCount@?$Counter@VCRandHit@@@@SA_KXZ 00000001400d6d10 f i EntityManager.obj
 0001:000d5d20       ?getCount@?$Counter@VCEntityOPCollector@@@@SA_KXZ 00000001400d6d20 f i EntityManager.obj
 0001:000d5d30       ?getCount@?$Counter@VScriptCallbackParam@@@@SA_KXZ 00000001400d6d30 f i EntityManager.obj
 0001:000d5d40       ?getCount@?$Counter@VCEntity@@@@SA_KXZ 00000001400d6d40 f i EntityManager.obj
 0001:000d5d50       ?addToStat@?$Counter@V?$CLinkedNode@PEAVCActor@@@container@wylib@@@@IEAAXXZ 00000001400d6d50 f i EntityManager.obj
 0001:000d5df0       ?addToStat@?$Counter@V?$CLinkedNode@PEAVCEntityMsg@@@container@wylib@@@@IEAAXXZ 00000001400d6df0 f i EntityManager.obj
 0001:000d5e90       ?addToStat@?$Counter@V?$CLinkedNode@PEAUCEntityEffect@@@container@wylib@@@@IEAAXXZ 00000001400d6e90 f i EntityManager.obj
 0001:000d5f30       ?clear@?$CBaseList@VCActor@@@container@wylib@@QEAAXXZ 00000001400d6f30 f i EntityManager.obj
 0001:000d5f50       ?addToStat@?$Counter@V?$CLinkedNode@PEAVCMonster@@@container@wylib@@@@IEAAXXZ 00000001400d6f50 f i EntityManager.obj
 0001:000d5ff0       ?clear@?$CBaseList@VCMonster@@@container@wylib@@QEAAXXZ 00000001400d6ff0 f i EntityManager.obj
 0001:000d6010       ?addToStat@?$Counter@V?$CLinkedNode@PEAVCNpc@@@container@wylib@@@@IEAAXXZ 00000001400d7010 f i EntityManager.obj
 0001:000d60b0       ?clear@?$CBaseList@VCNpc@@@container@wylib@@QEAAXXZ 00000001400d70b0 f i EntityManager.obj
 0001:000d60d0       ?addToStat@?$Counter@V?$CLinkedNode@PEAVCDropItemEntity@@@container@wylib@@@@IEAAXXZ 00000001400d70d0 f i EntityManager.obj
 0001:000d6170       ?clear@?$CBaseList@VCDropItemEntity@@@container@wylib@@QEAAXXZ 00000001400d7170 f i EntityManager.obj
 0001:000d6190       ?addToStat@?$Counter@V?$CLinkedNode@PEAVCTransfer@@@container@wylib@@@@IEAAXXZ 00000001400d7190 f i EntityManager.obj
 0001:000d6230       ?clear@?$CBaseList@VCTransfer@@@container@wylib@@QEAAXXZ 00000001400d7230 f i EntityManager.obj
 0001:000d6250       ?clear@?$CBaseList@VScriptCallbackParam@@@container@wylib@@QEAAXXZ 00000001400d7250 f i EntityManager.obj
 0001:000d6270       ?addToStat@?$Counter@V?$CLinkedNode@PEAVCPet@@@container@wylib@@@@IEAAXXZ 00000001400d7270 f i EntityManager.obj
 0001:000d6310       ?clear@?$CBaseList@VCPet@@@container@wylib@@QEAAXXZ 00000001400d7310 f i EntityManager.obj
 0001:000d6330       ?addToStat@?$Counter@V?$CLinkedNode@PEAVCFire@@@container@wylib@@@@IEAAXXZ 00000001400d7330 f i EntityManager.obj
 0001:000d63d0       ?clear@?$CBaseList@VCFire@@@container@wylib@@QEAAXXZ 00000001400d73d0 f i EntityManager.obj
 0001:000d63f0       ?addToStat@?$Counter@V?$CLinkedNode@PEAVCLandscape@@@container@wylib@@@@IEAAXXZ 00000001400d73f0 f i EntityManager.obj
 0001:000d6490       ?clear@?$CBaseList@VCLandscape@@@container@wylib@@QEAAXXZ 00000001400d7490 f i EntityManager.obj
 0001:000d64b0       ?addToStat@?$Counter@V?$CLinkedNode@PEAVCHero@@@container@wylib@@@@IEAAXXZ 00000001400d74b0 f i EntityManager.obj
 0001:000d6550       ?clear@?$CBaseList@VCHero@@@container@wylib@@QEAAXXZ 00000001400d7550 f i EntityManager.obj
 0001:000d6570       ?getCount@?$Counter@V?$CLinkedNode@PEAVCActor@@@container@wylib@@@@SA_KXZ 00000001400d7570 f i EntityManager.obj
 0001:000d6580       ?getCount@?$Counter@V?$CLinkedNode@PEAVCEntityMsg@@@container@wylib@@@@SA_KXZ 00000001400d7580 f i EntityManager.obj
 0001:000d6590       ?getCount@?$Counter@V?$CLinkedNode@PEAUCEntityEffect@@@container@wylib@@@@SA_KXZ 00000001400d7590 f i EntityManager.obj
 0001:000d65a0       ?getCount@?$Counter@V?$CLinkedNode@PEAVCMonster@@@container@wylib@@@@SA_KXZ 00000001400d75a0 f i EntityManager.obj
 0001:000d65b0       ?getCount@?$Counter@V?$CLinkedNode@PEAVCNpc@@@container@wylib@@@@SA_KXZ 00000001400d75b0 f i EntityManager.obj
 0001:000d65c0       ?getCount@?$Counter@V?$CLinkedNode@PEAVCDropItemEntity@@@container@wylib@@@@SA_KXZ 00000001400d75c0 f i EntityManager.obj
 0001:000d65d0       ?getCount@?$Counter@V?$CLinkedNode@PEAVCTransfer@@@container@wylib@@@@SA_KXZ 00000001400d75d0 f i EntityManager.obj
 0001:000d65e0       ?getCount@?$Counter@V?$CLinkedNode@PEAVCPet@@@container@wylib@@@@SA_KXZ 00000001400d75e0 f i EntityManager.obj
 0001:000d65f0       ?getCount@?$Counter@V?$CLinkedNode@PEAVCFire@@@container@wylib@@@@SA_KXZ 00000001400d75f0 f i EntityManager.obj
 0001:000d6600       ?getCount@?$Counter@V?$CLinkedNode@PEAVCLandscape@@@container@wylib@@@@SA_KXZ 00000001400d7600 f i EntityManager.obj
 0001:000d6610       ?getCount@?$Counter@V?$CLinkedNode@PEAVCHero@@@container@wylib@@@@SA_KXZ 00000001400d7610 f i EntityManager.obj
 0001:000d6620       ?begin@?$_Tree@V?$_Tmap_traits@HVEntityHandle@@U?$less@H@std@@V?$allocator@U?$pair@$$CBHVEntityHandle@@@std@@@3@$0A@@std@@@std@@QEAA?AV?$_Tree_iterator@V?$_Tree_val@V?$_Tmap_traits@HVEntityHandle@@U?$less@H@std@@V?$allocator@U?$pair@$$CBHVEntityHandle@@@std@@@3@$0A@@std@@@std@@@2@XZ 00000001400d7620 f i EntityManager.obj
 0001:000d6680       ?deallocate@?$allocator@U_Node@?$_Tree_nod@V?$_Tmap_traits@HVEntityHandle@@U?$less@H@std@@V?$allocator@U?$pair@$$CBHVEntityHandle@@@std@@@3@$0A@@std@@@std@@@std@@QEAAXPEAU_Node@?$_Tree_nod@V?$_Tmap_traits@HVEntityHandle@@U?$less@H@std@@V?$allocator@U?$pair@$$CBHVEntityHandle@@@std@@@3@$0A@@std@@@2@_K@Z 00000001400d7680 f i EntityManager.obj
 0001:000d66d0       ?_Lmost@?$_Tree@V?$_Tmap_traits@HVEntityHandle@@U?$less@H@std@@V?$allocator@U?$pair@$$CBHVEntityHandle@@@std@@@3@$0A@@std@@@std@@IEBAAEAPEAU_Node@?$_Tree_nod@V?$_Tmap_traits@HVEntityHandle@@U?$less@H@std@@V?$allocator@U?$pair@$$CBHVEntityHandle@@@std@@@3@$0A@@std@@@2@XZ 00000001400d76d0 f i EntityManager.obj
 0001:000d6710       ?_Lrotate@?$_Tree@V?$_Tmap_traits@HVEntityHandle@@U?$less@H@std@@V?$allocator@U?$pair@$$CBHVEntityHandle@@@std@@@3@$0A@@std@@@std@@IEAAXPEAU_Node@?$_Tree_nod@V?$_Tmap_traits@HVEntityHandle@@U?$less@H@std@@V?$allocator@U?$pair@$$CBHVEntityHandle@@@std@@@3@$0A@@std@@@2@@Z 00000001400d7710 f i EntityManager.obj
 0001:000d68c0       ?_Rmost@?$_Tree@V?$_Tmap_traits@HVEntityHandle@@U?$less@H@std@@V?$allocator@U?$pair@$$CBHVEntityHandle@@@std@@@3@$0A@@std@@@std@@IEBAAEAPEAU_Node@?$_Tree_nod@V?$_Tmap_traits@HVEntityHandle@@U?$less@H@std@@V?$allocator@U?$pair@$$CBHVEntityHandle@@@std@@@3@$0A@@std@@@2@XZ 00000001400d78c0 f i EntityManager.obj
 0001:000d6900       ?_Rrotate@?$_Tree@V?$_Tmap_traits@HVEntityHandle@@U?$less@H@std@@V?$allocator@U?$pair@$$CBHVEntityHandle@@@std@@@3@$0A@@std@@@std@@IEAAXPEAU_Node@?$_Tree_nod@V?$_Tmap_traits@HVEntityHandle@@U?$less@H@std@@V?$allocator@U?$pair@$$CBHVEntityHandle@@@std@@@3@$0A@@std@@@2@@Z 00000001400d7900 f i EntityManager.obj
 0001:000d6ab0       ?_Color@?$_Tree_val@V?$_Tmap_traits@HVEntityHandle@@U?$less@H@std@@V?$allocator@U?$pair@$$CBHVEntityHandle@@@std@@@3@$0A@@std@@@std@@SAAEADPEAU_Node@?$_Tree_nod@V?$_Tmap_traits@HVEntityHandle@@U?$less@H@std@@V?$allocator@U?$pair@$$CBHVEntityHandle@@@std@@@3@$0A@@std@@@2@@Z 00000001400d7ab0 f i EntityManager.obj
 0001:000d6ad0       ?_Max@?$_Tree_val@V?$_Tmap_traits@HVEntityHandle@@U?$less@H@std@@V?$allocator@U?$pair@$$CBHVEntityHandle@@@std@@@3@$0A@@std@@@std@@SAPEAU_Node@?$_Tree_nod@V?$_Tmap_traits@HVEntityHandle@@U?$less@H@std@@V?$allocator@U?$pair@$$CBHVEntityHandle@@@std@@@3@$0A@@std@@@2@PEAU342@@Z 00000001400d7ad0 f i EntityManager.obj
 0001:000d6b40       ??$addressof@U?$pair@$$CBHVEntityHandle@@@std@@@std@@YAPEAU?$pair@$$CBHVEntityHandle@@@0@AEAU10@@Z 00000001400d7b40 f i EntityManager.obj
 0001:000d6b50       ??$_Dest_val@V?$allocator@U?$pair@$$CBHVEntityHandle@@@std@@@std@@U?$pair@$$CBHVEntityHandle@@@2@@std@@YAXAEAV?$allocator@U?$pair@$$CBHVEntityHandle@@@std@@@0@PEAU?$pair@$$CBHVEntityHandle@@@0@@Z 00000001400d7b50 f i EntityManager.obj
 0001:000d6ba0       ?destroy@?$allocator@U?$pair@$$CBHVEntityHandle@@@std@@@std@@QEAAXPEAU?$pair@$$CBHVEntityHandle@@@2@@Z 00000001400d7ba0 f i EntityManager.obj
 0001:000d6be0       ?allocate@?$allocator@U_Node@?$_Tree_nod@V?$_Tmap_traits@HVEntityHandle@@U?$less@H@std@@V?$allocator@U?$pair@$$CBHVEntityHandle@@@std@@@3@$0A@@std@@@std@@@std@@QEAAPEAU_Node@?$_Tree_nod@V?$_Tmap_traits@HVEntityHandle@@U?$less@H@std@@V?$allocator@U?$pair@$$CBHVEntityHandle@@@std@@@3@$0A@@std@@@2@_K@Z 00000001400d7be0 f i EntityManager.obj
 0001:000d6c30       ??$_Destroy@U?$pair@$$CBHVEntityHandle@@@std@@@std@@YAXPEAU?$pair@$$CBHVEntityHandle@@@0@@Z 00000001400d7c30 f i EntityManager.obj
 0001:000d6c70       ??$_Allocate@U_Node@?$_Tree_nod@V?$_Tmap_traits@HVEntityHandle@@U?$less@H@std@@V?$allocator@U?$pair@$$CBHVEntityHandle@@@std@@@3@$0A@@std@@@std@@@std@@YAPEAU_Node@?$_Tree_nod@V?$_Tmap_traits@HVEntityHandle@@U?$less@H@std@@V?$allocator@U?$pair@$$CBHVEntityHandle@@@std@@@3@$0A@@std@@@0@_KPEAU120@@Z 00000001400d7c70 f i EntityManager.obj
 0001:000d6d30       ??_G?$pair@$$CBHVEntityHandle@@@std@@QEAAPEAXI@Z 00000001400d7d30 f i EntityManager.obj
 0001:000d6d90       ??1?$pair@$$CBHVEntityHandle@@@std@@QEAA@XZ 00000001400d7d90 f i EntityManager.obj
 0001:000d6dd0       ??1?$_Pair_base@$$CBHVEntityHandle@@@std@@QEAA@XZ 00000001400d7dd0 f i EntityManager.obj
 0001:000d6e20       ??0CGameStoreMgr@@QEAA@XZ  00000001400d7e20 f   GameStoreMgr.obj
 0001:000d6ee0       ??1CGameStoreMgr@@UEAA@XZ  00000001400d7ee0 f   GameStoreMgr.obj
 0001:000d6f30       ?Save@CGameStoreMgr@@QEAAXXZ 00000001400d7f30 f   GameStoreMgr.obj
 0001:000d6f70       ?Load@CGameStoreMgr@@QEAAXXZ 00000001400d7f70 f   GameStoreMgr.obj
 0001:000d7070       ?RunOne@CGameStoreMgr@@QEAAXUCMiniDateTime@@_J@Z 00000001400d8070 f   GameStoreMgr.obj
 0001:000d71e0       ?SetAuction@CGameStoreMgr@@QEAA_N_J0AEBUItemOPParam@CUserItemContainer@@@Z 00000001400d81e0 f   GameStoreMgr.obj
 0001:000d72e0       ?OnDoAuction@CGameStoreMgr@@QEAA_NPEAVCActor@@I@Z 00000001400d82e0 f   GameStoreMgr.obj
 0001:000d73a0       ?OnAuctionOver@CGameStoreMgr@@QEAAXXZ 00000001400d83a0 f   GameStoreMgr.obj
 0001:000d7580       ?SendAuctionItemData@CGameStoreMgr@@QEAAXPEAVCActor@@@Z 00000001400d8580 f   GameStoreMgr.obj
 0001:000d76a0       ?SendAuctionMsg@CGameStoreMgr@@QEAAXPEAVCActor@@_J@Z 00000001400d86a0 f   GameStoreMgr.obj
 0001:000d7790       ?SendAuctionTips@CGameStoreMgr@@QEAAXPEAVCActor@@@Z 00000001400d8790 f   GameStoreMgr.obj
 0001:000d7840       ?SendAuctionStartTips@CGameStoreMgr@@QEAAXPEAVCActor@@@Z 00000001400d8840 f   GameStoreMgr.obj
 0001:000d78f0       ?BroadCastAuctionData@CGameStoreMgr@@QEAAX_J_N@Z 00000001400d88f0 f   GameStoreMgr.obj
 0001:000d7a00       ?ClearAuctionPreActor@CGameStoreMgr@@QEAAXPEAVCActor@@@Z 00000001400d8a00 f   GameStoreMgr.obj
 0001:000d7a70       ?SaveAuctionData@CGameStoreMgr@@AEAA_NPEBD@Z 00000001400d8a70 f   GameStoreMgr.obj
 0001:000d7d20       ?LoadAuctionData@CGameStoreMgr@@AEAA_NPEBD@Z 00000001400d8d20 f   GameStoreMgr.obj
 0001:000d7f00       ?OnSurpriseRetStart@CGameStoreMgr@@QEAAXXZ 00000001400d8f00 f   GameStoreMgr.obj
 0001:000d7fd0       ?OnSurpriseRetOver@CGameStoreMgr@@QEAAXXZ 00000001400d8fd0 f   GameStoreMgr.obj
 0001:000d80b0       ?OnGroupOnStart@CGameStoreMgr@@QEAAXXZ 00000001400d90b0 f   GameStoreMgr.obj
 0001:000d8180       ?OnGroupOnOver@CGameStoreMgr@@QEAAXXZ 00000001400d9180 f   GameStoreMgr.obj
 0001:000d8280       ?GetPanicBuyingDays@CGameStoreMgr@@QEAAHXZ 00000001400d9280 f   GameStoreMgr.obj
 0001:000d8330       ?SetPanicBuyingStartDate@CGameStoreMgr@@QEAA_NPEADH_N@Z 00000001400d9330 f   GameStoreMgr.obj
 0001:000d8520       ?OnPanicBuyingTimer@CGameStoreMgr@@QEAA_NXZ 00000001400d9520 f   GameStoreMgr.obj
 0001:000d8660       ?UpdateOnlinePanicBuyingInfo@CGameStoreMgr@@QEAAXXZ 00000001400d9660 f   GameStoreMgr.obj
 0001:000d8740       ?ClearPanicBuying@CGameStoreMgr@@QEAAXXZ 00000001400d9740 f   GameStoreMgr.obj
 0001:000d8780       ?GetPanicBuyingRemainingTime@CGameStoreMgr@@QEAAHXZ 00000001400d9780 f   GameStoreMgr.obj
 0001:000d8e60       ??_ECGameStoreMgr@@UEAAPEAXI@Z 00000001400d9e60 f i GameStoreMgr.obj
 0001:000d8e60       ??_GCGameStoreMgr@@UEAAPEAXI@Z 00000001400d9e60 f i GameStoreMgr.obj
 0001:000d8ec0       ??PCMiniDateTime@@QEAA_NI@Z 00000001400d9ec0 f i GameStoreMgr.obj
 0001:000d8f30       ??0tagAuctionData@CGameStoreMgr@@QEAA@XZ 00000001400d9f30 f i GameStoreMgr.obj
 0001:000d8f90       ??0ItemOPParam@CUserItemContainer@@QEAA@XZ 00000001400d9f90 f i GameStoreMgr.obj
 0001:000d8ff0       ??0tagSurpriseRet@CGameStoreMgr@@QEAA@XZ 00000001400d9ff0 f i GameStoreMgr.obj
 0001:000d9040       ??0tagGroupon@CGameStoreMgr@@QEAA@XZ 00000001400da040 f i GameStoreMgr.obj
 0001:000d9090       ??0tagPanicBuying@CGameStoreMgr@@QEAA@XZ 00000001400da090 f i GameStoreMgr.obj
 0001:000d90e0       ?SetPanicBuyingFlag@CGameStoreMgr@@QEAAXE@Z 00000001400da0e0 f i GameStoreMgr.obj
 0001:000d9110       ?GetPanicBuyingFlag@CGameStoreMgr@@QEAAEXZ 00000001400da110 f i GameStoreMgr.obj
 0001:000d9130       ??0CGlobalVarMgr@@QEAA@XZ  00000001400da130 f   GlobalVarMgr.obj
 0001:000d91f0       ??1CGlobalVarMgr@@UEAA@XZ  00000001400da1f0 f   GlobalVarMgr.obj
 0001:000d9270       ?Load@CGlobalVarMgr@@QEAAXXZ 00000001400da270 f   GlobalVarMgr.obj
 0001:000d9390       ?OnDbRetData@CGlobalVarMgr@@QEAAX_J0AEAVCDataPacketReader@@@Z 00000001400da390 f   GlobalVarMgr.obj
 0001:000d9440       ?RunOne@CGlobalVarMgr@@QEAAXXZ 00000001400da440 f   GlobalVarMgr.obj
 0001:000d94a0       ?Save@CGlobalVarMgr@@QEAAXXZ 00000001400da4a0 f   GlobalVarMgr.obj
 0001:000d9900       ??_GCGlobalVarMgr@@UEAAPEAXI@Z 00000001400da900 f i GlobalVarMgr.obj
 0001:000d9900       ??_ECGlobalVarMgr@@UEAAPEAXI@Z 00000001400da900 f i GlobalVarMgr.obj
 0001:000d9960       ??0?$CTimer@$0DGOOIA@@@QEAA@XZ 00000001400da960 f i GlobalVarMgr.obj
 0001:000d99b0       ?CheckAndSet@?$CTimer@$0DGOOIA@@@QEAA_N_J_N@Z 00000001400da9b0 f i GlobalVarMgr.obj
 0001:000d9a30       ?getAvaliableLength@CDataPacketReader@@QEAA_KXZ 00000001400daa30 f i GlobalVarMgr.obj
 0001:000d9a60       ?setLength@CDataPacket@@QEAAX_K@Z 00000001400daa60 f i GlobalVarMgr.obj
 0001:000d9b20       ?getAvaliableCapacity@CDataPacket@@QEAA_KXZ 00000001400dab20 f i GlobalVarMgr.obj
 0001:000d9b50       ??0CDataPacket@@QEAA@XZ    00000001400dab50 f i GlobalVarMgr.obj
 0001:000d9bc0       ??0CDataPacketReader@@QEAA@XZ 00000001400dabc0 f i GlobalVarMgr.obj
 0001:000d9c10       ?setAllocator@CDataPacket@@QEAAXPEAVCBufferAllocator@@@Z 00000001400dac10 f i GlobalVarMgr.obj
 0001:000d9c40       ?loadFromMemory@CCLVariant@@QEAAPEBDPEBD_KPEA_K@Z 00000001400dac40 f i GlobalVarMgr.obj
 0001:000da0d0       ??4CCLVariant@@QEAAAEAV0@PEBD@Z 00000001400db0d0 f i GlobalVarMgr.obj
 0001:000da1d0       ?saveToMemory@CCLVariant@@QEAA_KPEAD_KPEAPEAV1@@Z 00000001400db1d0 f i GlobalVarMgr.obj
 0001:000da620       ?packedlen@CCLVariant@@QEAA_KXZ 00000001400db620 f i GlobalVarMgr.obj
 0001:000da6e0       ?getStoreMemory@CCLVariant@@QEAA_KXZ 00000001400db6e0 f i GlobalVarMgr.obj
 0001:000da840       ?Destroy@CGlobalVarMgr@@UEAAXXZ 00000001400db840 f i GlobalVarMgr.obj
 0001:000da8b0       ??0CGuild@@QEAA@XZ         00000001400db8b0 f   Guild.obj
 0001:000dada0       ?Destroy@CGuild@@QEAAXXZ   00000001400dbda0 f   Guild.obj
 0001:000daf70       ??1CGuild@@QEAA@XZ         00000001400dbf70 f   Guild.obj
