 Robot64_R

 Timestamp is 5746638a (Thu May 26 10:46:34 2016)

 Preferred load address is 0000000140000000

 Start         Length     Name                   Class
 0001:00000000 0003b78fH .text                   CODE
 0001:0003b790 00001929H .text$x                 CODE
 0001:0003d0c0 00000185H .text$yc                CODE
 0001:0003d250 00000048H .text$yd                CODE
 0002:00000000 000005f8H .idata$5                DATA
 0002:000005f8 00000008H .CRT$XCA                DATA
 0002:00000600 00000008H .CRT$XCAA               DATA
 0002:00000608 00000038H .CRT$XCU                DATA
 0002:00000640 00000008H .CRT$XCZ                DATA
 0002:00000648 00000008H .CRT$XIA                DATA
 0002:00000650 00000008H .CRT$XIAA               DATA
 0002:00000658 00000008H .CRT$XIY                DATA
 0002:00000660 00000008H .CRT$XIZ                DATA
 0002:00000670 0000a578H .rdata                  DATA
 0002:0000abe8 00000051H .rdata$debug            DATA
 0002:0000ac40 00002ae4H .rdata$r                DATA
 0002:0000d728 00000008H .rtc$IAA                DATA
 0002:0000d730 00000008H .rtc$IZZ                DATA
 0002:0000d738 00000008H .rtc$TAA                DATA
 0002:0000d740 00000008H .rtc$TZZ                DATA
 0002:0000d748 00004ff4H .xdata                  DATA
 0002:00012740 00000194H .xdata$x                DATA
 0002:000128d4 00000078H .idata$2                DATA
 0002:0001294c 00000014H .idata$3                DATA
 0002:00012960 000005f8H .idata$4                DATA
 0002:00012f58 000009bcH .idata$6                DATA
 0002:00013914 00000000H .edata                  DATA
 0003:00000000 00003032H .data                   DATA
 0003:00003040 00031c40H .bss                    DATA
 0004:00000000 00004470H .pdata                  DATA

  Address         Publics by Value              Rva+Base               Lib:Object

 0000:00000000       ___safe_se_handler_count   0000000000000000     <absolute>
 0000:00000000       ___safe_se_handler_table   0000000000000000     <absolute>
 0000:00000000       __ImageBase                0000000140000000     <linker-defined>
 0001:00000000       ?alloc@CAnsiString@string@wylib@@MEAAPEAXPEAX_K@Z 0000000140001000 f i srvlib_x64:CustomLuaConfig.obj
 0001:00000050       ?setData@CAnsiString@string@wylib@@IEAAXPEBD@Z 0000000140001050 f i srvlib_x64:CustomLuaConfig.obj
 0001:000000f0       ?catData@CAnsiString@string@wylib@@IEAAXPEBD@Z 00000001400010f0 f i srvlib_x64:CustomLuaConfig.obj
 0001:00000190       ??0CAnsiString@string@wylib@@QEAA@XZ 0000000140001190 f i srvlib_x64:CustomLuaConfig.obj
 0001:000001c0       ??0CAnsiString@string@wylib@@QEAA@PEBD@Z 00000001400011c0 f i srvlib_x64:CustomLuaConfig.obj
 0001:00000210       ??1CAnsiString@string@wylib@@UEAA@XZ 0000000140001210 f i srvlib_x64:CustomLuaConfig.obj
 0001:00000240       ??BCAnsiString@string@wylib@@QEAAPEADXZ 0000000140001240 f i srvlib_x64:CustomLuaConfig.obj
 0001:00000280       ??4CAnsiString@string@wylib@@QEAAXPEBD@Z 0000000140001280 f i srvlib_x64:CustomLuaConfig.obj
 0001:000002c0       ??YCAnsiString@string@wylib@@QEAAXPEBD@Z 00000001400012c0 f i srvlib_x64:CustomLuaConfig.obj
 0001:00000330       ?length@CAnsiString@string@wylib@@QEBA_KXZ 0000000140001330 f i srvlib_x64:CustomLuaConfig.obj
 0001:00000370       ?isEmpty@CAnsiString@string@wylib@@QEBA_NXZ 0000000140001370 f i srvlib_x64:CustomLuaConfig.obj
 0001:000003b0       ??_GCAnsiString@string@wylib@@UEAAPEAXI@Z 00000001400013b0 f i srvlib_x64:CustomLuaConfig.obj
 0001:000003b0       ??_ECAnsiString@string@wylib@@UEAAPEAXI@Z 00000001400013b0 f i  CIL library: CIL module
 0001:000003f0       ??_ECCustomLuaConfig@@UEAAPEAXI@Z 00000001400013f0 f i  CIL library: CIL module
 0001:000003f0       ??_GCCustomLuaConfig@@UEAAPEAXI@Z 00000001400013f0 f i srvlib_x64:CustomLuaConfig.obj
 0001:00000430       ??4?$CTRefString@VCAnsiString@string@wylib@@D@string@wylib@@QEAAXPEBD@Z 0000000140001430 f i srvlib_x64:CustomLuaConfig.obj
 0001:000004d0       ??0?$CBaseList@PEAV?$CRefObjectImpl@VCAnsiString@string@wylib@@@misc@wylib@@@container@wylib@@QEAA@XZ 00000001400014d0 f i srvlib_x64:CustomLuaConfig.obj
 0001:00000520       ??1?$CBaseList@PEAV?$CRefObjectImpl@VCAnsiString@string@wylib@@@misc@wylib@@@container@wylib@@UEAA@XZ 0000000140001520 f i srvlib_x64:CustomLuaConfig.obj
 0001:00000550       ?add@?$CBaseList@PEAVCTimeProfMgr@@@container@wylib@@QEAA_JAEBQEAVCTimeProfMgr@@@Z 0000000140001550 f i srvlib_x64:TimeStat.obj
 0001:00000550       ?add@?$CBaseList@PEAD@container@wylib@@QEAA_JAEBQEAD@Z 0000000140001550 f i srvlib_x64:CustomLuaPreProcess.obj
 0001:00000550       ?add@?$CBaseList@PEAVCDataPacket@@@container@wylib@@QEAA_JAEBQEAVCDataPacket@@@Z 0000000140001550 f i srvlib_x64:CustomWorkSocket.obj
 0001:00000550       ?add@?$CBaseList@PEAVCTimeProfRecord@@@container@wylib@@QEAA_JAEBQEAVCTimeProfRecord@@@Z 0000000140001550 f i srvlib_x64:TimeStat.obj
 0001:00000550       ?add@?$CBaseList@PEAV?$CRefObjectImpl@VCAnsiString@string@wylib@@@misc@wylib@@@container@wylib@@QEAA_JAEBQEAV?$CRefObjectImpl@VCAnsiString@string@wylib@@@misc@3@@Z 0000000140001550 f i srvlib_x64:CustomLuaConfig.obj
 0001:00000550       ?add@?$CBaseList@PEAVCAnsiString@string@wylib@@@container@wylib@@QEAA_JAEBQEAVCAnsiString@string@3@@Z 0000000140001550 f i srvlib_x64:CustomLuaPreProcess.obj
 0001:00000600       ?remove@?$CBaseList@PEAV?$CRefObjectImpl@VCAnsiString@string@wylib@@@misc@wylib@@@container@wylib@@QEAAX_J@Z 0000000140001600 f i srvlib_x64:CustomLuaConfig.obj
 0001:00000640       ??0?$CRefObjectImpl@VCAnsiString@string@wylib@@@misc@wylib@@QEAA@XZ 0000000140001640 f i srvlib_x64:CustomLuaConfig.obj
 0001:00000680       ?addRef@?$CRefObjectImpl@VCAnsiString@string@wylib@@@misc@wylib@@QEAAJXZ 0000000140001680 f i srvlib_x64:CustomLuaConfig.obj
 0001:000006a0       ?release@?$CRefObjectImpl@VCAnsiString@string@wylib@@@misc@wylib@@QEAAJXZ 00000001400016a0 f i srvlib_x64:CustomLuaConfig.obj
 0001:000006f0       ?finallRelease@?$CRefObjectImpl@VCAnsiString@string@wylib@@@misc@wylib@@MEAAXXZ 00000001400016f0 f i srvlib_x64:CustomLuaConfig.obj
 0001:00000740       ??_G?$CBaseList@PEAV?$CRefObjectImpl@VCAnsiString@string@wylib@@@misc@wylib@@@container@wylib@@UEAAPEAXI@Z 0000000140001740 f i srvlib_x64:CustomLuaConfig.obj
 0001:00000740       ??_E?$CBaseList@PEAV?$CRefObjectImpl@VCAnsiString@string@wylib@@@misc@wylib@@@container@wylib@@UEAAPEAXI@Z 0000000140001740 f i  CIL library: CIL module
 0001:00000780       ??_E?$CRefObjectImpl@VCAnsiString@string@wylib@@@misc@wylib@@UEAAPEAXI@Z 0000000140001780 f i  CIL library: CIL module
 0001:00000780       ??_G?$CRefObjectImpl@VCAnsiString@string@wylib@@@misc@wylib@@UEAAPEAXI@Z 0000000140001780 f i srvlib_x64:CustomLuaConfig.obj
 0001:000007c0       ??1?$CRefObjectImpl@VCAnsiString@string@wylib@@@misc@wylib@@UEAA@XZ 00000001400017c0 f i srvlib_x64:CustomLuaConfig.obj
 0001:000007e0       ?remove@?$CBaseList@PEAV?$CRefObjectImpl@VCAnsiString@string@wylib@@@misc@wylib@@@container@wylib@@QEAAX_J0@Z 00000001400017e0 f i srvlib_x64:CustomLuaConfig.obj
 0001:00000880       _tcsncpy                   0000000140001880 f i srvlib_x64:CustomLuaScript.obj
 0001:000008b0       ??_H@YAXPEAX_KHP6APEAX0@Z@Z 00000001400018b0 f i srvlib_x64:CustomLuaScript.obj
 0001:00000900       ?writeBuf@CDataPacket@@QEAAXPEBX_K@Z 0000000140001900 f i srvlib_x64:CustomLuaScript.obj
 0001:000009c0       ?setLength@CDataPacket@@QEAAX_K@Z 00000001400019c0 f i srvlib_x64:CustomLuaScript.obj
 0001:00000a40       ?_Assert@CDataPacket@@QEAAXXZ 0000000140001a40 f i srvlib_x64:CustomLuaScript.obj
 0001:00000a50       ?setSize@CDataPacket@@IEAAX_K@Z 0000000140001a50 f i srvlib_x64:CustomLuaScript.obj
 0001:00000b90       ??_GCCustomLuaScript@@UEAAPEAXI@Z 0000000140001b90 f i srvlib_x64:CustomLuaScript.obj
 0001:00000b90       ??_ECCustomLuaScript@@UEAAPEAXI@Z 0000000140001b90 f i  CIL library: CIL module
 0001:00000bd0       ??1?$CTRefString@VCAnsiString@string@wylib@@D@string@wylib@@UEAA@XZ 0000000140001bd0 f i srvlib_x64:CustomLuaScript.obj
 0001:00000bf0       ?lcCheck@CCustomLuaScript@@IEAA_NH@Z 0000000140001bf0 f i srvlib_x64:CustomLuaScript.obj
 0001:00000d10       ??0?$CTRefString@VCAnsiString@string@wylib@@D@string@wylib@@QEAA@XZ 0000000140001d10 f i srvlib_x64:CustomLuaScript.obj
 0001:00000d40       ??1?$CRefObject@VCAnsiString@string@wylib@@@misc@wylib@@UEAA@XZ 0000000140001d40 f i srvlib_x64:CustomLuaScript.obj
 0001:00000d80       ??_E?$CTRefString@VCAnsiString@string@wylib@@D@string@wylib@@UEAAPEAXI@Z 0000000140001d80 f i  CIL library: CIL module
 0001:00000d80       ??_G?$CTRefString@VCAnsiString@string@wylib@@D@string@wylib@@UEAAPEAXI@Z 0000000140001d80 f i srvlib_x64:CustomLuaScript.obj
 0001:00000dc0       ??_E?$CRefObject@VCAnsiString@string@wylib@@@misc@wylib@@UEAAPEAXI@Z 0000000140001dc0 f i  CIL library: CIL module
 0001:00000dc0       ??_G?$CRefObject@VCAnsiString@string@wylib@@@misc@wylib@@UEAAPEAXI@Z 0000000140001dc0 f i srvlib_x64:CustomLuaScript.obj
 0001:00000e00       ??0?$CRefObject@VCAnsiString@string@wylib@@@misc@wylib@@QEAA@XZ 0000000140001e00 f i srvlib_x64:CustomLuaScript.obj
 0001:00000e30       _tcschr                    0000000140001e30 f i srvlib_x64:CustomLuaPreProcess.obj
 0001:00000e60       _tcscmp                    0000000140001e60 f i srvlib_x64:CustomLuaPreProcess.obj
 0001:00000e90       _tcsnicmp                  0000000140001e90 f i srvlib_x64:CustomLuaPreProcess.obj
 0001:00000ec0       ??4CAnsiString@string@wylib@@QEAAXAEBV012@@Z 0000000140001ec0 f i srvlib_x64:CustomLuaPreProcess.obj
 0001:00000f00       ?getPosition@CBaseStream@stream@wylib@@QEAA_JXZ 0000000140001f00 f i srvlib_x64:CustomLuaPreProcess.obj
 0001:00000f30       ?SaveParseEnvir@CCustomLuaPreProcessor@@IEAAXXZ 0000000140001f30 f i srvlib_x64:CustomLuaPreProcess.obj
 0001:00000f60       ?RestorsParseEnvir@CCustomLuaPreProcessor@@IEAAXXZ 0000000140001f60 f i srvlib_x64:CustomLuaPreProcess.obj
 0001:00001000       ?abort@CCustomLuaPreProcessor@@IEAAXXZ 0000000140002000 f i srvlib_x64:CustomLuaPreProcess.obj
 0001:00001020       ??_ECCustomLuaPreProcessor@@UEAAPEAXI@Z 0000000140002020 f i  CIL library: CIL module
 0001:00001020       ??_GCCustomLuaPreProcessor@@UEAAPEAXI@Z 0000000140002020 f i srvlib_x64:CustomLuaPreProcess.obj
 0001:00001060       ??0CLineRangeList@CCustomLuaPreProcessor@@QEAA@XZ 0000000140002060 f i srvlib_x64:CustomLuaPreProcess.obj
 0001:00001090       ??1CLineRangeList@CCustomLuaPreProcessor@@UEAA@XZ 0000000140002090 f i srvlib_x64:CustomLuaPreProcess.obj
 0001:000010b0       ??_GCLineRangeList@CCustomLuaPreProcessor@@UEAAPEAXI@Z 00000001400020b0 f i srvlib_x64:CustomLuaPreProcess.obj
 0001:000010b0       ??_ECLineRangeList@CCustomLuaPreProcessor@@UEAAPEAXI@Z 00000001400020b0 f i  CIL library: CIL module
 0001:000010f0       ?fileExists@@YA_NPEBD@Z    00000001400020f0 f i srvlib_x64:CustomLuaPreProcess.obj
 0001:00001130       ??0?$CBaseList@ULineRange@CCustomLuaPreProcessor@@@container@wylib@@QEAA@XZ 0000000140002130 f i srvlib_x64:CustomLuaPreProcess.obj
 0001:00001180       ??1?$CBaseList@ULineRange@CCustomLuaPreProcessor@@@container@wylib@@UEAA@XZ 0000000140002180 f i srvlib_x64:CustomLuaPreProcess.obj
 0001:000011b0       ?trunc@?$CBaseList@PEAVCDataPacket@@@container@wylib@@QEAAX_J@Z 00000001400021b0 f i srvlib_x64:SendPackPool.obj
 0001:000011b0       ?trunc@?$CBaseList@UtagPreProcParseEnvir@CCustomLuaPreProcessor@@@container@wylib@@QEAAX_J@Z 00000001400021b0 f i srvlib_x64:CustomLuaPreProcess.obj
 0001:000011b0       ?trunc@?$CBaseList@_N@container@wylib@@QEAAX_J@Z 00000001400021b0 f i srvlib_x64:CustomLuaPreProcess.obj
 0001:000011b0       ?trunc@?$CBaseList@PEAVCAnsiString@string@wylib@@@container@wylib@@QEAAX_J@Z 00000001400021b0 f i srvlib_x64:CustomLuaPreProcess.obj
 0001:000011b0       ?trunc@?$CBaseList@PEAUtagAppInternalMessage@@@container@wylib@@QEAAX_J@Z 00000001400021b0 f i srvlib_x64:CustomWorkSocket.obj
 0001:000011b0       ?trunc@?$CBaseList@PEAD@container@wylib@@QEAAX_J@Z 00000001400021b0 f i srvlib_x64:CustomLuaPreProcess.obj
 0001:000011b0       ?trunc@?$CBaseList@ULineRange@CCustomLuaPreProcessor@@@container@wylib@@QEAAX_J@Z 00000001400021b0 f i srvlib_x64:CustomLuaPreProcess.obj
 0001:000011e0       ?reserve@?$CBaseList@ULineRange@CCustomLuaPreProcessor@@@container@wylib@@UEAAX_J@Z 00000001400021e0 f i srvlib_x64:CustomLuaPreProcess.obj
 0001:00001250       ??0?$CBaseList@UtagPreProcParseEnvir@CCustomLuaPreProcessor@@@container@wylib@@QEAA@XZ 0000000140002250 f i srvlib_x64:CustomLuaPreProcess.obj
 0001:000012a0       ??1?$CBaseList@UtagPreProcParseEnvir@CCustomLuaPreProcessor@@@container@wylib@@UEAA@XZ 00000001400022a0 f i srvlib_x64:CustomLuaPreProcess.obj
 0001:000012d0       ?count@?$CBaseList@UtagMacro@CCustomLuaPreProcessor@@@container@wylib@@QEBA_JXZ 00000001400022d0 f i srvlib_x64:CustomLuaPreProcess.obj
 0001:000012d0       ?count@?$CBaseList@PEAVCTimeProfMgr@@@container@wylib@@QEBA_JXZ 00000001400022d0 f i srvlib_x64:TimeStat.obj
 0001:000012d0       ?count@?$CBaseList@PEAVCTimeProfRecord@@@container@wylib@@QEBA_JXZ 00000001400022d0 f i srvlib_x64:TimeStat.obj
 0001:000012d0       ?count@?$CBaseList@PEAVCAnsiString@string@wylib@@@container@wylib@@QEBA_JXZ 00000001400022d0 f i srvlib_x64:CustomLuaPreProcess.obj
 0001:000012d0       ?count@?$CBaseList@_N@container@wylib@@QEBA_JXZ 00000001400022d0 f i srvlib_x64:CustomLuaPreProcess.obj
 0001:000012d0       ?count@?$CBaseList@PEAD@container@wylib@@QEBA_JXZ 00000001400022d0 f i srvlib_x64:CustomLuaPreProcess.obj
 0001:000012d0       ?count@?$CBaseList@UtagPreProcParseEnvir@CCustomLuaPreProcessor@@@container@wylib@@QEBA_JXZ 00000001400022d0 f i srvlib_x64:CustomLuaPreProcess.obj
 0001:000012d0       ?count@?$CBaseList@PEAV?$CRefObjectImpl@VCAnsiString@string@wylib@@@misc@wylib@@@container@wylib@@QEBA_JXZ 00000001400022d0 f i srvlib_x64:CustomLuaConfig.obj
 0001:000012d0       ?count@?$CBaseList@PEAUtagAppInternalMessage@@@container@wylib@@QEBA_JXZ 00000001400022d0 f i srvlib_x64:CustomWorkSocket.obj
 0001:000012d0       ?count@?$CBaseList@ULineRange@CCustomLuaPreProcessor@@@container@wylib@@QEBA_JXZ 00000001400022d0 f i srvlib_x64:CustomLuaPreProcess.obj
 0001:000012d0       ?count@?$CBaseList@PEAVCDataPacket@@@container@wylib@@QEBA_JXZ 00000001400022d0 f i srvlib_x64:SendPackPool.obj
 0001:000012e0       ?add@?$CBaseList@UtagPreProcParseEnvir@CCustomLuaPreProcessor@@@container@wylib@@QEAA_JAEBUtagPreProcParseEnvir@CCustomLuaPreProcessor@@@Z 00000001400022e0 f i srvlib_x64:CustomLuaPreProcess.obj
 0001:00001390       ?reserve@?$CBaseList@UtagPreProcParseEnvir@CCustomLuaPreProcessor@@@container@wylib@@UEAAX_J@Z 0000000140002390 f i srvlib_x64:CustomLuaPreProcess.obj
 0001:00001400       ??0?$CBaseList@PEAVCAnsiString@string@wylib@@@container@wylib@@QEAA@XZ 0000000140002400 f i srvlib_x64:CustomLuaPreProcess.obj
 0001:00001450       ??1?$CBaseList@PEAVCAnsiString@string@wylib@@@container@wylib@@UEAA@XZ 0000000140002450 f i srvlib_x64:CustomLuaPreProcess.obj
 0001:00001480       ?reserve@?$CBaseList@PEAUtagAppInternalMessage@@@container@wylib@@UEAAX_J@Z 0000000140002480 f i srvlib_x64:CustomWorkSocket.obj
 0001:00001480       ?reserve@?$CBaseList@PEAV?$CRefObjectImpl@VCAnsiString@string@wylib@@@misc@wylib@@@container@wylib@@UEAAX_J@Z 0000000140002480 f i srvlib_x64:CustomLuaConfig.obj
 0001:00001480       ?reserve@?$CBaseList@PEAVCDataPacket@@@container@wylib@@UEAAX_J@Z 0000000140002480 f i srvlib_x64:SendPackPool.obj
 0001:00001480       ?reserve@?$CBaseList@PEAD@container@wylib@@UEAAX_J@Z 0000000140002480 f i srvlib_x64:CustomLuaPreProcess.obj
 0001:00001480       ?reserve@?$CBaseList@PEAVCTimeProfRecord@@@container@wylib@@UEAAX_J@Z 0000000140002480 f i srvlib_x64:TimeStat.obj
 0001:00001480       ?reserve@?$CBaseList@PEAVCTimeProfMgr@@@container@wylib@@UEAAX_J@Z 0000000140002480 f i srvlib_x64:TimeStat.obj
 0001:00001480       ?reserve@?$CBaseList@PEAVCAnsiString@string@wylib@@@container@wylib@@UEAAX_J@Z 0000000140002480 f i srvlib_x64:CustomLuaPreProcess.obj
 0001:000014f0       ??0?$CBaseList@UtagMacro@CCustomLuaPreProcessor@@@container@wylib@@QEAA@XZ 00000001400024f0 f i srvlib_x64:CustomLuaPreProcess.obj
 0001:00001540       ??1?$CBaseList@UtagMacro@CCustomLuaPreProcessor@@@container@wylib@@UEAA@XZ 0000000140002540 f i srvlib_x64:CustomLuaPreProcess.obj
 0001:00001570       ?add@?$CBaseList@UtagMacro@CCustomLuaPreProcessor@@@container@wylib@@QEAA_JAEBUtagMacro@CCustomLuaPreProcessor@@@Z 0000000140002570 f i srvlib_x64:CustomLuaPreProcess.obj
 0001:00001630       ?remove@?$CBaseList@UtagMacro@CCustomLuaPreProcessor@@@container@wylib@@QEAAX_J@Z 0000000140002630 f i srvlib_x64:CustomLuaPreProcess.obj
 0001:00001670       ?reserve@?$CBaseList@UtagMacro@CCustomLuaPreProcessor@@@container@wylib@@UEAAX_J@Z 0000000140002670 f i srvlib_x64:CustomLuaPreProcess.obj
 0001:000016e0       ??0?$CBaseList@_N@container@wylib@@QEAA@XZ 00000001400026e0 f i srvlib_x64:CustomLuaPreProcess.obj
 0001:00001730       ??1?$CBaseList@_N@container@wylib@@UEAA@XZ 0000000140002730 f i srvlib_x64:CustomLuaPreProcess.obj
 0001:00001760       ?add@?$CBaseList@_N@container@wylib@@QEAA_JAEB_N@Z 0000000140002760 f i srvlib_x64:CustomLuaPreProcess.obj
 0001:00001810       ?get@?$CBaseList@_N@container@wylib@@QEBAAEB_N_J@Z 0000000140002810 f i srvlib_x64:CustomLuaPreProcess.obj
 0001:00001840       ?reserve@?$CBaseList@_N@container@wylib@@UEAAX_J@Z 0000000140002840 f i srvlib_x64:CustomLuaPreProcess.obj
 0001:000018a0       ??0?$CBaseList@PEAD@container@wylib@@QEAA@XZ 00000001400028a0 f i srvlib_x64:CustomLuaPreProcess.obj
 0001:000018f0       ??1?$CBaseList@PEAD@container@wylib@@UEAA@XZ 00000001400028f0 f i srvlib_x64:CustomLuaPreProcess.obj
 0001:00001920       ??0?$CTRefString@VCAnsiString@string@wylib@@D@string@wylib@@QEAA@AEBV012@@Z 0000000140002920 f i srvlib_x64:CustomLuaPreProcess.obj
 0001:00001980       ??B?$CTRefString@VCAnsiString@string@wylib@@D@string@wylib@@QEAAPEADXZ 0000000140002980 f i srvlib_x64:CustomLuaPreProcess.obj
 0001:00001980       ??B?$CTRefString@VCAnsiString@string@wylib@@D@string@wylib@@QEBAPEBDXZ 0000000140002980 f i srvlib_x64:CustomLuaPreProcess.obj
 0001:000019c0       ??Y?$CTRefString@VCAnsiString@string@wylib@@D@string@wylib@@QEAAXPEBD@Z 00000001400029c0 f i srvlib_x64:CustomLuaPreProcess.obj
 0001:00001a80       ?format@?$CTRefString@VCAnsiString@string@wylib@@D@string@wylib@@QEAA_KPEBDZZ 0000000140002a80 f i srvlib_x64:CustomLuaPreProcess.obj
 0001:00001ae0       ??0?$CRefObject@VCAnsiString@string@wylib@@@misc@wylib@@QEAA@AEAV012@@Z 0000000140002ae0 f i srvlib_x64:CustomLuaPreProcess.obj
 0001:00001b40       ??_G?$CBaseList@ULineRange@CCustomLuaPreProcessor@@@container@wylib@@UEAAPEAXI@Z 0000000140002b40 f i srvlib_x64:CustomLuaPreProcess.obj
 0001:00001b40       ??_E?$CBaseList@ULineRange@CCustomLuaPreProcessor@@@container@wylib@@UEAAPEAXI@Z 0000000140002b40 f i  CIL library: CIL module
 0001:00001b80       ??_E?$CBaseList@UtagPreProcParseEnvir@CCustomLuaPreProcessor@@@container@wylib@@UEAAPEAXI@Z 0000000140002b80 f i  CIL library: CIL module
 0001:00001b80       ??_G?$CBaseList@UtagPreProcParseEnvir@CCustomLuaPreProcessor@@@container@wylib@@UEAAPEAXI@Z 0000000140002b80 f i srvlib_x64:CustomLuaPreProcess.obj
 0001:00001bc0       ??_G?$CBaseList@PEAVCAnsiString@string@wylib@@@container@wylib@@UEAAPEAXI@Z 0000000140002bc0 f i srvlib_x64:CustomLuaPreProcess.obj
 0001:00001bc0       ??_E?$CBaseList@PEAVCAnsiString@string@wylib@@@container@wylib@@UEAAPEAXI@Z 0000000140002bc0 f i  CIL library: CIL module
 0001:00001c00       ??_G?$CBaseList@UtagMacro@CCustomLuaPreProcessor@@@container@wylib@@UEAAPEAXI@Z 0000000140002c00 f i srvlib_x64:CustomLuaPreProcess.obj
 0001:00001c00       ??_E?$CBaseList@UtagMacro@CCustomLuaPreProcessor@@@container@wylib@@UEAAPEAXI@Z 0000000140002c00 f i  CIL library: CIL module
 0001:00001c40       ??_G?$CBaseList@_N@container@wylib@@UEAAPEAXI@Z 0000000140002c40 f i srvlib_x64:CustomLuaPreProcess.obj
 0001:00001c40       ??_E?$CBaseList@_N@container@wylib@@UEAAPEAXI@Z 0000000140002c40 f i  CIL library: CIL module
 0001:00001c80       ??_G?$CBaseList@PEAD@container@wylib@@UEAAPEAXI@Z 0000000140002c80 f i srvlib_x64:CustomLuaPreProcess.obj
 0001:00001c80       ??_E?$CBaseList@PEAD@container@wylib@@UEAAPEAXI@Z 0000000140002c80 f i  CIL library: CIL module
 0001:00001cc0       ?remove@?$CBaseList@UtagMacro@CCustomLuaPreProcessor@@@container@wylib@@QEAAX_J0@Z 0000000140002cc0 f i srvlib_x64:CustomLuaPreProcess.obj
 0001:00001d70       ?format_args@?$CTRefString@VCAnsiString@string@wylib@@D@string@wylib@@QEAA_KPEBDPEAD@Z 0000000140002d70 f i srvlib_x64:CustomLuaPreProcess.obj
 0001:00001e30       ??2@YAPEAX_KPEAX@Z         0000000140002e30 f i srvlib_x64:LangTextSection.obj
 0001:00001e40       ??3@YAXPEAX0@Z             0000000140002e40 f i srvlib_x64:LangTextSection.obj
 0001:00001e50       ??_ECLangTextPacket@@UEAAPEAXI@Z 0000000140002e50 f i  CIL library: CIL module
 0001:00001e50       ??_GCLangTextPacket@@UEAAPEAXI@Z 0000000140002e50 f i srvlib_x64:LangTextSection.obj
 0001:00001e90       ??0?$CCustomHashTable@VCLangTextSection@@@@QEAA@_K@Z 0000000140002e90 f i srvlib_x64:LangTextSection.obj
 0001:00001f60       ??1?$CCustomHashTable@VCLangTextSection@@@@UEAA@XZ 0000000140002f60 f i srvlib_x64:LangTextSection.obj
 0001:00001f90       ?clear@?$CCustomHashTable@VCLangTextSection@@@@QEAAXXZ 0000000140002f90 f i srvlib_x64:LangTextSection.obj
 0001:00002050       ?get@?$CCustomHashTable@VCLangTextSection@@@@QEAAPEAVCLangTextSection@@PEBD@Z 0000000140003050 f i srvlib_x64:LangTextSection.obj
 0001:000020b0       ?put@?$CCustomHashTable@VCLangTextSection@@@@QEAAPEAVCLangTextSection@@PEBD@Z 00000001400030b0 f i srvlib_x64:LangTextSection.obj
 0001:00002330       ?realloc@?$CCustomHashTable@VCLangTextSection@@@@MEAAPEAXPEAX_K@Z 0000000140003330 f i srvlib_x64:LangTextSection.obj
 0001:00002360       ?allocObjects@?$CObjectAllocator@D@@QEAAPEAD_J@Z 0000000140003360 f i srvlib_x64:LangTextSection.obj
 0001:000024f0       ??_E?$CCustomHashTable@VCLangTextSection@@@@UEAAPEAXI@Z 00000001400034f0 f i  CIL library: CIL module
 0001:000024f0       ??_G?$CCustomHashTable@VCLangTextSection@@@@UEAAPEAXI@Z 00000001400034f0 f i srvlib_x64:LangTextSection.obj
 0001:00002530       ??_GCLangTextSection@@QEAAPEAXI@Z 0000000140003530 f i srvlib_x64:LangTextSection.obj
 0001:00002570       ?getIndex@?$CCustomHashTable@VCLangTextSection@@@@QEBA_JPEBD@Z 0000000140003570 f i srvlib_x64:LangTextSection.obj
 0001:000026f0       _tcsstr                    00000001400036f0 f i srvlib_x64:SingleObjectAllocator.obj
 0001:00002720       ??0CounterNode@CounterManager@@QEAA@XZ 0000000140003720 f i srvlib_x64:SingleObjectAllocator.obj
 0001:00002750       ??0CounterNode@CounterManager@@QEAA@PEBDPEAX_K@Z 0000000140003750 f i srvlib_x64:SingleObjectAllocator.obj
 0001:00002910       ??4CounterNode@CounterManager@@QEAAAEAU01@AEBU01@@Z 0000000140003910 f i srvlib_x64:SingleObjectAllocator.obj
 0001:00002940       ?getSingleton@CounterManager@@SAAEAV1@XZ 0000000140003940 f i srvlib_x64:SingleObjectAllocator.obj
 0001:00002990       ??0CounterManager@@QEAA@XZ 0000000140003990 f i srvlib_x64:SingleObjectAllocator.obj
 0001:000029e0       ?addObjectCounter@CounterManager@@QEAAXPEBDPEAX_K@Z 00000001400039e0 f i srvlib_x64:SingleObjectAllocator.obj
 0001:00002aa0       ?getSingleton@CSingleObjectAllocStatMgr@@SAAEAV1@XZ 0000000140003aa0 f i srvlib_x64:SingleObjectAllocator.obj
 0001:00002af0       ??1CSingleObjectAllocStatMgr@@QEAA@XZ 0000000140003af0 f i srvlib_x64:SingleObjectAllocator.obj
 0001:00002b20       ?clear@CSingleObjectAllocStatMgr@@QEAAXXZ 0000000140003b20 f i srvlib_x64:SingleObjectAllocator.obj
 0001:00002b40       ??0CSingleObjectAllocStatMgr@@QEAA@XZ 0000000140003b40 f i srvlib_x64:SingleObjectAllocator.obj
 0001:00002b60       ?addToStat@CObjectAllocatorStat@@IEBAXXZ 0000000140003b60 f i srvlib_x64:SingleObjectAllocator.obj
 0001:00002b90       ?removeFromStat@CObjectAllocatorStat@@IEBAXXZ 0000000140003b90 f i srvlib_x64:SingleObjectAllocator.obj
 0001:00002bc0       ??0?$CBaseLinkedList@PEBVCObjectAllocatorStat@@@container@wylib@@QEAA@XZ 0000000140003bc0 f i srvlib_x64:SingleObjectAllocator.obj
 0001:00002c10       ??1?$CBaseLinkedList@PEBVCObjectAllocatorStat@@@container@wylib@@UEAA@XZ 0000000140003c10 f i srvlib_x64:SingleObjectAllocator.obj
 0001:00002c40       ?linkAfter@?$CBaseLinkedList@PEBVCObjectAllocatorStat@@@container@wylib@@QEAAPEAV?$CLinkedNode@PEBVCObjectAllocatorStat@@@23@AEBQEBVCObjectAllocatorStat@@PEAV423@@Z 0000000140003c40 f i srvlib_x64:SingleObjectAllocator.obj
 0001:00002d60       ?clear@?$CBaseLinkedList@PEBVCObjectAllocatorStat@@@container@wylib@@UEAAXXZ 0000000140003d60 f i srvlib_x64:SingleObjectAllocator.obj
 0001:00002de0       ?allocNode@?$CBaseLinkedList@PEBVCObjectAllocatorStat@@@container@wylib@@MEAAPEAV?$CLinkedNode@PEBVCObjectAllocatorStat@@@23@XZ 0000000140003de0 f i srvlib_x64:SingleObjectAllocator.obj
 0001:00002e40       ?freeNode@?$CBaseLinkedList@PEBVCObjectAllocatorStat@@@container@wylib@@MEAAXPEAV?$CLinkedNode@PEBVCObjectAllocatorStat@@@23@@Z 0000000140003e40 f i srvlib_x64:SingleObjectAllocator.obj
 0001:00002e90       ??0?$CLinkedListIterator@PEBVCObjectAllocatorStat@@@container@wylib@@QEAA@AEAV?$CBaseLinkedList@PEBVCObjectAllocatorStat@@@12@@Z 0000000140003e90 f i srvlib_x64:SingleObjectAllocator.obj
 0001:00002ef0       ??1?$CLinkedListIterator@PEBVCObjectAllocatorStat@@@container@wylib@@QEAA@XZ 0000000140003ef0 f i srvlib_x64:SingleObjectAllocator.obj
 0001:00002fb0       ?remove@?$CLinkedListIterator@PEBVCObjectAllocatorStat@@@container@wylib@@QEAAXPEAV?$CLinkedNode@PEBVCObjectAllocatorStat@@@23@H@Z 0000000140003fb0 f i srvlib_x64:SingleObjectAllocator.obj
 0001:00003000       ?first@?$CLinkedListIterator@PEBVCObjectAllocatorStat@@@container@wylib@@QEAAPEAV?$CLinkedNode@PEBVCObjectAllocatorStat@@@23@XZ 0000000140004000 f i srvlib_x64:SingleObjectAllocator.obj
 0001:00003030       ?next@?$CLinkedListIterator@PEBVCObjectAllocatorStat@@@container@wylib@@QEAAPEAV?$CLinkedNode@PEBVCObjectAllocatorStat@@@23@XZ 0000000140004030 f i srvlib_x64:SingleObjectAllocator.obj
 0001:00003090       ??_G?$CBaseLinkedList@PEBVCObjectAllocatorStat@@@container@wylib@@UEAAPEAXI@Z 0000000140004090 f i srvlib_x64:SingleObjectAllocator.obj
 0001:00003090       ??_E?$CBaseLinkedList@PEBVCObjectAllocatorStat@@@container@wylib@@UEAAPEAXI@Z 0000000140004090 f i  CIL library: CIL module
 0001:000030d0       ??0?$CLinkedNode@PEBVCObjectAllocatorStat@@@container@wylib@@QEAA@XZ 00000001400040d0 f i srvlib_x64:SingleObjectAllocator.obj
 0001:000030f0       ??_G?$CLinkedNode@PEBVCObjectAllocatorStat@@@container@wylib@@QEAAPEAXI@Z 00000001400040f0 f i srvlib_x64:SingleObjectAllocator.obj
 0001:00003130       ??1?$CLinkedNode@PEBVCObjectAllocatorStat@@@container@wylib@@QEAA@XZ 0000000140004130 f i srvlib_x64:SingleObjectAllocator.obj
 0001:00003150       ??B?$CBaseList@PEAVCAnsiString@string@wylib@@@container@wylib@@QEBAPEAPEAVCAnsiString@string@2@XZ 0000000140004150 f i srvlib_x64:CustomLuaPreProcess.obj
 0001:00003150       ?rawStr@CAnsiString@string@wylib@@QEAAPEADXZ 0000000140004150 f i srvlib_x64:CustomLuaConfig.obj
 0001:00003150       ??B?$CBaseList@_N@container@wylib@@QEBAPEA_NXZ 0000000140004150 f i srvlib_x64:CustomLuaPreProcess.obj
 0001:00003150       ??B?$CBaseList@PEAV?$CRefObjectImpl@VCAnsiString@string@wylib@@@misc@wylib@@@container@wylib@@QEBAPEAPEAV?$CRefObjectImpl@VCAnsiString@string@wylib@@@misc@2@XZ 0000000140004150 f i srvlib_x64:CustomLuaConfig.obj
 0001:00003150       ??B?$CBaseList@PEAVCTimeProfRecord@@@container@wylib@@QEBAPEAPEAVCTimeProfRecord@@XZ 0000000140004150 f i srvlib_x64:TimeStat.obj
 0001:00003150       ?first@?$CBaseLinkedList@PEBVCObjectAllocatorStat@@@container@wylib@@QEAAPEAV?$CLinkedNode@PEBVCObjectAllocatorStat@@@23@XZ 0000000140004150 f i srvlib_x64:SingleObjectAllocator.obj
 0001:00003150       ??B?$CBaseList@UtagMacro@CCustomLuaPreProcessor@@@container@wylib@@QEBAPEAUtagMacro@CCustomLuaPreProcessor@@XZ 0000000140004150 f i srvlib_x64:CustomLuaPreProcess.obj
 0001:00003150       ?getText@CLangTextSection@@QEAAPEBDXZ 0000000140004150 f i srvlib_x64:LuaLangTextSection.obj
 0001:00003150       ??B?$CBaseList@ULineRange@CCustomLuaPreProcessor@@@container@wylib@@QEBAPEAULineRange@CCustomLuaPreProcessor@@XZ 0000000140004150 f i srvlib_x64:CustomLuaPreProcess.obj
 0001:00003150       ??B?$CBaseList@PEAVCDataPacket@@@container@wylib@@QEBAPEAPEAVCDataPacket@@XZ 0000000140004150 f i srvlib_x64:SendPackPool.obj
 0001:00003150       ??B?$CBaseList@UtagPreProcParseEnvir@CCustomLuaPreProcessor@@@container@wylib@@QEBAPEAUtagPreProcParseEnvir@CCustomLuaPreProcessor@@XZ 0000000140004150 f i srvlib_x64:CustomLuaPreProcess.obj
 0001:00003150       ??B?$CBaseList@PEAUtagAppInternalMessage@@@container@wylib@@QEBAPEAPEAUtagAppInternalMessage@@XZ 0000000140004150 f i srvlib_x64:CustomWorkSocket.obj
 0001:00003150       ??B?$CBaseList@PEAVCTimeProfMgr@@@container@wylib@@QEBAPEAPEAVCTimeProfMgr@@XZ 0000000140004150 f i srvlib_x64:TimeStat.obj
 0001:00003150       ?getMemory@CMemoryStream@stream@wylib@@QEAAPEAXXZ 0000000140004150 f i srvlib_x64:CustomLuaPreProcess.obj
 0001:00003150       ??B?$CBaseList@PEAD@container@wylib@@QEBAPEAPEADXZ 0000000140004150 f i srvlib_x64:CustomLuaPreProcess.obj
 0001:00003160       ?remove@?$CBaseLinkedList@PEBVCObjectAllocatorStat@@@container@wylib@@QEAAXPEAV?$CLinkedNode@PEBVCObjectAllocatorStat@@@23@H@Z 0000000140004160 f i srvlib_x64:SingleObjectAllocator.obj
 0001:000032d0       ?setList@?$CLinkedListIterator@PEBVCObjectAllocatorStat@@@container@wylib@@QEAAXAEAV?$CBaseLinkedList@PEBVCObjectAllocatorStat@@@23@@Z 00000001400042d0 f i srvlib_x64:SingleObjectAllocator.obj
 0001:00003360       ??0?$Counter@V?$CLinkedNode@PEBVCObjectAllocatorStat@@@container@wylib@@@@QEAA@XZ 0000000140004360 f i srvlib_x64:SingleObjectAllocator.obj
 0001:00003380       ??1?$Counter@V?$CLinkedNode@PEBVCObjectAllocatorStat@@@container@wylib@@@@QEAA@XZ 0000000140004380 f i srvlib_x64:SingleObjectAllocator.obj
 0001:000033a0       ??_G?$CLinkedListIterator@PEBVCObjectAllocatorStat@@@container@wylib@@QEAAPEAXI@Z 00000001400043a0 f i srvlib_x64:SingleObjectAllocator.obj
 0001:000033e0       ?addToStat@?$Counter@V?$CLinkedNode@PEBVCObjectAllocatorStat@@@container@wylib@@@@IEAAXXZ 00000001400043e0 f i srvlib_x64:SingleObjectAllocator.obj
 0001:00003440       ?getCount@?$Counter@V?$CLinkedNode@PEBVCObjectAllocatorStat@@@container@wylib@@@@SA_KXZ 0000000140004440 f i srvlib_x64:SingleObjectAllocator.obj
 0001:00003450       ?hashstr@CCLVariant@@SAIPEBD@Z 0000000140004450 f i srvlib_x64:LuaLangTextSection.obj
 0001:00003480       ?hashlstr@CCLVariant@@SAIPEBD_K@Z 0000000140004480 f i srvlib_x64:LuaLangTextSection.obj
 0001:00003510       ?getType@CLangTextSection@@QEAA?AW4ElementType@1@XZ 0000000140004510 f i srvlib_x64:LuaLangTextSection.obj
 0001:00003520       ?GetAccessViolationOperationName@@YAPEBD_K@Z 0000000140004520 f i srvlib_x64:DefExceptHander.obj
 0001:00003570       ??0CTimeProfRecord@@QEAA@XZ 0000000140004570 f i srvlib_x64:TimeStat.obj
 0001:000035a0       ?reset@CTimeProfRecord@@QEAAX_N@Z 00000001400045a0 f i srvlib_x64:TimeStat.obj
 0001:00003620       ?getSingleton@CTimeProfMgr@@SAAEAV1@XZ 0000000140004620 f i srvlib_x64:TimeStat.obj
 0001:00003670       ?getThreadInst@CTimeProfMgr@@QEAAPEAV1@XZ 0000000140004670 f i srvlib_x64:TimeStat.obj
 0001:000037a0       ?freeRecord@CTimeProfMgr@@QEAAXPEAVCTimeProfRecord@@@Z 00000001400047a0 f i srvlib_x64:TimeStat.obj
 0001:000037d0       ?clear@CTimeProfMgr@@QEAAXXZ 00000001400047d0 f i srvlib_x64:TimeStat.obj
 0001:00003970       ?allocTimeProfRecord@CTimeProfMgr@@IEAAXXZ 0000000140004970 f i srvlib_x64:TimeStat.obj
 0001:00003a20       ?setThreadId@CTimeProfMgr@@IEAAXK@Z 0000000140004a20 f i srvlib_x64:TimeStat.obj
 0001:00003a40       ??_GCTimeProfRecord@@QEAAPEAXI@Z 0000000140004a40 f i srvlib_x64:TimeStat.obj
 0001:00003a80       ??_GCTimeProfMgr@@QEAAPEAXI@Z 0000000140004a80 f i srvlib_x64:TimeStat.obj
 0001:00003ac0       ??0?$Counter@VCTimeProfRecord@@@@QEAA@XZ 0000000140004ac0 f i srvlib_x64:TimeStat.obj
 0001:00003ae0       ??1?$Counter@VCTimeProfRecord@@@@QEAA@XZ 0000000140004ae0 f i srvlib_x64:TimeStat.obj
 0001:00003b00       ??0?$CBaseList@PEAVCTimeProfRecord@@@container@wylib@@QEAA@XZ 0000000140004b00 f i srvlib_x64:TimeStat.obj
 0001:00003b50       ??1?$CBaseList@PEAVCTimeProfRecord@@@container@wylib@@UEAA@XZ 0000000140004b50 f i srvlib_x64:TimeStat.obj
 0001:00003b80       ?push@?$CBaseList@PEAVCTimeProfRecord@@@container@wylib@@QEAA_JAEBQEAVCTimeProfRecord@@@Z 0000000140004b80 f i srvlib_x64:TimeStat.obj
 0001:00003bb0       ??0?$CBaseList@PEAVCTimeProfMgr@@@container@wylib@@QEAA@XZ 0000000140004bb0 f i srvlib_x64:TimeStat.obj
 0001:00003c00       ??1?$CBaseList@PEAVCTimeProfMgr@@@container@wylib@@UEAA@XZ 0000000140004c00 f i srvlib_x64:TimeStat.obj
 0001:00003c30       ?empty@?$CBaseList@PEAV?$CRefObjectImpl@VCAnsiString@string@wylib@@@misc@wylib@@@container@wylib@@UEAAXXZ 0000000140004c30 f i srvlib_x64:CustomLuaConfig.obj
 0001:00003c30       ?empty@?$CBaseList@PEAD@container@wylib@@UEAAXXZ 0000000140004c30 f i srvlib_x64:CustomLuaPreProcess.obj
 0001:00003c30       ?empty@?$CBaseList@_N@container@wylib@@UEAAXXZ 0000000140004c30 f i srvlib_x64:CustomLuaPreProcess.obj
 0001:00003c30       ?empty@?$CBaseList@UtagPreProcParseEnvir@CCustomLuaPreProcessor@@@container@wylib@@UEAAXXZ 0000000140004c30 f i srvlib_x64:CustomLuaPreProcess.obj
 0001:00003c30       ?empty@?$CBaseList@PEAVCAnsiString@string@wylib@@@container@wylib@@UEAAXXZ 0000000140004c30 f i srvlib_x64:CustomLuaPreProcess.obj
 0001:00003c30       ?empty@?$CBaseList@PEAVCDataPacket@@@container@wylib@@UEAAXXZ 0000000140004c30 f i srvlib_x64:SendPackPool.obj
 0001:00003c30       ?empty@?$CBaseList@PEAVCTimeProfMgr@@@container@wylib@@UEAAXXZ 0000000140004c30 f i srvlib_x64:TimeStat.obj
 0001:00003c30       ?empty@?$CBaseList@PEAUtagAppInternalMessage@@@container@wylib@@UEAAXXZ 0000000140004c30 f i srvlib_x64:CustomWorkSocket.obj
 0001:00003c30       ?empty@?$CBaseList@ULineRange@CCustomLuaPreProcessor@@@container@wylib@@UEAAXXZ 0000000140004c30 f i srvlib_x64:CustomLuaPreProcess.obj
 0001:00003c30       ?empty@?$CBaseList@PEAVCTimeProfRecord@@@container@wylib@@UEAAXXZ 0000000140004c30 f i srvlib_x64:TimeStat.obj
 0001:00003c30       ?empty@?$CBaseList@UtagMacro@CCustomLuaPreProcessor@@@container@wylib@@UEAAXXZ 0000000140004c30 f i srvlib_x64:CustomLuaPreProcess.obj
 0001:00003c80       ??_E?$CBaseList@PEAVCTimeProfRecord@@@container@wylib@@UEAAPEAXI@Z 0000000140004c80 f i  CIL library: CIL module
 0001:00003c80       ??_G?$CBaseList@PEAVCTimeProfRecord@@@container@wylib@@UEAAPEAXI@Z 0000000140004c80 f i srvlib_x64:TimeStat.obj
 0001:00003cc0       ??_E?$CBaseList@PEAVCTimeProfMgr@@@container@wylib@@UEAAPEAXI@Z 0000000140004cc0 f i  CIL library: CIL module
 0001:00003cc0       ??_G?$CBaseList@PEAVCTimeProfMgr@@@container@wylib@@UEAAPEAXI@Z 0000000140004cc0 f i srvlib_x64:TimeStat.obj
 0001:00003d00       ?addToStat@?$Counter@VCTimeProfRecord@@@@IEAAXXZ 0000000140004d00 f i srvlib_x64:TimeStat.obj
 0001:00003d60       ?clear@?$CBaseList@UtagMacro@CCustomLuaPreProcessor@@@container@wylib@@QEAAXXZ 0000000140004d60 f i srvlib_x64:CustomLuaPreProcess.obj
 0001:00003d60       ?clear@?$CBaseList@PEAD@container@wylib@@QEAAXXZ 0000000140004d60 f i srvlib_x64:CustomLuaPreProcess.obj
 0001:00003d60       ?clear@?$CBaseList@_N@container@wylib@@QEAAXXZ 0000000140004d60 f i srvlib_x64:CustomLuaPreProcess.obj
 0001:00003d60       ?clear@?$CBaseList@UtagPreProcParseEnvir@CCustomLuaPreProcessor@@@container@wylib@@QEAAXXZ 0000000140004d60 f i srvlib_x64:CustomLuaPreProcess.obj
 0001:00003d60       ?clear@?$CBaseList@PEAVCTimeProfRecord@@@container@wylib@@QEAAXXZ 0000000140004d60 f i srvlib_x64:TimeStat.obj
 0001:00003d60       ?clear@?$CBaseList@PEAVCTimeProfMgr@@@container@wylib@@QEAAXXZ 0000000140004d60 f i srvlib_x64:TimeStat.obj
 0001:00003d60       ?clear@?$CBaseList@PEAVCAnsiString@string@wylib@@@container@wylib@@QEAAXXZ 0000000140004d60 f i srvlib_x64:CustomLuaPreProcess.obj
 0001:00003d60       ?clear@?$CBaseList@PEAV?$CRefObjectImpl@VCAnsiString@string@wylib@@@misc@wylib@@@container@wylib@@QEAAXXZ 0000000140004d60 f i srvlib_x64:CustomLuaConfig.obj
 0001:00003d60       ?clear@?$CBaseList@PEAUtagAppInternalMessage@@@container@wylib@@QEAAXXZ 0000000140004d60 f i srvlib_x64:CustomWorkSocket.obj
 0001:00003d60       ?clear@?$CBaseList@PEAVCDataPacket@@@container@wylib@@QEAAXXZ 0000000140004d60 f i srvlib_x64:SendPackPool.obj
 0001:00003d60       ?clear@?$CBaseList@ULineRange@CCustomLuaPreProcessor@@@container@wylib@@QEAAXXZ 0000000140004d60 f i srvlib_x64:CustomLuaPreProcess.obj
 0001:00003d80       ?getCount@?$Counter@VCTimeProfRecord@@@@SA_KXZ 0000000140004d80 f i srvlib_x64:TimeStat.obj
 0001:00003d90       ??$strcpy_s@$0EA@@@YAHAEAY0EA@DPEBD@Z 0000000140004d90 f i srvlib_x64:TimeStat.obj
 0001:00003dc0       ?connected@CCustomSocket@socket@inet@wylib@@QEAA_NXZ 0000000140004dc0 f i srvlib_x64:CustomWorkSocket.obj
 0001:00003dd0       ?getLength@CDataPacketReader@@QEAA_KXZ 0000000140004dd0 f i srvlib_x64:CustomWorkSocket.obj
 0001:00003df0       ?setPosition@CDataPacket@@QEAA_K_K@Z 0000000140004df0 f i srvlib_x64:CustomWorkSocket.obj
 0001:00003e80       ?allocSendPacket@CSendPacketPool@@QEAAAEAVCDataPacket@@XZ 0000000140004e80 f i srvlib_x64:CustomWorkSocket.obj
 0001:00003ec0       ?flushSendPacket@CSendPacketPool@@QEAAXAEAVCDataPacket@@@Z 0000000140004ec0 f i srvlib_x64:CustomWorkSocket.obj
 0001:00003f70       ??_GCCustomWorkSocket@@UEAAPEAXI@Z 0000000140004f70 f i srvlib_x64:CustomWorkSocket.obj
 0001:00003f70       ??_ECCustomWorkSocket@@UEAAPEAXI@Z 0000000140004f70 f i  CIL library: CIL module
 0001:00003fb0       ??0?$CQueueList@PEAUtagAppInternalMessage@@@container@wylib@@QEAA@XZ 0000000140004fb0 f i srvlib_x64:CustomWorkSocket.obj
 0001:00003ff0       ??1?$CQueueList@PEAUtagAppInternalMessage@@@container@wylib@@UEAA@XZ 0000000140004ff0 f i srvlib_x64:CustomWorkSocket.obj
 0001:00004020       ??_G?$CQueueList@PEAUtagAppInternalMessage@@@container@wylib@@UEAAPEAXI@Z 0000000140005020 f i srvlib_x64:CustomWorkSocket.obj
 0001:00004020       ??_E?$CQueueList@PEAUtagAppInternalMessage@@@container@wylib@@UEAAPEAXI@Z 0000000140005020 f i  CIL library: CIL module
 0001:00004060       ??1?$CLockList@PEAUtagAppInternalMessage@@@container@wylib@@UEAA@XZ 0000000140005060 f i srvlib_x64:CustomWorkSocket.obj
 0001:00004080       ?append@?$CQueueList@PEAVCDataPacket@@@container@wylib@@QEAAXAEBQEAVCDataPacket@@@Z 0000000140005080 f i srvlib_x64:CustomWorkSocket.obj
 0001:000040c0       ?lock@?$CLockList@PEAUtagAppInternalMessage@@@container@wylib@@QEAAXXZ 00000001400050c0 f i srvlib_x64:CustomWorkSocket.obj
 0001:000040c0       ?lock@?$CLockList@PEAVCDataPacket@@@container@wylib@@QEAAXXZ 00000001400050c0 f i srvlib_x64:CustomWorkSocket.obj
 0001:00004100       ?unlock@?$CLockList@PEAVCDataPacket@@@container@wylib@@QEAAXXZ 0000000140005100 f i srvlib_x64:CustomWorkSocket.obj
 0001:00004100       ?unlock@?$CLockList@PEAUtagAppInternalMessage@@@container@wylib@@QEAAXXZ 0000000140005100 f i srvlib_x64:CustomWorkSocket.obj
 0001:00004140       ??0?$CLockList@PEAUtagAppInternalMessage@@@container@wylib@@QEAA@PEAVCBaseLock@lock@sync@2@@Z 0000000140005140 f i srvlib_x64:CustomWorkSocket.obj
 0001:00004180       ?setLock@?$CLockList@PEAUtagAppInternalMessage@@@container@wylib@@QEAAPEAVCBaseLock@lock@sync@3@PEAV4563@@Z 0000000140005180 f i srvlib_x64:CustomWorkSocket.obj
 0001:00004180       ?setLock@?$CLockList@PEAVCDataPacket@@@container@wylib@@QEAAPEAVCBaseLock@lock@sync@3@PEAV4563@@Z 0000000140005180 f i srvlib_x64:SendPackPool.obj
 0001:000041c0       ??0?$CBaseList@PEAUtagAppInternalMessage@@@container@wylib@@QEAA@XZ 00000001400051c0 f i srvlib_x64:CustomWorkSocket.obj
 0001:00004210       ??1?$CBaseList@PEAUtagAppInternalMessage@@@container@wylib@@UEAA@XZ 0000000140005210 f i srvlib_x64:CustomWorkSocket.obj
 0001:00004240       ??_E?$CLockList@PEAUtagAppInternalMessage@@@container@wylib@@UEAAPEAXI@Z 0000000140005240 f i  CIL library: CIL module
 0001:00004240       ??_G?$CLockList@PEAUtagAppInternalMessage@@@container@wylib@@UEAAPEAXI@Z 0000000140005240 f i srvlib_x64:CustomWorkSocket.obj
 0001:00004280       ??_G?$CBaseList@PEAUtagAppInternalMessage@@@container@wylib@@UEAAPEAXI@Z 0000000140005280 f i srvlib_x64:CustomWorkSocket.obj
 0001:00004280       ??_E?$CBaseList@PEAUtagAppInternalMessage@@@container@wylib@@UEAAPEAXI@Z 0000000140005280 f i  CIL library: CIL module
 0001:000042c0       ?addList@?$CBaseList@PEAUtagAppInternalMessage@@@container@wylib@@QEAAXAEBV123@@Z 00000001400052c0 f i srvlib_x64:CustomWorkSocket.obj
 0001:000042c0       ?addList@?$CBaseList@PEAVCDataPacket@@@container@wylib@@QEAAXAEBV123@@Z 00000001400052c0 f i srvlib_x64:SendPackPool.obj
 0001:00004300       ?addArray@?$CBaseList@PEAVCDataPacket@@@container@wylib@@QEAAXPEAPEAVCDataPacket@@_J@Z 0000000140005300 f i srvlib_x64:SendPackPool.obj
 0001:00004300       ?addArray@?$CBaseList@PEAUtagAppInternalMessage@@@container@wylib@@QEAAXPEAPEAUtagAppInternalMessage@@_J@Z 0000000140005300 f i srvlib_x64:CustomWorkSocket.obj
 0001:000043a0       ?getAvaliableLength@CDataPacketReader@@QEAA_KXZ 00000001400053a0 f i srvlib_x64:SendPackPool.obj
 0001:000043c0       ?maxCount@?$CBaseList@PEAVCDataPacket@@@container@wylib@@QEBA_JXZ 00000001400053c0 f i srvlib_x64:SendPackPool.obj
 0001:000043c0       ?getOffsetPtr@CDataPacketReader@@QEAAPEADXZ 00000001400053c0 f i srvlib_x64:SendPackPool.obj
 0001:000043d0       ??0CDataPacketReader@@QEAA@XZ 00000001400053d0 f i srvlib_x64:SendPackPool.obj
 0001:00004410       ?adjustOffset@CDataPacket@@QEAA_K_J@Z 0000000140005410 f i srvlib_x64:SendPackPool.obj
 0001:000044d0       ??0CDataPacket@@QEAA@PEAVCBufferAllocator@@@Z 00000001400054d0 f i srvlib_x64:SendPackPool.obj
 0001:00004520       ??1CDataPacket@@QEAA@XZ    0000000140005520 f i srvlib_x64:SendPackPool.obj
 0001:000045b0       ??0?$CQueueList@PEAVCDataPacket@@@container@wylib@@QEAA@XZ 00000001400055b0 f i srvlib_x64:SendPackPool.obj
 0001:000045f0       ??1?$CQueueList@PEAVCDataPacket@@@container@wylib@@UEAA@XZ 00000001400055f0 f i srvlib_x64:SendPackPool.obj
 0001:00004620       ??1?$CLockList@PEAVCDataPacket@@@container@wylib@@UEAA@XZ 0000000140005620 f i srvlib_x64:SendPackPool.obj
 0001:00004640       ??_G?$CQueueList@PEAVCDataPacket@@@container@wylib@@UEAAPEAXI@Z 0000000140005640 f i srvlib_x64:SendPackPool.obj
 0001:00004640       ??_E?$CQueueList@PEAVCDataPacket@@@container@wylib@@UEAAPEAXI@Z 0000000140005640 f i  CIL library: CIL module
 0001:00004680       ??_GCDataPacket@@QEAAPEAXI@Z 0000000140005680 f i srvlib_x64:SendPackPool.obj
 0001:000046c0       ??0?$Counter@VCDataPacket@@@@QEAA@XZ 00000001400056c0 f i srvlib_x64:SendPackPool.obj
 0001:000046e0       ??1?$Counter@VCDataPacket@@@@QEAA@XZ 00000001400056e0 f i srvlib_x64:SendPackPool.obj
 0001:00004700       ?flush@?$CQueueList@PEAVCDataPacket@@@container@wylib@@QEAAXXZ 0000000140005700 f i srvlib_x64:SendPackPool.obj
 0001:00004700       ?flush@?$CQueueList@PEAUtagAppInternalMessage@@@container@wylib@@QEAAXXZ 0000000140005700 f i srvlib_x64:CustomWorkSocket.obj
 0001:00004770       ??0?$CLockList@PEAVCDataPacket@@@container@wylib@@QEAA@PEAVCBaseLock@lock@sync@2@@Z 0000000140005770 f i srvlib_x64:SendPackPool.obj
 0001:000047b0       ??0?$CBaseList@PEAVCDataPacket@@@container@wylib@@QEAA@XZ 00000001400057b0 f i srvlib_x64:SendPackPool.obj
 0001:00004800       ??1?$CBaseList@PEAVCDataPacket@@@container@wylib@@UEAA@XZ 0000000140005800 f i srvlib_x64:SendPackPool.obj
 0001:00004830       ??_E?$CLockList@PEAVCDataPacket@@@container@wylib@@UEAAPEAXI@Z 0000000140005830 f i  CIL library: CIL module
 0001:00004830       ??_G?$CLockList@PEAVCDataPacket@@@container@wylib@@UEAAPEAXI@Z 0000000140005830 f i srvlib_x64:SendPackPool.obj
 0001:00004870       ??_G?$CBaseList@PEAVCDataPacket@@@container@wylib@@UEAAPEAXI@Z 0000000140005870 f i srvlib_x64:SendPackPool.obj
 0001:00004870       ??_E?$CBaseList@PEAVCDataPacket@@@container@wylib@@UEAAPEAXI@Z 0000000140005870 f i  CIL library: CIL module
 0001:000048b0       ?addToStat@?$Counter@VCDataPacket@@@@IEAAXXZ 00000001400058b0 f i srvlib_x64:SendPackPool.obj
 0001:00004910       ?getCount@?$Counter@VCDataPacket@@@@SA_KXZ 0000000140005910 f i srvlib_x64:SendPackPool.obj
 0001:00004920       ??0VirturalMap@@QEAA@XZ    0000000140005920 f i servercommon_x64:JXAbsGameMap.obj
 0001:00004940       ?canEntityMove@VirturalMap@@UEAA_NHHHHHH@Z 0000000140005940 f i servercommon_x64:JXAbsGameMap.obj
 0001:00004960       ??_GCAbstractMap@gameMap@jxcomm@@UEAAPEAXI@Z 0000000140005960 f i servercommon_x64:JXAbsGameMap.obj
 0001:00004960       ??_ECAbstractMap@gameMap@jxcomm@@UEAAPEAXI@Z 0000000140005960 f i  CIL library: CIL module
 0001:000049a0       ?FillInHeader@CNetworkDataHandler@@SAXPEAD_KPEAUDATAHEADER@@PEAVEncrypt@@@Z 00000001400059a0 f   NetworkDataHandler.obj
 0001:00004a30       ?getCurrentTimeDesc@@YAPEBDXZ 0000000140005a30 f   FileLogger.obj
 0001:00004a80       ??1CFileLogger@@QEAA@XZ    0000000140005a80 f   FileLogger.obj
 0001:00004ad0       ??$?6G@CDataPacket@@QEAAAEAV0@G@Z 0000000140005ad0 f i FileLogger.obj
 0001:00004b30       ?addMsg@COPMToFile@@QEAAXW4tagShareOutputMsgType@@PEBD_J@Z 0000000140005b30 f i FileLogger.obj
 0001:00004ec0       ?OutputMsgToFileFn@@YA_JW4tagShareOutputMsgType@@PEBD_J@Z 0000000140005ec0 f   FileLogger.obj
 0001:00004ef0       ??0COPMToFile@@QEAA@PEBD@Z 0000000140005ef0 f i FileLogger.obj
 0001:00005050       ?writeMessage@COPMToFile@@IEAAXW4tagShareOutputMsgType@@PEBD_K12@Z 0000000140006050 f i FileLogger.obj
 0001:000051b0       ?convertToUTF8@COPMToFile@@IEAA_KPEBD_KPEAD1@Z 00000001400061b0 f i FileLogger.obj
 0001:00005280       ??$rawReadStringLen@PEADG@CDataPacketReader@@IEAA_KPEAD_K@Z 0000000140006280 f i FileLogger.obj
 0001:00005370       ??_ECOPMToFile@@WBI@EAAPEAXI@Z 0000000140006370 f i FileLogger.obj
 0001:00005380       ?ProcessMessages@COPMToFile@@IEAAXXZ 0000000140006380 f i FileLogger.obj
 0001:000056d0       ?DumpImpl@COPMToFile@@IEAAXXZ 00000001400066d0 f i FileLogger.obj
 0001:00005aa0       ?OnRountine@COPMToFile@@MEAAXXZ 0000000140006aa0 f i FileLogger.obj
 0001:00005b00       ??1COPMToFile@@UEAA@XZ     0000000140006b00 f i FileLogger.obj
 0001:00005da0       ??_GCOPMToFile@@UEAAPEAXI@Z 0000000140006da0 f i FileLogger.obj
 0001:00005da0       ??_ECOPMToFile@@UEAAPEAXI@Z 0000000140006da0 f i FileLogger.obj
 0001:00005dd0       ??0CFileLogger@@QEAA@PEBDZZ 0000000140006dd0 f   FileLogger.obj
 0001:00005e80       ?NextAction@CAction@@QEAAXXZ 0000000140006e80 f   Action.obj
 0001:00005ea0       ?OnEvent@CTransAction@@UEAAX_J0000@Z 0000000140006ea0 f i ActionMgr.obj
 0001:00005ed0       ?GetActionName@CTransAction@@UEBAPEBDXZ 0000000140006ed0 f i ActionMgr.obj
 0001:00005ee0       ?GetWaitMilliSec@CAutoCombatAction@@UEAAHXZ 0000000140006ee0 f i ActionMgr.obj
 0001:00005ee0       ?GetWaitMilliSec@CTransAction@@UEAAHXZ 0000000140006ee0 f i ActionMgr.obj
 0001:00005ef0       ?getCount@?$Counter@VEntityHandle@@@@SA_KXZ 0000000140006ef0 f i ActionMgr.obj
 0001:00005f00       ?Start@CActionMgr@@QEAAXXZ 0000000140006f00 f   ActionMgr.obj
 0001:00005f40       ?Next@CActionMgr@@QEAAXXZ  0000000140006f40 f   ActionMgr.obj
 0001:00005f80       ?Update@CActionMgr@@QEAAX_J@Z 0000000140006f80 f   ActionMgr.obj
 0001:00005fc0       ?OnEvent@CActionMgr@@QEAAX_J0000@Z 0000000140006fc0 f   ActionMgr.obj
 0001:00006000       ??1?$CBaseList@PEAVCAction@@@container@wylib@@UEAA@XZ 0000000140007000 f i ActionMgr.obj
 0001:00006040       ??_E?$CBaseList@PEAVCAction@@@container@wylib@@UEAAPEAXI@Z 0000000140007040 f i ActionMgr.obj
 0001:00006040       ??_G?$CBaseList@PEAVCAction@@@container@wylib@@UEAAPEAXI@Z 0000000140007040 f i ActionMgr.obj
 0001:000060a0       ?addToStat@?$Counter@VEntityHandle@@@@IEAAXXZ 00000001400070a0 f i ActionMgr.obj
 0001:00006160       ??1CActionMgr@@QEAA@XZ     0000000140007160 f   ActionMgr.obj
 0001:000061f0       ?GetActionName@CAutoCombatAction@@UEBAPEBDXZ 00000001400071f0 f i ActionMgr.obj
 0001:00006200       ?OnEvent@CAutoCombatAction@@UEAAX_J0000@Z 0000000140007200 f i ActionMgr.obj
 0001:00006270       ?Init@CMiscActionMgr@@UEAAXXZ 0000000140007270 f   ActionMgr.obj
 0001:00006390       ?GetDir@CAutoCombatAction@@KA_J_J000@Z 0000000140007390 f   AutoCombatAction.obj
 0001:000063f0       ?Start@CAutoCombatAction@@UEAAXXZ 00000001400073f0 f   AutoCombatAction.obj
 0001:000064a0       ??$?6E@CDataPacket@@QEAAAEAV0@E@Z 00000001400074a0 f i AutoCombatAction.obj
 0001:00006500       ?CheckDead@CAutoCombatAction@@IEAA_NXZ 0000000140007500 f   AutoCombatAction.obj
 0001:000065e0       ?ResetEnemy@CAutoCombatAction@@IEAAXXZ 00000001400075e0 f i AutoCombatAction.obj
 0001:00006620       ??0EntityHandle@@QEAA@AEBV0@@Z 0000000140007620 f i AutoCombatAction.obj
 0001:00006660       ?Move@CAutoCombatAction@@IEAAXHHHH@Z 0000000140007660 f   AutoCombatAction.obj
 0001:00006770       ?GetHandle@CClientEntity@@QEBA?AVEntityHandle@@XZ 0000000140007770 f i AutoCombatAction.obj
 0001:000067c0       ?GetEnemy@CAutoCombatAction@@IEAAXXZ 00000001400077c0 f   AutoCombatAction.obj
 0001:00006890       ?Update@CAutoCombatAction@@UEAAX_J@Z 0000000140007890 f   AutoCombatAction.obj
 0001:00006a10       ?SetDestSceneId@CTransAction@@QEAA_NHH@Z 0000000140007a10 f   TransAction.obj
 0001:00006ba0       ??$rawWriteStringLen@G@CDataPacket@@IEAAXPEBD_K@Z 0000000140007ba0 f i TransAction.obj
 0001:00006ca0       ?Start@CTransAction@@UEAAXXZ 0000000140007ca0 f   TransAction.obj
 0001:00006ef0       ??$readAtom@G@CDataPacketReader@@QEAAGXZ 0000000140007ef0 f i DbAgent.obj
 0001:00006f70       ??$readAtom@I@CDataPacketReader@@QEAAIXZ 0000000140007f70 f i DbAgent.obj
 0001:00006f70       ??$readAtom@H@CDataPacketReader@@QEAAHXZ 0000000140007f70 f i DbAgent.obj
 0001:00006ff0       ?SetServerAddress@CRobotClient@@QEAAXPEADH@Z 0000000140007ff0 f i DbAgent.obj
 0001:000070b0       ?OnEvent@CLogicAgent@@QEAAX_J0000@Z 00000001400080b0 f   LogicAgent.obj
 0001:000070e0       ?GetLoginErrorStr@CLogicAgent@@IEAAPEAD_J@Z 00000001400080e0 f   LogicAgent.obj
 0001:00007190       ?reserve@?$CBaseList@VCClientMonster@@@container@wylib@@UEAAX_J@Z 0000000140008190 f i LogicAgent.obj
 0001:000071d0       ?reserve@?$CBaseList@VCClientActor@@@container@wylib@@UEAAX_J@Z 00000001400081d0 f i LogicAgent.obj
 0001:00007210       ?reserve@?$CBaseList@UtagClientSkillData@@@container@wylib@@UEAAX_J@Z 0000000140008210 f i LogicAgent.obj
 0001:00007250       ?reserve@?$CBaseList@TItemSeries@CUserItem@@@container@wylib@@UEAAX_J@Z 0000000140008250 f i LogicAgent.obj
 0001:00007250       ?reserve@?$CBaseList@PEAVCClientFB@@@container@wylib@@UEAAX_J@Z 0000000140008250 f i RobotManager.obj
 0001:00007250       ?reserve@?$CBaseList@PEAVCAction@@@container@wylib@@UEAAX_J@Z 0000000140008250 f i ActionMgr.obj
 0001:00007290       ?appendList@?$CQueueList@PEAVCDataPacket@@@container@wylib@@QEAAXAEAV?$CBaseList@PEAVCDataPacket@@@23@@Z 0000000140008290 f i LogicAgent.obj
 0001:00007340       ?empty@?$CBaseList@UtagSceneMapPoint@@@container@wylib@@UEAAXXZ 0000000140008340 f i RobotManager.obj
 0001:00007340       ?empty@?$CBaseList@P8CConfigLoader@@EAA_NXZ@container@wylib@@UEAAXXZ 0000000140008340 f i ConfigLoader.obj
 0001:00007340       ?empty@?$CBaseList@VCRobotGroup@@@container@wylib@@UEAAXXZ 0000000140008340 f i RobotManager.obj
 0001:00007340       ?empty@?$CBaseList@VCClientActor@@@container@wylib@@UEAAXXZ 0000000140008340 f i LogicAgent.obj
 0001:00007340       ?empty@?$CBaseList@PEAVCClientFB@@@container@wylib@@UEAAXXZ 0000000140008340 f i RobotManager.obj
 0001:00007340       ?empty@?$CBaseList@UDefinition@CVSPDefinition@@@container@wylib@@UEAAXXZ 0000000140008340 f i VSPDef.obj
 0001:00007340       ?empty@?$CBaseList@TItemSeries@CUserItem@@@container@wylib@@UEAAXXZ 0000000140008340 f i LogicAgent.obj
 0001:00007340       ?empty@?$CBaseList@UtagLoginAccount@@@container@wylib@@UEAAXXZ 0000000140008340 f i RobotManager.obj
 0001:00007340       ?empty@?$CBaseList@PEAVCAction@@@container@wylib@@UEAAXXZ 0000000140008340 f i ActionMgr.obj
 0001:00007340       ?empty@?$CBaseList@UtagClientSkillData@@@container@wylib@@UEAAXXZ 0000000140008340 f i LogicAgent.obj
 0001:00007340       ?empty@?$CBaseList@VCClientMonster@@@container@wylib@@UEAAXXZ 0000000140008340 f i LogicAgent.obj
 0001:00007340       ?empty@?$CBaseList@UtagServerConfig@@@container@wylib@@UEAAXXZ 0000000140008340 f i RobotManager.obj
 0001:00007380       ??_E?$CBaseList@VCClientMonster@@@container@wylib@@UEAAPEAXI@Z 0000000140008380 f i LogicAgent.obj
 0001:00007380       ??_G?$CBaseList@VCClientMonster@@@container@wylib@@UEAAPEAXI@Z 0000000140008380 f i LogicAgent.obj
 0001:000073e0       ??_G?$CBaseList@VCClientActor@@@container@wylib@@UEAAPEAXI@Z 00000001400083e0 f i LogicAgent.obj
 0001:000073e0       ??_E?$CBaseList@VCClientActor@@@container@wylib@@UEAAPEAXI@Z 00000001400083e0 f i LogicAgent.obj
 0001:00007440       ??_G?$CBaseList@UtagClientSkillData@@@container@wylib@@UEAAPEAXI@Z 0000000140008440 f i LogicAgent.obj
 0001:00007440       ??_E?$CBaseList@UtagClientSkillData@@@container@wylib@@UEAAPEAXI@Z 0000000140008440 f i LogicAgent.obj
 0001:000074a0       ??_G?$CBaseList@TItemSeries@CUserItem@@@container@wylib@@UEAAPEAXI@Z 00000001400084a0 f i LogicAgent.obj
 0001:000074a0       ??_E?$CBaseList@TItemSeries@CUserItem@@@container@wylib@@UEAAPEAXI@Z 00000001400084a0 f i LogicAgent.obj
 0001:00007500       ??1CDefaultSystem@@QEAA@XZ 0000000140008500 f i LogicAgent.obj
 0001:00007570       ??1CSkillSystem@@QEAA@XZ   0000000140008570 f i LogicAgent.obj
 0001:000075c0       ??1CItemSystem@@QEAA@XZ    00000001400085c0 f i LogicAgent.obj
 0001:00007610       ?SendLogin@CLogicAgent@@IEAAXXZ 0000000140008610 f   LogicAgent.obj
 0001:000077c0       ?SendCreateActor@CLogicAgent@@IEAAXXZ 00000001400087c0 f   LogicAgent.obj
 0001:000078f0       ?SelActorEnterGame@CLogicAgent@@IEAAXIPEAD@Z 00000001400088f0 f   LogicAgent.obj
 0001:00007a60       ?RandActorName@CLogicAgent@@IEAAXXZ 0000000140008a60 f   LogicAgent.obj
 0001:00007b60       ?CreateActor@CLogicAgent@@IEAAXPEADHHH@Z 0000000140008b60 f   LogicAgent.obj
 0001:00007d20       ?OnRecvLoginMsg@CLogicAgent@@IEAAXEAEAVCDataPacketReader@@@Z 0000000140008d20 f   LogicAgent.obj
 0001:00008040       ??0CMiscActionMgr@@QEAA@XZ 0000000140009040 f i LogicAgent.obj
 0001:000080b0       ?OnConnected@CLogicAgent@@UEAAXXZ 00000001400090b0 f   LogicAgent.obj
 0001:000080d0       ?OnDisConnected@CLogicAgent@@UEAAXXZ 00000001400090d0 f   LogicAgent.obj
 0001:00008120       ?DispatchMsg@CLogicAgent@@IEAAXEEAEAVCDataPacketReader@@@Z 0000000140009120 f   LogicAgent.obj
 0001:000081e0       ??1?$CSwapQueue@PEAVCDataPacket@@@@UEAA@XZ 00000001400091e0 f i LogicAgent.obj
 0001:00008210       ??1CLogicAgent@@UEAA@XZ    0000000140009210 f   LogicAgent.obj
 0001:00008330       ?Init@CLogicAgent@@UEAAXPEAVCRobotClient@@@Z 0000000140009330 f i LogicAgent.obj
 0001:00008360       ?ProcessNetMsg@CLogicAgent@@IEAA_NXZ 0000000140009360 f   LogicAgent.obj
 0001:00008560       ?AllocPacket@CLogicAgent@@IEAAPEAVCDataPacket@@XZ 0000000140009560 f   LogicAgent.obj
 0001:00008700       ??0?$CSwapQueue@PEAVCDataPacket@@@@QEAA@XZ 0000000140009700 f i LogicAgent.obj
 0001:00008770       ??_E?$CSwapQueue@PEAVCDataPacket@@@@UEAAPEAXI@Z 0000000140009770 f i LogicAgent.obj
 0001:00008770       ??_G?$CSwapQueue@PEAVCDataPacket@@@@UEAAPEAXI@Z 0000000140009770 f i LogicAgent.obj
 0001:000087c0       ??0CLogicAgent@@QEAA@XZ    00000001400097c0 f   LogicAgent.obj
 0001:00008920       ??_ECLogicAgent@@UEAAPEAXI@Z 0000000140009920 f i LogicAgent.obj
 0001:00008920       ??_GCLogicAgent@@UEAAPEAXI@Z 0000000140009920 f i LogicAgent.obj
 0001:00008950       ?OnTimeRun@CLogicAgent@@UEAAX_J@Z 0000000140009950 f   LogicAgent.obj
 0001:000089d0       ?OnRecv@CLogicAgent@@UEAAXAEAVCDataPacketReader@@@Z 00000001400099d0 f   LogicAgent.obj
 0001:00008b00       ?LoadAllConfig@CConfigLoader@@QEAA_NXZ 0000000140009b00 f   ConfigLoader.obj
 0001:00008b90       ?LoadSceneConfig@CConfigLoader@@IEAA_NPEBD@Z 0000000140009b90 f   ConfigLoader.obj
 0001:00008ba0       ?ReadChatConfig@CConfigLoader@@IEAA_NXZ 0000000140009ba0 f   ConfigLoader.obj
 0001:00008c20       ?LoadQuestConfig@CConfigLoader@@IEAA_NPEBD@Z 0000000140009c20 f   ConfigLoader.obj
 0001:00008c30       ?LoadMonsterConfig@CConfigLoader@@QEAA_NPEBD@Z 0000000140009c30 f   ConfigLoader.obj
 0001:00008c40       ??1bad_alloc@std@@UEAA@XZ  0000000140009c40 f i ConfigLoader.obj
 0001:00008c60       ??_Gbad_alloc@std@@UEAAPEAXI@Z 0000000140009c60 f i ConfigLoader.obj
 0001:00008c60       ??_Ebad_alloc@std@@UEAAPEAXI@Z 0000000140009c60 f i ConfigLoader.obj
 0001:00008ca0       ?reserve@?$CBaseList@P8CConfigLoader@@EAA_NXZ@container@wylib@@UEAAX_J@Z 0000000140009ca0 f i ConfigLoader.obj
 0001:00008ce0       ??0bad_alloc@std@@QEAA@AEBV01@@Z 0000000140009ce0 f i ConfigLoader.obj
 0001:00008d10       ?LoadFileFunc@?$CFileReader@VCConfigLoader@@@@QEAA_NPEAVCConfigLoader@@PEBDAEAV?$CBaseList@P8CConfigLoader@@EAA_NXZ@container@wylib@@@Z 0000000140009d10 f i ConfigLoader.obj
 0001:00008eb0       ?allocate@?$allocator@PEAD@std@@QEAAPEAPEAD_K@Z 0000000140009eb0 f i ConfigLoader.obj
 0001:00008f20       ??1?$CBaseList@P8CConfigLoader@@EAA_NXZ@container@wylib@@UEAA@XZ 0000000140009f20 f i ConfigLoader.obj
 0001:00008f60       ??_G?$CBaseList@P8CConfigLoader@@EAA_NXZ@container@wylib@@UEAAPEAXI@Z 0000000140009f60 f i ConfigLoader.obj
 0001:00008f60       ??_E?$CBaseList@P8CConfigLoader@@EAA_NXZ@container@wylib@@UEAAPEAXI@Z 0000000140009f60 f i ConfigLoader.obj
 0001:00008fc0       ?reserve@?$vector@PEADV?$allocator@PEAD@std@@@std@@QEAAX_K@Z 0000000140009fc0 f i ConfigLoader.obj
 0001:00009090       ?_Reserve@?$vector@PEADV?$allocator@PEAD@std@@@std@@IEAAX_K@Z 000000014000a090 f i ConfigLoader.obj
 0001:00009110       ?LoadFile@?$CFileReader@VCConfigLoader@@@@QEAA_NPEAVCConfigLoader@@PEBDP82@EAA_NXZ222@Z 000000014000a110 f i ConfigLoader.obj
 0001:00009300       ?LoadChatRobotConfig@CConfigLoader@@IEAA_NPEBD@Z 000000014000a300 f i ConfigLoader.obj
 0001:000093e0       ?clear@?$vector@PEADV?$allocator@PEAD@std@@@std@@QEAAXXZ 000000014000a3e0 f i ConfigLoader.obj
 0001:00009440       ?readLanguagePacket@CLanguageTextProvider@@AEAA_NAEAVCLangTextSection@@@Z 000000014000a440 f   LanguageTextProvider.obj
 0001:000095d0       ??1?$CObjectAllocator@D@@QEAA@XZ 000000014000a5d0 f i LanguageTextProvider.obj
 0001:00009620       ??0CLanguageTextProvider@@QEAA@XZ 000000014000a620 f   LanguageTextProvider.obj
 0001:000096c0       ??1CLanguageTextProvider@@UEAA@XZ 000000014000a6c0 f   LanguageTextProvider.obj
 0001:000097a0       ??_GCLanguageTextProvider@@UEAAPEAXI@Z 000000014000a7a0 f i LanguageTextProvider.obj
 0001:000097a0       ??_ECLanguageTextProvider@@UEAAPEAXI@Z 000000014000a7a0 f i LanguageTextProvider.obj
 0001:000097d0       ?showError@CLanguageTextProvider@@MEAAXPEBD@Z 000000014000a7d0 f   LanguageTextProvider.obj
 0001:00009940       ?LoadLangConfig@CLanguageTextProvider@@QEAA_NAEAUtagRobotConfig@@PEBD@Z 000000014000a940 f   LanguageTextProvider.obj
 0001:00009b00       ?LoadFromFile@CLanguageTextProvider@@QEAA_NPEBD@Z 000000014000ab00 f   LanguageTextProvider.obj
 0001:00009d30       ?alloc@CLogicLuaAllocator@@KAPEAXPEAX0_K1@Z 000000014000ad30 f   LogicLuaAllocator.obj
 0001:00009d40       ?createLuaVM@CLogicLuaAllocator@@SAPEAUlua_State@@XZ 000000014000ad40 f   LogicLuaAllocator.obj
 0001:00009d60       ?registLocalLibs@CCustomLogicLuaConfig@@MEAA_NXZ 000000014000ad60 f   LogicLuaAllocator.obj
 0001:00009dc0       ?createLuaVM@CCustomLogicLuaConfig@@MEAAPEAUlua_State@@XZ 000000014000adc0 f i QuestConfig.obj
 0001:00009dd0       ?GetQuestConfig@CQuestConfigLoader@@QEAAPEBUtagQuestConfig@@G@Z 000000014000add0 f   QuestConfig.obj
 0001:00009e40       ?allocate@?$allocator@UMonsterData@@@std@@QEAAPEAUMonsterData@@_K@Z 000000014000ae40 f i QuestConfig.obj
 0001:00009eb0       ?allocate@?$allocator@UtagQuestConfig@@@std@@QEAAPEAUtagQuestConfig@@_K@Z 000000014000aeb0 f i QuestConfig.obj
 0001:00009f20       ??$_Uninit_move@PEAUMonsterData@@PEAU1@V?$allocator@UMonsterData@@@std@@U1@@std@@YAPEAUMonsterData@@PEAU1@00AEAV?$allocator@UMonsterData@@@0@0U_Nonscalar_ptr_iterator_tag@0@@Z 000000014000af20 f i QuestConfig.obj
 0001:00009f80       ??$_Uninit_move@PEAUtagQuestConfig@@PEAU1@V?$allocator@UtagQuestConfig@@@std@@U1@@std@@YAPEAUtagQuestConfig@@PEAU1@00AEAV?$allocator@UtagQuestConfig@@@0@0U_Nonscalar_ptr_iterator_tag@0@@Z 000000014000af80 f i QuestConfig.obj
 0001:00009fe0       ?reserve@?$vector@UMonsterData@@V?$allocator@UMonsterData@@@std@@@std@@QEAAX_K@Z 000000014000afe0 f i QuestConfig.obj
 0001:0000a0f0       ?_Reserve@?$vector@UMonsterData@@V?$allocator@UMonsterData@@@std@@@std@@IEAAX_K@Z 000000014000b0f0 f i QuestConfig.obj
 0001:0000a1a0       ?reserve@?$vector@UtagQuestConfig@@V?$allocator@UtagQuestConfig@@@std@@@std@@QEAAX_K@Z 000000014000b1a0 f i QuestConfig.obj
 0001:0000a2c0       ?clear@?$vector@UtagQuestConfig@@V?$allocator@UtagQuestConfig@@@std@@@std@@QEAAXXZ 000000014000b2c0 f i QuestConfig.obj
 0001:0000a330       ?push_back@?$vector@UMonsterData@@V?$allocator@UMonsterData@@@std@@@std@@QEAAXAEBUMonsterData@@@Z 000000014000b330 f i QuestConfig.obj
 0001:0000a430       ?clear@?$vector@UMonsterData@@V?$allocator@UMonsterData@@@std@@@std@@QEAAXXZ 000000014000b430 f i QuestConfig.obj
 0001:0000a490       ?_Reserve@?$vector@UtagQuestConfig@@V?$allocator@UtagQuestConfig@@@std@@@std@@IEAAX_K@Z 000000014000b490 f i QuestConfig.obj
 0001:0000a540       ??0CQuestConfigLoader@@QEAA@XZ 000000014000b540 f   QuestConfig.obj
 0001:0000a5c0       ??1CQuestConfigLoader@@UEAA@XZ 000000014000b5c0 f   QuestConfig.obj
 0001:0000a680       ?ReadMonsterConfig@CQuestConfigLoader@@QEAA_NXZ 000000014000b680 f   QuestConfig.obj
 0001:0000a7a0       ?push_back@?$vector@UtagQuestConfig@@V?$allocator@UtagQuestConfig@@@std@@@std@@QEAAXAEBUtagQuestConfig@@@Z 000000014000b7a0 f i QuestConfig.obj
 0001:0000a880       ??_GCQuestConfigLoader@@UEAAPEAXI@Z 000000014000b880 f i QuestConfig.obj
 0001:0000a880       ??_ECQuestConfigLoader@@UEAAPEAXI@Z 000000014000b880 f i QuestConfig.obj
 0001:0000a8b0       ?ReadQuestConfig@CQuestConfigLoader@@QEAA_NXZ 000000014000b8b0 f   QuestConfig.obj
 0001:0000ace0       ?LoadMonsterConfig@CQuestConfigLoader@@QEAA_NPEBD@Z 000000014000bce0 f   QuestConfig.obj
 0001:0000ae60       ?LoadFile@CQuestConfigLoader@@QEAA_NPEBD@Z 000000014000be60 f   QuestConfig.obj
 0001:0000afe0       ?reserve@?$CBaseList@UDefinition@CVSPDefinition@@@container@wylib@@UEAAX_J@Z 000000014000bfe0 f i VSPDef.obj
 0001:0000b020       ?RegisteToPreprocessor@CVSPDefinition@@QEAAXAEAVCCustomLuaPreProcessor@@@Z 000000014000c020 f   VSPDef.obj
 0001:0000b0a0       ?ClearDefinitions@CVSPDefinition@@IEAAXXZ 000000014000c0a0 f   VSPDef.obj
 0001:0000b100       ?SetDefinition@CVSPDefinition@@QEAAXPEBD0@Z 000000014000c100 f   VSPDef.obj
 0001:0000b240       ??1?$CBaseList@UDefinition@CVSPDefinition@@@container@wylib@@UEAA@XZ 000000014000c240 f i VSPDef.obj
 0001:0000b280       ??_E?$CBaseList@UDefinition@CVSPDefinition@@@container@wylib@@UEAAPEAXI@Z 000000014000c280 f i VSPDef.obj
 0001:0000b280       ??_G?$CBaseList@UDefinition@CVSPDefinition@@@container@wylib@@UEAAPEAXI@Z 000000014000c280 f i VSPDef.obj
 0001:0000b2e0       ??0CVSPDefinition@@QEAA@XZ 000000014000c2e0 f   VSPDef.obj
 0001:0000b300       ??1CVSPDefinition@@QEAA@XZ 000000014000c300 f   VSPDef.obj
 0001:0000b360       ?LoadDefinitions@CVSPDefinition@@QEAA_NPEBD@Z 000000014000c360 f   VSPDef.obj
 0001:0000b500       ?SetChatDelayTime@CChatSystem@@QEAAX_J@Z 000000014000c500 f   ChatSystem.obj
 0001:0000b530       ?OnRecvData@CChatSystem@@UEAAX_JAEAVCDataPacketReader@@@Z 000000014000c530 f   ChatSystem.obj
 0001:0000b720       ?Talk@CChatSystem@@QEAAXEPEBD@Z 000000014000c720 f   ChatSystem.obj
 0001:0000b820       ?RobotRandTalk@CChatSystem@@QEAAX_J@Z 000000014000c820 f   ChatSystem.obj
 0001:0000b8e0       ?OnTimeRun@CChatSystem@@UEAAX_J@Z 000000014000c8e0 f   ChatSystem.obj
 0001:0000b8f0       ??$readAtom@E@CDataPacketReader@@QEAAEXZ 000000014000c8f0 f i DbAgent.obj
 0001:0000b8f0       ??$readAtom@_N@CDataPacketReader@@QEAA_NXZ 000000014000c8f0 f i DefaultSystem.obj
 0001:0000b8f0       ??$readAtom@D@CDataPacketReader@@QEAADXZ 000000014000c8f0 f i DbAgent.obj
 0001:0000b970       ?convertToACP@COPMToFile@@IEAA_KPEBD_KPEAD1@Z 000000014000c970 f i FileLogger.obj
 0001:0000b970       ?convertToACP@CConfigLoader@@QEAA_KPEBD_KPEAD1@Z 000000014000c970 f i DefaultSystem.obj
 0001:0000ba40       ?GetVisibleEntityByName@CDefaultSystem@@QEAAPEAVCClientMonster@@PEBD@Z 000000014000ca40 f   DefaultSystem.obj
 0001:0000bac0       ??1tagOtherActorPropData@@QEAA@XZ 000000014000cac0 f i DefaultSystem.obj
 0001:0000bac0       ??1tagNonActorPropData@@QEAA@XZ 000000014000cac0 f i DefaultSystem.obj
 0001:0000bac0       ??1CClientActor@@QEAA@XZ   000000014000cac0 f i DefaultSystem.obj
 0001:0000bac0       ??1EntityHandle@@QEAA@XZ   000000014000cac0 f i ActionMgr.obj
 0001:0000bac0       ??1CClientMonster@@QEAA@XZ 000000014000cac0 f i DefaultSystem.obj
 0001:0000bac0       ??1tagMeetingActor@@QEAA@XZ 000000014000cac0 f i DefaultSystem.obj
 0001:0000bad0       ?ProcessLoginFail@CDefaultSystem@@AEAAXAEAVCDataPacketReader@@@Z 000000014000cad0 f   DefaultSystem.obj
 0001:0000bb10       ?ProcessCommonOpResult@CDefaultSystem@@AEAAXAEAVCDataPacketReader@@@Z 000000014000cb10 f   DefaultSystem.obj
 0001:0000bba0       ?GetActorByTeam@CDefaultSystem@@QEAAPEAVCClientActor@@_N@Z 000000014000cba0 f   DefaultSystem.obj
 0001:0000bc30       ??$SetValue@H@CPropertySet@@QEAAXPEAHAEBH@Z 000000014000cc30 f i DefaultSystem.obj
 0001:0000bcd0       ?ProcessHeartBeat@CDefaultSystem@@AEAAXAEAVCDataPacketReader@@@Z 000000014000ccd0 f   DefaultSystem.obj
 0001:0000bdc0       ??0CClientActor@@QEAA@XZ   000000014000cdc0 f i DefaultSystem.obj
 0001:0000be30       ?GetPropertyPtr@CClientActor@@MEBAPEBVCPropertySet@@XZ 000000014000ce30 f i DefaultSystem.obj
 0001:0000be30       ?GetPropertyPtr@CClientMonster@@MEBAPEBVCPropertySet@@XZ 000000014000ce30 f i DefaultSystem.obj
 0001:0000be30       ?GetPropertyPtr@CClientMonster@@MEAAPEAVCPropertySet@@XZ 000000014000ce30 f i DefaultSystem.obj
 0001:0000be30       ?GetPropertyPtr@CClientActor@@MEAAPEAVCPropertySet@@XZ 000000014000ce30 f i DefaultSystem.obj
 0001:0000be40       ?GetPropertyTotalSize@CClientActor@@MEBA_JXZ 000000014000ce40 f i DefaultSystem.obj
 0001:0000be50       ?GetPropertyTotalSize@CClientMonster@@MEBA_JXZ 000000014000ce50 f i DefaultSystem.obj
 0001:0000be60       ??0tagMeetingActor@@QEAA@XZ 000000014000ce60 f i DefaultSystem.obj
 0001:0000be90       ?UpdateEntityPropImpl@CDefaultSystem@@AEAAXPEAVCClientEntity@@AEAVCDataPacketReader@@@Z 000000014000ce90 f   DefaultSystem.obj
 0001:0000c080       ?ProcessPlayerEnterScene@CDefaultSystem@@AEAAXAEAVCDataPacketReader@@@Z 000000014000d080 f   DefaultSystem.obj
 0001:0000c4a0       ?SetPosition@CDefaultSystem@@AEAAXHH@Z 000000014000d4a0 f   DefaultSystem.obj
 0001:0000c540       ??$readAtom@VEntityHandle@@@CDataPacketReader@@QEAA?AVEntityHandle@@XZ 000000014000d540 f i DefaultSystem.obj
 0001:0000c5d0       ?GetVisibleMonsterByHandle@CDefaultSystem@@AEAAPEAVCClientMonster@@VEntityHandle@@@Z 000000014000d5d0 f   DefaultSystem.obj
 0001:0000c680       ?GetVisibleActorByHandle@CDefaultSystem@@AEAAPEAVCClientActor@@VEntityHandle@@@Z 000000014000d680 f   DefaultSystem.obj
 0001:0000c730       ?ProcessResetMainActorPos@CDefaultSystem@@AEAAXAEAVCDataPacketReader@@@Z 000000014000d730 f   DefaultSystem.obj
 0001:0000c780       ?GetNearMonster@CDefaultSystem@@QEAAPEAVCClientMonster@@XZ 000000014000d780 f   DefaultSystem.obj
 0001:0000c8c0       ?GetMonsterPos@CDefaultSystem@@QEAA_NVEntityHandle@@AEAH1@Z 000000014000d8c0 f   DefaultSystem.obj
 0001:0000c970       ?Move@CDefaultSystem@@QEAAXHHHH@Z 000000014000d970 f   DefaultSystem.obj
 0001:0000cbb0       ?GetNpcHandle@CDefaultSystem@@QEAA?AVEntityHandle@@PEBD@Z 000000014000dbb0 f   DefaultSystem.obj
 0001:0000cca0       ?ProcessMainActorCreated@CDefaultSystem@@AEAAXAEAVCDataPacketReader@@@Z 000000014000dca0 f   DefaultSystem.obj
 0001:0000cee0       ?ProcessActorAppear@CDefaultSystem@@AEAAXAEAVCDataPacketReader@@@Z 000000014000dee0 f   DefaultSystem.obj
 0001:0000de30       ?ProcessNonActorAppear@CDefaultSystem@@AEAAXAEAVCDataPacketReader@@@Z 000000014000ee30 f   DefaultSystem.obj
 0001:0000ed20       ?ProcessEntityDisappear@CDefaultSystem@@AEAAXAEAVCDataPacketReader@@@Z 000000014000fd20 f   DefaultSystem.obj
 0001:0000eef0       ?ProcessOtherEntityPropChange@CDefaultSystem@@AEAAXAEAVCDataPacketReader@@@Z 000000014000fef0 f   DefaultSystem.obj
 0001:0000efd0       ?ProcessOtherEntityMove@CDefaultSystem@@AEAAXAEAVCDataPacketReader@@@Z 000000014000ffd0 f   DefaultSystem.obj
 0001:0000f2a0       ?OnRecvData@CDefaultSystem@@UEAAX_JAEAVCDataPacketReader@@@Z 00000001400102a0 f   DefaultSystem.obj
 0001:0000f3c0       ?OnRecvData@CItemSystem@@UEAAX_JAEAVCDataPacketReader@@@Z 00000001400103c0 f   ItemSystem.obj
 0001:0000f3f0       ?RequestItemList@CItemSystem@@AEAAXXZ 00000001400103f0 f   ItemSystem.obj
 0001:0000f4d0       ?ProcessInitItems@CItemSystem@@AEAAXAEAVCDataPacketReader@@@Z 00000001400104d0 f   ItemSystem.obj
 0001:0000f5b0       ?OnEnterGame@CItemSystem@@UEAAXXZ 00000001400105b0 f   ItemSystem.obj
 0001:0000f5c0       ?AddNewItem@CItemSystem@@AEAAXAEAVCDataPacketReader@@@Z 00000001400105c0 f   ItemSystem.obj
 0001:0000f6f0       ?IsInTeam@CMiscSystem@@QEAA_NPEBD@Z 00000001400106f0 f i MiscSystem.obj
 0001:0000f740       ?allocate@?$allocator@UtagMeetingActor@@@std@@QEAAPEAUtagMeetingActor@@_K@Z 0000000140010740 f i MiscSystem.obj
 0001:0000f7b0       ?OnCheckTeam@CMiscSystem@@QEAAXXZ 00000001400107b0 f   MiscSystem.obj
 0001:0000f8a0       ??0tagMeetingActor@@QEAA@AEBU0@@Z 00000001400108a0 f i MiscSystem.obj
 0001:0000f940       ??$_Move@PEAUtagMeetingActor@@PEAU1@@std@@YAPEAUtagMeetingActor@@PEAU1@00U_Nonscalar_ptr_iterator_tag@0@@Z 0000000140010940 f i MiscSystem.obj
 0001:0000f9f0       ??$_Uninit_move@PEAUtagMeetingActor@@PEAU1@V?$allocator@UtagMeetingActor@@@std@@U1@@std@@YAPEAUtagMeetingActor@@PEAU1@00AEAV?$allocator@UtagMeetingActor@@@0@0U_Nonscalar_ptr_iterator_tag@0@@Z 00000001400109f0 f i MiscSystem.obj
 0001:0000fa60       ??1?$vector@UtagMeetingActor@@V?$allocator@UtagMeetingActor@@@std@@@std@@QEAA@XZ 0000000140010a60 f i MiscSystem.obj
 0001:0000fac0       ??0CMiscSystem@@QEAA@XZ    0000000140010ac0 f   MiscSystem.obj
 0001:0000fb50       ??1CMiscSystem@@QEAA@XZ    0000000140010b50 f   MiscSystem.obj
 0001:0000fc50       ?reserve@?$vector@UtagMeetingActor@@V?$allocator@UtagMeetingActor@@@std@@@std@@QEAAX_K@Z 0000000140010c50 f i MiscSystem.obj
 0001:0000fd90       ?OnCheckFriend@CMiscSystem@@QEAAXXZ 0000000140010d90 f   MiscSystem.obj
 0001:000100e0       ?_Reserve@?$vector@UtagMeetingActor@@V?$allocator@UtagMeetingActor@@@std@@@std@@IEAAX_K@Z 00000001400110e0 f i MiscSystem.obj
 0001:00010190       ?OnTimeRun@CMiscSystem@@UEAAX_J@Z 0000000140011190 f   MiscSystem.obj
 0001:000101c0       ?push_back@?$vector@UtagMeetingActor@@V?$allocator@UtagMeetingActor@@@std@@@std@@QEAAXAEBUtagMeetingActor@@@Z 00000001400111c0 f i MiscSystem.obj
 0001:00010260       ?AddFriendMeeting@CMiscSystem@@QEAA_NAEAUtagMeetingActor@@@Z 0000000140011260 f   MiscSystem.obj
 0001:00010280       ?GoAcceptQuest@CQuestSystem@@QEAA_NG@Z 0000000140011280 f   QuestSystem.obj
 0001:00010340       ?SendQueryQuest@CQuestSystem@@QEAAXXZ 0000000140011340 f   QuestSystem.obj
 0001:000103e0       ?GetMonsterId@CConfigLoader@@QEAAHPEBD@Z 00000001400113e0 f i QuestSystem.obj
 0001:00010440       ??$writeAtom@VEntityHandle@@@CDataPacket@@QEAAXVEntityHandle@@@Z 0000000140011440 f i QuestSystem.obj
 0001:000104c0       ??$?6VEntityHandle@@@CDataPacket@@QEAAAEAV0@VEntityHandle@@@Z 00000001400114c0 f i QuestSystem.obj
 0001:00010520       ??0CQuestSystem@@QEAA@XZ   0000000140011520 f   QuestSystem.obj
 0001:00010580       ??1CQuestSystem@@QEAA@XZ   0000000140011580 f   QuestSystem.obj
 0001:00010610       ?CheckFinishQuest@CQuestSystem@@QEAA_NXZ 0000000140011610 f   QuestSystem.obj
 0001:00010b60       ?CallNpcFunc@CQuestSystem@@QEAA_NVEntityHandle@@PEBD@Z 0000000140011b60 f   QuestSystem.obj
 0001:00010c80       ?CheckAcceptQuest@CQuestSystem@@QEAA_NXZ 0000000140011c80 f   QuestSystem.obj
 0001:00010df0       ?OnTimeRun@CQuestSystem@@UEAAX_J@Z 0000000140011df0 f   QuestSystem.obj
 0001:00010e50       ?OnRecvData@CSkillSystem@@UEAAX_JAEAVCDataPacketReader@@@Z 0000000140011e50 f   SkillSystem.obj
 0001:00010e80       ?ProcessRcvInitSkillList@CSkillSystem@@IEAAXAEAVCDataPacketReader@@@Z 0000000140011e80 f   SkillSystem.obj
 0001:00010f50       ?RequestSkillList@CSkillSystem@@IEAAXXZ 0000000140011f50 f   SkillSystem.obj
 0001:00010ff0       ?OnEnterGame@CSkillSystem@@UEAAXXZ 0000000140011ff0 f   SkillSystem.obj
 0001:00011000       ?NearAttack@CSkillSystem@@QEAAXVEntityHandle@@@Z 0000000140012000 f   SkillSystem.obj
 0001:00011180       ??1CRobotConfig@@UEAA@XZ   0000000140012180 f i main.obj
 0001:00011180       ??1CCustomLogicLuaConfig@@UEAA@XZ 0000000140012180 f i QuestConfig.obj
 0001:00011190       ??_GCRobotConfig@@UEAAPEAXI@Z 0000000140012190 f i main.obj
 0001:00011190       ??_ECRobotConfig@@UEAAPEAXI@Z 0000000140012190 f i main.obj
 0001:000111c0       ??$sprintf_s@$0CA@@@YAHAEAY0CA@DPEBDZZ 00000001400121c0 f i main.obj
 0001:000111f0       ?SetupRobotManagerConfig@@YAHPEAVCRobotManager@@PEBD@Z 00000001400121f0 f   main.obj
 0001:00011260       ?ServerMain@@YAXHPEAPEAD@Z 0000000140012260 f   main.obj
 0001:00011670       main                       0000000140012670 f   main.obj
 0001:00011710       ?GetCurrentAgent@CRobotClient@@AEAAPEAVCAgent@@XZ 0000000140012710 f   RobotClient.obj
 0001:00011730       ?DispatchInternalMessage@CRobotClient@@UEAAXI_K000@Z 0000000140012730 f   RobotClient.obj
 0001:00011760       ?SingleRun@CRobotClient@@UEAAXXZ 0000000140012760 f   RobotClient.obj
 0001:00011770       ?OnError@CRobotClient@@UEAAXH@Z 0000000140012770 f   RobotClient.obj
 0001:000117b0       ?OnDisconnected@CRobotClient@@UEAAXXZ 00000001400127b0 f   RobotClient.obj
 0001:00011820       ?OnRun@CRobotClient@@UEAAXXZ 0000000140012820 f   RobotClient.obj
 0001:00011870       ?ConnectToServer@CRobotClient@@QEAAHXZ 0000000140012870 f   RobotClient.obj
 0001:00011a00       ?ConnectNextServer@CRobotClient@@QEAAXXZ 0000000140012a00 f   RobotClient.obj
 0001:00011a30       ?AllocProtoPacket@CRobotClient@@QEAAAEAVCDataPacket@@XZ 0000000140012a30 f   RobotClient.obj
 0001:00011ad0       ?ProcessRecvBuffers@CRobotClient@@UEAAXPEAUtagDataBuffer@@@Z 0000000140012ad0 f   RobotClient.obj
 0001:00011cf0       ?OnConnected@CRobotClient@@UEAAXXZ 0000000140012cf0 f   RobotClient.obj
 0001:00011dd0       ?FlushProtoPacket@CRobotClient@@QEAAXAEAVCDataPacket@@@Z 0000000140012dd0 f   RobotClient.obj
 0001:00011e20       ?MoveBySceneName@CRobotClient@@QEAA_NPEBDHH@Z 0000000140012e20 f   RobotClient.obj
 0001:00011f80       ?MoveBySceneId@CRobotClient@@QEAA_NHHH@Z 0000000140012f80 f   RobotClient.obj
 0001:00011ff0       ?readMapPoints@CRobotConfig@@IEAA_NPEAVCRobotManager@@@Z 0000000140012ff0 f   RobotConfig.obj
 0001:00012170       ?readConfig@CRobotConfig@@IEAA_NPEAVCRobotManager@@@Z 0000000140013170 f   RobotConfig.obj
 0001:000125e0       ?loadConfig@CRobotConfig@@QEAA_NPEAVCRobotManager@@PEBD@Z 00000001400135e0 f   RobotConfig.obj
 0001:000126a0       ?showError@CRobotConfig@@MEAAXPEBD@Z 00000001400136a0 f   RobotConfig.obj
 0001:00012810       ?Stop@CRobotGroup@@QEAAXXZ 0000000140013810 f   RobotGroup.obj
 0001:00012840       ?SetTimeRand@CRobotGroup@@QEAAXXZ 0000000140013840 f   RobotGroup.obj
 0001:00012910       ??1CRobotClient@@UEAA@XZ   0000000140013910 f i RobotGroup.obj
 0001:00012950       ??_ECRobotClient@@UEAAPEAXI@Z 0000000140013950 f i RobotGroup.obj
 0001:000129e0       ?ThreadRun@CRobotGroup@@SAXPEAV1@@Z 00000001400139e0 f   RobotGroup.obj
 0001:00012a90       ?Start@CRobotGroup@@QEAA_NXZ 0000000140013a90 f   RobotGroup.obj
 0001:00012b10       ??0CRobotClient@@QEAA@XZ   0000000140013b10 f i RobotGroup.obj
 0001:00012bc0       ?Init@CRobotGroup@@QEAA_NHH@Z 0000000140013bc0 f   RobotGroup.obj
 0001:00012e10       ??1CSceneMap@@QEAA@XZ      0000000140013e10 f i RobotManager.obj
 0001:00012e20       ?LoadConfig@CRobotManager@@AEAA_NXZ 0000000140013e20 f   RobotManager.obj
 0001:00012e90       ??1CRobotGroup@@QEAA@XZ    0000000140013e90 f i RobotManager.obj
 0001:00012ec0       ?reserve@?$CBaseList@VCRobotGroup@@@container@wylib@@UEAAX_J@Z 0000000140013ec0 f i RobotManager.obj
 0001:00012ec0       ?reserve@?$CBaseList@UtagServerConfig@@@container@wylib@@UEAAX_J@Z 0000000140013ec0 f i RobotManager.obj
 0001:00012f00       ?reserve@?$CBaseList@UtagLoginAccount@@@container@wylib@@UEAAX_J@Z 0000000140013f00 f i RobotManager.obj
 0001:00012f40       ?reserve@?$CBaseList@UtagSceneMapPoint@@@container@wylib@@UEAAX_J@Z 0000000140013f40 f i RobotManager.obj
 0001:00012f80       ?Startup@CRobotManager@@QEAAHXZ 0000000140013f80 f   RobotManager.obj
 0001:00013160       ?Shutdown@CRobotManager@@QEAAXXZ 0000000140014160 f   RobotManager.obj
 0001:000131d0       ?GetServerPtr@CRobotManager@@QEAAPEAUtagServerConfig@@XZ 00000001400141d0 f   RobotManager.obj
 0001:00013230       ?ShowServerAgentCount@CRobotManager@@QEAAXXZ 0000000140014230 f   RobotManager.obj
 0001:00013450       ?RobotTalk@CRobotManager@@QEAAXPEBD0@Z 0000000140014450 f   RobotManager.obj
 0001:00013550       ?GetRandomSceneId@CRobotManager@@QEAAHAEAH@Z 0000000140014550 f   RobotManager.obj
 0001:000135a0       ??1?$CBaseList@PEAVCClientFB@@@container@wylib@@UEAA@XZ 00000001400145a0 f i RobotManager.obj
 0001:000135e0       ??1?$CBaseList@UtagServerConfig@@@container@wylib@@UEAA@XZ 00000001400145e0 f i RobotManager.obj
 0001:00013620       ??1?$CBaseList@UtagLoginAccount@@@container@wylib@@UEAA@XZ 0000000140014620 f i RobotManager.obj
 0001:00013660       ??1?$CBaseList@VCRobotGroup@@@container@wylib@@UEAA@XZ 0000000140014660 f i RobotManager.obj
 0001:000136a0       ??1?$CBaseList@UtagSceneMapPoint@@@container@wylib@@UEAA@XZ 00000001400146a0 f i RobotManager.obj
 0001:000136e0       ??_E?$CBaseList@PEAVCClientFB@@@container@wylib@@UEAAPEAXI@Z 00000001400146e0 f i RobotManager.obj
 0001:000136e0       ??_G?$CBaseList@PEAVCClientFB@@@container@wylib@@UEAAPEAXI@Z 00000001400146e0 f i RobotManager.obj
 0001:00013740       ??_E?$CBaseList@UtagServerConfig@@@container@wylib@@UEAAPEAXI@Z 0000000140014740 f i RobotManager.obj
 0001:00013740       ??_G?$CBaseList@UtagServerConfig@@@container@wylib@@UEAAPEAXI@Z 0000000140014740 f i RobotManager.obj
 0001:000137a0       ??_E?$CBaseList@UtagLoginAccount@@@container@wylib@@UEAAPEAXI@Z 00000001400147a0 f i RobotManager.obj
 0001:000137a0       ??_G?$CBaseList@UtagLoginAccount@@@container@wylib@@UEAAPEAXI@Z 00000001400147a0 f i RobotManager.obj
 0001:00013800       ??_G?$CBaseList@VCRobotGroup@@@container@wylib@@UEAAPEAXI@Z 0000000140014800 f i RobotManager.obj
 0001:00013800       ??_E?$CBaseList@VCRobotGroup@@@container@wylib@@UEAAPEAXI@Z 0000000140014800 f i RobotManager.obj
 0001:00013860       ??_G?$CBaseList@UtagSceneMapPoint@@@container@wylib@@UEAAPEAXI@Z 0000000140014860 f i RobotManager.obj
 0001:00013860       ??_E?$CBaseList@UtagSceneMapPoint@@@container@wylib@@UEAAPEAXI@Z 0000000140014860 f i RobotManager.obj
 0001:000138c0       ??1CSceneConfigLoader@@UEAA@XZ 00000001400148c0 f i RobotManager.obj
 0001:000139a0       ??1tagRobotConfig@@QEAA@XZ 00000001400149a0 f i RobotManager.obj
 0001:000139a0       ??1?$vector@UtagQuestConfig@@V?$allocator@UtagQuestConfig@@@std@@@std@@QEAA@XZ 00000001400149a0 f i QuestConfig.obj
 0001:000139a0       ??1?$vector@GV?$allocator@G@std@@@std@@QEAA@XZ 00000001400149a0 f i QuestSystem.obj
 0001:000139d0       ??0CConfigLoader@@QEAA@XZ  00000001400149d0 f i RobotManager.obj
 0001:00013a50       ??1CConfigLoader@@UEAA@XZ  0000000140014a50 f i RobotManager.obj
 0001:00013b20       ??_GCConfigLoader@@UEAAPEAXI@Z 0000000140014b20 f i RobotManager.obj
 0001:00013b20       ??_ECConfigLoader@@UEAAPEAXI@Z 0000000140014b20 f i RobotManager.obj
 0001:00013b50       ??1CRobotManager@@QEAA@XZ  0000000140014b50 f   RobotManager.obj
 0001:00013c90       ??0CRobotManager@@QEAA@XZ  0000000140014c90 f   RobotManager.obj
 0001:00013d40       ??0CSceneMap@@QEAA@XZ      0000000140014d40 f i SceneConfigLoader.obj
 0001:00013d60       ?LoadAreaCenterConfig@CSceneConfigLoader@@IEAA_NPEAUtagSceneConfig@@PEAUtagSceneArea@@@Z 0000000140014d60 f   SceneConfigLoader.obj
 0001:00013e40       ?LoadAreaRangeConfig@CSceneConfigLoader@@IEAA_NPEAUtagSceneConfig@@PEAUtagSceneArea@@@Z 0000000140014e40 f   SceneConfigLoader.obj
 0001:00013f80       ?GetSceneConfig@CSceneConfigLoader@@QEAAPEAUtagSceneConfig@@H@Z 0000000140014f80 f   SceneConfigLoader.obj
 0001:00013fe0       ?GetQuestNpcPos@CSceneConfigLoader@@QEAAHPEBD0AEAH1@Z 0000000140014fe0 f   SceneConfigLoader.obj
 0001:00014110       ?LoadTelePortConfig@CSceneConfigLoader@@IEAA_NPEAUtagSceneConfig@@@Z 0000000140015110 f   SceneConfigLoader.obj
 0001:00014290       ?LoadRefreshConfig@CSceneConfigLoader@@IEAA_NPEAUtagSceneConfig@@@Z 0000000140015290 f   SceneConfigLoader.obj
 0001:00014530       ?IsTeleport@CSceneConfigLoader@@QEAA_NHHH@Z 0000000140015530 f   SceneConfigLoader.obj
 0001:000145e0       ?CanMove@CSceneConfigLoader@@QEAA_NHHH@Z 00000001400155e0 f   SceneConfigLoader.obj
 0001:00014630       ?LoadNpcConfig@CSceneConfigLoader@@IEAA_NPEAUtagSceneConfig@@@Z 0000000140015630 f   SceneConfigLoader.obj
 0001:00014920       ?GetMonsterPos@CSceneConfigLoader@@QEAA_NHHAEAH0@Z 0000000140015920 f   SceneConfigLoader.obj
 0001:000149d0       ?LoadAreasConfig@CSceneConfigLoader@@IEAA_NPEAUtagSceneConfig@@@Z 00000001400159d0 f   SceneConfigLoader.obj
 0001:00014b90       ?LoadSceneMap@CSceneConfigLoader@@IEAA_NXZ 0000000140015b90 f   SceneConfigLoader.obj
 0001:00014ce0       ??0CSceneConfigLoader@@QEAA@XZ 0000000140015ce0 f   SceneConfigLoader.obj
 0001:00014da0       ?ReadConfig@CSceneConfigLoader@@IEAA_NXZ 0000000140015da0 f   SceneConfigLoader.obj
 0001:000150b0       ??_GCSceneConfigLoader@@UEAAPEAXI@Z 00000001400160b0 f i SceneConfigLoader.obj
 0001:000150b0       ??_ECSceneConfigLoader@@UEAAPEAXI@Z 00000001400160b0 f i SceneConfigLoader.obj
 0001:000150e0       ?Load@CSceneConfigLoader@@QEAA_NXZ 00000001400160e0 f   SceneConfigLoader.obj
 0001:00015280       ?showError@CSceneConfigLoader@@MEAAXPEBD@Z 0000000140016280 f   SceneConfigLoader.obj
 0001:000153e8       gethostbyname              00000001400163e8 f   Ws2_32:WS2_32.dll
 0001:000153ee       inet_ntoa                  00000001400163ee f   Ws2_32:WS2_32.dll
 0001:000154b0       lua_checkstack             00000001400164b0 f   lua-5.1_x64:lapi.obj
 0001:00015550       lua_xmove                  0000000140016550 f   lua-5.1_x64:lapi.obj
 0001:000155b0       lua_setlevel               00000001400165b0 f   lua-5.1_x64:lapi.obj
 0001:000155c0       lua_atpanic                00000001400165c0 f   lua-5.1_x64:lapi.obj
 0001:000155e0       lua_newthread              00000001400165e0 f   lua-5.1_x64:lapi.obj
 0001:00015620       lua_gettop                 0000000140016620 f   lua-5.1_x64:lapi.obj
 0001:00015630       lua_settop                 0000000140016630 f   lua-5.1_x64:lapi.obj
 0001:00015690       lua_remove                 0000000140016690 f   lua-5.1_x64:lapi.obj
 0001:000156e0       lua_insert                 00000001400166e0 f   lua-5.1_x64:lapi.obj
 0001:00015740       lua_replace                0000000140016740 f   lua-5.1_x64:lapi.obj
 0001:00015810       lua_pushvalue              0000000140016810 f   lua-5.1_x64:lapi.obj
 0001:00015840       lua_type                   0000000140016840 f   lua-5.1_x64:lapi.obj
 0001:00015870       lua_typename               0000000140016870 f   lua-5.1_x64:lapi.obj
 0001:00015890       lua_iscfunction            0000000140016890 f   lua-5.1_x64:lapi.obj
 0001:000158c0       lua_isnumber               00000001400168c0 f   lua-5.1_x64:lapi.obj
 0001:000158f0       lua_isstring               00000001400168f0 f   lua-5.1_x64:lapi.obj
 0001:00015930       lua_rawequal               0000000140016930 f   lua-5.1_x64:lapi.obj
 0001:00015980       lua_lessthan               0000000140016980 f   lua-5.1_x64:lapi.obj
 0001:000159d0       lua_tonumber               00000001400169d0 f   lua-5.1_x64:lapi.obj
 0001:00015a10       lua_tointeger              0000000140016a10 f   lua-5.1_x64:lapi.obj
 0001:00015a40       lua_toboolean              0000000140016a40 f   lua-5.1_x64:lapi.obj
 0001:00015a70       lua_tolstring              0000000140016a70 f   lua-5.1_x64:lapi.obj
 0001:00015b10       lua_objlen                 0000000140016b10 f   lua-5.1_x64:lapi.obj
 0001:00015b90       lua_touserdata             0000000140016b90 f   lua-5.1_x64:lapi.obj
 0001:00015bd0       lua_tothread               0000000140016bd0 f   lua-5.1_x64:lapi.obj
 0001:00015bf0       lua_topointer              0000000140016bf0 f   lua-5.1_x64:lapi.obj
 0001:00015c60       lua_pushnil                0000000140016c60 f   lua-5.1_x64:lapi.obj
 0001:00015c80       lua_pushnumber             0000000140016c80 f   lua-5.1_x64:lapi.obj
 0001:00015ca0       lua_pushinteger            0000000140016ca0 f   lua-5.1_x64:lapi.obj
 0001:00015cc0       lua_pushlstring            0000000140016cc0 f   lua-5.1_x64:lapi.obj
 0001:00015d30       lua_pushstring             0000000140016d30 f   lua-5.1_x64:lapi.obj
 0001:00015d80       lua_pushvfstring           0000000140016d80 f   lua-5.1_x64:lapi.obj
 0001:00015dd0       lua_pushfstring            0000000140016dd0 f   lua-5.1_x64:lapi.obj
 0001:00015e20       lua_pushcclosure           0000000140016e20 f   lua-5.1_x64:lapi.obj
 0001:00015ee0       lua_pushboolean            0000000140016ee0 f   lua-5.1_x64:lapi.obj
 0001:00015f00       lua_pushthread             0000000140016f00 f   lua-5.1_x64:lapi.obj
 0001:00015f30       lua_gettable               0000000140016f30 f   lua-5.1_x64:lapi.obj
 0001:00015f60       lua_getfield               0000000140016f60 f   lua-5.1_x64:lapi.obj
 0001:00015fd0       lua_rawget                 0000000140016fd0 f   lua-5.1_x64:lapi.obj
 0001:00016010       lua_rawgeti                0000000140017010 f   lua-5.1_x64:lapi.obj
 0001:00016050       lua_createtable            0000000140017050 f   lua-5.1_x64:lapi.obj
 0001:000160c0       lua_getmetatable           00000001400170c0 f   lua-5.1_x64:lapi.obj
 0001:00016120       lua_getfenv                0000000140017120 f   lua-5.1_x64:lapi.obj
 0001:000161a0       lua_settable               00000001400171a0 f   lua-5.1_x64:lapi.obj
 0001:000161d0       lua_setfield               00000001400171d0 f   lua-5.1_x64:lapi.obj
 0001:00016250       lua_rawset                 0000000140017250 f   lua-5.1_x64:lapi.obj
 0001:000162d0       lua_rawseti                00000001400172d0 f   lua-5.1_x64:lapi.obj
 0001:00016350       lua_setmetatable           0000000140017350 f   lua-5.1_x64:lapi.obj
 0001:00016410       lua_setfenv                0000000140017410 f   lua-5.1_x64:lapi.obj
 0001:000164b0       lua_call                   00000001400174b0 f   lua-5.1_x64:lapi.obj
 0001:00016510       lua_pcall                  0000000140017510 f   lua-5.1_x64:lapi.obj
 0001:00016630       lua_cpcall                 0000000140017630 f   lua-5.1_x64:lapi.obj
 0001:00016670       lua_load                   0000000140017670 f   lua-5.1_x64:lapi.obj
 0001:000166c0       lua_dump                   00000001400176c0 f   lua-5.1_x64:lapi.obj
 0001:00016710       lua_status                 0000000140017710 f   lua-5.1_x64:lapi.obj
 0001:00016720       lua_gc                     0000000140017720 f   lua-5.1_x64:lapi.obj
 0001:000168c0       lua_error                  00000001400178c0 f   lua-5.1_x64:lapi.obj
 0001:000168d0       lua_next                   00000001400178d0 f   lua-5.1_x64:lapi.obj
 0001:00016910       lua_concat                 0000000140017910 f   lua-5.1_x64:lapi.obj
 0001:000169a0       lua_newuserdata            00000001400179a0 f   lua-5.1_x64:lapi.obj
 0001:00016a10       luaL_where                 0000000140017a10 f   lua-5.1_x64:lauxlib.obj
 0001:00016a80       luaL_error                 0000000140017a80 f   lua-5.1_x64:lauxlib.obj
 0001:00016b30       luaL_checkstack            0000000140017b30 f   lua-5.1_x64:lauxlib.obj
 0001:00016b70       luaL_getmetafield          0000000140017b70 f   lua-5.1_x64:lauxlib.obj
 0001:00016bf0       luaL_callmeta              0000000140017bf0 f   lua-5.1_x64:lauxlib.obj
 0001:00016c70       luaL_findtable             0000000140017c70 f   lua-5.1_x64:lauxlib.obj
 0001:00016e50       luaL_prepbuffer            0000000140017e50 f   lua-5.1_x64:lauxlib.obj
 0001:00016eb0       luaL_addlstring            0000000140017eb0 f   lua-5.1_x64:lauxlib.obj
 0001:00016f50       luaL_pushresult            0000000140017f50 f   lua-5.1_x64:lauxlib.obj
 0001:00016fa0       luaL_addvalue              0000000140017fa0 f   lua-5.1_x64:lauxlib.obj
 0001:00017060       luaL_buffinit              0000000140018060 f   lua-5.1_x64:lauxlib.obj
 0001:00017190       luaL_loadfile              0000000140018190 f   lua-5.1_x64:lauxlib.obj
 0001:000173d0       luaL_loadbuffer            00000001400183d0 f   lua-5.1_x64:lauxlib.obj
 0001:00017400       luaL_loadstring            0000000140018400 f   lua-5.1_x64:lauxlib.obj
 0001:000174c0       luaL_newstate              00000001400184c0 f   lua-5.1_x64:lauxlib.obj
 0001:00017500       luaL_argerror              0000000140018500 f   lua-5.1_x64:lauxlib.obj
 0001:00017660       luaL_checktype             0000000140018660 f   lua-5.1_x64:lauxlib.obj
 0001:000176a0       luaL_checkany              00000001400186a0 f   lua-5.1_x64:lauxlib.obj
 0001:000176e0       luaL_checklstring          00000001400186e0 f   lua-5.1_x64:lauxlib.obj
 0001:00017770       luaL_optlstring            0000000140018770 f   lua-5.1_x64:lauxlib.obj
 0001:000177f0       luaL_checknumber           00000001400187f0 f   lua-5.1_x64:lauxlib.obj
 0001:00017860       luaL_checkinteger          0000000140018860 f   lua-5.1_x64:lauxlib.obj
 0001:000178b0       luaL_optinteger            00000001400188b0 f   lua-5.1_x64:lauxlib.obj
 0001:00017920       luaL_openlib               0000000140018920 f   lua-5.1_x64:lauxlib.obj
 0001:00017aa0       luaL_checkoption           0000000140018aa0 f   lua-5.1_x64:lauxlib.obj
 0001:00017b60       luaL_register              0000000140018b60 f   lua-5.1_x64:lauxlib.obj
 0001:00017d80       luaE_newthread             0000000140018d80 f   lua-5.1_x64:lstate.obj
 0001:00017e50       luaE_freethread            0000000140018e50 f   lua-5.1_x64:lstate.obj
 0001:00017ec0       lua_newstate               0000000140018ec0 f   lua-5.1_x64:lstate.obj
 0001:00018080       lua_close                  0000000140019080 f   lua-5.1_x64:lstate.obj
 0001:00018100       luaO_int2fb                0000000140019100 f   lua-5.1_x64:lobject.obj
 0001:00018130       luaO_fb2int                0000000140019130 f   lua-5.1_x64:lobject.obj
 0001:00018150       luaO_log2                  0000000140019150 f   lua-5.1_x64:lobject.obj
 0001:00018180       luaO_rawequalObj           0000000140019180 f   lua-5.1_x64:lobject.obj
 0001:000181f0       luaO_str2d                 00000001400191f0 f   lua-5.1_x64:lobject.obj
 0001:00018330       luaO_pushvfstring          0000000140019330 f   lua-5.1_x64:lobject.obj
 0001:000186a0       luaO_pushfstring           00000001400196a0 f   lua-5.1_x64:lobject.obj
 0001:000186d0       luaO_chunkid               00000001400196d0 f   lua-5.1_x64:lobject.obj
 0001:00018830       luaD_seterrorobj           0000000140019830 f   lua-5.1_x64:ldo.obj
 0001:000188e0       luaD_rawrunprotected       00000001400198e0 f   lua-5.1_x64:ldo.obj
 0001:00018a40       luaD_reallocstack          0000000140019a40 f   lua-5.1_x64:ldo.obj
 0001:00018ad0       luaD_reallocCI             0000000140019ad0 f   lua-5.1_x64:ldo.obj
 0001:00018b80       luaD_growstack             0000000140019b80 f   lua-5.1_x64:ldo.obj
 0001:00018ba0       luaD_callhook              0000000140019ba0 f   lua-5.1_x64:ldo.obj
 0001:000190a0       luaD_poscall               000000014001a0a0 f   lua-5.1_x64:ldo.obj
 0001:000191c0       lua_yield                  000000014001a1c0 f   lua-5.1_x64:ldo.obj
 0001:000193b0       luaD_throw                 000000014001a3b0 f   lua-5.1_x64:ldo.obj
 0001:00019470       luaD_precall               000000014001a470 f   lua-5.1_x64:ldo.obj
 0001:000196c0       luaD_call                  000000014001a6c0 f   lua-5.1_x64:ldo.obj
 0001:000197f0       lua_resume                 000000014001a7f0 f   lua-5.1_x64:ldo.obj
 0001:000198b0       luaD_pcall                 000000014001a8b0 f   lua-5.1_x64:ldo.obj
 0001:000199b0       luaD_protectedparser       000000014001a9b0 f   lua-5.1_x64:ldo.obj
 0001:00019c50       luaC_separateudata         000000014001ac50 f   lua-5.1_x64:lgc.obj
 0001:0001a9a0       luaC_callGCTM              000000014001b9a0 f   lua-5.1_x64:lgc.obj
 0001:0001aae0       luaC_freeall               000000014001bae0 f   lua-5.1_x64:lgc.obj
 0001:0001b0e0       luaC_step                  000000014001c0e0 f   lua-5.1_x64:lgc.obj
 0001:0001b300       luaC_fullgc                000000014001c300 f   lua-5.1_x64:lgc.obj
 0001:0001b3b0       luaC_barrierf              000000014001c3b0 f   lua-5.1_x64:lgc.obj
 0001:0001b3e0       luaC_barrierback           000000014001c3e0 f   lua-5.1_x64:lgc.obj
 0001:0001b400       luaC_link                  000000014001c400 f   lua-5.1_x64:lgc.obj
 0001:0001b420       luaC_linkupval             000000014001c420 f   lua-5.1_x64:lgc.obj
 0001:0001b500       lua_getstack               000000014001c500 f   lua-5.1_x64:ldebug.obj
 0001:0001b6d0       luaG_checkopenop           000000014001c6d0 f   lua-5.1_x64:ldebug.obj
 0001:0001bcf0       luaG_checkcode             000000014001ccf0 f   lua-5.1_x64:ldebug.obj
 0001:0001c0c0       luaG_errormsg              000000014001d0c0 f   lua-5.1_x64:ldebug.obj
 0001:0001c170       luaG_runerror              000000014001d170 f   lua-5.1_x64:ldebug.obj
 0001:0001c350       lua_getinfo                000000014001d350 f   lua-5.1_x64:ldebug.obj
 0001:0001c440       luaG_typeerror             000000014001d440 f   lua-5.1_x64:ldebug.obj
 0001:0001c510       luaG_concaterror           000000014001d510 f   lua-5.1_x64:ldebug.obj
 0001:0001c530       luaG_aritherror            000000014001d530 f   lua-5.1_x64:ldebug.obj
 0001:0001c580       luaG_ordererror            000000014001d580 f   lua-5.1_x64:ldebug.obj
 0001:0001c5d0       luaT_init                  000000014001d5d0 f   lua-5.1_x64:ltm.obj
 0001:0001c660       luaT_gettm                 000000014001d660 f   lua-5.1_x64:ltm.obj
 0001:0001c6a0       luaT_gettmbyobj            000000014001d6a0 f   lua-5.1_x64:ltm.obj
 0001:0001c6f0       luaV_tonumber              000000014001d6f0 f   lua-5.1_x64:lvm.obj
 0001:0001c750       luaV_tostring              000000014001d750 f   lua-5.1_x64:lvm.obj
 0001:0001c9f0       luaV_gettable              000000014001d9f0 f   lua-5.1_x64:lvm.obj
 0001:0001cb80       luaV_settable              000000014001db80 f   lua-5.1_x64:lvm.obj
 0001:0001cf90       luaV_lessthan              000000014001df90 f   lua-5.1_x64:lvm.obj
 0001:0001d140       luaV_equalval              000000014001e140 f   lua-5.1_x64:lvm.obj
 0001:0001d290       luaV_concat                000000014001e290 f   lua-5.1_x64:lvm.obj
 0001:0001d730       luaV_execute               000000014001e730 f   lua-5.1_x64:lvm.obj
 0001:0001f000       luaH_next                  0000000140020000 f   lua-5.1_x64:ltable.obj
 0001:0001f290       luaH_new                   0000000140020290 f   lua-5.1_x64:ltable.obj
 0001:0001f330       luaH_free                  0000000140020330 f   lua-5.1_x64:ltable.obj
 0001:0001f3b0       luaH_getnum                00000001400203b0 f   lua-5.1_x64:ltable.obj
 0001:0001f440       luaH_getstr                0000000140020440 f   lua-5.1_x64:ltable.obj
 0001:0001f490       luaH_get                   0000000140020490 f   lua-5.1_x64:ltable.obj
 0001:0001f560       luaH_set                   0000000140020560 f   lua-5.1_x64:ltable.obj
 0001:0001f5f0       luaH_setnum                00000001400205f0 f   lua-5.1_x64:ltable.obj
 0001:0001f8a0       luaH_getn                  00000001400208a0 f   lua-5.1_x64:ltable.obj
 0001:0001fb60       luaH_resizearray           0000000140020b60 f   lua-5.1_x64:ltable.obj
 0001:0001fee0       luaH_setstr                0000000140020ee0 f   lua-5.1_x64:ltable.obj
 0001:0001ff60       luaS_resize                0000000140020f60 f   lua-5.1_x64:lstring.obj
 0001:00020050       luaS_newlstr               0000000140021050 f   lua-5.1_x64:lstring.obj
 0001:000201d0       luaS_newudata              00000001400211d0 f   lua-5.1_x64:lstring.obj
 0001:00020260       luaF_newCclosure           0000000140021260 f   lua-5.1_x64:lfunc.obj
 0001:000202d0       luaF_newLclosure           00000001400212d0 f   lua-5.1_x64:lfunc.obj
 0001:00020350       luaF_newupval              0000000140021350 f   lua-5.1_x64:lfunc.obj
 0001:000203a0       luaF_findupval             00000001400213a0 f   lua-5.1_x64:lfunc.obj
 0001:00020470       luaF_freeupval             0000000140021470 f   lua-5.1_x64:lfunc.obj
 0001:000204a0       luaF_close                 00000001400214a0 f   lua-5.1_x64:lfunc.obj
 0001:00020590       luaF_newproto              0000000140021590 f   lua-5.1_x64:lfunc.obj
 0001:00020610       luaF_freeproto             0000000140021610 f   lua-5.1_x64:lfunc.obj
 0001:000206d0       luaF_freeclosure           00000001400216d0 f   lua-5.1_x64:lfunc.obj
 0001:00020700       luaF_getlocalname          0000000140021700 f   lua-5.1_x64:lfunc.obj
 0001:00020750       luaZ_fill                  0000000140021750 f   lua-5.1_x64:lzio.obj
 0001:000207a0       luaZ_lookahead             00000001400217a0 f   lua-5.1_x64:lzio.obj
 0001:00020810       luaZ_init                  0000000140021810 f   lua-5.1_x64:lzio.obj
 0001:00020830       luaZ_read                  0000000140021830 f   lua-5.1_x64:lzio.obj
 0001:000208f0       luaZ_openspace             00000001400218f0 f   lua-5.1_x64:lzio.obj
 0001:00020f50       luaU_dump                  0000000140021f50 f   lua-5.1_x64:ldump.obj
 0001:00020fd0       luaM_toobig                0000000140021fd0 f   lua-5.1_x64:lmem.obj
 0001:00020ff0       luaM_realloc_              0000000140021ff0 f   lua-5.1_x64:lmem.obj
 0001:00021060       luaM_growaux_              0000000140022060 f   lua-5.1_x64:lmem.obj
 0001:00021200       luaX_init                  0000000140022200 f   lua-5.1_x64:llex.obj
 0001:00021270       luaX_token2str             0000000140022270 f   lua-5.1_x64:llex.obj
 0001:00021380       luaX_lexerror              0000000140022380 f   lua-5.1_x64:llex.obj
 0001:00021420       luaX_syntaxerror           0000000140022420 f   lua-5.1_x64:llex.obj
 0001:00021430       luaX_newstring             0000000140022430 f   lua-5.1_x64:llex.obj
 0001:00021550       luaX_setinput              0000000140022550 f   lua-5.1_x64:llex.obj
 0001:00022940       luaX_mergestring           0000000140023940 f   lua-5.1_x64:llex.obj
 0001:00022a00       luaX_next                  0000000140023a00 f   lua-5.1_x64:llex.obj
 0001:00022b00       luaX_lookahead             0000000140023b00 f   lua-5.1_x64:llex.obj
 0001:00026070       luaY_parser                0000000140027070 f   lua-5.1_x64:lparser.obj
 0001:00026c80       luaU_header                0000000140027c80 f   lua-5.1_x64:lundump.obj
 0001:00026d60       luaU_undump                0000000140027d60 f   lua-5.1_x64:lundump.obj
 0001:00026e50       luaK_getlabel              0000000140027e50 f   lua-5.1_x64:lcode.obj
 0001:000270a0       luaK_concat                00000001400280a0 f   lua-5.1_x64:lcode.obj
 0001:00027100       luaK_checkstack            0000000140028100 f   lua-5.1_x64:lcode.obj
 0001:00027150       luaK_reserveregs           0000000140028150 f   lua-5.1_x64:lcode.obj
 0001:000272e0       luaK_stringK               00000001400282e0 f   lua-5.1_x64:lcode.obj
 0001:00027310       luaK_numberK               0000000140028310 f   lua-5.1_x64:lcode.obj
 0001:00027340       luaK_setreturns            0000000140028340 f   lua-5.1_x64:lcode.obj
 0001:000273d0       luaK_setoneret             00000001400283d0 f   lua-5.1_x64:lcode.obj
 0001:000275e0       luaK_fixline               00000001400285e0 f   lua-5.1_x64:lcode.obj
 0001:000276f0       luaK_codeABC               00000001400286f0 f   lua-5.1_x64:lcode.obj
 0001:00027720       luaK_codeABx               0000000140028720 f   lua-5.1_x64:lcode.obj
 0001:00027740       luaK_setlist               0000000140028740 f   lua-5.1_x64:lcode.obj
 0001:000277e0       luaK_nil                   00000001400287e0 f   lua-5.1_x64:lcode.obj
 0001:00027880       luaK_jump                  0000000140028880 f   lua-5.1_x64:lcode.obj
 0001:00027920       luaK_ret                   0000000140028920 f   lua-5.1_x64:lcode.obj
 0001:00027940       luaK_patchtohere           0000000140028940 f   lua-5.1_x64:lcode.obj
 0001:000279a0       luaK_dischargevars         00000001400289a0 f   lua-5.1_x64:lcode.obj
 0001:00027e20       luaK_exp2nextreg           0000000140028e20 f   lua-5.1_x64:lcode.obj
 0001:00027eb0       luaK_exp2anyreg            0000000140028eb0 f   lua-5.1_x64:lcode.obj
 0001:00027f20       luaK_exp2val               0000000140028f20 f   lua-5.1_x64:lcode.obj
 0001:00027fa0       luaK_exp2RK                0000000140028fa0 f   lua-5.1_x64:lcode.obj
 0001:000280e0       luaK_storevar              00000001400290e0 f   lua-5.1_x64:lcode.obj
 0001:000281e0       luaK_self                  00000001400291e0 f   lua-5.1_x64:lcode.obj
 0001:000283e0       luaK_goiftrue              00000001400293e0 f   lua-5.1_x64:lcode.obj
 0001:00028700       luaK_indexed               0000000140029700 f   lua-5.1_x64:lcode.obj
 0001:00028910       luaK_prefix                0000000140029910 f   lua-5.1_x64:lcode.obj
 0001:00028a20       luaK_infix                 0000000140029a20 f   lua-5.1_x64:lcode.obj
 0001:00028a90       luaK_posfix                0000000140029a90 f   lua-5.1_x64:lcode.obj
 0001:00028d20       luaK_patchlist             0000000140029d20 f   lua-5.1_x64:lcode.obj
 0001:00028db0       ??1CCSLock@lock@sync@wylib@@UEAA@XZ 0000000140029db0 f   wylib_x64:Lock.obj
 0001:00028dd0       ?_Lock@CCSLock@lock@sync@wylib@@UEAAXPEADH@Z 0000000140029dd0 f   wylib_x64:Lock.obj
 0001:00028df0       ?TryLock@CCSLock@lock@sync@wylib@@UEAAHXZ 0000000140029df0 f   wylib_x64:Lock.obj
 0001:00028e00       ?_Unlock@CCSLock@lock@sync@wylib@@UEAAXPEADH@Z 0000000140029e00 f   wylib_x64:Lock.obj
 0001:00028e20       ??0CCSLock@lock@sync@wylib@@QEAA@XZ 0000000140029e20 f   wylib_x64:Lock.obj
 0001:00028e50       ??_GCCSLock@lock@sync@wylib@@UEAAPEAXI@Z 0000000140029e50 f i wylib_x64:Lock.obj
 0001:00028e50       ??_ECCSLock@lock@sync@wylib@@UEAAPEAXI@Z 0000000140029e50 f i wylib_x64:Lock.obj
 0001:00028e90       ??1CBaseStream@stream@wylib@@UEAA@XZ 0000000140029e90 f i wylib_x64:FileStream.obj
 0001:00028e90       ??1CHandleStream@stream@wylib@@UEAA@XZ 0000000140029e90 f i wylib_x64:FileStream.obj
 0001:00028e90       ??1CBaseZStream@zstream@wylib@@UEAA@XZ 0000000140029e90 f i wylib_x64:ZStream.obj
 0001:00028ea0       ?setSize@CBaseStream@stream@wylib@@UEAA_N_J@Z 0000000140029ea0 f i wylib_x64:FileStream.obj
 0001:00028eb0       ??1CFileStream@stream@wylib@@UEAA@XZ 0000000140029eb0 f   wylib_x64:FileStream.obj
 0001:00028f00       ?construct@CFileStream@stream@wylib@@IEAAXPEBDKK@Z 0000000140029f00 f   wylib_x64:FileStream.obj
 0001:00028fe0       ??0CFileStream@stream@wylib@@QEAA@PEBDK@Z 0000000140029fe0 f   wylib_x64:FileStream.obj
 0001:00029050       ??_ECFileStream@stream@wylib@@UEAAPEAXI@Z 000000014002a050 f i wylib_x64:FileStream.obj
 0001:00029050       ??_GCFileStream@stream@wylib@@UEAAPEAXI@Z 000000014002a050 f i wylib_x64:FileStream.obj
 0001:000290c0       ??0CFileStream@stream@wylib@@QEAA@PEBDKW4OpenDisposition@012@@Z 000000014002a0c0 f   wylib_x64:FileStream.obj
 0001:00029130       ?ThreadRoutine@CBaseThread@thread@wylib@@CAXPEAV123@@Z 000000014002a130 f   wylib_x64:Thread.obj
 0001:00029160       ?OnTimeRun@CDefaultSystem@@UEAAX_J@Z 000000014002a160 f   DefaultSystem.obj
 0001:00029160       ?DummySkillMsgHandler@CSkillSystem@@IEAAXAEAVCDataPacketReader@@@Z 000000014002a160 f   SkillSystem.obj
 0001:00029160       ?DefaultProcessHandler@CItemSystem@@AEAAXAEAVCDataPacketReader@@@Z 000000014002a160 f   ItemSystem.obj
 0001:00029160       ?DoProgress@CBaseZStream@zstream@wylib@@MEAAXXZ 000000014002a160 f   wylib_x64:ZStream.obj
 0001:00029160       ?OnDisconnected@CCustomSocket@socket@inet@wylib@@MEAAXXZ 000000014002a160 f   wylib_x64:CustomSocket.obj
 0001:00029160       ?Stop@CTransAction@@UEAAXXZ 000000014002a160 f   ActionMgr.obj
 0001:00029160       ?OnEnterGame@?$CEntitySystem@$0BK@@@UEAAXXZ 000000014002a160 f   MiscSystem.obj
 0001:00029160       ?OnConnected@CCustomSocket@socket@inet@wylib@@MEAAXXZ 000000014002a160 f   wylib_x64:CustomSocket.obj
 0001:00029160       ?OnError@CCustomSocket@socket@inet@wylib@@MEAAXH@Z 000000014002a160 f   wylib_x64:CustomSocket.obj
 0001:00029160       ?Update@CTransAction@@UEAAX_J@Z 000000014002a160 f   ActionMgr.obj
 0001:00029160       ?OnTimeRun@?$CEntitySystem@$07@@UEAAX_J@Z 000000014002a160 f   LogicAgent.obj
 0001:00029160       ?OnResume@CBaseThread@thread@wylib@@MEAAXH@Z 000000014002a160 f   wylib_x64:Thread.obj
 0001:00029160       ?Stop@CAutoCombatAction@@UEAAXXZ 000000014002a160 f   ActionMgr.obj
 0001:00029160       ?OnEnterGame@?$CEntitySystem@$08@@UEAAXXZ 000000014002a160 f   LogicAgent.obj
 0001:00029160       ?OnTimeRun@CSkillSystem@@UEAAX_J@Z 000000014002a160 f   SkillSystem.obj
 0001:00029160       ?OnRecvData@CQuestSystem@@UEAAX_JAEAVCDataPacketReader@@@Z 000000014002a160 f   QuestSystem.obj
 0001:00029160       ?OnRountine@CBaseThread@thread@wylib@@MEAAXXZ 000000014002a160 f   wylib_x64:Thread.obj
 0001:00029160       ?OnEnterGame@?$CEntitySystem@$0A@@@UEAAXXZ 000000014002a160 f   LogicAgent.obj
 0001:00029160       ?OnEnterGame@?$CEntitySystem@$05@@UEAAXXZ 000000014002a160 f   QuestSystem.obj
 0001:00029160       ?OnRecvData@?$CEntitySystem@$0BK@@@UEAAX_JAEAVCDataPacketReader@@@Z 000000014002a160 f   MiscSystem.obj
 0001:00029160       ?OnTerminated@CBaseThread@thread@wylib@@MEAAXXZ 000000014002a160 f   wylib_x64:Thread.obj
 0001:00029160       ?OnSuspend@CBaseThread@thread@wylib@@MEAAXH@Z 000000014002a160 f   wylib_x64:Thread.obj
 0001:00029170       ?resume@CBaseThread@thread@wylib@@QEAAHXZ 000000014002a170 f   wylib_x64:Thread.obj
 0001:000291c0       ?waitFor@CBaseThread@thread@wylib@@QEAAHK_N@Z 000000014002a1c0 f   wylib_x64:Thread.obj
 0001:000291d0       ?terminate@CBaseThread@thread@wylib@@QEAAXXZ 000000014002a1d0 f   wylib_x64:Thread.obj
 0001:000291e0       ??1CBaseThread@thread@wylib@@QEAA@XZ 000000014002a1e0 f   wylib_x64:Thread.obj
 0001:00029230       ??0CBaseThread@thread@wylib@@QEAA@_N@Z 000000014002a230 f   wylib_x64:Thread.obj
 0001:00029290       ??0CHandleStream@stream@wylib@@QEAA@PEAX@Z 000000014002a290 f   wylib_x64:HandleStream.obj
 0001:000292b0       ?setHandle@CHandleStream@stream@wylib@@IEAAXPEAX@Z 000000014002a2b0 f   wylib_x64:HandleStream.obj
 0001:000292c0       ?setSize@CHandleStream@stream@wylib@@UEAA_N_J@Z 000000014002a2c0 f   wylib_x64:HandleStream.obj
 0001:000292f0       ?seek@CHandleStream@stream@wylib@@UEAA_J_JH@Z 000000014002a2f0 f   wylib_x64:HandleStream.obj
 0001:00029320       ?read@CHandleStream@stream@wylib@@UEAA_JPEAX_J@Z 000000014002a320 f   wylib_x64:HandleStream.obj
 0001:00029360       ?write@CHandleStream@stream@wylib@@UEAA_JPEBX_J@Z 000000014002a360 f   wylib_x64:HandleStream.obj
 0001:000293a0       ??_ECBaseStream@stream@wylib@@UEAAPEAXI@Z 000000014002a3a0 f i wylib_x64:FileStream.obj
 0001:000293a0       ??_GCHandleStream@stream@wylib@@UEAAPEAXI@Z 000000014002a3a0 f i wylib_x64:HandleStream.obj
 0001:000293a0       ??_GCBaseStream@stream@wylib@@UEAAPEAXI@Z 000000014002a3a0 f i wylib_x64:FileStream.obj
 0001:000293a0       ??_GCBaseZStream@zstream@wylib@@UEAAPEAXI@Z 000000014002a3a0 f i wylib_x64:ZStream.obj
 0001:000293a0       ??_ECBaseZStream@zstream@wylib@@UEAAPEAXI@Z 000000014002a3a0 f i wylib_x64:ZStream.obj
 0001:000293a0       ??_ECHandleStream@stream@wylib@@UEAAPEAXI@Z 000000014002a3a0 f i wylib_x64:HandleStream.obj
 0001:000293d0       ?getSize@CBaseStream@stream@wylib@@UEAA_JXZ 000000014002a3d0 f   wylib_x64:BaseStream.obj
 0001:00029430       ?setPosition@CBaseStream@stream@wylib@@QEAA_J_J@Z 000000014002a430 f   wylib_x64:BaseStream.obj
 0001:00029440       ?copyFrom@CBaseStream@stream@wylib@@UEAA_JAEAV123@_J@Z 000000014002a440 f   wylib_x64:BaseStream.obj
 0001:00029550       ?GetTickCount64@tick64@time@wylib@@YA_JXZ 000000014002a550 f   wylib_x64:Tick.obj
 0001:000295f0       winitseed                  000000014002a5f0 f   wylib_x64:wrand.obj
 0001:00029620       wrand                      000000014002a620 f   wylib_x64:wrand.obj
 0001:000296e0       wrandvalue                 000000014002a6e0 f   wylib_x64:wrand.obj
 0001:00029780       ??0CCustomSocket@socket@inet@wylib@@QEAA@XZ 000000014002a780 f   wylib_x64:CustomSocket.obj
 0001:000297d0       ?Connected@CCustomSocket@socket@inet@wylib@@MEAAXXZ 000000014002a7d0 f   wylib_x64:CustomSocket.obj
 0001:000297e0       ?Disconnected@CCustomSocket@socket@inet@wylib@@MEAAXXZ 000000014002a7e0 f   wylib_x64:CustomSocket.obj
 0001:000297f0       ?setBlockMode@CCustomSocket@socket@inet@wylib@@QEAAH_N@Z 000000014002a7f0 f   wylib_x64:CustomSocket.obj
 0001:00029850       ?setRecvBufSize@CCustomSocket@socket@inet@wylib@@QEAAHK@Z 000000014002a850 f   wylib_x64:CustomSocket.obj
 0001:00029890       ?setSendBufSize@CCustomSocket@socket@inet@wylib@@QEAAHK@Z 000000014002a890 f   wylib_x64:CustomSocket.obj
 0001:000298d0       ?connect@CCustomSocket@socket@inet@wylib@@QEAAHKH@Z 000000014002a8d0 f   wylib_x64:CustomSocket.obj
 0001:00029960       ?createSocket@CCustomSocket@socket@inet@wylib@@SAHPEA_KHHH@Z 000000014002a960 f   wylib_x64:CustomSocket.obj
 0001:000299a0       ?recv@CCustomSocket@socket@inet@wylib@@UEAAHPEAXHH@Z 000000014002a9a0 f   wylib_x64:CustomSocket.obj
 0001:00029a40       ?send@CCustomSocket@socket@inet@wylib@@UEAAHPEAXHH@Z 000000014002aa40 f   wylib_x64:CustomSocket.obj
 0001:00029b20       ??1CCustomSocket@socket@inet@wylib@@UEAA@XZ 000000014002ab20 f   wylib_x64:CustomSocket.obj
 0001:00029b70       ?SocketError@CCustomSocket@socket@inet@wylib@@MEAAXH@Z 000000014002ab70 f   wylib_x64:CustomSocket.obj
 0001:00029bc0       ?setSocket@CCustomSocket@socket@inet@wylib@@QEAAX_K@Z 000000014002abc0 f   wylib_x64:CustomSocket.obj
 0001:00029c40       ?connect@CCustomSocket@socket@inet@wylib@@QEAAHPEBDH@Z 000000014002ac40 f   wylib_x64:CustomSocket.obj
 0001:00029c90       ??_ECCustomSocket@socket@inet@wylib@@UEAAPEAXI@Z 000000014002ac90 f i wylib_x64:CustomSocket.obj
 0001:00029c90       ??_GCCustomSocket@socket@inet@wylib@@UEAAPEAXI@Z 000000014002ac90 f i wylib_x64:CustomSocket.obj
 0001:00029d00       MD5Init                    000000014002ad00 f   wylib_x64:md5c.obj
 0001:0002a570       MD5Update                  000000014002b570 f   wylib_x64:md5c.obj
 0001:0002a680       MD5Final                   000000014002b680 f   wylib_x64:md5c.obj
 0001:0002a7d0       ??0CMemoryStream@stream@wylib@@QEAA@XZ 000000014002b7d0 f   wylib_x64:MemoryStream.obj
 0001:0002a7f0       ??1CMemoryStream@stream@wylib@@UEAA@XZ 000000014002b7f0 f   wylib_x64:MemoryStream.obj
 0001:0002a830       ?Alloc@CMemoryStream@stream@wylib@@MEAAPEADPEAD_J@Z 000000014002b830 f   wylib_x64:MemoryStream.obj
 0001:0002a870       ?setSize@CMemoryStream@stream@wylib@@UEAA_N_J@Z 000000014002b870 f   wylib_x64:MemoryStream.obj
 0001:0002a8e0       ?seek@CMemoryStream@stream@wylib@@UEAA_J_JH@Z 000000014002b8e0 f   wylib_x64:MemoryStream.obj
 0001:0002a930       ?read@CMemoryStream@stream@wylib@@UEAA_JPEAX_J@Z 000000014002b930 f   wylib_x64:MemoryStream.obj
 0001:0002a990       ?write@CMemoryStream@stream@wylib@@UEAA_JPEBX_J@Z 000000014002b990 f   wylib_x64:MemoryStream.obj
 0001:0002a9f0       ?loadFromFile@CMemoryStream@stream@wylib@@QEAA_JPEBD@Z 000000014002b9f0 f   wylib_x64:MemoryStream.obj
 0001:0002aa70       ??_GCMemoryStream@stream@wylib@@UEAAPEAXI@Z 000000014002ba70 f i wylib_x64:MemoryStream.obj
 0001:0002aa70       ??_ECMemoryStream@stream@wylib@@UEAAPEAXI@Z 000000014002ba70 f i wylib_x64:MemoryStream.obj
 0001:0002aac6       memcpy                     000000014002bac6 f   MSVCRT:MSVCR100.dll
 0001:0002aacc       ??_Etype_info@@UEAAPEAXI@Z 000000014002bacc f i MSVCRT:ti_inst.obj
 0001:0002ab36       memset                     000000014002bb36 f   MSVCRT:MSVCR100.dll
 0001:0002ab3c       ??3@YAXPEAX@Z              000000014002bb3c f   MSVCRT:MSVCR100.dll
 0001:0002ab42       __CxxFrameHandler3         000000014002bb42 f   MSVCRT:MSVCR100.dll
 0001:0002ab60       _alloca_probe              000000014002bb60     MSVCRT:chkstk.obj
 0001:0002ab60       __chkstk                   000000014002bb60 f   MSVCRT:chkstk.obj
 0001:0002abae       ??_V@YAXPEAX@Z             000000014002bbae f   MSVCRT:MSVCR100.dll
 0001:0002abb4       ??2@YAPEAX_K@Z             000000014002bbb4 f   MSVCRT:MSVCR100.dll
 0001:0002abba       ??_U@YAPEAX_K@Z            000000014002bbba f   MSVCRT:MSVCR100.dll
 0001:0002abc0       _purecall                  000000014002bbc0 f   MSVCRT:MSVCR100.dll
 0001:0002abc6       _CxxThrowException         000000014002bbc6 f   MSVCRT:MSVCR100.dll
 0001:0002abcc       ?what@exception@std@@UEBAPEBDXZ 000000014002bbcc f   MSVCRT:MSVCR100.dll
 0001:0002abd2       ??0exception@std@@QEAA@AEBV01@@Z 000000014002bbd2 f   MSVCRT:MSVCR100.dll
 0001:0002abd8       __C_specific_handler       000000014002bbd8 f   MSVCRT:MSVCR100.dll
 0001:0002abe0       ??_L@YAXPEAX_KHP6AX0@Z2@Z  000000014002bbe0 f   MSVCRT:ehvecctr.obj
 0001:0002ac44       ?__ArrayUnwind@@YAXPEAX_KHP6AX0@Z@Z 000000014002bc44 f   MSVCRT:ehvecdtr.obj
 0001:0002ac90       ??_M@YAXPEAX_KHP6AX0@Z@Z   000000014002bc90 f   MSVCRT:ehvecdtr.obj
 0001:0002acf0       _onexit                    000000014002bcf0 f   MSVCRT:atonexit.obj
 0001:0002ada0       atexit                     000000014002bda0 f   MSVCRT:atonexit.obj
 0001:0002b070       mainCRTStartup             000000014002c070 f   MSVCRT:crtexe.obj
 0001:0002b082       _setjmp                    000000014002c082 f   MSVCRT:MSVCR100.dll
 0001:0002b088       floor                      000000014002c088 f   MSVCRT:MSVCR100.dll
 0001:0002b08e       pow                        000000014002c08e f   MSVCRT:MSVCR100.dll
 0001:0002b094       memcmp                     000000014002c094 f   MSVCRT:MSVCR100.dll
 0001:0002b09a       ?terminate@@YAXXZ          000000014002c09a f   MSVCRT:MSVCR100.dll
 0001:0002b0a0       _unlock                    000000014002c0a0 f   MSVCRT:MSVCR100.dll
 0001:0002b0a6       __dllonexit                000000014002c0a6 f   MSVCRT:MSVCR100.dll
 0001:0002b0ac       _lock                      000000014002c0ac f   MSVCRT:MSVCR100.dll
 0001:0002b0b4       ?__CxxUnhandledExceptionFilter@@YAJPEAU_EXCEPTION_POINTERS@@@Z 000000014002c0b4 f   MSVCRT:unhandld.obj
 0001:0002b0f8       __CxxSetUnhandledExceptionFilter 000000014002c0f8 f   MSVCRT:unhandld.obj
 0001:0002b110       _amsg_exit                 000000014002c110 f   MSVCRT:MSVCR100.dll
 0001:0002b118       _RTC_Initialize            000000014002c118 f   MSVCRT:_initsect_.obj
 0001:0002b150       _RTC_Terminate             000000014002c150 f   MSVCRT:_initsect_.obj
 0001:0002b188       _XcptFilter                000000014002c188 f   MSVCRT:MSVCR100.dll
 0001:0002b190       _ValidateImageBase         000000014002c190 f   MSVCRT:pesect.obj
 0001:0002b1c0       _FindPESection             000000014002c1c0 f   MSVCRT:pesect.obj
 0001:0002b210       _IsNonwritableInCurrentImage 000000014002c210 f   MSVCRT:pesect.obj
 0001:0002b252       _initterm                  000000014002c252 f   MSVCRT:MSVCR100.dll
 0001:0002b258       _initterm_e                000000014002c258 f   MSVCRT:MSVCR100.dll
 0001:0002b260       _matherr                   000000014002c260 f   MSVCRT:merr.obj
 0001:0002b260       _setargv                   000000014002c260 f   MSVCRT:dllargv.obj
 0001:0002b264       __security_init_cookie     000000014002c264 f   MSVCRT:gs_support.obj
 0001:0002b318       ??1type_info@@UEAA@XZ      000000014002c318 f   MSVCRT:MSVCR100.dll
 0001:0002b318       ?_type_info_dtor_internal_method@type_info@@QEAAXXZ 000000014002c318 f   MSVCRT:MSVCR100.dll
 0001:0002b31e       WSAGetLastError            000000014002c31e f   Ws2_32:WS2_32.dll
 0001:0002b324       ioctlsocket                000000014002c324 f   Ws2_32:WS2_32.dll
 0001:0002b32a       closesocket                000000014002c32a f   Ws2_32:WS2_32.dll
 0001:0002b330       htons                      000000014002c330 f   Ws2_32:WS2_32.dll
 0001:0002b336       setsockopt                 000000014002c336 f   Ws2_32:WS2_32.dll
 0001:0002b33c       connect                    000000014002c33c f   Ws2_32:WS2_32.dll
 0001:0002b342       socket                     000000014002c342 f   Ws2_32:WS2_32.dll
 0001:0002b348       recv                       000000014002c348 f   Ws2_32:WS2_32.dll
 0001:0002b34e       send                       000000014002c34e f   Ws2_32:WS2_32.dll
 0001:0002bb90       luaopen_math               000000014002cb90 f   lua-5.1_x64:lmathlib.obj
 0001:0002dd00       luaopen_string             000000014002ed00 f   lua-5.1_x64:lstrlib.obj
 0001:0002f3c0       luaopen_base               00000001400303c0 f   lua-5.1_x64:lbaselib.obj
 0001:0002ffc0       luaopen_table              0000000140030fc0 f   lua-5.1_x64:ltablib.obj
 0001:0002fff0       ?format_args@CAnsiString@string@wylib@@QEAA_KPEBDPEAD@Z 0000000140030ff0 f   wylib_x64:wyString.obj
 0001:00030080       ?format@CAnsiString@string@wylib@@QEAA_KPEBDZZ 0000000140031080 f   wylib_x64:wyString.obj
 0001:000302b0       bzhashstr                  00000001400312b0 f   wylib_x64:bzhash.obj
 0001:00030350       ??0CZDecompressionStream@zstream@wylib@@QEAA@AEAVCBaseStream@stream@2@@Z 0000000140031350 f   wylib_x64:ZDecmprsStream.obj
 0001:000303b0       ?write@CZDecompressionStream@zstream@wylib@@UEAA_JPEBX_J@Z 00000001400313b0 f i wylib_x64:ZDecmprsStream.obj
 0001:000303c0       ??1CZDecompressionStream@zstream@wylib@@UEAA@XZ 00000001400313c0 f   wylib_x64:ZDecmprsStream.obj
 0001:00030420       ?seek@CZDecompressionStream@zstream@wylib@@UEAA_J_JH@Z 0000000140031420 f   wylib_x64:ZDecmprsStream.obj
 0001:00030520       ?read@CZDecompressionStream@zstream@wylib@@UEAA_JPEAX_J@Z 0000000140031520 f   wylib_x64:ZDecmprsStream.obj
 0001:00030630       ??_ECZDecompressionStream@zstream@wylib@@UEAAPEAXI@Z 0000000140031630 f i wylib_x64:ZDecmprsStream.obj
 0001:00030630       ??_GCZDecompressionStream@zstream@wylib@@UEAAPEAXI@Z 0000000140031630 f i wylib_x64:ZDecmprsStream.obj
 0001:000306b0       ?zlibAllocMem@CBaseZStream@zstream@wylib@@CAPEAXAEAV123@II@Z 00000001400316b0 f   wylib_x64:ZStream.obj
 0001:000306c0       ?zlibFreeMem@CBaseZStream@zstream@wylib@@CAXAEAV123@PEAX@Z 00000001400316c0 f   wylib_x64:ZStream.obj
 0001:000306d0       ?Alloc@CBaseZStream@zstream@wylib@@MEAAPEAX_J@Z 00000001400316d0 f   wylib_x64:ZStream.obj
 0001:000306e0       ??0CBaseZStream@zstream@wylib@@QEAA@AEAVCBaseStream@stream@2@@Z 00000001400316e0 f   wylib_x64:ZStream.obj
 0001:00030760       inflateReset               0000000140031760 f   zlib_x64:inflate.obj
 0001:000307b0       inflateEnd                 00000001400317b0 f   zlib_x64:inflate.obj
 0001:00030810       inflateInit2_              0000000140031810 f   zlib_x64:inflate.obj
 0001:00030950       inflateInit_               0000000140031950 f   zlib_x64:inflate.obj
 0001:00030960       inflate                    0000000140031960 f   zlib_x64:inflate.obj
 0001:00030dd0       zlibVersion                0000000140031dd0 f   zlib_x64:zutil.obj
 0001:00030de0       zcalloc                    0000000140031de0 f   zlib_x64:zutil.obj
 0001:00030df0       ?Free@CBaseZStream@zstream@wylib@@MEAAXPEAX@Z 0000000140031df0 f   wylib_x64:ZStream.obj
 0001:00030df0       zcfree                     0000000140031df0 f   zlib_x64:zutil.obj
 0001:00030e00       inflate_blocks_reset       0000000140031e00 f   zlib_x64:infblock.obj
 0001:00030e80       inflate_blocks_new         0000000140031e80 f   zlib_x64:infblock.obj
 0001:00030f60       inflate_blocks             0000000140031f60 f   zlib_x64:infblock.obj
 0001:000318f0       inflate_blocks_free        00000001400328f0 f   zlib_x64:infblock.obj
 0001:00031990       adler32                    0000000140032990 f   zlib_x64:adler32.obj
 0001:00031af0       inflate_codes_new          0000000140032af0 f   zlib_x64:infcodes.obj
 0001:00031b60       inflate_codes              0000000140032b60 f   zlib_x64:infcodes.obj
 0001:00032130       inflate_codes_free         0000000140033130 f   zlib_x64:infcodes.obj
 0001:000325f0       inflate_trees_bits         00000001400335f0 f   zlib_x64:inftrees.obj
 0001:000326d0       inflate_trees_dynamic      00000001400336d0 f   zlib_x64:inftrees.obj
 0001:00032890       inflate_trees_fixed        0000000140033890 f   zlib_x64:inftrees.obj
 0001:000328c0       inflate_flush              00000001400338c0 f   zlib_x64:infutil.obj
 0001:000329e0       inflate_fast               00000001400339e0 f   zlib_x64:inffast.obj
 0001:00032d8a       sin                        0000000140033d8a f   MSVCRT:MSVCR100.dll
 0001:00032d90       sinh                       0000000140033d90 f   MSVCRT:MSVCR100.dll
 0001:00032d96       cos                        0000000140033d96 f   MSVCRT:MSVCR100.dll
 0001:00032d9c       cosh                       0000000140033d9c f   MSVCRT:MSVCR100.dll
 0001:00032da2       tan                        0000000140033da2 f   MSVCRT:MSVCR100.dll
 0001:00032da8       tanh                       0000000140033da8 f   MSVCRT:MSVCR100.dll
 0001:00032dae       asin                       0000000140033dae f   MSVCRT:MSVCR100.dll
 0001:00032db4       acos                       0000000140033db4 f   MSVCRT:MSVCR100.dll
 0001:00032dba       atan                       0000000140033dba f   MSVCRT:MSVCR100.dll
 0001:00032dc0       atan2                      0000000140033dc0 f   MSVCRT:MSVCR100.dll
 0001:00032dc6       ceil                       0000000140033dc6 f   MSVCRT:MSVCR100.dll
 0001:00032dcc       fmod                       0000000140033dcc f   MSVCRT:MSVCR100.dll
 0001:00032dd2       sqrt                       0000000140033dd2 f   MSVCRT:MSVCR100.dll
 0001:00032dd8       log                        0000000140033dd8 f   MSVCRT:MSVCR100.dll
 0001:00032dde       log10                      0000000140033dde f   MSVCRT:MSVCR100.dll
 0001:00032de4       exp                        0000000140033de4 f   MSVCRT:MSVCR100.dll
 0001:00032df0       ?FileExists@FDOP@@YA_NPEBD@Z 0000000140033df0 f   srvlib_x64:FDOP.obj
 0001:00032e20       ?LoadFromStreamDKM@CAbstractMap@gameMap@jxcomm@@QEAA_NAEAVCBaseStream@stream@wylib@@@Z 0000000140033e20 f   servercommon_x64:JXAbsGameMap.obj
 0001:00033260       ?LoadFromStream@CAbstractMap@gameMap@jxcomm@@QEAA_NAEAVCBaseStream@stream@wylib@@@Z 0000000140034260 f   servercommon_x64:JXAbsGameMap.obj
 0001:00033690       ??1CAbstractMap@gameMap@jxcomm@@UEAA@XZ 0000000140034690 f   servercommon_x64:JXAbsGameMap.obj
 0001:000336d0       ?LoadFromFile@CAbstractMap@gameMap@jxcomm@@QEAA_NPEBD@Z 00000001400346d0 f   servercommon_x64:JXAbsGameMap.obj
 0001:00033830       ??0CAbstractMap@gameMap@jxcomm@@QEAA@XZ 0000000140034830 f   servercommon_x64:JXAbsGameMap.obj
 0001:000338d0       ?Encode@Encrypt@@QEAA_NPEAD_K0@Z 00000001400348d0 f   servercommon_x64:Encrypt.obj
 0001:00033970       ?GenKey@Encrypt@@AEAAX_N@Z 0000000140034970 f   servercommon_x64:Encrypt.obj
 0001:00033a00       ?GenSalt@Encrypt@@QEAAIXZ  0000000140034a00 f   servercommon_x64:Encrypt.obj
 0001:00033a30       ?SetSelfSalt@Encrypt@@QEAAXI@Z 0000000140034a30 f   servercommon_x64:Encrypt.obj
 0001:00033a60       ?Decode@Encrypt@@QEAA_NPEAD_K0@Z 0000000140034a60 f   servercommon_x64:Encrypt.obj
 0001:00033aa0       ?SetTargetSalt@Encrypt@@QEAAXI_N@Z 0000000140034aa0 f   servercommon_x64:Encrypt.obj
 0001:00033af0       ?UnintSocketLib@CCustomWorkSocket@@SAXXZ 0000000140034af0 f   srvlib_x64:CustomWorkSocket.obj
 0001:00033b10       ?InitSocketLib@CCustomWorkSocket@@SAHXZ 0000000140034b10 f   srvlib_x64:CustomWorkSocket.obj
 0001:00033b50       ?OnRun@CCustomWorkSocket@@MEAAXXZ 0000000140034b50 f   srvlib_x64:CustomWorkSocket.obj
 0001:00033b60       ?SwapRecvProcessBuffers@CCustomWorkSocket@@IEAAXXZ 0000000140034b60 f   srvlib_x64:CustomWorkSocket.obj
 0001:00033ee0       ?Disconnected@CCustomWorkSocket@@MEAAXXZ 0000000140034ee0 f   srvlib_x64:CustomWorkSocket.obj
 0001:00033f70       ?DispatchInternalMessage@CCustomWorkSocket@@MEAAXI_K000@Z 0000000140034f70 f   srvlib_x64:CustomWorkSocket.obj
 0001:00033f90       ?ProcessRecvBuffers@CCustomWorkSocket@@MEAAXPEAUtagDataBuffer@@@Z 0000000140034f90 f   srvlib_x64:CustomWorkSocket.obj
 0001:00033fc0       ?ReadSocket@CCustomWorkSocket@@IEAAXXZ 0000000140034fc0 f   srvlib_x64:CustomWorkSocket.obj
 0001:00034170       ?ProcessInternalMessages@CCustomWorkSocket@@IEAAXXZ 0000000140035170 f   srvlib_x64:CustomWorkSocket.obj
 0001:00034270       ??1CCustomWorkSocket@@UEAA@XZ 0000000140035270 f   srvlib_x64:CustomWorkSocket.obj
 0001:000343c0       ??0CCustomWorkSocket@@QEAA@XZ 00000001400353c0 f   srvlib_x64:CustomWorkSocket.obj
 0001:000344e0       ?SendSocketBuffers@CCustomWorkSocket@@IEAAXXZ 00000001400354e0 f   srvlib_x64:CustomWorkSocket.obj
 0001:00034520       ?SingleRun@CCustomWorkSocket@@MEAAXXZ 0000000140035520 f   srvlib_x64:CustomWorkSocket.obj
 0001:000345d0       ?setName@CTimeProfRecord@@QEAAXPEBD@Z 00000001400355d0 f   srvlib_x64:TimeStat.obj
 0001:00034640       ?getCurrentTm@CTimeProfMgr@@IEAAXAEAUtm@@@Z 0000000140035640 f   srvlib_x64:TimeStat.obj
 0001:000346b0       ??0CTimeProfRecord@@QEAA@PEBDI@Z 00000001400356b0 f   srvlib_x64:TimeStat.obj
 0001:000346f0       ??0CTimeProfMgr@@QEAA@XZ   00000001400356f0 f   srvlib_x64:TimeStat.obj
 0001:00034830       ?clear@CTimeProfRecord@@QEAAXXZ 0000000140035830 f   srvlib_x64:TimeStat.obj
 0001:000348f0       ??1CTimeProfRecord@@QEAA@XZ 00000001400358f0 f   srvlib_x64:TimeStat.obj
 0001:00034940       ??1CTimeProfMgr@@QEAA@XZ   0000000140035940 f   srvlib_x64:TimeStat.obj
 0001:00034cc0       ?setGlobalValue@LuaLangTextSection@@YAXPEAUlua_State@@AEAVCLangTextSection@@PEBD@Z 0000000140035cc0 f   srvlib_x64:LuaLangTextSection.obj
 0001:00034e90       ?regist@CLangTextSectionExport@@YAXPEAUlua_State@@@Z 0000000140035e90 f   srvlib_x64:LuaLangTextSection.obj
 0001:00034ec0       ?regist@LuaLangTextSection@@YAXPEAUlua_State@@@Z 0000000140035ec0 f   srvlib_x64:LuaLangTextSection.obj
 0001:00034ee0       ?getSection@CLangTextSection@@QEAAPEAV1@PEBD@Z 0000000140035ee0 f   srvlib_x64:LangTextSection.obj
 0001:00034f20       ??0CLangTextSection@@QEAA@XZ 0000000140035f20 f   srvlib_x64:LangTextSection.obj
 0001:00035030       ?realloc@CLangTextPacket@@MEAAPEAXPEAX_K@Z 0000000140036030 f   srvlib_x64:LangTextSection.obj
 0001:00035070       ?realloc@CLangTextSection@@IEAAPEAXPEAX_K@Z 0000000140036070 f   srvlib_x64:LangTextSection.obj
 0001:000350b0       ?clear@CLangTextSection@@IEAAXXZ 00000001400360b0 f   srvlib_x64:LangTextSection.obj
 0001:00035150       ?addSection@CLangTextSection@@QEAAPEAV1@PEBD@Z 0000000140036150 f   srvlib_x64:LangTextSection.obj
 0001:000351d0       ?setText@CLangTextSection@@QEAAXPEBD@Z 00000001400361d0 f   srvlib_x64:LangTextSection.obj
 0001:00035250       ??1CLangTextSection@@QEAA@XZ 0000000140036250 f   srvlib_x64:LangTextSection.obj
 0001:00035270       ??1CLangTextPacket@@UEAA@XZ 0000000140036270 f   srvlib_x64:LangTextSection.obj
 0001:000352c0       ??0CLangTextPacket@@QEAA@PEAV?$CObjectAllocator@D@@_K@Z 00000001400362c0 f   srvlib_x64:LangTextSection.obj
 0001:00035310       ?setPacket@CLangTextSection@@QEAAX_K@Z 0000000140036310 f   srvlib_x64:LangTextSection.obj
 0001:000353b0       ?showErrorFormat@CCustomLuaPreProcessor@@MEAAXPEBDZZ 00000001400363b0 f   srvlib_x64:CustomLuaPreProcess.obj
 0001:00035430       ?clearIncludedFileList@CCustomLuaPreProcessor@@IEAAXXZ 0000000140036430 f   srvlib_x64:CustomLuaPreProcess.obj
 0001:000354b0       ?refreshCondition@CCustomLuaPreProcessor@@IEAAXXZ 00000001400364b0 f   srvlib_x64:CustomLuaPreProcess.obj
 0001:00035530       ?delimiteLine@CCustomLuaPreProcessor@@IEAAPEBDPEBDPEAY0IA@DAEA_J@Z 0000000140036530 f   srvlib_x64:CustomLuaPreProcess.obj
 0001:000356b0       ?clearMacroList@CCustomLuaPreProcessor@@QEAAXXZ 00000001400366b0 f   srvlib_x64:CustomLuaPreProcess.obj
 0001:000356e0       ?clearIncludeDirectory@CCustomLuaPreProcessor@@QEAAXXZ 00000001400366e0 f   srvlib_x64:CustomLuaPreProcess.obj
 0001:000357a0       ?getFileNamePart@@YAPEBDPEBD@Z 00000001400367a0 f   srvlib_x64:CustomLuaPreProcess.obj
 0001:00035810       ??0CCustomLuaPreProcessor@@QEAA@XZ 0000000140036810 f   srvlib_x64:CustomLuaPreProcess.obj
 0001:000358d0       ?DirectiveOfEndif@CCustomLuaPreProcessor@@IEAAXPEBD@Z 00000001400368d0 f   srvlib_x64:CustomLuaPreProcess.obj
 0001:00035960       ?DirectiveOfElse@CCustomLuaPreProcessor@@IEAAXPEBD@Z 0000000140036960 f   srvlib_x64:CustomLuaPreProcess.obj
 0001:00035a20       ?getMacro@CCustomLuaPreProcessor@@QEAAQEAUtagMacro@1@PEBD@Z 0000000140036a20 f   srvlib_x64:CustomLuaPreProcess.obj
 0001:00035ad0       ?removeMacro@CCustomLuaPreProcessor@@QEAAXPEBD@Z 0000000140036ad0 f   srvlib_x64:CustomLuaPreProcess.obj
 0001:00035b70       ?addMacro@CCustomLuaPreProcessor@@QEAAXPEBD0@Z 0000000140036b70 f   srvlib_x64:CustomLuaPreProcess.obj
 0001:00035c90       ??1CCustomLuaPreProcessor@@UEAA@XZ 0000000140036c90 f   srvlib_x64:CustomLuaPreProcess.obj
 0001:00035d70       ?DirectiveOfElif@CCustomLuaPreProcessor@@IEAAXPEBD@Z 0000000140036d70 f   srvlib_x64:CustomLuaPreProcess.obj
 0001:00036020       ?DirectiveOfIf@CCustomLuaPreProcessor@@IEAAXPEBD@Z 0000000140037020 f   srvlib_x64:CustomLuaPreProcess.obj
 0001:00036280       ?DirectiveOfIfndef@CCustomLuaPreProcessor@@IEAAXPEBD@Z 0000000140037280 f   srvlib_x64:CustomLuaPreProcess.obj
 0001:00036360       ?DirectiveOfIfdef@CCustomLuaPreProcessor@@IEAAXPEBD@Z 0000000140037360 f   srvlib_x64:CustomLuaPreProcess.obj
 0001:00036440       ?DirectiveOfUndef@CCustomLuaPreProcessor@@IEAAXPEBD@Z 0000000140037440 f   srvlib_x64:CustomLuaPreProcess.obj
 0001:000364f0       ?DirectiveOfDefine@CCustomLuaPreProcessor@@IEAAXPEBD@Z 00000001400374f0 f   srvlib_x64:CustomLuaPreProcess.obj
 0001:000365c0       ?SearchAndLoadIncludeFile@CCustomLuaPreProcessor@@AEAA_NPEBD_N@Z 00000001400375c0 f   srvlib_x64:CustomLuaPreProcess.obj
 0001:000367e0       ?showError@CCustomLuaPreProcessor@@MEAAXPEBD@Z 00000001400377e0 f   srvlib_x64:CustomLuaPreProcess.obj
 0001:00036970       ?DirectiveOfInclude@CCustomLuaPreProcessor@@IEAAXPEBD@Z 0000000140037970 f   srvlib_x64:CustomLuaPreProcess.obj
 0001:00036b30       ?ProcessDirective@CCustomLuaPreProcessor@@IEAAXPEBD0@Z 0000000140037b30 f   srvlib_x64:CustomLuaPreProcess.obj
 0001:00036d50       ?ProcessLine@CCustomLuaPreProcessor@@IEAAXPEBD@Z 0000000140037d50 f   srvlib_x64:CustomLuaPreProcess.obj
 0001:00036e70       ?ParseSource@CCustomLuaPreProcessor@@IEAAPEBDPEBD@Z 0000000140037e70 f   srvlib_x64:CustomLuaPreProcess.obj
 0001:00037330       ?SaveFileDirAndParse@CCustomLuaPreProcessor@@AEAAPEBDPEBD0@Z 0000000140038330 f   srvlib_x64:CustomLuaPreProcess.obj
 0001:00037550       ?parse@CCustomLuaPreProcessor@@QEAAPEBDPEBD0D@Z 0000000140038550 f   srvlib_x64:CustomLuaPreProcess.obj
 0001:00037610       ?LoadIncludeFile@CCustomLuaPreProcessor@@AEAA_NPEBD_N@Z 0000000140038610 f   srvlib_x64:CustomLuaPreProcess.obj
 0001:00037790       ?showErrorFormat@CCustomLuaScript@@IEAAXPEBDZZ 0000000140038790 f   srvlib_x64:CustomLuaScript.obj
 0001:00037810       ?callFinal@CCustomLuaScript@@MEAA_NXZ 0000000140038810 f   srvlib_x64:CustomLuaScript.obj
 0001:00037820       ?callInit@CCustomLuaScript@@MEAA_NXZ 0000000140038820 f   srvlib_x64:CustomLuaScript.obj
 0001:00037830       ?registLocalLibs@CCustomLuaScript@@MEAA_NXZ 0000000140038830 f   srvlib_x64:CustomLuaScript.obj
 0001:00037840       ?createLuaVM@CCustomLuaScript@@MEAAPEAUlua_State@@XZ 0000000140038840 f   srvlib_x64:CustomLuaScript.obj
 0001:00037860       ?openBaseLibs@CCustomLuaScript@@MEAA_NXZ 0000000140038860 f   srvlib_x64:CustomLuaScript.obj
 0001:00037940       ??0CCustomLuaScript@@QEAA@XZ 0000000140038940 f   srvlib_x64:CustomLuaScript.obj
 0001:000379a0       ?pcall@CCustomLuaScript@@IEAA_NHHH@Z 00000001400389a0 f   srvlib_x64:CustomLuaScript.obj
 0001:00037a80       ?StreamWriter@CCustomLuaScript@@KAHPEAUlua_State@@PEBX_KPEAX@Z 0000000140038a80 f   srvlib_x64:CustomLuaScript.obj
 0001:00037ae0       ?setScript@CCustomLuaScript@@QEAA_NPEBD@Z 0000000140038ae0 f   srvlib_x64:CustomLuaScript.obj
 0001:00037c30       ??1CCustomLuaScript@@UEAA@XZ 0000000140038c30 f   srvlib_x64:CustomLuaScript.obj
 0001:00037c80       ?showError@CCustomLuaScript@@MEAAXPEBD@Z 0000000140038c80 f   srvlib_x64:CustomLuaScript.obj
 0001:00037cc0       ?closeTable@CCustomLuaConfig@@IEAAXXZ 0000000140038cc0 f   srvlib_x64:CustomLuaConfig.obj
 0001:00037d60       ?feildTableExists@CCustomLuaConfig@@IEAA_NPEBD@Z 0000000140038d60 f   srvlib_x64:CustomLuaConfig.obj
 0001:00037de0       ?endTableEnum@CCustomLuaConfig@@IEAAXXZ 0000000140038de0 f   srvlib_x64:CustomLuaConfig.obj
 0001:00037ee0       ?enumTableNext@CCustomLuaConfig@@IEAA_NXZ 0000000140038ee0 f   srvlib_x64:CustomLuaConfig.obj
 0001:00038000       ?createTableName@CCustomLuaConfig@@KAPEAV?$CRefObjectImpl@VCAnsiString@string@wylib@@@misc@wylib@@PEBD@Z 0000000140039000 f   srvlib_x64:CustomLuaConfig.obj
 0001:00038080       ??1CCustomLuaConfig@@UEAA@XZ 0000000140039080 f   srvlib_x64:CustomLuaConfig.obj
 0001:00038140       ??0CCustomLuaConfig@@QEAA@XZ 0000000140039140 f   srvlib_x64:CustomLuaConfig.obj
 0001:00038190       ?getTablePath@CCustomLuaConfig@@IEAAAEAVCAnsiString@string@wylib@@AEAV234@@Z 0000000140039190 f   srvlib_x64:CustomLuaConfig.obj
 0001:00038280       ?enumTableFirst@CCustomLuaConfig@@IEAA_NXZ 0000000140039280 f   srvlib_x64:CustomLuaConfig.obj
 0001:00038310       ?showFieldDoesNotContainValue@CCustomLuaConfig@@IEAAXPEBD0@Z 0000000140039310 f   srvlib_x64:CustomLuaConfig.obj
 0001:000383e0       ?showTableNotExists@CCustomLuaConfig@@IEAAXPEBD@Z 00000001400393e0 f   srvlib_x64:CustomLuaConfig.obj
 0001:00038490       ?showError@CCustomLuaConfig@@MEAAXPEBD@Z 0000000140039490 f   srvlib_x64:CustomLuaConfig.obj
 0001:00038510       ?getFieldString@CCustomLuaConfig@@IEAAPEBDPEBD0PEAH@Z 0000000140039510 f   srvlib_x64:CustomLuaConfig.obj
 0001:00038600       ?getFieldNumber@CCustomLuaConfig@@IEAANPEBDPEBNPEAH@Z 0000000140039600 f   srvlib_x64:CustomLuaConfig.obj
 0001:000386f0       ?getFieldBoolean@CCustomLuaConfig@@IEAA_NPEBDPEB_NPEAH@Z 00000001400396f0 f   srvlib_x64:CustomLuaConfig.obj
 0001:00038810       ?openFieldTable@CCustomLuaConfig@@IEAA_NPEBD@Z 0000000140039810 f   srvlib_x64:CustomLuaConfig.obj
 0001:000388d0       ?openGlobalTable@CCustomLuaConfig@@IEAA_NPEBD@Z 00000001400398d0 f   srvlib_x64:CustomLuaConfig.obj
 0001:00038990       ?getFieldStringBuffer@CCustomLuaConfig@@IEAA_JPEBDPEAD_K@Z 0000000140039990 f   srvlib_x64:CustomLuaConfig.obj
 0001:00038a70       ?getFieldInt@CCustomLuaConfig@@IEAAHPEBDQEAHPEAH@Z 0000000140039a70 f   srvlib_x64:CustomLuaConfig.obj
 0001:00038af0       ?GetSysErrorMessage@@YAPEBD_JPEAD_KPEA_K@Z 0000000140039af0 f   srvlib_x64:ShareUtil.obj
 0001:00038c40       ?DefaultUnHandleExceptionFilter@@YAJPEAU_EXCEPTION_POINTERS@@@Z 0000000140039c40 f   srvlib_x64:ShareUtil.obj
 0001:00038e30       ?SetOutputMsgFn@@YAP6A_JW4tagShareOutputMsgType@@PEBD_J@ZP6A_J012@Z@Z 0000000140039e30 f   srvlib_x64:ShareUtil.obj
 0001:00038e80       ?UninitDefMsgOut@@YAXXZ    0000000140039e80 f   srvlib_x64:ShareUtil.obj
 0001:00038ea0       ?OutputError@@YA_J_JPEBDZZ 0000000140039ea0 f   srvlib_x64:ShareUtil.obj
 0001:00039040       ?OutputMsg@@YA_JW4tagShareOutputMsgType@@PEBDZZ 000000014003a040 f   srvlib_x64:ShareUtil.obj
 0001:000390f0       ?StdDefOutputMsg@@YA_JW4tagShareOutputMsgType@@PEBD_J@Z 000000014003a0f0 f   srvlib_x64:ShareUtil.obj
 0001:00039230       ?InitDefMsgOut@@YAXXZ      000000014003a230 f   srvlib_x64:ShareUtil.obj
 0001:00039280       ?CheckFreeBuffers@CBufferAllocator@@QEAAX_N@Z 000000014003a280 f   srvlib_x64:BufferAllocator.obj
 0001:000395d0       ?GetMemoryInfo@CBufferAllocator@@QEAAXPEAUtagAllocatorMemoryInfo@1@@Z 000000014003a5d0 f   srvlib_x64:BufferAllocator.obj
 0001:00039680       ?FreeBuffer@CBufferAllocator@@QEAAXPEAX@Z 000000014003a680 f   srvlib_x64:BufferAllocator.obj
 0001:00039860       ?AllocBuffer@CBufferAllocator@@QEAAPEAX_K@Z 000000014003a860 f   srvlib_x64:BufferAllocator.obj
 0001:00039c30       ??1CBufferAllocator@@QEAA@XZ 000000014003ac30 f   srvlib_x64:BufferAllocator.obj
 0001:00039d40       ??0CBufferAllocator@@QEAA@XZ 000000014003ad40 f   srvlib_x64:BufferAllocator.obj
 0001:00039e10       ?ReallocBuffer@CBufferAllocator@@QEAAPEAXPEAX_K@Z 000000014003ae10 f   srvlib_x64:BufferAllocator.obj
 0001:00039ec0       ?CRCBitReflect@@YAIKH@Z    000000014003aec0 f   srvlib_x64:CRC16.obj
 0001:00039f40       ?CRC16Init@@YAXXZ          000000014003af40 f   srvlib_x64:CRC16.obj
 0001:00039ff0       ?CRC16Calc@@YAIPEAE_K@Z    000000014003aff0 f   srvlib_x64:CRC16.obj
 0001:0003a0b0       ??0CSendPacketPool@@QEAA@XZ 000000014003b0b0 f   srvlib_x64:SendPackPool.obj
 0001:0003a1b0       ?FreeAllPackets@CSendPacketPool@@AEAAXXZ 000000014003b1b0 f   srvlib_x64:SendPackPool.obj
 0001:0003a330       ??1CSendPacketPool@@QEAA@XZ 000000014003b330 f   srvlib_x64:SendPackPool.obj
 0001:0003a3e0       ?sendToSocket@CSendPacketPool@@QEAA_KAEAVCCustomSocket@socket@inet@wylib@@@Z 000000014003b3e0 f   srvlib_x64:SendPackPool.obj
 0001:0003a5f0       ?allocSendPacketList@CSendPacketPool@@QEAAXAEAV?$CBaseList@PEAVCDataPacket@@@container@wylib@@_JPEAPEAVCDataPacket@@@Z 000000014003b5f0 f   srvlib_x64:SendPackPool.obj
 0001:0003aa60       ?DefaultExceptHandler@@YAKQEAU_EXCEPTION_POINTERS@@@Z 000000014003ba60 f   srvlib_x64:DefExceptHander.obj
 0001:0003b550       ?removeAllocStat@CSingleObjectAllocStatMgr@@QEAAXPEBVCObjectAllocatorStat@@@Z 000000014003c550 f   srvlib_x64:SingleObjectAllocator.obj
 0001:0003b5f0       ?addAllocStat@CSingleObjectAllocStatMgr@@QEAAXPEBVCObjectAllocatorStat@@@Z 000000014003c5f0 f   srvlib_x64:SingleObjectAllocator.obj
 0001:0003b690       ??1CObjectAllocatorStat@@QEAA@XZ 000000014003c690 f   srvlib_x64:SingleObjectAllocator.obj
 0001:0003b6b0       ??0CObjectAllocatorStat@@QEAA@_KW4AllocatorType@0@PEBD@Z 000000014003c6b0 f   srvlib_x64:SingleObjectAllocator.obj
 0001:0003d250       ??__Fmgr@?1??getSingleton@CSingleObjectAllocStatMgr@@SAAEAV1@XZ@YAXXZ 000000014003e250 f i srvlib_x64:SingleObjectAllocator.obj
 0001:0003d270       ??__Fmgr@?1??getSingleton@CTimeProfMgr@@SAAEAV1@XZ@YAXXZ 000000014003e270 f i srvlib_x64:TimeStat.obj
 0002:00000000       __imp_QueryPerformanceCounter 000000014003f000     kernel32:KERNEL32.dll
 0002:00000008       __imp_DecodePointer        000000014003f008     kernel32:KERNEL32.dll
 0002:00000010       __imp_GetLocalTime         000000014003f010     kernel32:KERNEL32.dll
 0002:00000018       __imp_WideCharToMultiByte  000000014003f018     kernel32:KERNEL32.dll
 0002:00000020       __imp_MultiByteToWideChar  000000014003f020     kernel32:KERNEL32.dll
 0002:00000028       __imp_DebugBreak           000000014003f028     kernel32:KERNEL32.dll
 0002:00000030       __imp_IsDebuggerPresent    000000014003f030     kernel32:KERNEL32.dll
 0002:00000038       __imp_Sleep                000000014003f038     kernel32:KERNEL32.dll
 0002:00000040       __imp_GetLastError         000000014003f040     kernel32:KERNEL32.dll
 0002:00000048       __imp_GetTickCount         000000014003f048     kernel32:KERNEL32.dll
 0002:00000050       __imp_TlsAlloc             000000014003f050     kernel32:KERNEL32.dll
 0002:00000058       __imp_SetConsoleTitleA     000000014003f058     kernel32:KERNEL32.dll
 0002:00000060       __imp_GetCurrentProcessId  000000014003f060     kernel32:KERNEL32.dll
 0002:00000068       __imp_SetCurrentDirectoryA 000000014003f068     kernel32:KERNEL32.dll
 0002:00000070       __imp_SetUnhandledExceptionFilter 000000014003f070     kernel32:KERNEL32.dll
 0002:00000078       __imp_CreateThread         000000014003f078     kernel32:KERNEL32.dll
 0002:00000080       __imp_DeleteCriticalSection 000000014003f080     kernel32:KERNEL32.dll
 0002:00000088       __imp_EnterCriticalSection 000000014003f088     kernel32:KERNEL32.dll
 0002:00000090       __imp_TryEnterCriticalSection 000000014003f090     kernel32:KERNEL32.dll
 0002:00000098       __imp_LeaveCriticalSection 000000014003f098     kernel32:KERNEL32.dll
 0002:000000a0       __imp_GetCurrentThreadId   000000014003f0a0     kernel32:KERNEL32.dll
 0002:000000a8       __imp_InitializeCriticalSection 000000014003f0a8     kernel32:KERNEL32.dll
 0002:000000b0       __imp_CloseHandle          000000014003f0b0     kernel32:KERNEL32.dll
 0002:000000b8       __imp_CreateFileA          000000014003f0b8     kernel32:KERNEL32.dll
 0002:000000c0       __imp_ExitThread           000000014003f0c0     kernel32:KERNEL32.dll
 0002:000000c8       __imp_ResumeThread         000000014003f0c8     kernel32:KERNEL32.dll
 0002:000000d0       __imp_WaitForSingleObjectEx 000000014003f0d0     kernel32:KERNEL32.dll
 0002:000000d8       __imp_SetEndOfFile         000000014003f0d8     kernel32:KERNEL32.dll
 0002:000000e0       __imp_SetFilePointerEx     000000014003f0e0     kernel32:KERNEL32.dll
 0002:000000e8       __imp_ReadFile             000000014003f0e8     kernel32:KERNEL32.dll
 0002:000000f0       __imp_WriteFile            000000014003f0f0     kernel32:KERNEL32.dll
 0002:000000f8       __imp_OutputDebugStringA   000000014003f0f8     kernel32:KERNEL32.dll
 0002:00000100       __imp_ExitProcess          000000014003f100     kernel32:KERNEL32.dll
 0002:00000108       __imp_GetCurrentProcess    000000014003f108     kernel32:KERNEL32.dll
 0002:00000110       __imp_FormatMessageA       000000014003f110     kernel32:KERNEL32.dll
 0002:00000118       __imp_GetACP               000000014003f118     kernel32:KERNEL32.dll
 0002:00000120       __imp_GetFullPathNameA     000000014003f120     kernel32:KERNEL32.dll
 0002:00000128       __imp_GetFileAttributesA   000000014003f128     kernel32:KERNEL32.dll
 0002:00000130       __imp_GetShortPathNameA    000000014003f130     kernel32:KERNEL32.dll
 0002:00000138       __imp_TlsGetValue          000000014003f138     kernel32:KERNEL32.dll
 0002:00000140       __imp_TlsSetValue          000000014003f140     kernel32:KERNEL32.dll
 0002:00000148       __imp_TlsFree              000000014003f148     kernel32:KERNEL32.dll
 0002:00000150       __imp_EncodePointer        000000014003f150     kernel32:KERNEL32.dll
 0002:00000158       __imp_GetSystemTimeAsFileTime 000000014003f158     kernel32:KERNEL32.dll
 0002:00000160       \177KERNEL32_NULL_THUNK_DATA 000000014003f160     kernel32:KERNEL32.dll
 0002:00000168       __imp_?_Xlength_error@std@@YAXPEBD@Z 000000014003f168     msvcprt:MSVCP100.dll
 0002:00000170       __imp_?_Orphan_all@_Container_base0@std@@QEAAXXZ 000000014003f170     msvcprt:MSVCP100.dll
 0002:00000178       \177MSVCP100_NULL_THUNK_DATA 000000014003f178     msvcprt:MSVCP100.dll
 0002:00000180       __imp_realloc              000000014003f180     MSVCRT:MSVCR100.dll
 0002:00000188       __imp_memset               000000014003f188     MSVCRT:MSVCR100.dll
 0002:00000190       __imp_free                 000000014003f190     MSVCRT:MSVCR100.dll
 0002:00000198       __imp_??3@YAXPEAX@Z        000000014003f198     MSVCRT:MSVCR100.dll
 0002:000001a0       __imp___CxxFrameHandler3   000000014003f1a0     MSVCRT:MSVCR100.dll
 0002:000001a8       __imp_printf               000000014003f1a8     MSVCRT:MSVCR100.dll
 0002:000001b0       __imp_sprintf              000000014003f1b0     MSVCRT:MSVCR100.dll
 0002:000001b8       __imp_??_V@YAXPEAX@Z       000000014003f1b8     MSVCRT:MSVCR100.dll
 0002:000001c0       __imp_??2@YAPEAX_K@Z       000000014003f1c0     MSVCRT:MSVCR100.dll
 0002:000001c8       __imp__vsnprintf           000000014003f1c8     MSVCRT:MSVCR100.dll
 0002:000001d0       __imp_??_U@YAPEAX_K@Z      000000014003f1d0     MSVCRT:MSVCR100.dll
 0002:000001d8       __imp__purecall            000000014003f1d8     MSVCRT:MSVCR100.dll
 0002:000001e0       __imp_strncpy              000000014003f1e0     MSVCRT:MSVCR100.dll
 0002:000001e8       __imp_rand                 000000014003f1e8     MSVCRT:MSVCR100.dll
 0002:000001f0       __imp__CxxThrowException   000000014003f1f0     MSVCRT:MSVCR100.dll
 0002:000001f8       __imp_memmove              000000014003f1f8     MSVCRT:MSVCR100.dll
 0002:00000200       __imp_??0exception@std@@QEAA@AEBQEBD@Z 000000014003f200     MSVCRT:MSVCR100.dll
 0002:00000208       __imp_?what@exception@std@@UEBAPEBDXZ 000000014003f208     MSVCRT:MSVCR100.dll
 0002:00000210       __imp_??1exception@std@@UEAA@XZ 000000014003f210     MSVCRT:MSVCR100.dll
 0002:00000218       __imp_??0exception@std@@QEAA@AEBV01@@Z 000000014003f218     MSVCRT:MSVCR100.dll
 0002:00000220       __imp_malloc               000000014003f220     MSVCRT:MSVCR100.dll
 0002:00000228       __imp__mbschr              000000014003f228     MSVCRT:MSVCR100.dll
 0002:00000230       __imp__mbscmp              000000014003f230     MSVCRT:MSVCR100.dll
 0002:00000238       __imp___C_specific_handler 000000014003f238     MSVCRT:MSVCR100.dll
 0002:00000240       __imp_strchr               000000014003f240     MSVCRT:MSVCR100.dll
 0002:00000248       __imp_sprintf_s            000000014003f248     MSVCRT:MSVCR100.dll
 0002:00000250       __imp_vsprintf_s           000000014003f250     MSVCRT:MSVCR100.dll
 0002:00000258       __imp__mbsnicmp            000000014003f258     MSVCRT:MSVCR100.dll
 0002:00000260       __imp_scanf                000000014003f260     MSVCRT:MSVCR100.dll
 0002:00000268       __imp_gets                 000000014003f268     MSVCRT:MSVCR100.dll
 0002:00000270       __imp_fread                000000014003f270     MSVCRT:MSVCR100.dll
 0002:00000278       __imp_feof                 000000014003f278     MSVCRT:MSVCR100.dll
 0002:00000280       __imp_strerror             000000014003f280     MSVCRT:MSVCR100.dll
 0002:00000288       __imp__mbsstr              000000014003f288     MSVCRT:MSVCR100.dll
 0002:00000290       __imp_fclose               000000014003f290     MSVCRT:MSVCR100.dll
 0002:00000298       __imp_ferror               000000014003f298     MSVCRT:MSVCR100.dll
 0002:000002a0       __imp_ungetc               000000014003f2a0     MSVCRT:MSVCR100.dll
 0002:000002a8       __imp_fopen                000000014003f2a8     MSVCRT:MSVCR100.dll
 0002:000002b0       __imp_freopen              000000014003f2b0     MSVCRT:MSVCR100.dll
 0002:000002b8       __imp_getc                 000000014003f2b8     MSVCRT:MSVCR100.dll
 0002:000002c0       __imp___iob_func           000000014003f2c0     MSVCRT:MSVCR100.dll
 0002:000002c8       __imp_fprintf              000000014003f2c8     MSVCRT:MSVCR100.dll
 0002:000002d0       __imp_isspace              000000014003f2d0     MSVCRT:MSVCR100.dll
 0002:000002d8       __imp_strftime             000000014003f2d8     MSVCRT:MSVCR100.dll
 0002:000002e0       __imp_strtod               000000014003f2e0     MSVCRT:MSVCR100.dll
 0002:000002e8       __imp_strncat              000000014003f2e8     MSVCRT:MSVCR100.dll
 0002:000002f0       __imp_strcspn              000000014003f2f0     MSVCRT:MSVCR100.dll
 0002:000002f8       __imp__setjmp              000000014003f2f8     MSVCRT:MSVCR100.dll
 0002:00000300       __imp_calloc               000000014003f300     MSVCRT:MSVCR100.dll
 0002:00000308       __imp_longjmp              000000014003f308     MSVCRT:MSVCR100.dll
 0002:00000310       __imp_strcoll              000000014003f310     MSVCRT:MSVCR100.dll
 0002:00000318       __imp_floor                000000014003f318     MSVCRT:MSVCR100.dll
 0002:00000320       __imp_pow                  000000014003f320     MSVCRT:MSVCR100.dll
 0002:00000328       __imp_memcmp               000000014003f328     MSVCRT:MSVCR100.dll
 0002:00000330       __imp_iscntrl              000000014003f330     MSVCRT:MSVCR100.dll
 0002:00000338       __imp_localeconv           000000014003f338     MSVCRT:MSVCR100.dll
 0002:00000340       __imp_isalnum              000000014003f340     MSVCRT:MSVCR100.dll
 0002:00000348       __imp_isdigit              000000014003f348     MSVCRT:MSVCR100.dll
 0002:00000350       __imp_isalpha              000000014003f350     MSVCRT:MSVCR100.dll
 0002:00000358       __imp_sscanf               000000014003f358     MSVCRT:MSVCR100.dll
 0002:00000360       __imp_strlen               000000014003f360     MSVCRT:MSVCR100.dll
 0002:00000368       __imp_strcpy               000000014003f368     MSVCRT:MSVCR100.dll
 0002:00000370       __imp__snprintf            000000014003f370     MSVCRT:MSVCR100.dll
 0002:00000378       __imp_setlocale            000000014003f378     MSVCRT:MSVCR100.dll
 0002:00000380       __imp_strcat               000000014003f380     MSVCRT:MSVCR100.dll
 0002:00000388       __imp__mbsnbcpy            000000014003f388     MSVCRT:MSVCR100.dll
 0002:00000390       __imp__mbsnbicmp           000000014003f390     MSVCRT:MSVCR100.dll
 0002:00000398       __imp_strcpy_s             000000014003f398     MSVCRT:MSVCR100.dll
 0002:000003a0       __imp_?terminate@@YAXXZ    000000014003f3a0     MSVCRT:MSVCR100.dll
 0002:000003a8       __imp__unlock              000000014003f3a8     MSVCRT:MSVCR100.dll
 0002:000003b0       __imp___dllonexit          000000014003f3b0     MSVCRT:MSVCR100.dll
 0002:000003b8       __imp__lock                000000014003f3b8     MSVCRT:MSVCR100.dll
 0002:000003c0       __imp__onexit              000000014003f3c0     MSVCRT:MSVCR100.dll
 0002:000003c8       __imp__amsg_exit           000000014003f3c8     MSVCRT:MSVCR100.dll
 0002:000003d0       __imp___getmainargs        000000014003f3d0     MSVCRT:MSVCR100.dll
 0002:000003d8       __imp__XcptFilter          000000014003f3d8     MSVCRT:MSVCR100.dll
 0002:000003e0       __imp__exit                000000014003f3e0     MSVCRT:MSVCR100.dll
 0002:000003e8       __imp__cexit               000000014003f3e8     MSVCRT:MSVCR100.dll
 0002:000003f0       __imp___initenv            000000014003f3f0     MSVCRT:MSVCR100.dll
 0002:000003f8       __imp__initterm            000000014003f3f8     MSVCRT:MSVCR100.dll
 0002:00000400       __imp__initterm_e          000000014003f400     MSVCRT:MSVCR100.dll
 0002:00000408       __imp__configthreadlocale  000000014003f408     MSVCRT:MSVCR100.dll
 0002:00000410       __imp___setusermatherr     000000014003f410     MSVCRT:MSVCR100.dll
 0002:00000418       __imp__commode             000000014003f418     MSVCRT:MSVCR100.dll
 0002:00000420       __imp__fmode               000000014003f420     MSVCRT:MSVCR100.dll
 0002:00000428       __imp___set_app_type       000000014003f428     MSVCRT:MSVCR100.dll
 0002:00000430       __imp_?_type_info_dtor_internal_method@type_info@@QEAAXXZ 000000014003f430     MSVCRT:MSVCR100.dll
 0002:00000438       __imp__time64              000000014003f438     MSVCRT:MSVCR100.dll
 0002:00000440       __imp_strtoul              000000014003f440     MSVCRT:MSVCR100.dll
 0002:00000448       __imp__localtime64         000000014003f448     MSVCRT:MSVCR100.dll
 0002:00000450       __imp_strpbrk              000000014003f450     MSVCRT:MSVCR100.dll
 0002:00000458       __imp_memchr               000000014003f458     MSVCRT:MSVCR100.dll
 0002:00000460       __imp_islower              000000014003f460     MSVCRT:MSVCR100.dll
 0002:00000468       __imp_ispunct              000000014003f468     MSVCRT:MSVCR100.dll
 0002:00000470       __imp_isupper              000000014003f470     MSVCRT:MSVCR100.dll
 0002:00000478       __imp_isxdigit             000000014003f478     MSVCRT:MSVCR100.dll
 0002:00000480       __imp_toupper              000000014003f480     MSVCRT:MSVCR100.dll
 0002:00000488       __imp_tolower              000000014003f488     MSVCRT:MSVCR100.dll
 0002:00000490       __imp__HUGE                000000014003f490     MSVCRT:MSVCR100.dll
 0002:00000498       __imp_srand                000000014003f498     MSVCRT:MSVCR100.dll
 0002:000004a0       __imp_ldexp                000000014003f4a0     MSVCRT:MSVCR100.dll
 0002:000004a8       __imp_frexp                000000014003f4a8     MSVCRT:MSVCR100.dll
 0002:000004b0       __imp_exp                  000000014003f4b0     MSVCRT:MSVCR100.dll
 0002:000004b8       __imp_log10                000000014003f4b8     MSVCRT:MSVCR100.dll
 0002:000004c0       __imp_log                  000000014003f4c0     MSVCRT:MSVCR100.dll
 0002:000004c8       __imp_sqrt                 000000014003f4c8     MSVCRT:MSVCR100.dll
 0002:000004d0       __imp_modf                 000000014003f4d0     MSVCRT:MSVCR100.dll
 0002:000004d8       __imp_fmod                 000000014003f4d8     MSVCRT:MSVCR100.dll
 0002:000004e0       __imp_ceil                 000000014003f4e0     MSVCRT:MSVCR100.dll
 0002:000004e8       __imp_atan2                000000014003f4e8     MSVCRT:MSVCR100.dll
 0002:000004f0       __imp_atan                 000000014003f4f0     MSVCRT:MSVCR100.dll
 0002:000004f8       __imp_acos                 000000014003f4f8     MSVCRT:MSVCR100.dll
 0002:00000500       __imp_memcpy               000000014003f500     MSVCRT:MSVCR100.dll
 0002:00000508       __imp_fputs                000000014003f508     MSVCRT:MSVCR100.dll
 0002:00000510       __imp__errno               000000014003f510     MSVCRT:MSVCR100.dll
 0002:00000518       __imp_exit                 000000014003f518     MSVCRT:MSVCR100.dll
 0002:00000520       __imp_sin                  000000014003f520     MSVCRT:MSVCR100.dll
 0002:00000528       __imp_sinh                 000000014003f528     MSVCRT:MSVCR100.dll
 0002:00000530       __imp_cos                  000000014003f530     MSVCRT:MSVCR100.dll
 0002:00000538       __imp_cosh                 000000014003f538     MSVCRT:MSVCR100.dll
 0002:00000540       __imp_tan                  000000014003f540     MSVCRT:MSVCR100.dll
 0002:00000548       __imp_tanh                 000000014003f548     MSVCRT:MSVCR100.dll
 0002:00000550       __imp_asin                 000000014003f550     MSVCRT:MSVCR100.dll
 0002:00000558       \177MSVCR100_NULL_THUNK_DATA 000000014003f558     MSVCRT:MSVCR100.dll
 0002:00000560       __imp_timeGetTime          000000014003f560     winmm:WINMM.dll
 0002:00000568       __imp_timeBeginPeriod      000000014003f568     winmm:WINMM.dll
 0002:00000570       \177WINMM_NULL_THUNK_DATA  000000014003f570     winmm:WINMM.dll
 0002:00000578       __imp_recv                 000000014003f578     Ws2_32:WS2_32.dll
 0002:00000580       __imp_socket               000000014003f580     Ws2_32:WS2_32.dll
 0002:00000588       __imp_connect              000000014003f588     Ws2_32:WS2_32.dll
 0002:00000590       __imp_send                 000000014003f590     Ws2_32:WS2_32.dll
 0002:00000598       __imp_htons                000000014003f598     Ws2_32:WS2_32.dll
 0002:000005a0       __imp_closesocket          000000014003f5a0     Ws2_32:WS2_32.dll
 0002:000005a8       __imp_ioctlsocket          000000014003f5a8     Ws2_32:WS2_32.dll
 0002:000005b0       __imp_WSAGetLastError      000000014003f5b0     Ws2_32:WS2_32.dll
 0002:000005b8       __imp_WSACleanup           000000014003f5b8     Ws2_32:WS2_32.dll
 0002:000005c0       __imp_setsockopt           000000014003f5c0     Ws2_32:WS2_32.dll
 0002:000005c8       __imp_WSAStartup           000000014003f5c8     Ws2_32:WS2_32.dll
 0002:000005d0       __imp_inet_ntoa            000000014003f5d0     Ws2_32:WS2_32.dll
 0002:000005d8       __imp_gethostbyname        000000014003f5d8     Ws2_32:WS2_32.dll
 0002:000005e0       \177WS2_32_NULL_THUNK_DATA 000000014003f5e0     Ws2_32:WS2_32.dll
 0002:000005e8       __imp_MiniDumpWriteDump    000000014003f5e8     Dbghelp:dbghelp.dll
 0002:000005f0       \177dbghelp_NULL_THUNK_DATA 000000014003f5f0     Dbghelp:dbghelp.dll
 0002:000005f8       __xc_a                     000000014003f5f8     MSVCRT:cinitexe.obj
 0002:00000640       __xc_z                     000000014003f640     MSVCRT:cinitexe.obj
 0002:00000648       __xi_a                     000000014003f648     MSVCRT:cinitexe.obj
 0002:00000660       __xi_z                     000000014003f660     MSVCRT:cinitexe.obj
 0002:00000690       ??_C@_0BC@NJEHAFJB@?$CFY?9?$CFm?9?$CFd?5?$CFH?9?$CFM?9?$CFS?$AA@ 000000014003f690     FileLogger.obj
 0002:000006b0       ??_7?$CBaseList@PEAVCDataPacket@@@container@wylib@@6B@ 000000014003f6b0     FileLogger.obj
 0002:000006d0       ??_7?$CLockList@PEAVCDataPacket@@@container@wylib@@6B@ 000000014003f6d0     FileLogger.obj
 0002:000006f0       ??_7?$CQueueList@PEAVCDataPacket@@@container@wylib@@6B@ 000000014003f6f0     FileLogger.obj
 0002:00000738       ??_7COPMToFile@@6BCFileStream@stream@wylib@@@ 000000014003f738     FileLogger.obj
 0002:00000778       ??_7COPMToFile@@6BCBaseThread@thread@wylib@@@ 000000014003f778     FileLogger.obj
 0002:00000798       ??_C@_01EEMJAFIK@?6?$AA@   000000014003f798     FileLogger.obj
 0002:0000079c       ??_C@_05LJEOGPLP@?$FLERR?$FN?$AA@ 000000014003f79c     FileLogger.obj
 0002:000007a4       ??_C@_05GAFCNFHN@?$FLTIP?$FN?$AA@ 000000014003f7a4     FileLogger.obj
 0002:000007ac       ??_C@_05LGFCPBEJ@?$FLWRN?$FN?$AA@ 000000014003f7ac     FileLogger.obj
 0002:000007b2       ??_C@_00CNPNBAHC@?$AA@     000000014003f7b2     FileLogger.obj
 0002:000007b8       ??_C@_0CA@KBPLFHHM@?$FL?$CF02d?9?$CF02d?9?$CF02d?5?$CF02d?3?$CF02d?3?$CF02d?$FN?$AA@ 000000014003f7b8     FileLogger.obj
 0002:00000800       ??_C@_0CO@GJBFEKE@?$LP?U?O?P?H?U?V?$LO?O?$PL?O?$KC?J?$PN?A?$LP?5?$DN?5?$CF?920d?0?5?$LE?$PN?P?$LE?H?k@ 000000014003f800     FileLogger.obj
 0002:00000830       ??_C@_0DA@NMHIPJMJ@?$LD?$KM?$LE?s?$LP?i?D?Z?$LE?f?W?$NM?$LH?V?E?d?W?V?$LN?Z?J?$PN?5?$DN?5?$CF?920d?0?5@ 000000014003f830     FileLogger.obj
 0002:00000860       ??_C@_0CO@BHPEFCDL@?$LE?s?$LP?i?D?Z?$LE?f?W?$NM?$LH?V?E?d?W?V?$LN?Z?J?$PN?5?$DN?5?$CF?920d?0?5?$LP?U@ 000000014003f860     FileLogger.obj
 0002:00000890       ??_C@_0CO@HFBKJBCO@?V?P?$LP?i?D?Z?$LE?f?W?$NM?$LH?V?E?d?W?V?$LN?Z?J?$PN?5?$DN?5?$CF?920d?0?5?$LP?U@ 000000014003f890     FileLogger.obj
 0002:000008c0       ??_C@_0CO@KACPIOKD@?P?$KB?$LP?i?D?Z?$LE?f?W?$NM?$LH?V?E?d?W?V?$LN?Z?J?$PN?5?$DN?5?$CF?920d?0?5?$LP?U@ 000000014003f8c0     FileLogger.obj
 0002:000008f0       ??_C@_0BK@IONKBFPL@?W?$NM?$LH?V?E?d?$LF?D?J?$PN?$LO?$NN?$LA?$PM?J?$PN?D?$LP?5?$DN?5?$CFd?$AN?6?$AA@ 000000014003f8f0     FileLogger.obj
 0002:00000910       ??_C@_0BE@DMHFPANB@?$CFY?9?$CFm?9?$CFd?5?$CFH?3?$CFM?3?$CFS?$AN?6?$AA@ 000000014003f910     FileLogger.obj
 0002:00000930       ??_C@_0FO@IKJPAOOE@?9?9?9?9?9?9?9?9?9?9?9?9?9?9?9?9?9?9?9?9?9?9?9?9?9?9?9?9?9?9?9?9@ 000000014003f930     FileLogger.obj
 0002:00000990       ??_C@_0BD@FOLNPDDM@FileLoggerStat?4log?$AA@ 000000014003f990     FileLogger.obj
 0002:00000a00       ??_7CTransAction@@6B@      000000014003fa00     ActionMgr.obj
 0002:00000a30       ??_C@_0BD@NKABAPFD@?9?9?9?5NextAction?5?9?9?9?$AA@ 000000014003fa30     ActionMgr.obj
 0002:00000a50       ??_7?$CBaseList@PEAVCAction@@@container@wylib@@6B@ 000000014003fa50     ActionMgr.obj
 0002:00000a68       ??_C@_0CH@MIGIDBNC@Counter?$DMclass?5EntityHandle?$DO?3?3add@ 000000014003fa68     ActionMgr.obj
 0002:00000a98       ??_7CActionMgr@@6B@        000000014003fa98     ActionMgr.obj
 0002:00000aa8       ??_7CAutoCombatAction@@6B@ 000000014003faa8     ActionMgr.obj
 0002:00000ad8       ??_C@_0BC@FIALGCLC@?$FL?$CFs?$FN?5Start?5Action?$AA@ 000000014003fad8     AutoCombatAction.obj
 0002:00000af0       ??_C@_09LEPFCIGE@?$EAlevel?5?$CFd?$AA@ 000000014003faf0     EnterFubenAction.obj
 0002:00000b00       ??_C@_0BB@COOOFPFC@?$EAaddviptime?52?5?$CFd?$AA@ 000000014003fb00     TransAction.obj
 0002:00000b18       ??_C@_0BN@MKOMLNBH@Invalid?5transport?5sceneid?3?$CFd?$AA@ 000000014003fb18     TransAction.obj
 0002:00000b38       ??_C@_0DK@JNEJKHHO@?$FLTrasnAction?$FNSend?5Req?5?3?5sceneid?$DN@ 000000014003fb38     TransAction.obj
 0002:00000b78       ??_C@_0O@LPHOHMCE@?5Unkown?5error?$AA@ 000000014003fb78     DbAgent.obj
 0002:00000b88       ??_C@_0BB@DIJNDAF@select?5job?5error?$AA@ 000000014003fb88     DbAgent.obj
 0002:00000ba0       ??_C@_0BC@LOKAPGBN@client?5camp?5error?$AA@ 000000014003fba0     DbAgent.obj
 0002:00000bb8       ??_C@_0BM@IKKINCPA@Rand?5name?5database?5is?5empty?$AA@ 000000014003fbb8     DbAgent.obj
 0002:00000bd8       ??_C@_09ODGIAMHI@sex?5error?$AA@ 000000014003fbd8     DbAgent.obj
 0002:00000be8       ??_C@_0O@PKLCLMPP@No?5user?5exist?$AA@ 000000014003fbe8     DbAgent.obj
 0002:00000bf8       ??_C@_0O@PCBBANEJ@No?5gate?5found?$AA@ 000000014003fbf8     DbAgent.obj
 0002:00000c08       ??_C@_0BE@CHNPINMM@client?5select?5error?$AA@ 000000014003fc08     DbAgent.obj
 0002:00000c20       ??_C@_0CH@LAFEDGMP@User?5last?5save?5data?5error?0forbid@ 000000014003fc20     DbAgent.obj
 0002:00000c48       ??_C@_0BB@CNLCBIIJ@server?5not?5ready?$AA@ 000000014003fc48     DbAgent.obj
 0002:00000c60       ??_C@_0CJ@NKENHDFC@No?5session?5Data?5send?5from?5sessio@ 000000014003fc60     DbAgent.obj
 0002:00000c90       ??_C@_09ONBJCFOC@sql?5Error?$AA@ 000000014003fc90     DbAgent.obj
 0002:00000ca0       ??_C@_0M@PCENNPGA@?$CFd?4?$CFd?4?$CFd?4?$CFd?$AA@ 000000014003fca0     DbAgent.obj
 0002:00000cb0       ??_C@_0CF@NFGHAEGC@?$FL?$CFs?$FN?5Create?5actor?5fail?0?5errorcod@ 000000014003fcb0     DbAgent.obj
 0002:00000ce0       ??_7?$CBaseList@VCClientMonster@@@container@wylib@@6B@ 000000014003fce0     LogicAgent.obj
 0002:00000d00       ??_7?$CBaseList@VCClientActor@@@container@wylib@@6B@ 000000014003fd00     LogicAgent.obj
 0002:00000d20       ??_7?$CBaseList@UtagClientSkillData@@@container@wylib@@6B@ 000000014003fd20     LogicAgent.obj
 0002:00000d40       ??_7?$CBaseList@TItemSeries@CUserItem@@@container@wylib@@6B@ 000000014003fd40     LogicAgent.obj
 0002:00000d60       ??_7CChatSystem@@6B@       000000014003fd60     LogicAgent.obj
 0002:00000d80       ??_7CDefaultSystem@@6B@    000000014003fd80     LogicAgent.obj
 0002:00000da0       ??_7CSkillSystem@@6B@      000000014003fda0     LogicAgent.obj
 0002:00000dc0       ??_7CItemSystem@@6B@       000000014003fdc0     LogicAgent.obj
 0002:00000dd8       ??_C@_0BD@LMMLKMFD@430481188112113256?$AA@ 000000014003fdd8     LogicAgent.obj
 0002:00000df0       ??_C@_0CH@NEKPFDPI@?$FL?$CFslogin?5?5on?5get?5user?5List?0?5erro@ 000000014003fdf0     LogicAgent.obj
 0002:00000e18       ??_C@_0CH@OAFCNGCK@?$FL?$CFs?$FNlogin?5?5on?5session?5fail?0?5erro@ 000000014003fe18     LogicAgent.obj
 0002:00000e70       ??_7CMiscActionMgr@@6B@    000000014003fe70     LogicAgent.obj
 0002:00000e78       ??_C@_0BL@LBBHADGF@?$FL?$CFs?$FNdisconnect?5from?5logic?5?$AA@ 000000014003fe78     LogicAgent.obj
 0002:00000ef0       ??_7CLogicAgent@@6B@       000000014003fef0     LogicAgent.obj
 0002:00000f50       ??_7?$CSwapQueue@PEAVCDataPacket@@@@6B@ 000000014003ff50     LogicAgent.obj
 0002:00000fb8       ??_C@_0BN@CMIENPLL@Error?5loading?5RunTimeData?5?$CFs?$AA@ 000000014003ffb8     ConfigLoader.obj
 0002:00000fd8       ??_C@_0M@PMEGHMLF@maxInterval?$AA@ 000000014003ffd8     ConfigLoader.obj
 0002:00000fe8       ??_C@_0M@GMDFGMFP@minInterval?$AA@ 000000014003ffe8     ConfigLoader.obj
 0002:00000ff8       ??_C@_07PHHAOBIP@talkNum?$AA@ 000000014003fff8     ConfigLoader.obj
 0002:00001000       ??_C@_0BA@BOFLKOAH@RobotChatConfig?$AA@ 0000000140040000     ConfigLoader.obj
 0002:00001010       ??_C@_0BD@OLBABOEK@vector?$DMT?$DO?5too?5long?$AA@ 0000000140040010     ConfigLoader.obj
 0002:00001030       ??_7bad_alloc@std@@6B@     0000000140040030     ConfigLoader.obj
 0002:00001048       ??_7?$CBaseList@P8CConfigLoader@@EAA_NXZ@container@wylib@@6B@ 0000000140040048     ConfigLoader.obj
 0002:00001088       ??_C@_0BM@CINIDCGI@unexpected?5error?5on?5load?5?$CFs?$AA@ 0000000140040088     ConfigLoader.obj
 0002:000010a8       ??_C@_0BJ@BKNDDLH@load?5?$CFs?5config?5error?3?5?$CFs?$AA@ 00000001400400a8     ConfigLoader.obj
 0002:000010c8       ??_C@_0BE@CCEFDICF@syntax?5error?5on?5?5?$CFs?$AA@ 00000001400400c8     ConfigLoader.obj
 0002:000010e0       ??_C@_0BH@JMNICLFE@unable?5to?5load?5from?5?$CFs?$AA@ 00000001400400e0     ConfigLoader.obj
 0002:000010f8       ??_C@_0CJ@PLFKIMJC@unable?5to?5load?5from?5?$CFs?0pLuaConfi@ 00000001400400f8     ConfigLoader.obj
 0002:00001178       ??_C@_0BJ@PFCHFIMG@?N?$NO?$LH?$KI?$LE?r?$LP?$KK?$LB?m?$CFs?$KD?$KM?$LD?u?J?$LM?$LL?$KP?J?$KH?$LA?$NM?$AA@ 0000000140040178     ConfigLoader.obj
 0002:00001198       ??_C@_09LOEKLLAE@RobotChat?$AA@ 0000000140040198     ConfigLoader.obj
 0002:000011a8       ??_C@_0CE@CIIHFMIN@unexcepted?5error?5on?5load?5config?3@ 00000001400401a8     ConfigLoader.obj
 0002:000011d0       ??_C@_0BN@GANCKN@?$LG?A?H?$KB?T?$KE?$LE?$KG?$MA?m?$LK?s?$LF?D?E?d?V?C?N?D?$LM?$PO?$CFs?J?$KH?$LA?$NM?$AA@ 00000001400401d0     ConfigLoader.obj
 0002:000011f0       ??_C@_0BB@BCOHMKBA@?T?$KE?$LE?$KG?$MA?m?N?D?$LM?$PO?$CFs?J?$KH?$LA?$NM?$AA@ 00000001400401f0     ConfigLoader.obj
 0002:00001208       ??_C@_0CD@POEHGPBH@unable?5to?5load?5config?5file?5from?5@ 0000000140040208     ConfigLoader.obj
 0002:00001230       ??_C@_0P@OEPDJCEL@Monster?5Config?$AA@ 0000000140040230     ConfigLoader.obj
 0002:00001240       ??_C@_0CG@BDDDDFKF@data?1config?1monster?1MonsterConfi@ 0000000140040240     ConfigLoader.obj
 0002:00001268       ??_C@_0N@JKHAKAKB@quest?5Config?$AA@ 0000000140040268     ConfigLoader.obj
 0002:00001278       ??_C@_0CA@PDGNLIMI@data?1config?1quest?1StdQuests?4txt?$AA@ 0000000140040278     ConfigLoader.obj
 0002:00001298       ??_C@_0M@ENOEOIBP@chat?5config?$AA@ 0000000140040298     ConfigLoader.obj
 0002:000012a8       ??_C@_0BP@NKHAOIKP@data?1robot?1langRobotconfig?4txt?$AA@ 00000001400402a8     ConfigLoader.obj
 0002:000012c8       ??_C@_0N@LPFPDIAA@scene?5config?$AA@ 00000001400402c8     ConfigLoader.obj
 0002:000012d8       ??_C@_0BK@HFNHGIOK@data?1envir?1staticZone?4txt?$AA@ 00000001400402d8     ConfigLoader.obj
 0002:000012f4       ??_C@_02DPKJAMEF@?$CFd?$AA@ 00000001400402f4     LanguageTextProvider.obj
 0002:00001300       ??_7?$CRefObject@VCAnsiString@string@wylib@@@misc@wylib@@6B@ 0000000140040300     LanguageTextProvider.obj
 0002:00001310       ??_7CAnsiString@string@wylib@@6B@ 0000000140040310     LanguageTextProvider.obj
 0002:00001348       ??_C@_0O@BDBOIKND@LangDataAlloc?$AA@ 0000000140040348     LanguageTextProvider.obj
 0002:00001368       ??_7CLanguageTextProvider@@6B@ 0000000140040368     LanguageTextProvider.obj
 0002:000013d0       ??_7?$CRefObjectImpl@VCAnsiString@string@wylib@@@misc@wylib@@6B@ 00000001400403d0     LanguageTextProvider.obj
 0002:000013f0       ??_7?$CTRefString@VCAnsiString@string@wylib@@D@string@wylib@@6B@ 00000001400403f0     LanguageTextProvider.obj
 0002:00001420       ??_C@_0BI@BOKMIMIE@?$FLLanguage?5Config?5Error?$FN?$AA@ 0000000140040420     LanguageTextProvider.obj
 0002:00001438       ??_C@_0BH@BILPMGJF@?O?$LF?M?$LD?L?a?J?$LO?O?$LF?M?$LD?P?E?O?$KC?$LB?m?N?$KK?$LP?U?$AA@ 0000000140040438     LanguageTextProvider.obj
 0002:00001478       ??_C@_0CJ@JOOPMBDJ@unexpected?5error?5on?5load?5Languag@ 0000000140040478     LanguageTextProvider.obj
 0002:000014a8       ??_C@_0BP@JCEDFACG@load?5Language?5config?5error?3?5?$CFs?$AA@ 00000001400404a8     LanguageTextProvider.obj
 0002:000014c8       ??_C@_0CC@CNBDNBBE@?$FLLANGUAGE?$FNLuaguage?5Load?5Complete@ 00000001400404c8     LanguageTextProvider.obj
 0002:000014ec       ??_C@_04EPLBDGIG@Lang?$AA@ 00000001400404ec     LanguageTextProvider.obj
 0002:000014f8       ??_C@_0CB@PKHAIBJO@unable?5to?5set?5Language?5code?9text@ 00000001400404f8     LanguageTextProvider.obj
 0002:00001520       ??_C@_0CG@GGFCFFFM@unable?5to?5pre?9precess?5Language?5c@ 0000000140040520     LanguageTextProvider.obj
 0002:00001548       ??_C@_0BE@MLKMABDF@_LANGUAGE_INCLUDED_?$AA@ 0000000140040548     LanguageTextProvider.obj
 0002:00001560       ??_C@_0CF@PKGEOFC@unable?5to?5load?5file?5?$CFs?5error?5cod@ 0000000140040560     LanguageTextProvider.obj
 0002:00001658       ??_7CQuestConfigLoader@@6B@ 0000000140040658     QuestConfig.obj
 0002:000016b8       ??_C@_04MEMAJGDJ@name?$AA@ 00000001400406b8     QuestConfig.obj
 0002:000016c0       ??_C@_08KBENMAIM@entityid?$AA@ 00000001400406c0     QuestConfig.obj
 0002:000016d0       ??_C@_0M@BOAKFBON@Monster?N?$KK?$LP?U?$AA@ 00000001400406d0     QuestConfig.obj
 0002:000016e0       ??_C@_07GOHPBKOH@Monster?$AA@ 00000001400406e0     QuestConfig.obj
 0002:000016e8       ??_C@_0L@BAOIHAAN@entityName?$AA@ 00000001400406e8     QuestConfig.obj
 0002:000016f8       ??_C@_07DGAIOOGF@sceneid?$AA@ 00000001400406f8     QuestConfig.obj
 0002:00001700       ??_C@_08CBBFJFMD@location?$AA@ 0000000140040700     QuestConfig.obj
 0002:0000170c       ??_C@_05IOMEMJEC@count?$AA@ 000000014004070c     QuestConfig.obj
 0002:00001714       ??_C@_06JJLAMBGK@target?$AA@ 0000000140040714     QuestConfig.obj
 0002:0000171c       ??_C@_04OLDKMDKP@comp?$AA@ 000000014004071c     QuestConfig.obj
 0002:00001724       ??_C@_03BPGDPAOH@npc?$AA@  0000000140040724     QuestConfig.obj
 0002:00001728       ??_C@_05ELCCFCFH@scene?$AA@ 0000000140040728     QuestConfig.obj
 0002:00001730       ??_C@_04JCOBBJMN@prom?$AA@ 0000000140040730     QuestConfig.obj
 0002:00001738       ??_C@_09KPHKOKCC@timelimit?$AA@ 0000000140040738     QuestConfig.obj
 0002:00001748       ??_C@_07ILPLHPNM@entrust?$AA@ 0000000140040748     QuestConfig.obj
 0002:00001750       ??_C@_04GPMDFGEJ@type?$AA@ 0000000140040750     QuestConfig.obj
 0002:00001758       ??_C@_02EGCJHIOB@id?$AA@   0000000140040758     QuestConfig.obj
 0002:00001760       ??_C@_0BA@LCMBCPAA@?$LG?A?H?$KB?H?N?N?q?J?$PN?$LO?$NN?3?$CFd?$AA@ 0000000140040760     QuestConfig.obj
 0002:00001770       ??_C@_0P@OCKDNLGK@?H?N?N?q?$LB?m?E?d?V?C?N?$KK?$LP?U?$AA@ 0000000140040770     QuestConfig.obj
 0002:00001780       ??_C@_08OCDGLIFJ@StdQuest?$AA@ 0000000140040780     QuestConfig.obj
 0002:000017e0       ??_C@_06KHGJFLCB@YBNAME?$AA@ 00000001400407e0     VSPDef.obj
 0002:000017e8       ??_C@_0L@GIOKNHF@BINDYBNAME?$AA@ 00000001400407e8     VSPDef.obj
 0002:000017f8       ??_C@_08NLLCCDMH@COINNAME?$AA@ 00000001400407f8     VSPDef.obj
 0002:00001808       ??_C@_0N@FBLLENFJ@BINDCOINNAME?$AA@ 0000000140040808     VSPDef.obj
 0002:00001818       ??_C@_08NFMLECJ@GAMENAME?$AA@ 0000000140040818     VSPDef.obj
 0002:00001828       ??_C@_08OJIOLCCH@LANGUAGE?$AA@ 0000000140040828     VSPDef.obj
 0002:00001834       ??_C@_04GGDNIOBF@SPID?$AA@ 0000000140040834     VSPDef.obj
 0002:00001848       ??_7?$CBaseList@UDefinition@CVSPDefinition@@@container@wylib@@6B@ 0000000140040848     VSPDef.obj
 0002:000018b0       ??_C@_0CE@BILBKMNE@unable?5to?5load?5Definitions?5from?5@ 00000001400408b0     VSPDef.obj
 0002:000018d8       ??_C@_0CE@NLPCHNGH@?$FL?$CFs?$FN?5enter?5game?5fail?0?5errorcode?$DN@ 00000001400408d8     DefaultSystem.obj
 0002:00001908       ??_7CClientEntity@@6B@     0000000140040908     DefaultSystem.obj
 0002:00001928       ??_7CClientActor@@6B@      0000000140040928     DefaultSystem.obj
 0002:00001948       ??_7CClientMonster@@6B@    0000000140040948     DefaultSystem.obj
 0002:00001960       ??_C@_0CP@FLKGDMC@OnEnterScene?5sceneName?$DN?$CFs?5mapNam@ 0000000140040960     DefaultSystem.obj
 0002:00001aa8       ??_C@_09HCIJGPPG@?$EAlevel?530?$AA@ 0000000140040aa8     ItemSystem.obj
 0002:00001ab8       ??_C@_0BJ@HBEFHFNJ@Recv?5Initialize?5ItemList?$AA@ 0000000140040ab8     ItemSystem.obj
 0002:00001b30       ??_7CMiscSystem@@6B@       0000000140040b30     MiscSystem.obj
 0002:00001b98       ??_C@_0BD@HELHMCGB@CompleteMession?0?$CFd?$AA@ 0000000140040b98     QuestSystem.obj
 0002:00001bb0       ??_C@_0BI@EEBOOHNO@commonAcceptMissions?0?$CFd?$AA@ 0000000140040bb0     QuestSystem.obj
 0002:00001bc8       ??_C@_0DE@GKCOMNAG@GoAcceptQuest?5Error?0Can?5not?5Find@ 0000000140040bc8     QuestSystem.obj
 0002:00001c58       ??_7CQuestSystem@@6B@      0000000140040c58     QuestSystem.obj
 0002:00001d10       ?s_aHandler@CSkillSystem@@0QBQ81@EAAXAEAVCDataPacketReader@@@ZB 0000000140040d10     SkillSystem.obj
 0002:00001d48       ?szExceptionDumpFile@@3QBDB 0000000140040d48     main.obj
 0002:00001d68       ??_7CRobotConfig@@6B@      0000000140040d68     main.obj
 0002:00001df0       ??_C@_02HAOIJKIC@?$CFc?$AA@ 0000000140040df0     main.obj
 0002:00001df8       ??_C@_0BB@LEALKDLK@?$LG?A?H?$KB?E?d?V?C?N?D?$LM?$PO?J?$KH?$LA?$NM?$AA@ 0000000140040df8     main.obj
 0002:00001e10       ??_C@_08JJCPPHEH@?F?t?$LG?$KP?J?$KH?$LA?$NM?$AA@ 0000000140040e10     main.obj
 0002:00001e20       ??_C@_0BB@IBPMLBFE@?U?$PN?T?Z?M?$KD?V?$LJRobot?4?4?4?$AA@ 0000000140040e20     main.obj
 0002:00001e34       ??_C@_03FMPGBDC@dmp?$AA@   0000000140040e34     main.obj
 0002:00001e38       ??_C@_0BN@KDEKPEOL@accountname?5param?5is?5invalid?$AA@ 0000000140040e38     main.obj
 0002:00001e58       ??_C@_04HBNBFOKD@talk?$AA@ 0000000140040e58     main.obj
 0002:00001e60       ??_C@_04KNNLNNGO@quit?$AA@ 0000000140040e60     main.obj
 0002:00001e68       ??_C@_04MKNBDEPB@exit?$AA@ 0000000140040e68     main.obj
 0002:00001e70       ??_C@_02FDDMLJIO@?2q?$AA@  0000000140040e70     main.obj
 0002:00001e78       ??_C@_0BB@OPIILCAC@dmp?5?9?J?d?$LD?vdmp?P?E?O?$KC?$AA@ 0000000140040e78     main.obj
 0002:00001e90       ??_C@_0BK@ELFFKALM@count?5?9?$LC?i?$LP?$LE?$LF?$LB?G?$LA?$LF?D?T?Z?O?$NP?G?i?$LP?v?$AA@ 0000000140040e90     main.obj
 0002:00001eb0       ??_C@_0BK@MPEDEEFA@quit?5?9?5?M?$KD?V?$LJ?$LC?b?J?T?$LC?$KC?M?K?$LD?v?$LD?L?P?r?$AA@ 0000000140040eb0     main.obj
 0002:00001ed0       ??_C@_0BP@MMAHOJNO@Robot?5?F?t?$LG?$KP?$LD?I?$LJ?$KG?$KD?$KM?$LK?K?P?D?$LA?f?$LB?$LO?$LK?E?J?G?$CFs?$AA@ 0000000140040ed0     main.obj
 0002:00001ef0       ??_C@_0CM@JHDGHFGP@?9?9?9?9?9?9?9?9?9?9?9?9?9?9?9?9?9?9?9?9?9?9?9?9?9?9?9?9?9?9?9?9@ 0000000140040ef0     main.obj
 0002:00001f1c       ??_C@_05MKGBANIN@?$CFs?9?$CFd?$AA@ 0000000140040f1c     main.obj
 0002:00001f28       ??_C@_0BK@FLBLKKNM@Starting?5Robot?0?5Waiting?4?4?$AA@ 0000000140040f28     main.obj
 0002:00001f48       ??_C@_0BC@HLKCOJHO@Robot_?$CFs?4log?4html?$AA@ 0000000140040f48     main.obj
 0002:00001f88       ??_C@_03LOJJKLGJ@?4?4?1?$AA@ 0000000140040f88     main.obj
 0002:00001f90       ??_C@_0BA@BPBMMNJB@?$CFs?5Socket?5error?$AA@ 0000000140040f90     RobotClient.obj
 0002:00001fa0       ??_C@_0BL@MAFCLDHF@error?5status?$DN?$CFd?5disconnect?$AA@ 0000000140040fa0     RobotClient.obj
 0002:00001fc0       ??_C@_0BP@OLKHHCHG@?$LF?w?U?$PL?$CFs?L?W?$LN?S?W?V?$LN?S?N?$KK?$LH?G?W?h?H?$PL?D?$KD?J?$LN?J?$KH?$LA?$NM?$AA@ 0000000140040fc0     RobotClient.obj
 0002:00001fe0       ??_C@_0BD@DCGIFFOL@?A?$KM?$LN?S?$LF?$LN?$CFs?$LH?$PO?N?q?F?w?J?$KH?$LA?$NM?$AA@ 0000000140040fe0     RobotClient.obj
 0002:00001ff8       ??_C@_0BN@HNJAGIDO@?$LF?w?U?$PL?$CFs?L?W?$LN?S?W?V?$LN?S?J?U?$LL?$LK?$LD?e?$LD?$KE?$LG?H?J?$KH?$LA?$NM?$AA@ 0000000140040ff8     RobotClient.obj
 0002:00002018       ??_C@_0BN@NCKCGMFN@?$LF?w?U?$PL?$CFs?L?W?$LN?S?W?V?$LH?$KC?K?M?$LL?$LK?$LD?e?$LD?$KE?$LG?H?J?$KH?$LA?$NM?$AA@ 0000000140041018     RobotClient.obj
 0002:00002038       ??_C@_0BH@FPKJCIPC@?$LE?$LE?$LN?$KI?$CFs?$LP?M?$LL?$KH?$LG?K?L?W?$LN?S?W?V?J?$KH?$LA?$NM?$AA@ 0000000140041038     RobotClient.obj
 0002:00002050       ??_C@_0CB@OEDIAFAE@Recv?5data?5leng?5?$DN?$CFd?0?5may?5be?5error@ 0000000140041050     RobotClient.obj
 0002:00002078       ??_C@_0DJ@GMLMMJKM@?5recv?5invalid?5server?5data?0?5proto@ 0000000140041078     RobotClient.obj
 0002:000020b8       ??_C@_0DD@HPLJONKH@recv?5invalid?5server?5packet?0?5pack@ 00000001400410b8     RobotClient.obj
 0002:000020f0       ??_C@_0DO@PBAFKIFI@recv?5invalid?5server?5data?0?5proto?5@ 00000001400410f0     RobotClient.obj
 0002:00002130       ??_C@_05KJNJLLGA@level?$AA@ 0000000140041130     RobotConfig.obj
 0002:00002138       ??_C@_01EANLCPLP@y?$AA@    0000000140041138     RobotConfig.obj
 0002:0000213c       ??_C@_01FJMABOPO@x?$AA@    000000014004113c     RobotConfig.obj
 0002:00002140       ??_C@_05DOJGLPOI@sname?$AA@ 0000000140041140     RobotConfig.obj
 0002:00002148       ??_C@_03OBKGHBJN@sid?$AA@  0000000140041148     RobotConfig.obj
 0002:00002150       ??_C@_09NCNPAOCP@mappoints?$AA@ 0000000140041150     RobotConfig.obj
 0002:00002160       ??_C@_0BF@DAPPMIBN@Load?5Config?5finished?$AA@ 0000000140041160     RobotConfig.obj
 0002:00002178       ??_C@_06FLFKBDOL@doWord?$AA@ 0000000140041178     RobotConfig.obj
 0002:00002180       ??_C@_0N@EBIDEBPK@accountEndId?$AA@ 0000000140041180     RobotConfig.obj
 0002:00002190       ??_C@_0P@DOANJFMJ@accountStartId?$AA@ 0000000140041190     RobotConfig.obj
 0002:000021a0       ??_C@_04BBDAIEHH@pass?$AA@ 00000001400411a0     RobotConfig.obj
 0002:000021a8       ??_C@_0BI@NNENDHIC@No?5table?5accounts?5found?$AA@ 00000001400411a8     RobotConfig.obj
 0002:000021c0       ??_C@_08PCFHDHCP@accounts?$AA@ 00000001400411c0     RobotConfig.obj
 0002:000021d0       ??_C@_07FMPDHFFD@maxPort?$AA@ 00000001400411d0     RobotConfig.obj
 0002:000021d8       ??_C@_04LPGMAPLE@port?$AA@ 00000001400411d8     RobotConfig.obj
 0002:000021e0       ??_C@_02GIIHKPLE@ip?$AA@   00000001400411e0     RobotConfig.obj
 0002:000021e8       ??_C@_0BF@MLDBCKCJ@No?5table?5gates?5found?$AA@ 00000001400411e8     RobotConfig.obj
 0002:00002200       ??_C@_05FBMNCLHG@gates?$AA@ 0000000140041200     RobotConfig.obj
 0002:00002208       ??_C@_08MIGCEOEO@procName?$AA@ 0000000140041208     RobotConfig.obj
 0002:00002218       ??_C@_0M@HHGPNICA@serverIndex?$AA@ 0000000140041218     RobotConfig.obj
 0002:00002228       ??_C@_0BC@PJNNDNHF@loginAccountLimit?$AA@ 0000000140041228     RobotConfig.obj
 0002:00002240       ??_C@_0M@DACACEPI@RobotConfig?$AA@ 0000000140041240     RobotConfig.obj
 0002:00002278       ??_C@_0CA@KDBDOHGA@unexpected?5error?5on?5load?5config?$AA@ 0000000140041278     RobotConfig.obj
 0002:00002298       ??_C@_0BP@CIMNBLID@unabled?5to?5load?5config?5from?5?$CFs?$AA@ 0000000140041298     RobotConfig.obj
 0002:000022b8       ??_C@_0BL@OJBPAKFP@data?1robot?1RobotConfig?4txt?$AA@ 00000001400412b8     RobotConfig.obj
 0002:00002300       ??_C@_0P@BBHABMLA@?$FLConfig?5Error?$FN?$AA@ 0000000140041300     RobotConfig.obj
 0002:00002360       ??_C@_0O@DHAJFIBF@Call?5LiangFan?$AA@ 0000000140041360     RobotGroup.obj
 0002:00002370       ??_C@_0BL@JECMBGJA@CreateThread?5for?5?$CFd?5client?$AA@ 0000000140041370     RobotGroup.obj
 0002:00002390       ??_C@_0BA@DCPPADKC@CreateThread?5?$CFs?$AA@ 0000000140041390     RobotGroup.obj
 0002:000023d8       ??_7CRobotClient@@6B@      00000001400413d8     RobotGroup.obj
 0002:00002468       ??_C@_0BC@FEFDBHME@CRobotGroup?3?3Init?$AA@ 0000000140041468     RobotGroup.obj
 0002:00002480       ??_C@_0CD@DFPKBCMO@?$CFs?5param?5start?$DN?$CFd?0end?$DN?$CFd?0?5is?5err@ 0000000140041480     RobotGroup.obj
 0002:000024a8       ??_C@_08OOIGFOH@Init?5End?$AA@ 00000001400414a8     RobotGroup.obj
 0002:000024b8       ??_C@_0P@JCBFHBLI@No?5server?5find?$AA@ 00000001400414b8     RobotGroup.obj
 0002:000024c8       ??_C@_0CF@BOEGDFCM@?$CFs?5param?5start?$DN?$CFd?0end?$DN?$CFd?0?5?5too?5l@ 00000001400414c8     RobotGroup.obj
 0002:000024f0       ??_C@_0CL@NMKDEKK@?$CFs?5param?5start?$DN?$CFd?0end?$DN?$CFd?0?5number@ 00000001400414f0     RobotGroup.obj
 0002:00002520       ??_C@_0BD@MHIHDMMK@Load?5Config?5Failed?$AA@ 0000000140041520     RobotManager.obj
 0002:00002538       ??_C@_0BL@OPABNIGN@data?1language?1LangCode?4txt?$AA@ 0000000140041538     RobotManager.obj
 0002:00002558       ??_C@_0BA@NOGBJLFB@data?1VSPDef?4txt?$AA@ 0000000140041558     RobotManager.obj
 0002:00002570       ??_7?$CBaseList@UtagServerConfig@@@container@wylib@@6B@ 0000000140041570     RobotManager.obj
 0002:00002590       ??_7?$CBaseList@UtagLoginAccount@@@container@wylib@@6B@ 0000000140041590     RobotManager.obj
 0002:000025b0       ??_7?$CBaseList@VCRobotGroup@@@container@wylib@@6B@ 00000001400415b0     RobotManager.obj
 0002:000025d0       ??_7?$CBaseList@UtagSceneMapPoint@@@container@wylib@@6B@ 00000001400415d0     RobotManager.obj
 0002:00002610       ??_C@_0BK@PDFAPFOD@Start?5Group?5Thread?5Failed?$AA@ 0000000140041610     RobotManager.obj
 0002:00002630       ??_C@_0BA@HOGBHHFO@Start?5Group?3?5?$CFd?$AA@ 0000000140041630     RobotManager.obj
 0002:00002640       ??_C@_0BO@FHDMAAEE@Start?5GroupThread?5and?5Connect?$AA@ 0000000140041640     RobotManager.obj
 0002:00002660       ??_C@_0EI@BDLBHPLD@logicsr?0idle?$DN?$CFd?0reqsalt?$DN?$CFd?0commu@ 0000000140041660     RobotManager.obj
 0002:000026b0       ??_C@_0EI@OCJKDJIA@dbserve?0idle?$DN?$CFd?0reqsalt?$DN?$CFd?0commu@ 00000001400416b0     RobotManager.obj
 0002:00002700       ??_C@_0EI@JDFHKPKC@session?0idle?$DN?$CFd?0reqsalt?$DN?$CFd?0commu@ 0000000140041700     RobotManager.obj
 0002:00002748       ??_C@_0CL@OKOHBOPK@Total?$DN?$CFd?0idle?$DN?$CFd?0session?$DN?$CFd?0db?$DN?$CF@ 0000000140041748     RobotManager.obj
 0002:00002780       ??_7?$CBaseList@PEAVCClientFB@@@container@wylib@@6B@ 0000000140041780     RobotManager.obj
 0002:000027f8       ??_7CConfigLoader@@6B@     00000001400417f8     RobotManager.obj
 0002:000028a8       ?szEnvirConfigFileName@CSceneConfigLoader@@2QEBDEB 00000001400418a8     SceneConfigLoader.obj
 0002:000028b0       ??_C@_0DN@BMFOIFKD@load?5scene?5config?5error?$CBrange?5ce@ 00000001400418b0     SceneConfigLoader.obj
 0002:000028f0       ??_C@_0DA@HPJLKNIE@Scene?5Config?5Open?5center?5table?5e@ 00000001400418f0     SceneConfigLoader.obj
 0002:00002920       ??_C@_06BBLOAEEI@center?$AA@ 0000000140041920     SceneConfigLoader.obj
 0002:00002930       ??_C@_0EE@FPMDJNPE@scene?5config?5area?5error?$CBRange?5Po@ 0000000140041930     SceneConfigLoader.obj
 0002:00002978       ??_C@_0CP@LGBNFCFG@Scene?5Config?5Open?5range?5table?5er@ 0000000140041978     SceneConfigLoader.obj
 0002:000029a8       ??_C@_05CCGOGOBM@range?$AA@ 00000001400419a8     SceneConfigLoader.obj
 0002:000029b0       ??_C@_07FJBNAKDG@modelid?$AA@ 00000001400419b0     SceneConfigLoader.obj
 0002:000029b8       ??_C@_06HAAKFFBO@toPosy?$AA@ 00000001400419b8     SceneConfigLoader.obj
 0002:000029c0       ??_C@_06GJBBGEFP@toPosx?$AA@ 00000001400419c0     SceneConfigLoader.obj
 0002:000029c8       ??_C@_04LAABLMO@posy?$AA@  00000001400419c8     SceneConfigLoader.obj
 0002:000029d0       ??_C@_04BCBLCKIP@posx?$AA@ 00000001400419d0     SceneConfigLoader.obj
 0002:000029d8       ??_C@_09DFKOFALL@toSceneid?$AA@ 00000001400419d8     SceneConfigLoader.obj
 0002:000029e8       ??_C@_08LOCMGIHJ@teleport?$AA@ 00000001400419e8     SceneConfigLoader.obj
 0002:000029f8       ??_C@_0DN@IJHBFOCE@monster?5refresh?5config?5error?$CBmap@ 00000001400419f8     SceneConfigLoader.obj
 0002:00002a40       ??_C@_0FD@CKJKBPAA@Monster?5Refresh?5Config?5Error?$CBfil@ 0000000140041a40     SceneConfigLoader.obj
 0002:00002a94       ??_C@_05KIEHOINE@mapy1?$AA@ 0000000140041a94     SceneConfigLoader.obj
 0002:00002a9c       ??_C@_05ICKINBCA@mapx2?$AA@ 0000000140041a9c     SceneConfigLoader.obj
 0002:00002aa4       ??_C@_05KJIFICOD@mapx1?$AA@ 0000000140041aa4     SceneConfigLoader.obj
 0002:00002ab0       ??_C@_09EADCNBNO@firstTime?$AA@ 0000000140041ab0     SceneConfigLoader.obj
 0002:00002abc       ??_C@_04CLCEDBPF@time?$AA@ 0000000140041abc     SceneConfigLoader.obj
 0002:00002ac8       ??_C@_07HPCLKEG@refresh?$AA@ 0000000140041ac8     SceneConfigLoader.obj
 0002:00002ad0       ??_C@_0DK@MAODCKJG@error?3has?5same?5name?5npc?5in?5this?5@ 0000000140041ad0     SceneConfigLoader.obj
 0002:00002b0c       ??_C@_05PHLGJONK@title?$AA@ 0000000140041b0c     SceneConfigLoader.obj
 0002:00002b18       ??_C@_0N@IFOMFBCA@idleInterval?$AA@ 0000000140041b18     SceneConfigLoader.obj
 0002:00002b28       ??_C@_04LOFLEJM@camp?$AA@  0000000140041b28     SceneConfigLoader.obj
 0002:00002b30       ??_C@_08KKLHPJBJ@bCanHide?$AA@ 0000000140041b30     SceneConfigLoader.obj
 0002:00002b40       ??_C@_08BKPNNEOF@aitypeid?$AA@ 0000000140041b40     SceneConfigLoader.obj
 0002:00002b4c       ??_C@_06FJKEMHGD@global?$AA@ 0000000140041b4c     SceneConfigLoader.obj
 0002:00002b54       ??_C@_06KAFBEMAB@funcId?$AA@ 0000000140041b54     SceneConfigLoader.obj
 0002:00002b5c       ??_C@_04DMJJIPAH@icon?$AA@ 0000000140041b5c     SceneConfigLoader.obj
 0002:00002b64       ??_C@_06OLONEIEH@script?$AA@ 0000000140041b64     SceneConfigLoader.obj
 0002:00002b70       ??_C@_0CF@MBDJALDM@Scene?5area?5config?5is?5NULL?$CBscenei@ 0000000140041b70     SceneConfigLoader.obj
 0002:00002b98       ??_C@_0CO@HNMLLCAA@Scene?5area?5name?5is?5NULL?$CBsceneid?$DN@ 0000000140041b98     SceneConfigLoader.obj
 0002:00002bc8       ??_C@_0DB@NJDLNFCD@load?5scene?5config?5error?$CBrange?5is@ 0000000140041bc8     SceneConfigLoader.obj
 0002:00002c00       ??_C@_07PGOGPNPO@inherit?$AA@ 0000000140041c00     SceneConfigLoader.obj
 0002:00002c08       ??_C@_0CO@PBGIKEDJ@Scene?5Config?5Open?5area?5table?5err@ 0000000140041c08     SceneConfigLoader.obj
 0002:00002c38       ??_C@_04GOEDGNCF@area?$AA@ 0000000140041c38     SceneConfigLoader.obj
 0002:00002c40       ??_C@_0BA@CDKFJMNI@data?1map?1?$CFs?4wwm?$AA@ 0000000140041c40     SceneConfigLoader.obj
 0002:00002c88       ??_7CSceneConfigLoader@@6B@ 0000000140041c88     SceneConfigLoader.obj
 0002:00002cc0       ??_C@_0CO@NNGNMEGA@load?5scene?5area?5error?$CBsceneid?$DN?$CFd@ 0000000140041cc0     SceneConfigLoader.obj
 0002:00002cf0       ??_C@_0DB@IAJJLMMA@load?5scene?5monster?5error?$CBsceneid@ 0000000140041cf0     SceneConfigLoader.obj
 0002:00002d28       ??_C@_0CN@IOGKJKCD@load?5scene?5Npc?5error?$CBsceneid?$DN?$CFd?0@ 0000000140041d28     SceneConfigLoader.obj
 0002:00002d58       ??_C@_0DC@GINPBIGI@load?5scene?5Teleport?5error?$CBscenei@ 0000000140041d58     SceneConfigLoader.obj
 0002:00002d8c       ??_C@_06JBHJICEC@zyType?$AA@ 0000000140041d8c     SceneConfigLoader.obj
 0002:00002d98       ??_C@_0M@FMCLPNAL@mapfilename?$AA@ 0000000140041d98     SceneConfigLoader.obj
 0002:00002da8       ??_C@_0L@FIHOFLK@scencename?$AA@ 0000000140041da8     SceneConfigLoader.obj
 0002:00002db8       ??_C@_08PBDBOKNB@scenceid?$AA@ 0000000140041db8     SceneConfigLoader.obj
 0002:00002dc4       ??_C@_06PBFGMMDA@scenes?$AA@ 0000000140041dc4     SceneConfigLoader.obj
 0002:00002dd0       ??_C@_0P@MJOGMIOF@recommandLevel?$AA@ 0000000140041dd0     SceneConfigLoader.obj
 0002:00002de0       ??_C@_0CH@FMIHPDGB@?$LH?G?F?Z?$LE?$PN?$LF?D?$LI?$LB?$LB?$LOID?E?d?V?C?V?$LF?$KD?$KM?S?$KG?N?$KK?$CFd?H?$LE?E?d@ 0000000140041de0     SceneConfigLoader.obj
 0002:00002e08       ??_C@_04PIBHOLIL@fbid?$AA@ 0000000140041e08     SceneConfigLoader.obj
 0002:00002e10       ??_C@_05CCHBAHMG@FuBen?$AA@ 0000000140041e10     SceneConfigLoader.obj
 0002:00002e68       ??_C@_0BF@HOEDHONE@?$FLScene?5Config?5Error?$FN?$AA@ 0000000140041e68     SceneConfigLoader.obj
 0002:00002e80       ??_C@_0BD@LPPMBDPF@enterQuestFuben?0?$CFd?$AA@ 0000000140041e80     StdAfx.obj
 0002:00002e98       ??_C@_0BH@GHKBKNFG@?$EApositionmove?5?$CFs?5?$CFd?5?$CFd?$AA@ 0000000140041e98     StdAfx.obj
 0002:00002eb0       ??_C@_0IH@KLEAJHLK@select?5actorid?0actorname?0job?0bat@ 0000000140041eb0     StdAfx.obj
 0002:00002f40       ??_C@_0FD@LIAIIDPC@select?5beastindex?0beastlevel?0ned@ 0000000140041f40     StdAfx.obj
 0002:00002fa0       ??_C@_0FC@HIELKMOI@insert?5into?5actorbeastsouls?$CIacto@ 0000000140041fa0     StdAfx.obj
 0002:00002ff8       ??_C@_0CN@OBBEBHHI@delete?5from?5actorbeastsouls?5wher@ 0000000140041ff8     StdAfx.obj
 0002:00003028       ??_C@_0BN@DNDMDEPM@call?5clearactor?$CI?$CFd?0?$CFd?0?$CFd?0?$CFd?$CJ?$AA@ 0000000140042028     StdAfx.obj
 0002:00003048       ??_C@_0CE@ICFCHOFN@call?5deleteactormoney?$CI?$CC?$CFs?$CC?0?5?$CFd?0?5@ 0000000140042048     StdAfx.obj
 0002:00003070       ??_C@_0CA@OPAGOEL@call?5deleteitembyguid?$CI?$CFd?0?5?$CFlld?$CJ?$AA@ 0000000140042070     StdAfx.obj
 0002:00003090       ??_C@_0BJ@CNKMBBDG@call?5loaddiamonddata?$CI?$CFu?$CJ?$AA@ 0000000140042090     StdAfx.obj
 0002:000030b0       ??_C@_0FD@BCJEIHLI@insert?5into?5diamond?$CIactorid?0type@ 00000001400420b0     StdAfx.obj
 0002:00003108       ??_C@_0BL@PCOELODD@call?5deletediamonddata?$CI?$CFu?$CJ?$AA@ 0000000140042108     StdAfx.obj
 0002:00003128       ??_C@_0BN@HEEPJDEF@call?5updatechallengedata?$CI?$CFd?$CJ?$AA@ 0000000140042128     StdAfx.obj
 0002:00003148       ??_C@_0BH@GAKLAOCC@call?5cleanrelation?$CI?$CFu?$CJ?$AA@ 0000000140042148     StdAfx.obj
 0002:00003160       ??_C@_0EI@OCDIJIC@insert?5into?5actorrelation?$CIactori@ 0000000140042160     StdAfx.obj
 0002:000031a8       ??_C@_0BG@JGCHMBDK@call?5loadrelation?$CI?$CFu?$CJ?$AA@ 00000001400421a8     StdAfx.obj
 0002:000031c0       ??_C@_0BA@LJDFIABP@call?5initdb?$CI?$CFd?$CJ?$AA@ 00000001400421c0     StdAfx.obj
 0002:000031d0       ??_C@_0BG@FNDIMLJG@call?5loadrank?$CI?$CFd?0?5?$CFd?$CJ?$AA@ 00000001400421d0     StdAfx.obj
 0002:000031e8       ??_C@_0BC@LGNNFAHN@call?5saverank?$CI?$CFd?$CJ?$AA@ 00000001400421e8     StdAfx.obj
 0002:00003200       ??_C@_0FB@FOAHNDFE@insert?5into?5petskills?$CIactorid?0pe@ 0000000140042200     StdAfx.obj
 0002:00003258       ??_C@_0BI@HDGBHPPI@call?5cleanpetskills?$CI?$CFu?$CJ?$AA@ 0000000140042258     StdAfx.obj
 0002:00003270       ??_C@_0BH@GAPLGLGB@call?5loadpetskills?$CI?$CFu?$CJ?$AA@ 0000000140042270     StdAfx.obj
 0002:00003288       ??_C@_0BH@POJKICA@call?5loadactorpets?$CI?$CFu?$CJ?$AA@ 0000000140042288     StdAfx.obj
 0002:000032a0       ??_C@_0IO@OBPJHPDC@insert?5into?5actorpets?$CIactorid?0ex@ 00000001400422a0     StdAfx.obj
 0002:00003330       ??_C@_0ED@DCBBJKOH@insert?5into?5godwealthevent?$CInacto@ 0000000140042330     StdAfx.obj
 0002:00003378       ??_C@_0BO@DCMAAPFF@call?5deletegodwealthevent?$CI?$CFd?$CJ?$AA@ 0000000140042378     StdAfx.obj
 0002:00003398       ??_C@_0BL@LDDJOEC@call?5loadgodwealthdata?$CI?$CFd?$CJ?$AA@ 0000000140042398     StdAfx.obj
 0002:000033b8       ??_C@_0CL@MFIBCJOF@delete?5from?5filternames?5where?5na@ 00000001400423b8     StdAfx.obj
 0002:000033e8       ??_C@_0CO@PIMGCIAJ@insert?5into?5filternames?$CInamestr?$CJ@ 00000001400423e8     StdAfx.obj
 0002:00003418       ??_C@_0CN@PECGEIAA@select?5?$CK?5from?5filternames?5where?5@ 0000000140042418     StdAfx.obj
 0002:00003448       ??_C@_0BI@BMHDLMLJ@call?5cleanactorpets?$CI?$CFu?$CJ?$AA@ 0000000140042448     StdAfx.obj
 0002:00003460       ??_C@_0EL@FFIFAMJA@call?5updategamesetdata?$CI?$CFu?0?$CFd?0?$CFd?0@ 0000000140042460     StdAfx.obj
 0002:000034b0       ??_C@_0EJ@OMHGOAJ@call?5savegamesetdata?$CI?$CFu?0?$CFd?0?$CFd?0?$CFd@ 00000001400424b0     StdAfx.obj
 0002:00003500       ??_C@_0BL@GJMOCCNH@call?5deletegamesetdata?$CI?$CFu?$CJ?$AA@ 0000000140042500     StdAfx.obj
 0002:00003520       ??_C@_0BJ@LGIGINNC@call?5loadgamesetdata?$CI?$CFu?$CJ?$AA@ 0000000140042520     StdAfx.obj
 0002:00003540       ??_C@_0CF@BLJNPMJE@call?5loadwholeactivitydata?$CI?$CFd?0?$CFd@ 0000000140042540     StdAfx.obj
 0002:00003570       ??_C@_0II@PHNNPIJI@select?5actorid?0actorname?0job?0bat@ 0000000140042570     StdAfx.obj
 0002:00003600       ??_C@_0LN@BOMLFEF@select?5actorid?0actorname?0job?0cir@ 0000000140042600     StdAfx.obj
 0002:000036c0       ??_C@_0DM@PFBJDOLG@update?5maillist?5set?5mailstate?5?$DN?5@ 00000001400426c0     StdAfx.obj
 0002:00003700       ??_C@_0LM@DNCHIBMO@insert?5into?5maillist?5?$CImailid?0act@ 0000000140042700     StdAfx.obj
 0002:000037c0       ??_C@_0DD@DCGEJKGH@select?5actorid?5from?5actors?5where@ 00000001400427c0     StdAfx.obj
 0002:000037f8       ??_C@_0CK@MJGCFBHM@select?5?$CK?5from?5maillist?5where?5act@ 00000001400427f8     StdAfx.obj
 0002:00003828       ??_C@_0CG@KMHFCGDF@call?5updateDevelopSystem?$CI?$CFd?0?$CFd?0?$CF@ 0000000140042828     StdAfx.obj
 0002:00003850       ??_C@_0DE@KOBJCNDB@select?5?$CK?5from?5actordevelopsystem@ 0000000140042850     StdAfx.obj
 0002:00003890       ??_C@_0MH@GMCDAOEP@select?5actorid?0actorname?0diamond@ 0000000140042890     StdAfx.obj
 0002:00003960       ??_C@_0BCG@CHHIOHAA@select?5actors?4actorid?0actors?4act@ 0000000140042960     StdAfx.obj
 0002:00003a90       ??_C@_0JI@LNHPDCHK@select?5actorid?0actorname?0nridele@ 0000000140042a90     StdAfx.obj
 0002:00003b30       ??_C@_0LG@MEIIBHJD@select?5actorid?0actorname?0battlep@ 0000000140042b30     StdAfx.obj
 0002:00003bf0       ??_C@_0JC@CCJDIJNE@select?5actorid?0actorname?0job?0bat@ 0000000140042bf0     StdAfx.obj
 0002:00003c90       ??_C@_0IP@JGICOKNB@select?5actorid?0actorname?0consume@ 0000000140042c90     StdAfx.obj
 0002:00003d20       ??_C@_0KG@BNBALHHM@select?5actorid?0actorname?0job?0cir@ 0000000140042d20     StdAfx.obj
 0002:00003dc8       ??_C@_0DF@KBBCHCPE@select?5count?$CI?$CK?$CJ?5from?5friendchatm@ 0000000140042dc8     StdAfx.obj
 0002:00003e00       ??_C@_0CM@DDEFEPKC@delete?5from?5friendchatmsg?5where?5@ 0000000140042e00     StdAfx.obj
 0002:00003e30       ??_C@_0BL@PKDFCOGC@call?5loadfriendcharmsg?$CI?$CFu?$CJ?$AA@ 0000000140042e30     StdAfx.obj
 0002:00003e50       ??_C@_0FC@HDICLLFC@insert?5into?5friendchatmsg?$CInactor@ 0000000140042e50     StdAfx.obj
 0002:00003eb0       ??_C@_0FK@PDIFEPCP@update?5friends?5set?5ntype?$DN?$CFd?0nint@ 0000000140042eb0     StdAfx.obj
 0002:00003f10       ??_C@_0EI@GDDIPND@insert?5into?5friends?$CInactorid?0fri@ 0000000140042f10     StdAfx.obj
 0002:00003f58       ??_C@_0BH@FODNMKAO@call?5deletefriends?$CI?$CFu?$CJ?$AA@ 0000000140042f58     StdAfx.obj
 0002:00003f70       ??_C@_0BJ@OFLIEOMF@call?5loadfriendsdata?$CI?$CFu?$CJ?$AA@ 0000000140042f70     StdAfx.obj
 0002:00003f90       ??_C@_0DP@MCLFJJPL@insert?5into?5periodride?$CInactorid?0@ 0000000140042f90     StdAfx.obj
 0002:00003fd0       ??_C@_0CJ@HAJAAHFF@delete?5from?5periodride?5where?5nac@ 0000000140042fd0     StdAfx.obj
 0002:00004000       ??_C@_0GF@HBCJBLCO@insert?5into?5guildstorerecord?$CIgui@ 0000000140043000     StdAfx.obj
 0002:00004068       ??_C@_0CA@JOFPPCMA@call?5deleteguilddepotrecord?$CI?$CFu?$CJ?$AA@ 0000000140043068     StdAfx.obj
 0002:00004088       ??_C@_0BO@DLJOHBEL@call?5loadguilddepotrecord?$CI?$CFu?$CJ?$AA@ 0000000140043088     StdAfx.obj
 0002:000040a8       ??_C@_0BM@JNCKPFIC@call?5loadguildstoredata?$CI?$CFu?$CJ?$AA@ 00000001400430a8     StdAfx.obj
 0002:000040c8       ??_C@_0CI@DHCAEHNL@delete?5from?5guildstore?5where?5gui@ 00000001400430c8     StdAfx.obj
 0002:000040f0       ??_C@_0ML@DINOBLAD@insert?5into?5guildstore?$CIguildid?0a@ 00000001400430f0     StdAfx.obj
 0002:000041c0       ??_C@_0JO@ICGBGJGM@insert?5into?5combatrecord?$CIactorid@ 00000001400431c0     StdAfx.obj
 0002:00004260       ??_C@_0ID@MIOEPKJC@insert?5into?5combatgame?$CIactorid?0w@ 0000000140043260     StdAfx.obj
 0002:000042e8       ??_C@_0CI@PJBCDDMG@call?5updatecamprankdata?$CI?$CFd?0?5?$CFd?0?5@ 00000001400432e8     StdAfx.obj
 0002:00004310       ??_C@_0BK@EOBBCBAD@call?5cleancamptoprank?$CI?$CFd?$CJ?$AA@ 0000000140043310     StdAfx.obj
 0002:00004330       ??_C@_0BJ@HOEALJNK@call?5cleargemtoprank?$CI?$CFd?$CJ?$AA@ 0000000140043330     StdAfx.obj
 0002:00004350       ??_C@_0DH@EANJDDLO@call?5updategemrankdata?$CI?$CFd?0?5?$CFu?0?5?$CF@ 0000000140043350     StdAfx.obj
 0002:00004388       ??_C@_0BJ@PNMNKPDG@call?5loadgemrankdata?$CI?$CFd?$CJ?$AA@ 0000000140043388     StdAfx.obj
 0002:000043a8       ??_C@_0BJ@MNDPKGJB@call?5loadgemsuitdata?$CI?$CFu?$CJ?$AA@ 00000001400433a8     StdAfx.obj
 0002:000043d0       ??_C@_0MH@PPLBICMA@insert?5into?5gemsuit?$CIactorid?0?5sui@ 00000001400433d0     StdAfx.obj
 0002:00004498       ??_C@_0BG@FKKNEPMM@call?5cleangemsuit?$CI?$CFu?$CJ?$AA@ 0000000140043498     StdAfx.obj
 0002:000044b0       ??_C@_0NG@HJLKNFNL@insert?5into?5actorgemitem?$CIactorid@ 00000001400434b0     StdAfx.obj
 0002:00004588       ??_C@_0BH@GEKCJBPM@call?5cleangemitems?$CI?$CFu?$CJ?$AA@ 0000000140043588     StdAfx.obj
 0002:000045a0       ??_C@_0BI@DBCIEIEG@call?5loadequipedgem?$CI?$CFu?$CJ?$AA@ 00000001400435a0     StdAfx.obj
 0002:000045b8       ??_C@_0BJ@JGDBCOH@call?5loadgemitemdata?$CI?$CFu?$CJ?$AA@ 00000001400435b8     StdAfx.obj
 0002:000045d8       ??_C@_0BN@MPJEGLPL@call?5querymybrothergroup?$CI?$CFu?$CJ?$AA@ 00000001400435d8     StdAfx.obj
 0002:000045f8       ??_C@_0CG@HMGLCFAN@call?5updatebrothergroup?$CI?$CFlld?0?$CC?$CFs@ 00000001400435f8     StdAfx.obj
 0002:00004620       ??_C@_0BL@PLDGOKLH@delete?5from?5brothgrouplist?$AA@ 0000000140043620     StdAfx.obj
 0002:00004640       ??_C@_0BN@FALNMJOK@call?5savebrother?$CI?$CFlld?0?$CFu?0?$CFd?$CJ?$AA@ 0000000140043640     StdAfx.obj
 0002:00004660       ??_C@_0CM@GCKCDIFI@insert?5into?5actorbrother?$CIid?0acto@ 0000000140043660     StdAfx.obj
 0002:00004690       ??_C@_0CJ@GPMBJEMO@call?5addbrothergroup?$CI?$CC?$CFs?$CC?0?$CFu?0?$CFd?0@ 0000000140043690     StdAfx.obj
 0002:000046c0       ??_C@_0CC@KEKIIFOD@call?5loadbrothergroupdetail?$CI?$CFlld@ 00000001400436c0     StdAfx.obj
 0002:000046e8       ??_C@_0BO@NDDFIAIE@call?5loadbrothergrouplist?$CI?$CFd?$CJ?$AA@ 00000001400436e8     StdAfx.obj
 0002:00004708       ??_C@_0BK@HONJJOPC@call?5deleteuseritem?$CI?$CFlld?$CJ?$AA@ 0000000140043708     StdAfx.obj
 0002:00004728       ??_C@_0CA@MPGFKPPM@call?5getuseritem?$CI?$CFu?0?$CFu?0?$CFlld?0?$CFd?$CJ?$AA@ 0000000140043728     StdAfx.obj
 0002:00004748       ??_C@_0BM@EDHNCDJD@call?5loaduseritem?$CI?$CFu?0?$CFu?0?$CFd?$CJ?$AA@ 0000000140043748     StdAfx.obj
 0002:00004768       ??_C@_0CH@LFNHEJAB@call?5addcharmsgbyactorname?$CI?$CFd?0?$CC?$CF@ 0000000140043768     StdAfx.obj
 0002:00004790       ??_C@_0BH@ICNIPOJB@call?5addcharmsg?$CI?$CFu?0?$CFd?0?$AA@ 0000000140043790     StdAfx.obj
 0002:000047a8       ??_C@_0BM@HMBBMODJ@call?5deletecharmsg?$CI?$CFu?0?$CFlld?$CJ?$AA@ 00000001400437a8     StdAfx.obj
 0002:000047c8       ??_C@_0BO@CJGMJJLP@call?5loadcharmsglist?$CI?$CFu?0?$CFlld?$CJ?$AA@ 00000001400437c8     StdAfx.obj
 0002:000047f0       ??_C@_0OD@NCFAPGJP@insert?5into?5actorconsignment?$CIact@ 00000001400437f0     StdAfx.obj
 0002:000048d8       ??_C@_0CA@DOFOKDOA@call?5deleteconsignment?$CI?$CFlld?0?$CFd?$CJ?$AA@ 00000001400438d8     StdAfx.obj
 0002:000048f8       ??_C@_0BP@OKEDKJDN@call?5loadconsignmentext?$CI?$CFu?0?$CFd?$CJ?$AA@ 00000001400438f8     StdAfx.obj
 0002:00004918       ??_C@_0BO@PEBALAJC@call?5renamecharactor?$CI?$CFd?0?$CC?$CFs?$CC?$CJ?$AA@ 0000000140043918     StdAfx.obj
 0002:00004938       ??_C@_0CE@BEINHJIE@delete?5from?5charnotify?5where?5idx@ 0000000140043938     StdAfx.obj
 0002:00004960       ??_C@_0CB@HMCPLLHG@call?5addcharnotify?$CI?$CFd?0?$CC?$CFs?$CC?0?$CC?$CFs?$CC?$CJ@ 0000000140043960     StdAfx.obj
 0002:00004988       ??_C@_0BI@DEKBGGDG@call?5loadcharnotify?$CI?$CFd?$CJ?$AA@ 0000000140043988     StdAfx.obj
 0002:000049a0       ??_C@_0BM@NNCCCINM@call?5cleanchartalismans?$CI?$CFd?$CJ?$AA@ 00000001400439a0     StdAfx.obj
 0002:000049c0       ??_C@_0CE@MICBIHEC@call?5addcharnewfinishrole?$CI?$CFu?0?$CFd?0@ 00000001400439c0     StdAfx.obj
 0002:000049e8       ??_C@_0BO@GGNEINIC@call?5cleancharfinishroles?$CI?$CFu?$CJ?$AA@ 00000001400439e8     StdAfx.obj
 0002:00004a08       ??_C@_0CF@FAJKDOFB@call?5addcharnewroleitem?$CI?$CFu?0?$CFd?0?$CFd@ 0000000140043a08     StdAfx.obj
 0002:00004a30       ??_C@_0BM@ENLFMFDG@call?5cleancharroleitems?$CI?$CFu?$CJ?$AA@ 0000000140043a30     StdAfx.obj
 0002:00004a50       ??_C@_0EP@OKNEDOFL@insert?5into?5skill?$CIactorid?0skilli@ 0000000140043a50     StdAfx.obj
 0002:00004aa0       ??_C@_0BJ@NMIIOAFJ@call?5cleancharskills?$CI?$CFu?$CJ?$AA@ 0000000140043aa0     StdAfx.obj
 0002:00004ac0       ??_C@_0LK@EGKFDPOL@insert?5into?5?$CFs?$CIactorid?0itemguid?0@ 0000000140043ac0     StdAfx.obj
 0002:00004b80       ??_C@_0BL@LMFOHGHH@call?5cleancharitems?$CI?$CFu?0?$CFd?$CJ?$AA@ 0000000140043b80     StdAfx.obj
 0002:00004ba0       ??_C@_0DE@EIAIELMO@select?5acupoint?5from?5actorvariab@ 0000000140043ba0     StdAfx.obj
 0002:00004bd8       ??_C@_0CF@DHJBPNEA@update?5actorvariable?5set?5?$GAacupoi@ 0000000140043bd8     StdAfx.obj
 0002:00004c00       ??_C@_0DE@IJHHIPBG@select?5variable?5from?5actorvariab@ 0000000140043c00     StdAfx.obj
 0002:00004c38       ??_C@_0CF@BLKBFDPI@update?5actorvariable?5set?5?$GAvariab@ 0000000140043c38     StdAfx.obj
 0002:00004c60       ??_C@_0CA@OKFNLPKB@call?5updatecharbinarydata?$CI?$CFlld?0?$AA@ 0000000140043c60     StdAfx.obj
 0002:00004c80       ??_C@_0BEL@KDOAAMNM@call?5updatecharbasicdata?$CI?$CFu?0?$CFd?0?$CF@ 0000000140043c80     StdAfx.obj
 0002:00004dd0       ??_C@_0BL@JFFKOBA@call?5loadchartalismans?$CI?$CFd?$CJ?$AA@ 0000000140043dd0     StdAfx.obj
 0002:00004df0       ??_C@_0CF@HCIHMCFK@call?5loadcharquickitemdistribute@ 0000000140043df0     StdAfx.obj
 0002:00004e18       ??_C@_0BN@FEAOHKC@call?5loadcharfinishroles?$CI?$CFu?$CJ?$AA@ 0000000140043e18     StdAfx.obj
 0002:00004e38       ??_C@_0BL@JJMCEDPK@call?5loadcharroleitems?$CI?$CFu?$CJ?$AA@ 0000000140043e38     StdAfx.obj
 0002:00004e58       ??_C@_0BI@FFEIFBKN@call?5loadcharskills?$CI?$CFu?$CJ?$AA@ 0000000140043e58     StdAfx.obj
 0002:00004e70       ??_C@_0BK@HAOIFIBE@call?5loadcharitems?$CI?$CFu?0?$CFd?$CJ?$AA@ 0000000140043e70     StdAfx.obj
 0002:00004e90       ??_C@_0CC@MBFMNBNN@call?5loadheroofflineequips?$CI?$CFu?0?$CFd@ 0000000140043e90     StdAfx.obj
 0002:00004eb8       ??_C@_0CF@ELEAGGOA@call?5loadherocharofflinedata?$CI?$CFu?0@ 0000000140043eb8     StdAfx.obj
 0002:00004ee0       ??_C@_0BN@PPMKGNGN@call?5loadcharofflinedata?$CI?$CFu?$CJ?$AA@ 0000000140043ee0     StdAfx.obj
 0002:00004f00       ??_C@_0DJ@GLACNECE@update?5actors?5set?5status?5?$DN?5?$CFd?5wh@ 0000000140043f00     StdAfx.obj
 0002:00004f40       ??_C@_0BL@PCPADFKD@call?5loadcharbasicdata?$CI?$CFu?$CJ?$AA@ 0000000140043f40     StdAfx.obj
 0002:00004f60       ??_C@_0CF@FBLHIBID@call?5loadactorlistbyaccountid?$CI?$CFu@ 0000000140043f60     StdAfx.obj
 0002:00004f88       ??_C@_0CI@MDBEHEKK@delete?5from?5actorguild?5where?5act@ 0000000140043f88     StdAfx.obj
 0002:00004fb0       ??_C@_0DB@PIJOGENP@call?5addguildenvent?$CI?$CFu?0?$CFd?0?$CFd?0?$CFd?0@ 0000000140043fb0     StdAfx.obj
 0002:00004fe8       ??_C@_0CI@MDKOFPPK@delete?5from?5guildevent?5where?5gui@ 0000000140043fe8     StdAfx.obj
 0002:00005010       ??_C@_0BN@HKCMKKIK@call?5deleteguildskill?$CI?$CFd?0?$CFd?$CJ?$AA@ 0000000140044010     StdAfx.obj
 0002:00005030       ??_C@_0BO@NJKLPPJ@call?5initguildskill?$CI?$CFd?0?$CFd?0?$CFd?$CJ?$AA@ 0000000140044030     StdAfx.obj
 0002:00005050       ??_C@_0CA@MMCIFMAK@call?5updateguildskill?$CI?$CFd?0?$CFd?0?$CFd?$CJ?$AA@ 0000000140044050     StdAfx.obj
 0002:00005070       ??_C@_0CH@JPIEBMKM@call?5addguildwar?$CI?$CFu?0?$CFd?0?$CFd?0?$CFu?0?$CFd?0@ 0000000140044070     StdAfx.obj
 0002:00005098       ??_C@_0BI@JKMOJCAB@call?5deleteguildwar?$CI?$CFu?$CJ?$AA@ 0000000140044098     StdAfx.obj
 0002:000050b0       ??_C@_0GD@FLHCPKDB@call?5updateguildbasicdata?$CI?$CFu?0?$CFd?0@ 00000001400440b0     StdAfx.obj
 0002:00005118       ??_C@_0BO@ILANGGF@call?5delguildobject?$CI?$CFd?0?$CFd?0?$CFd?$CJ?$AA@ 0000000140044118     StdAfx.obj
 0002:00005138       ??_C@_0BO@NHBKCKJB@call?5addguildobject?$CI?$CFd?0?$CFd?0?$CFd?$CJ?$AA@ 0000000140044138     StdAfx.obj
 0002:00005158       ??_C@_0BF@HEHAJIIJ@call?5deleteguild?$CI?$CFu?$CJ?$AA@ 0000000140044158     StdAfx.obj
 0002:00005170       ??_C@_0CF@OHDKDCNN@call?5createguild?$CI?$CFu?0?$CFu?0?$CC?$CFs?$CC?0?$CC?$CFs?$CC@ 0000000140044170     StdAfx.obj
 0002:000051a0       ??_C@_0EF@FEGIDLLA@call?5updateguildmember?$CI?$CFu?0?$CFu?0?$CFd?0@ 00000001400441a0     StdAfx.obj
 0002:000051e8       ??_C@_0BI@NOGPBGNI@call?5delguildmember?$CI?$CFu?$CJ?$AA@ 00000001400441e8     StdAfx.obj
 0002:00005200       ??_C@_0DD@NAOBDELJ@call?5addguildmember?$CI?$CFu?0?$CFu?0?$CFd?0?$CFd?0@ 0000000140044200     StdAfx.obj
 0002:00005240       ??_C@_0MF@HJEDGPK@select?5a?4objectid?0b?4charname?0c?4c@ 0000000140044240     StdAfx.obj
 0002:00005310       ??_C@_0MD@BGGLFILC@select?5a?4objectid?0b?4charname?0c?4c@ 0000000140044310     StdAfx.obj
 0002:000053e0       ??_C@_0IM@CKLKCDMH@select?5a?4objectid?0b?4guildname?5fr@ 00000001400443e0     StdAfx.obj
 0002:00005470       ??_C@_0IM@PJCBDPDM@select?5a?4objectid?0b?4guildname?5fr@ 0000000140044470     StdAfx.obj
 0002:00005500       ??_C@_0CA@HNDPKBFK@call?5loadactorguildbuilding?$CI?$CFu?$CJ?$AA@ 0000000140044500     StdAfx.obj
 0002:00005520       ??_C@_0BI@MOPOMDJH@call?5loadguildevent?$CI?$CFu?$CJ?$AA@ 0000000140044520     StdAfx.obj
 0002:00005538       ??_C@_0BI@JGHEBDIO@call?5loadguildskill?$CI?$CFu?$CJ?$AA@ 0000000140044538     StdAfx.obj
 0002:00005550       ??_C@_0CF@BDJJAGFO@call?5addguildwarhistory?$CI?$CFd?0?$CFd?0?$CFd@ 0000000140044550     StdAfx.obj
 0002:00005578       ??_C@_0BN@OINBAJNN@call?5loadguildwarhistory?$CI?$CFd?$CJ?$AA@ 0000000140044578     StdAfx.obj
 0002:00005598       ??_C@_0BG@FGGEMGCI@call?5loadguildwar?$CI?$CFu?$CJ?$AA@ 0000000140044598     StdAfx.obj
 0002:000055b0       ??_C@_0BO@HINOBNFI@call?5loadguildmemberbasic?$CI?$CFu?$CJ?$AA@ 00000001400445b0     StdAfx.obj
 0002:000055d0       ??_C@_0CF@JKLGDHMD@call?5addofflineguildmember?$CI?$CFu?0?$CFu@ 00000001400445d0     StdAfx.obj
 0002:000055f8       ??_C@_0BK@IJNMMLMJ@call?5loadguildmembers?$CI?$CFu?$CJ?$AA@ 00000001400445f8     StdAfx.obj
 0002:00005618       ??_C@_0BM@FLIAGHKD@call?5loadguildbasicdata?$CI?$CFd?$CJ?$AA@ 0000000140044618     StdAfx.obj
 0002:00005638       ??_C@_0BN@JLDMCFFL@call?5getserverguildcount?$CI?$CFd?$CJ?$AA@ 0000000140044638     StdAfx.obj
 0002:00005660       ??_C@_0EF@EIIBPPJI@update?5actors?5set?5actorname?$DN?$CC?$CFs?$CC@ 0000000140044660     StdAfx.obj
 0002:000056b0       ??_C@_0EE@BEFJOJAD@select?5count?$CI?$CK?$CJ?5from?5actors?5wher@ 00000001400446b0     StdAfx.obj
 0002:000056f8       ??_C@_0CF@EFDMEBKE@call?5getvalidactoridbyname?$CI?$CC?$CFs?$CC?0@ 00000001400446f8     StdAfx.obj
 0002:00005720       ??_C@_0EC@OAJMJFCF@select?5count?$CI?$CK?$CJ?5from?5actorguild?5@ 0000000140044720     StdAfx.obj
 0002:00005768       ??_C@_0CL@GMAJCNKM@call?5getactorlastloginserverid?$CI?$CF@ 0000000140044768     StdAfx.obj
 0002:00005798       ??_C@_0CJ@FJBNMDFL@call?5clientstartplay?$CI?$CFd?0?$CFu?0?$CC?$CFs?$CC?0@ 0000000140044798     StdAfx.obj
 0002:000057c8       ??_C@_0CE@IOMCEOFG@call?5clientdeletecharactor?$CI?$CFu?0?$CC?$CF@ 00000001400447c8     StdAfx.obj
 0002:000057f0       ??_C@_0EL@BBCDKJOK@call?5clientcreatenewcharactor?$CI?$CFu@ 00000001400447f0     StdAfx.obj
 0002:00005840       ??_C@_0CD@MIABEELH@call?5getcharactoridbyname?$CI?$CC?$CFs?$CC?0?$CF@ 0000000140044840     StdAfx.obj
 0002:00005868       ??_C@_0DC@KJBHFDLB@call?5getavailablecharactorcounti@ 0000000140044868     StdAfx.obj
 0002:000058a0       ??_C@_0CE@EOFBPFPC@call?5clientquerycharactors?$CI?$CFd?0?$CC?$CF@ 00000001400448a0     StdAfx.obj
 0002:000058c8       ??_C@_0CE@KMLPEAGH@call?5checkcreatecharcountryflag?$CI@ 00000001400448c8     StdAfx.obj
 0002:000058f0       ??_C@_0KO@GMLEGGCB@insert?5into?5actorwordrobe?$CIactori@ 00000001400448f0     StdAfx.obj
 0002:000059a0       ??_C@_0CL@BNJHBEPM@delete?5from?5actorwordrobe?5where?5@ 00000001400449a0     StdAfx.obj
 0002:000059d0       ??_C@_0KP@MACJAAMD@select?5wordrobeindex?0wearindex?0e@ 00000001400449d0     StdAfx.obj
 0002:00005a80       ??_C@_0ML@PEDNFEEP@insert?5into?5actorgodarm?$CIactorid?0@ 0000000140044a80     StdAfx.obj
 0002:00005b50       ??_C@_0CJ@PHIJDNGD@delete?5from?5actorgodarm?5where?5ac@ 0000000140044b50     StdAfx.obj
 0002:00005b80       ??_C@_0KE@MDBNNDMH@select?5godarmitemid?0godarmtime?0s@ 0000000140044b80     StdAfx.obj
 0002:00005c30       ??_C@_0GK@MEBFOAGD@insert?5into?5actormelting?$CIactorid@ 0000000140044c30     StdAfx.obj
 0002:00005ca0       ??_C@_0CK@FFIONBOF@delete?5from?5actormelting?5where?5a@ 0000000140044ca0     StdAfx.obj
 0002:00005cd0       ??_C@_0FI@KDLLPFG@select?5meltinglev?0meltingval?0npa@ 0000000140044cd0     StdAfx.obj
 0002:00005d30       ??_C@_0LM@HHMOIOKD@insert?5into?5actorrune?$CIactorid?0nb@ 0000000140044d30     StdAfx.obj
 0002:00005df0       ??_C@_0CH@LLAEMCMH@delete?5from?5actorrune?5where?5acto@ 0000000140044df0     StdAfx.obj
 0002:00005e20       ??_C@_0JL@BMGGCHNP@select?5nbattle?0holeitemid1?0holei@ 0000000140044e20     StdAfx.obj
 0002:00005ec0       ??_C@_0EH@FKFEHNCB@insert?5into?5artifactscabbard?$CIact@ 0000000140044ec0     StdAfx.obj
 0002:00005f08       ??_C@_0CO@IAIECCLC@delete?5from?5artifactscabbard?5whe@ 0000000140044f08     StdAfx.obj
 0002:00005f40       ??_C@_0EI@FCGGDPLG@select?5nindex?0holeindex?0exp?0time@ 0000000140044f40     StdAfx.obj
 0002:00005f90       ??_C@_0NG@FGCELJBI@insert?5into?5actorartfact?$CIactorid@ 0000000140044f90     StdAfx.obj
 0002:00006068       ??_C@_0CK@GJJALEDA@delete?5from?5actorartfact?5where?5a@ 0000000140045068     StdAfx.obj
 0002:000060a0       ??_C@_0KG@PFFGMDBC@select?5artifactitemid?0artifactti@ 00000001400450a0     StdAfx.obj
 0002:00006148       ??_C@_0DD@EOAIMJEN@insert?5into?5carditem?$CIactorid?0ite@ 0000000140045148     StdAfx.obj
 0002:00006180       ??_C@_0CG@EBHMJBJD@delete?5from?5carditem?5where?5actor@ 0000000140045180     StdAfx.obj
 0002:000061a8       ??_C@_0DG@PKICLPHO@select?5itemid?0ncount?5from?5cardit@ 00000001400451a8     StdAfx.obj
 0002:000061e0       ??_C@_0KD@MICKEBMB@insert?5into?5actorcards?$CIactorid?0c@ 00000001400451e0     StdAfx.obj
 0002:00006288       ??_C@_0CI@OHLBPDPC@delete?5from?5actorcards?5where?5act@ 0000000140045288     StdAfx.obj
 0002:000062b0       ??_C@_0KG@MMHAKOEE@select?5cardindex?0cardexp?0cardval@ 00000001400452b0     StdAfx.obj
 0002:00006360       ??_C@_0FB@NEHNGIJ@insert?5into?5actortalent?$CIactorid?0@ 0000000140045360     StdAfx.obj
 0002:000063b8       ??_C@_0CJ@GIMEMIII@delete?5from?5actortalent?5where?5ac@ 00000001400453b8     StdAfx.obj
 0002:000063f0       ??_C@_0FE@MGFDAFCN@select?5position?0level?0itemid?0exp@ 00000001400453f0     StdAfx.obj
 0002:00006450       ??_C@_0EE@NPFPCBNI@select?5nrideid?5?0?5ntime?0reserver?5@ 0000000140045450     StdAfx.obj
 0002:00006498       ??_C@_0BN@GPOAFCFK@call?5updatecombatgame?$CI?$CFu?0?$CFd?$CJ?$AA@ 0000000140045498     StdAfx.obj
 0002:000064b8       ??_C@_0DM@ICEILEAL@call?5addcombatrecord?$CI?$CFu?0?$CFd?0?$CC?$CFs?$CC?0@ 00000001400454b8     StdAfx.obj
 0002:000064f8       ??_C@_0BM@FJPOCLBN@call?5deletecombatrecord?$CI?$CFu?$CJ?$AA@ 00000001400454f8     StdAfx.obj
 0002:00006518       ??_C@_0BK@CJELJHDN@call?5loadcombatrecord?$CI?$CFu?$CJ?$AA@ 0000000140045518     StdAfx.obj
 0002:00006538       ??_C@_0DA@JOOMLKMK@call?5addcombatgameinfo?$CI?$CFu?0?$CFd?0?$CFd?0@ 0000000140045538     StdAfx.obj
 0002:00006568       ??_C@_0BK@IOGHOKNI@call?5deletecombatgame?$CI?$CFu?$CJ?$AA@ 0000000140045568     StdAfx.obj
 0002:00006588       ??_C@_0BM@HCHCJELD@call?5loadcombatgameinfo?$CI?$CFu?$CJ?$AA@ 0000000140045588     StdAfx.obj
 0002:000065a8       ??_C@_0CA@LJKIDFCP@call?5loadbattlepowerrank?$CI?$CFd?0?$CFd?$CJ?$AA@ 00000001400455a8     StdAfx.obj
 0002:000065c8       ??_C@_0CJ@GANJLENM@select?5actorname?0serverindex?5fro@ 00000001400455c8     StdAfx.obj
 0002:000065f8       ??_C@_0BM@PCCEIIGA@insert?5into?5jobcount?5values?$AA@ 00000001400455f8     StdAfx.obj
 0002:00006618       ??_C@_0BL@HNHGIFGK@insert?5into?5zycount?5values?$AA@ 0000000140045618     StdAfx.obj
 0002:00006638       ??_C@_0BG@KPAAPKCD@call?5cleanjobdata?$CI?$CFd?$CJ?$AA@ 0000000140045638     StdAfx.obj
 0002:00006650       ??_C@_0BF@CBEKBFE@call?5cleanzydata?$CI?$CFd?$CJ?$AA@ 0000000140045650     StdAfx.obj
 0002:00006668       ??_C@_0BD@FPOOEIFB@call?5loadjobdata?$CI?$CJ?$AA@ 0000000140045668     StdAfx.obj
 0002:00006680       ??_C@_0BC@CFOMCHFA@call?5loadzydata?$CI?$CJ?$AA@ 0000000140045680     StdAfx.obj
 0002:00006698       ??_C@_0BF@NOEPOIOF@call?5queryzylist?$CI?$CFd?$CJ?$AA@ 0000000140045698     StdAfx.obj
 0002:000066b0       ??_C@_0EC@NJJCHHMI@select?5count?$CI?$CK?$CJ?5from?5actors?5wher@ 00000001400456b0     StdAfx.obj
 0002:00006700       ??_C@_0EL@IHFPIBNB@select?5zy?5from?5zycount?5where?5ser@ 0000000140045700     StdAfx.obj
 0002:00006750       ??_C@_0BE@KBLCLIJO@call?5getlessjob?$CI?$CFd?$CJ?$AA@ 0000000140045750     StdAfx.obj
 0002:00006768       ??_C@_0CA@HCCKOCPN@select?5?$CK?5from?5gameserveraddress?$AA@ 0000000140045768     StdAfx.obj
 0002:00006788       ??_C@_0BI@CJGLEKEG@call?5getdenycharnames?$CI?$CJ?$AA@ 0000000140045788     StdAfx.obj
 0002:000067a0       ??_C@_0BH@HEFBECOL@CALL?5loadFilterNames?$CI?$CJ?$AA@ 00000001400457a0     StdAfx.obj
 0002:000067c0       lua_ident                  00000001400457c0     lua-5.1_x64:lapi.obj
 0002:00006850       ??_C@_0BH@CCGEKEGO@no?5calling?5environment?$AA@ 0000000140045850     lua-5.1_x64:lapi.obj
 0002:00006868       ??_C@_08JEIPHCP@no?5value?$AA@ 0000000140045868     lua-5.1_x64:lapi.obj
 0002:00006874       ??_C@_01OGPIMHDM@?$DP?$AA@ 0000000140045874     lua-5.1_x64:lapi.obj
 0002:00006878       ??_C@_07FCDHCGBN@?$CFs?3?$CFd?3?5?$AA@ 0000000140045878     lua-5.1_x64:lauxlib.obj
 0002:00006880       ??_C@_02KHAMJCKP@Sl?$AA@   0000000140045880     lua-5.1_x64:lauxlib.obj
 0002:00006888       ??_C@_0BE@CBBDHBEP@stack?5overflow?5?$CI?$CFs?$CJ?$AA@ 0000000140045888     lua-5.1_x64:lauxlib.obj
 0002:000068a0       ??_C@_0BB@BJDGDOHH@cannot?5?$CFs?5?$CFs?3?5?$CFs?$AA@ 00000001400458a0     lua-5.1_x64:lauxlib.obj
 0002:000068b4       ??_C@_04PMOCAHAA@open?$AA@ 00000001400458b4     lua-5.1_x64:lauxlib.obj
 0002:000068bc       ??_C@_01KDCPPGHE@r?$AA@    00000001400458bc     lua-5.1_x64:lauxlib.obj
 0002:000068c0       ??_C@_03HPDLNGOA@?$EA?$CFs?$AA@ 00000001400458c0     lua-5.1_x64:lauxlib.obj
 0002:000068c4       ??_C@_06IEGCHAII@reopen?$AA@ 00000001400458c4     lua-5.1_x64:lauxlib.obj
 0002:000068cc       ??_C@_02JDPG@rb?$AA@       00000001400458cc     lua-5.1_x64:lauxlib.obj
 0002:000068d0       ??_C@_06CCPPALKB@?$DNstdin?$AA@ 00000001400458d0     lua-5.1_x64:lauxlib.obj
 0002:000068d8       ??_C@_0DC@EFOPIIKP@PANIC?3?5unprotected?5error?5in?5call@ 00000001400458d8     lua-5.1_x64:lauxlib.obj
 0002:00006910       ??_C@_0BO@GOMKJOAH@bad?5argument?5?$CD?$CFd?5to?5?8?$CFs?8?5?$CI?$CFs?$CJ?$AA@ 0000000140045910     lua-5.1_x64:lauxlib.obj
 0002:00006930       ??_C@_0BO@LENGMNDF@calling?5?8?$CFs?8?5on?5bad?5self?5?$CI?$CFs?$CJ?$AA@ 0000000140045930     lua-5.1_x64:lauxlib.obj
 0002:00006950       ??_C@_06GABBCIBA@method?$AA@ 0000000140045950     lua-5.1_x64:lauxlib.obj
 0002:00006958       ??_C@_01EFFIKLCJ@n?$AA@    0000000140045958     lua-5.1_x64:lauxlib.obj
 0002:00006960       ??_C@_0BG@CHJGEHJL@bad?5argument?5?$CD?$CFd?5?$CI?$CFs?$CJ?$AA@ 0000000140045960     lua-5.1_x64:lauxlib.obj
 0002:00006978       ??_C@_0BE@LDJANOJE@?$CFs?5expected?0?5got?5?$CFs?$AA@ 0000000140045978     lua-5.1_x64:lauxlib.obj
 0002:00006990       ??_C@_0P@PDHEKNMA@value?5expected?$AA@ 0000000140045990     lua-5.1_x64:lauxlib.obj
 0002:000069a0       __real@0000000000000000    00000001400459a0     lua-5.1_x64:lauxlib.obj
 0002:000069a8       ??_C@_0BO@CBJIAGLF@name?5conflict?5for?5module?5?8?$CFs?8?$AA@ 00000001400459a8     lua-5.1_x64:lauxlib.obj
 0002:000069c8       ??_C@_07PINPBNPB@_LOADED?$AA@ 00000001400459c8     lua-5.1_x64:lauxlib.obj
 0002:000069d0       ??_C@_0BE@HBADPNMP@invalid?5option?5?8?$CFs?8?$AA@ 00000001400459d0     lua-5.1_x64:lauxlib.obj
 0002:000069e8       ??_C@_0BC@ENOOLCNF@not?5enough?5memory?$AA@ 00000001400459e8     lua-5.1_x64:lstate.obj
 0002:00006a00       luaO_nilobject_            0000000140045a00     lua-5.1_x64:lobject.obj
 0002:00006b10       ??_C@_01FGNFDNOH@?$CF?$AA@ 0000000140045b10     lua-5.1_x64:lobject.obj
 0002:00006b14       ??_C@_02BBAHNLBA@?$CFp?$AA@ 0000000140045b14     lua-5.1_x64:lobject.obj
 0002:00006b18       ??_C@_06OJHGLDPL@?$CInull?$CJ?$AA@ 0000000140045b18     lua-5.1_x64:lobject.obj
 0002:00006b20       ??_C@_02DEGCJHHK@?$CC?$FN?$AA@ 0000000140045b20     lua-5.1_x64:lobject.obj
 0002:00006b28       ??_C@_09PHLFBDIK@?$FLstring?5?$CC?$AA@ 0000000140045b28     lua-5.1_x64:lobject.obj
 0002:00006b34       ??_C@_02LIIHNNHG@?6?$AN?$AA@ 0000000140045b34     lua-5.1_x64:lobject.obj
 0002:00006b38       ??_C@_03KHICJKCI@?4?4?4?$AA@ 0000000140045b38     lua-5.1_x64:lobject.obj
 0002:00006b40       ??_C@_0BI@KGOCJOGJ@error?5in?5error?5handling?$AA@ 0000000140045b40     lua-5.1_x64:ldo.obj
 0002:00006b58       ??_C@_04OMFAIDPG@call?$AA@ 0000000140045b58     lua-5.1_x64:ldo.obj
 0002:00006b60       ??_C@_0DD@CPKEKIFA@attempt?5to?5yield?5across?5metameth@ 0000000140045b60     lua-5.1_x64:ldo.obj
 0002:00006b98       ??_C@_0P@EODJGPIM@stack?5overflow?$AA@ 0000000140045b98     lua-5.1_x64:ldo.obj
 0002:00006ba8       ??_C@_0BB@EJOGNINL@C?5stack?5overflow?$AA@ 0000000140045ba8     lua-5.1_x64:ldo.obj
 0002:00006bc0       ??_C@_0CG@NAAHDPPN@cannot?5resume?5non?9suspended?5coro@ 0000000140045bc0     lua-5.1_x64:ldo.obj
 0002:00006be8       ??_C@_04GHJNJNPO@main?$AA@ 0000000140045be8     lua-5.1_x64:ldebug.obj
 0002:00006bf0       ??_C@_03CBKFDHDL@Lua?$AA@  0000000140045bf0     lua-5.1_x64:ldebug.obj
 0002:00006bf4       ??_C@_01GFHCPBMG@C?$AA@    0000000140045bf4     lua-5.1_x64:ldebug.obj
 0002:00006bf8       ??_C@_04BKJOMPG@?$DN?$FLC?$FN?$AA@ 0000000140045bf8     lua-5.1_x64:ldebug.obj
 0002:00006c00       ??_C@_04DIFLAKIP@tail?$AA@ 0000000140045c00     lua-5.1_x64:ldebug.obj
 0002:00006c08       ??_C@_0N@DIENKKJP@?$DN?$CItail?5call?$CJ?$AA@ 0000000140045c08     lua-5.1_x64:ldebug.obj
 0002:00006c18       ??_C@_05IDKHKMLA@local?$AA@ 0000000140045c18     lua-5.1_x64:ldebug.obj
 0002:00006c20       ??_C@_07NAGMKCIK@upvalue?$AA@ 0000000140045c20     lua-5.1_x64:ldebug.obj
 0002:00006c28       ??_C@_05EIBGDMPB@field?$AA@ 0000000140045c28     lua-5.1_x64:ldebug.obj
 0002:00006c30       ??_C@_09BHPFBFOI@?$CFs?3?$CFd?3?5?$CFs?$AA@ 0000000140045c30     lua-5.1_x64:ldebug.obj
 0002:00006c40       ??_C@_0CD@HAGFMPIP@attempt?5to?5?$CFs?5?$CFs?5?8?$CFs?8?5?$CIa?5?$CFs?5valu@ 0000000140045c40     lua-5.1_x64:ldebug.obj
 0002:00006c68       ??_C@_0BJ@HGCMIDJD@attempt?5to?5?$CFs?5a?5?$CFs?5value?$AA@ 0000000140045c68     lua-5.1_x64:ldebug.obj
 0002:00006c88       ??_C@_0M@LPKAOE@concatenate?$AA@ 0000000140045c88     lua-5.1_x64:ldebug.obj
 0002:00006c98       ??_C@_0BG@IOLALLOM@perform?5arithmetic?5on?$AA@ 0000000140045c98     lua-5.1_x64:ldebug.obj
 0002:00006cb0       ??_C@_0BO@DNBGDDFP@attempt?5to?5compare?5?$CFs?5with?5?$CFs?$AA@ 0000000140045cb0     lua-5.1_x64:ldebug.obj
 0002:00006cd0       ??_C@_0CB@DEJMKNMB@attempt?5to?5compare?5two?5?$CFs?5values@ 0000000140045cd0     lua-5.1_x64:ldebug.obj
 0002:00006cf4       ??_C@_06JPFLIIOJ@__call?$AA@ 0000000140045cf4     lua-5.1_x64:ltm.obj
 0002:00006d00       ??_C@_08HGDAODEP@__concat?$AA@ 0000000140045d00     lua-5.1_x64:ltm.obj
 0002:00006d0c       ??_C@_04EJLHOCKK@__le?$AA@ 0000000140045d0c     lua-5.1_x64:ltm.obj
 0002:00006d14       ??_C@_04BKGOMBLK@__lt?$AA@ 0000000140045d14     lua-5.1_x64:ltm.obj
 0002:00006d1c       ??_C@_05MNDELLDN@__len?$AA@ 0000000140045d1c     lua-5.1_x64:ltm.obj
 0002:00006d24       ??_C@_05MHFNBPAK@__unm?$AA@ 0000000140045d24     lua-5.1_x64:ltm.obj
 0002:00006d2c       ??_C@_05EBGMHPNE@__pow?$AA@ 0000000140045d2c     lua-5.1_x64:ltm.obj
 0002:00006d34       ??_C@_05ICPALBAE@__mod?$AA@ 0000000140045d34     lua-5.1_x64:ltm.obj
 0002:00006d3c       ??_C@_05IDIBPCOP@__div?$AA@ 0000000140045d3c     lua-5.1_x64:ltm.obj
 0002:00006d44       ??_C@_05FLJIBNKK@__mul?$AA@ 0000000140045d44     lua-5.1_x64:ltm.obj
 0002:00006d4c       ??_C@_05HFNNBAII@__sub?$AA@ 0000000140045d4c     lua-5.1_x64:ltm.obj
 0002:00006d54       ??_C@_05MEHDOBFN@__add?$AA@ 0000000140045d54     lua-5.1_x64:ltm.obj
 0002:00006d5c       ??_C@_04GIMIAOHA@__eq?$AA@ 0000000140045d5c     lua-5.1_x64:ltm.obj
 0002:00006d64       ??_C@_06BPGFKLEK@__mode?$AA@ 0000000140045d64     lua-5.1_x64:ltm.obj
 0002:00006d6c       ??_C@_04BDLIKKMN@__gc?$AA@ 0000000140045d6c     lua-5.1_x64:ltm.obj
 0002:00006d78       ??_C@_0L@GADKNKH@__newindex?$AA@ 0000000140045d78     lua-5.1_x64:ltm.obj
 0002:00006d88       ??_C@_07NHABFFHN@__index?$AA@ 0000000140045d88     lua-5.1_x64:ltm.obj
 0002:00006d90       ??_C@_05CCAJFIBN@upval?$AA@ 0000000140045d90     lua-5.1_x64:ltm.obj
 0002:00006d98       ??_C@_05BENFLAID@proto?$AA@ 0000000140045d98     lua-5.1_x64:ltm.obj
 0002:00006da0       ??_C@_06FJHNOCKE@thread?$AA@ 0000000140045da0     lua-5.1_x64:ltm.obj
 0002:00006da8       ??_C@_08HFFPPCHF@function?$AA@ 0000000140045da8     lua-5.1_x64:ltm.obj
 0002:00006db4       ??_C@_05LCLENNFI@table?$AA@ 0000000140045db4     lua-5.1_x64:ltm.obj
 0002:00006dbc       ??_C@_06ICGJLFIM@string?$AA@ 0000000140045dbc     lua-5.1_x64:ltm.obj
 0002:00006dc4       ??_C@_06EBGNBFIA@number?$AA@ 0000000140045dc4     lua-5.1_x64:ltm.obj
 0002:00006dd0       ??_C@_08NOEPOPLB@userdata?$AA@ 0000000140045dd0     lua-5.1_x64:ltm.obj
 0002:00006de0       ??_C@_07GOBOHMJA@boolean?$AA@ 0000000140045de0     lua-5.1_x64:ltm.obj
 0002:00006de8       ??_C@_03ILAMHENH@nil?$AA@  0000000140045de8     lua-5.1_x64:ltm.obj
 0002:00006df0       luaT_typenames             0000000140045df0     lua-5.1_x64:ltm.obj
 0002:00006ed8       ??_C@_05CGOEHEFE@?$CF?414g?$AA@ 0000000140045ed8     lua-5.1_x64:lvm.obj
 0002:00006ee0       ??_C@_0BB@JEECHIJH@loop?5in?5gettable?$AA@ 0000000140045ee0     lua-5.1_x64:lvm.obj
 0002:00006ef4       ??_C@_05FKHKFDID@index?$AA@ 0000000140045ef4     lua-5.1_x64:lvm.obj
 0002:00006f00       ??_C@_0BB@GFGOGLOK@loop?5in?5settable?$AA@ 0000000140045f00     lua-5.1_x64:lvm.obj
 0002:00006f18       ??_C@_0BH@ONIKNOCM@string?5length?5overflow?$AA@ 0000000140045f18     lua-5.1_x64:lvm.obj
 0002:00006f30       __mask@@NegDouble@         0000000140045f30     lua-5.1_x64:lvm.obj
 0002:00006f40       ??_C@_0BM@EGCFKNIJ@?8for?8?5step?5must?5be?5a?5number?$AA@ 0000000140045f40     lua-5.1_x64:lvm.obj
 0002:00006f60       ??_C@_0CF@JJFDEONC@?8for?8?5initial?5value?5must?5be?5a?5nu@ 0000000140045f60     lua-5.1_x64:lvm.obj
 0002:00006f88       ??_C@_0BN@GHPMJMPH@?8for?8?5limit?5must?5be?5a?5number?$AA@ 0000000140045f88     lua-5.1_x64:lvm.obj
 0002:00006fa8       ??_C@_0O@MKOIIDGO@get?5length?5of?$AA@ 0000000140045fa8     lua-5.1_x64:lvm.obj
 0002:00006fb8       __real@43f0000000000000    0000000140045fb8     lua-5.1_x64:lvm.obj
 0002:00006fe8       ??_C@_0BG@FEBJBDLJ@invalid?5key?5to?5?8next?8?$AA@ 0000000140045fe8     lua-5.1_x64:ltable.obj
 0002:00007000       ??_C@_0P@KKABOKCO@table?5overflow?$AA@ 0000000140046000     lua-5.1_x64:ltable.obj
 0002:00007010       ??_C@_0BD@BKBJANLJ@table?5index?5is?5NaN?$AA@ 0000000140046010     lua-5.1_x64:ltable.obj
 0002:00007028       ??_C@_0BD@BDIKLFBP@table?5index?5is?5nil?$AA@ 0000000140046028     lua-5.1_x64:ltable.obj
 0002:00007040       ??_C@_0CH@LBFPMMCP@memory?5allocation?5error?3?5block?5t@ 0000000140046040     lua-5.1_x64:lmem.obj
 0002:00007068       ??_C@_05CINCKAN@?$DMeof?$DO?$AA@ 0000000140046068     lua-5.1_x64:llex.obj
 0002:00007070       ??_C@_08OOGHEFMC@?$DMstring?$DO?$AA@ 0000000140046070     lua-5.1_x64:llex.obj
 0002:0000707c       ??_C@_06FNGJOCBI@?$DMname?$DO?$AA@ 000000014004607c     lua-5.1_x64:llex.obj
 0002:00007088       ??_C@_08OHBCANEJ@?$DMnumber?$DO?$AA@ 0000000140046088     lua-5.1_x64:llex.obj
 0002:00007094       ??_C@_02DEDJCLAJ@?$HO?$DN?$AA@ 0000000140046094     lua-5.1_x64:llex.obj
 0002:00007098       ??_C@_02EHCHHCKH@?$DM?$DN?$AA@ 0000000140046098     lua-5.1_x64:llex.obj
 0002:0000709c       ??_C@_02EEKDKGMJ@?$DO?$DN?$AA@ 000000014004609c     lua-5.1_x64:llex.obj
 0002:000070a0       ??_C@_02EGOFBIJA@?$DN?$DN?$AA@ 00000001400460a0     lua-5.1_x64:llex.obj
 0002:000070a4       ??_C@_02DJGKEECL@?4?4?$AA@ 00000001400460a4     lua-5.1_x64:llex.obj
 0002:000070a8       ??_C@_05OODBEKIG@while?$AA@ 00000001400460a8     lua-5.1_x64:llex.obj
 0002:000070b0       ??_C@_05FJMDOIMN@until?$AA@ 00000001400460b0     lua-5.1_x64:llex.obj
 0002:000070b8       ??_C@_04LOAJBDKD@true?$AA@ 00000001400460b8     lua-5.1_x64:llex.obj
 0002:000070c0       ??_C@_04HOHPNOOD@then?$AA@ 00000001400460c0     lua-5.1_x64:llex.obj
 0002:000070c8       ??_C@_06LNOFJDNM@return?$AA@ 00000001400460c8     lua-5.1_x64:llex.obj
 0002:000070d0       ??_C@_06LGDBIFHB@repeat?$AA@ 00000001400460d0     lua-5.1_x64:llex.obj
 0002:000070d8       ??_C@_02FODMLBIE@or?$AA@   00000001400460d8     lua-5.1_x64:llex.obj
 0002:000070dc       ??_C@_03NJKJADM@not?$AA@   00000001400460dc     lua-5.1_x64:llex.obj
 0002:000070e0       ??_C@_02LMMGJAGL@in?$AA@   00000001400460e0     lua-5.1_x64:llex.obj
 0002:000070e4       ??_C@_02HEBPBKGD@if?$AA@   00000001400460e4     lua-5.1_x64:llex.obj
 0002:000070e8       ??_C@_03JOHEBPFF@for?$AA@  00000001400460e8     lua-5.1_x64:llex.obj
 0002:000070ec       ??_C@_05LAPONLG@false?$AA@ 00000001400460ec     lua-5.1_x64:llex.obj
 0002:000070f4       ??_C@_03JBJLGPFL@end?$AA@  00000001400460f4     lua-5.1_x64:llex.obj
 0002:000070f8       ??_C@_06CAACNEC@elseif?$AA@ 00000001400460f8     lua-5.1_x64:llex.obj
 0002:00007100       ??_C@_04FHMCPBIP@else?$AA@ 0000000140046100     lua-5.1_x64:llex.obj
 0002:00007108       ??_C@_02KNAFDCHJ@do?$AA@   0000000140046108     lua-5.1_x64:llex.obj
 0002:0000710c       ??_C@_05ELPHFHOI@break?$AA@ 000000014004610c     lua-5.1_x64:llex.obj
 0002:00007114       ??_C@_03BOPJPIAM@and?$AA@  0000000140046114     lua-5.1_x64:llex.obj
 0002:00007120       luaX_tokens                0000000140046120     lua-5.1_x64:llex.obj
 0002:00007220       ??_C@_0BJ@JNKOFINI@lexical?5element?5too?5long?$AA@ 0000000140046220     lua-5.1_x64:llex.obj
 0002:00007240       ??_C@_08HJPIMBHL@char?$CI?$CFd?$CJ?$AA@ 0000000140046240     lua-5.1_x64:llex.obj
 0002:00007250       ??_C@_0N@FKCNMBAF@?$CFs?5near?5?8?$CFs?8?$AA@ 0000000140046250     lua-5.1_x64:llex.obj
 0002:00007260       ??_C@_0BJ@LAKGPFF@chunk?5has?5too?5many?5lines?$AA@ 0000000140046260     lua-5.1_x64:llex.obj
 0002:00007280       ??_C@_0BB@CFMNENCE@malformed?5number?$AA@ 0000000140046280     lua-5.1_x64:llex.obj
 0002:00007294       ??_C@_02BEIMNFAD@?$CL?9?$AA@ 0000000140046294     lua-5.1_x64:llex.obj
 0002:00007298       ??_C@_02GOGFPGCE@Ee?$AA@   0000000140046298     lua-5.1_x64:llex.obj
 0002:000072a0       ??_C@_0BI@ONEAKEIB@unfinished?5long?5comment?$AA@ 00000001400462a0     lua-5.1_x64:llex.obj
 0002:000072b8       ??_C@_0BH@BBMFLJJP@unfinished?5long?5string?$AA@ 00000001400462b8     lua-5.1_x64:llex.obj
 0002:000072d0       ??_C@_0CB@BALFDNPK@nesting?5of?5?$FL?$FL?4?4?4?$FN?$FN?5is?5deprecated@ 00000001400462d0     lua-5.1_x64:llex.obj
 0002:000072f8       ??_C@_0BK@GLJFEJMO@escape?5sequence?5too?5large?$AA@ 00000001400462f8     lua-5.1_x64:llex.obj
 0002:00007318       ??_C@_0BC@IBAFBKML@unfinished?5string?$AA@ 0000000140046318     lua-5.1_x64:llex.obj
 0002:0000732c       ??_C@_01LFCBOECM@?4?$AA@   000000014004632c     lua-5.1_x64:llex.obj
 0002:00007330       ??_C@_0BO@DBNLNIBP@invalid?5long?5string?5delimiter?$AA@ 0000000140046330     lua-5.1_x64:llex.obj
 0002:00007370       ??_C@_0O@DDMAPLHE@?8?$CFs?8?5expected?$AA@ 0000000140046370     lua-5.1_x64:lparser.obj
 0002:00007380       ??_C@_0CI@FLAOKACM@function?5at?5line?5?$CFd?5has?5more?5tha@ 0000000140046380     lua-5.1_x64:lparser.obj
 0002:000073a8       ??_C@_0CC@OKOPEFGK@main?5function?5has?5more?5than?5?$CFd?5?$CF@ 00000001400463a8     lua-5.1_x64:lparser.obj
 0002:000073d0       ??_C@_0CJ@IJEGBPEP@?8?$CFs?8?5expected?5?$CIto?5close?5?8?$CFs?8?5at?5@ 00000001400463d0     lua-5.1_x64:lparser.obj
 0002:00007400       ??_C@_0BJ@EGOMLGMD@too?5many?5local?5variables?$AA@ 0000000140046400     lua-5.1_x64:lparser.obj
 0002:00007420       ??_C@_0BA@EIDMAHJI@local?5variables?$AA@ 0000000140046420     lua-5.1_x64:lparser.obj
 0002:00007430       ??_C@_08JKPCMKJ@upvalues?$AA@ 0000000140046430     lua-5.1_x64:lparser.obj
 0002:00007440       ??_C@_0CB@OHOGAGIL@chunk?5has?5too?5many?5syntax?5levels@ 0000000140046440     lua-5.1_x64:lparser.obj
 0002:00007468       ??_C@_0BI@DGLMJHJB@constant?5table?5overflow?$AA@ 0000000140046468     lua-5.1_x64:lparser.obj
 0002:00007480       ??_C@_0BH@IAOKECIM@items?5in?5a?5constructor?$AA@ 0000000140046480     lua-5.1_x64:lparser.obj
 0002:00007498       ??_C@_03CAOIPBNL@arg?$AA@  0000000140046498     lua-5.1_x64:lparser.obj
 0002:000074a0       ??_C@_0BJ@MHIGIDHO@?$DMname?$DO?5or?5?8?4?4?4?8?5expected?$AA@ 00000001400464a0     lua-5.1_x64:lparser.obj
 0002:000074bc       ??_C@_04PJDNGLKJ@self?$AA@ 00000001400464bc     lua-5.1_x64:lparser.obj
 0002:000074c8       ??_C@_0DB@LGGKFLCP@ambiguous?5syntax?5?$CIfunction?5call?5@ 00000001400464c8     lua-5.1_x64:lparser.obj
 0002:00007500       ??_C@_0BM@HEIHHEKF@function?5arguments?5expected?$AA@ 0000000140046500     lua-5.1_x64:lparser.obj
 0002:00007520       ??_C@_0BC@KBCKKGAJ@unexpected?5symbol?$AA@ 0000000140046520     lua-5.1_x64:lparser.obj
 0002:00007538       ??_C@_0CL@EJFFCAJP@cannot?5use?5?8?4?4?4?8?5outside?5a?5varar@ 0000000140046538     lua-5.1_x64:lparser.obj
 0002:00007568       ??_C@_0BI@MAKOOLPG@variables?5in?5assignment?$AA@ 0000000140046568     lua-5.1_x64:lparser.obj
 0002:00007580       ??_C@_0N@MNJHOOI@syntax?5error?$AA@ 0000000140046580     lua-5.1_x64:lparser.obj
 0002:00007590       ??_C@_0BB@DBFONGCK@no?5loop?5to?5break?$AA@ 0000000140046590     lua-5.1_x64:lparser.obj
 0002:000075a8       __real@3ff0000000000000    00000001400465a8     lua-5.1_x64:lparser.obj
 0002:000075b0       ??_C@_0L@ELGHHMFI@?$CIfor?5step?$CJ?$AA@ 00000001400465b0     lua-5.1_x64:lparser.obj
 0002:000075c0       ??_C@_0M@HGGGDCAE@?$CIfor?5limit?$CJ?$AA@ 00000001400465c0     lua-5.1_x64:lparser.obj
 0002:000075d0       ??_C@_0M@HHIHAJLG@?$CIfor?5index?$CJ?$AA@ 00000001400465d0     lua-5.1_x64:lparser.obj
 0002:000075e0       ??_C@_0O@PHJHAIC@?$CIfor?5control?$CJ?$AA@ 00000001400465e0     lua-5.1_x64:lparser.obj
 0002:000075f0       ??_C@_0M@CCNPGEGC@?$CIfor?5state?$CJ?$AA@ 00000001400465f0     lua-5.1_x64:lparser.obj
 0002:00007600       ??_C@_0BA@IJIMMPHF@?$CIfor?5generator?$CJ?$AA@ 0000000140046600     lua-5.1_x64:lparser.obj
 0002:00007610       ??_C@_0BF@PACDFECJ@?8?$DN?8?5or?5?8in?8?5expected?$AA@ 0000000140046610     lua-5.1_x64:lparser.obj
 0002:00007628       ??_C@_0BM@EDNHGHJO@?$CFs?3?5?$CFs?5in?5precompiled?5chunk?$AA@ 0000000140046628     lua-5.1_x64:lundump.obj
 0002:00007648       ??_C@_0P@CLDJCNKP@unexpected?5end?$AA@ 0000000140046648     lua-5.1_x64:lundump.obj
 0002:00007658       ??_C@_0M@KLEMECJB@bad?5integer?$AA@ 0000000140046658     lua-5.1_x64:lundump.obj
 0002:00007668       ??_C@_0N@DOELNLHF@bad?5constant?$AA@ 0000000140046668     lua-5.1_x64:lundump.obj
 0002:00007678       ??_C@_08OFPEJJEA@bad?5code?$AA@ 0000000140046678     lua-5.1_x64:lundump.obj
 0002:00007688       ??_C@_0O@GNEOPCAJ@code?5too?5deep?$AA@ 0000000140046688     lua-5.1_x64:lundump.obj
 0002:00007698       ??_C@_0L@PJHPAMCH@bad?5header?$AA@ 0000000140046698     lua-5.1_x64:lundump.obj
 0002:000076a4       ??_C@_02HENDHKBC@?$DN?$DP?$AA@ 00000001400466a4     lua-5.1_x64:lundump.obj
 0002:000076a8       ??_C@_0O@CNJIDMJE@binary?5string?$AA@ 00000001400466a8     lua-5.1_x64:lundump.obj
 0002:000076b8       ??_C@_06FHOJKFCK@VARARG?$AA@ 00000001400466b8     lua-5.1_x64:lopcodes.obj
 0002:000076c0       ??_C@_07CBDMEJDJ@CLOSURE?$AA@ 00000001400466c0     lua-5.1_x64:lopcodes.obj
 0002:000076c8       ??_C@_05HKHBPABE@CLOSE?$AA@ 00000001400466c8     lua-5.1_x64:lopcodes.obj
 0002:000076d0       ??_C@_07LGKGOMK@SETLIST?$AA@ 00000001400466d0     lua-5.1_x64:lopcodes.obj
 0002:000076d8       ??_C@_08LFLGPGKH@TFORLOOP?$AA@ 00000001400466d8     lua-5.1_x64:lopcodes.obj
 0002:000076e8       ??_C@_07BDNHFNAN@FORPREP?$AA@ 00000001400466e8     lua-5.1_x64:lopcodes.obj
 0002:000076f0       ??_C@_07BJCDCNBK@FORLOOP?$AA@ 00000001400466f0     lua-5.1_x64:lopcodes.obj
 0002:000076f8       ??_C@_06LJMOENAO@RETURN?$AA@ 00000001400466f8     lua-5.1_x64:lopcodes.obj
 0002:00007700       ??_C@_08GDMBKKIJ@TAILCALL?$AA@ 0000000140046700     lua-5.1_x64:lopcodes.obj
 0002:0000770c       ??_C@_04CAGKGBIO@CALL?$AA@ 000000014004670c     lua-5.1_x64:lopcodes.obj
 0002:00007718       ??_C@_07GLDFODBB@TESTSET?$AA@ 0000000140046718     lua-5.1_x64:lopcodes.obj
 0002:00007720       ??_C@_04OIKJMBFP@TEST?$AA@ 0000000140046720     lua-5.1_x64:lopcodes.obj
 0002:00007728       ??_C@_02PEDAOJAJ@LE?$AA@   0000000140046728     lua-5.1_x64:lopcodes.obj
 0002:0000772c       ??_C@_02KHOJMKBJ@LT?$AA@   000000014004672c     lua-5.1_x64:lopcodes.obj
 0002:00007730       ??_C@_02NFEPAFND@EQ?$AA@   0000000140046730     lua-5.1_x64:lopcodes.obj
 0002:00007734       ??_C@_03OIOLNLHN@JMP?$AA@  0000000140046734     lua-5.1_x64:lopcodes.obj
 0002:00007738       ??_C@_06CIJDJJIA@CONCAT?$AA@ 0000000140046738     lua-5.1_x64:lopcodes.obj
 0002:00007740       ??_C@_03BHNCOKMG@LEN?$AA@  0000000140046740     lua-5.1_x64:lopcodes.obj
 0002:00007744       ??_C@_03GBFNEA@NOT?$AA@    0000000140046744     lua-5.1_x64:lopcodes.obj
 0002:00007748       ??_C@_03BNLLEOPB@UNM?$AA@  0000000140046748     lua-5.1_x64:lopcodes.obj
 0002:0000774c       ??_C@_03JLIKCOCP@POW?$AA@  000000014004674c     lua-5.1_x64:lopcodes.obj
 0002:00007750       ??_C@_03FIBGOAPP@MOD?$AA@  0000000140046750     lua-5.1_x64:lopcodes.obj
 0002:00007754       ??_C@_03FJGHKDBE@DIV?$AA@  0000000140046754     lua-5.1_x64:lopcodes.obj
 0002:00007758       ??_C@_03IBHOEMFB@MUL?$AA@  0000000140046758     lua-5.1_x64:lopcodes.obj
 0002:0000775c       ??_C@_03KPDLEBHD@SUB?$AA@  000000014004675c     lua-5.1_x64:lopcodes.obj
 0002:00007760       ??_C@_03BOJFLAKG@ADD?$AA@  0000000140046760     lua-5.1_x64:lopcodes.obj
 0002:00007764       ??_C@_04DFAHIJNB@SELF?$AA@ 0000000140046764     lua-5.1_x64:lopcodes.obj
 0002:00007770       ??_C@_08LPLGEMDO@NEWTABLE?$AA@ 0000000140046770     lua-5.1_x64:lopcodes.obj
 0002:00007780       ??_C@_08NDNBPDIF@SETTABLE?$AA@ 0000000140046780     lua-5.1_x64:lopcodes.obj
 0002:00007790       ??_C@_08EDGMHGMA@SETUPVAL?$AA@ 0000000140046790     lua-5.1_x64:lopcodes.obj
 0002:000077a0       ??_C@_09DECDCIIG@SETGLOBAL?$AA@ 00000001400467a0     lua-5.1_x64:lopcodes.obj
 0002:000077b0       ??_C@_08CCPNOAPI@GETTABLE?$AA@ 00000001400467b0     lua-5.1_x64:lopcodes.obj
 0002:000077c0       ??_C@_09BKGGAJBE@GETGLOBAL?$AA@ 00000001400467c0     lua-5.1_x64:lopcodes.obj
 0002:000077d0       ??_C@_08LCEAGFLN@GETUPVAL?$AA@ 00000001400467d0     lua-5.1_x64:lopcodes.obj
 0002:000077e0       ??_C@_07GHJHEMKM@LOADNIL?$AA@ 00000001400467e0     lua-5.1_x64:lopcodes.obj
 0002:000077e8       ??_C@_08GBBGHEAC@LOADBOOL?$AA@ 00000001400467e8     lua-5.1_x64:lopcodes.obj
 0002:000077f4       ??_C@_05KLLCNHFJ@LOADK?$AA@ 00000001400467f4     lua-5.1_x64:lopcodes.obj
 0002:000077fc       ??_C@_04LPPGDFDD@MOVE?$AA@ 00000001400467fc     lua-5.1_x64:lopcodes.obj
 0002:00007810       luaP_opnames               0000000140046810     lua-5.1_x64:lopcodes.obj
 0002:00007948       luaP_opmodes               0000000140046948     lua-5.1_x64:lopcodes.obj
 0002:00007970       ??_C@_0BL@BDOLDOFI@control?5structure?5too?5long?$AA@ 0000000140046970     lua-5.1_x64:lcode.obj
 0002:00007990       ??_C@_0CD@HGHHKJGL@function?5or?5expression?5too?5compl@ 0000000140046990     lua-5.1_x64:lcode.obj
 0002:000079b8       ??_C@_0BD@LKJEPOHE@code?5size?5overflow?$AA@ 00000001400469b8     lua-5.1_x64:lcode.obj
 0002:000079d8       ??_7CCSLock@lock@sync@wylib@@6B@ 00000001400469d8     wylib_x64:Lock.obj
 0002:00007a08       ??_7CBaseStream@stream@wylib@@6B@ 0000000140046a08     wylib_x64:FileStream.obj
 0002:00007a48       ??_7CFileStream@stream@wylib@@6B@ 0000000140046a48     wylib_x64:FileStream.obj
 0002:00007ad8       ??_7CBaseThread@thread@wylib@@6B@ 0000000140046ad8     wylib_x64:Thread.obj
 0002:00007b08       ??_7CHandleStream@stream@wylib@@6B@ 0000000140046b08     wylib_x64:HandleStream.obj
 0002:00007b40       ??_C@_0DM@NCEEEACA@?G?k?J?V?$LG?$KP?H?$LH?H?O?$LE?K?$LE?$KG?J?G?$LH?q?N?$LE?$LH?$KC?I?zBUG?$KD?$KM?$LG?x?J@ 0000000140046b40     wylib_x64:Tick.obj
 0002:00007b88       ??_7CCustomSocket@socket@inet@wylib@@6B@ 0000000140046b88     wylib_x64:CustomSocket.obj
 0002:00007bd8       ??_7CMemoryStream@stream@wylib@@6B@ 0000000140046bd8     wylib_x64:MemoryStream.obj
 0002:00007c48       ??_7type_info@@6B@         0000000140046c48     MSVCRT:ti_inst.obj
 0002:00007c50       ??_C@_03IIINPABG@tan?$AA@  0000000140046c50     lua-5.1_x64:lmathlib.obj
 0002:00007c54       ??_C@_04FJHINJAO@tanh?$AA@ 0000000140046c54     lua-5.1_x64:lmathlib.obj
 0002:00007c5c       ??_C@_04EIAKFFMI@sqrt?$AA@ 0000000140046c5c     lua-5.1_x64:lmathlib.obj
 0002:00007c64       ??_C@_03BLEJJJBH@sin?$AA@  0000000140046c64     lua-5.1_x64:lmathlib.obj
 0002:00007c68       ??_C@_04COOMCNPB@sinh?$AA@ 0000000140046c68     lua-5.1_x64:lmathlib.obj
 0002:00007c70       ??_C@_0L@PIIACENG@randomseed?$AA@ 0000000140046c70     lua-5.1_x64:lmathlib.obj
 0002:00007c7c       ??_C@_06NLFCANPD@random?$AA@ 0000000140046c7c     lua-5.1_x64:lmathlib.obj
 0002:00007c84       ??_C@_03FHAJEHEA@rad?$AA@  0000000140046c84     lua-5.1_x64:lmathlib.obj
 0002:00007c88       ??_C@_03JGHBODFD@pow?$AA@  0000000140046c88     lua-5.1_x64:lmathlib.obj
 0002:00007c8c       ??_C@_04EHEDPDJG@modf?$AA@ 0000000140046c8c     lua-5.1_x64:lmathlib.obj
 0002:00007c94       ??_C@_03KLIPLJLL@min?$AA@  0000000140046c94     lua-5.1_x64:lmathlib.obj
 0002:00007c98       ??_C@_03LJAEFNNE@max?$AA@  0000000140046c98     lua-5.1_x64:lmathlib.obj
 0002:00007c9c       ??_C@_03MGHMBJCF@log?$AA@  0000000140046c9c     lua-5.1_x64:lmathlib.obj
 0002:00007ca0       ??_C@_05HGHHAHAP@log10?$AA@ 0000000140046ca0     lua-5.1_x64:lmathlib.obj
 0002:00007ca8       ??_C@_05CEJMAHNP@ldexp?$AA@ 0000000140046ca8     lua-5.1_x64:lmathlib.obj
 0002:00007cb0       ??_C@_05GKKHEGJL@frexp?$AA@ 0000000140046cb0     lua-5.1_x64:lmathlib.obj
 0002:00007cb8       ??_C@_04KEPJIHGP@fmod?$AA@ 0000000140046cb8     lua-5.1_x64:lmathlib.obj
 0002:00007cc0       ??_C@_05PBJFFIGL@floor?$AA@ 0000000140046cc0     lua-5.1_x64:lmathlib.obj
 0002:00007cc8       ??_C@_03KHJOGHMM@exp?$AA@  0000000140046cc8     lua-5.1_x64:lmathlib.obj
 0002:00007ccc       ??_C@_03OFPLEBM@deg?$AA@   0000000140046ccc     lua-5.1_x64:lmathlib.obj
 0002:00007cd0       ??_C@_03LALBNOCG@cos?$AA@  0000000140046cd0     lua-5.1_x64:lmathlib.obj
 0002:00007cd4       ??_C@_04HPJJNFIM@cosh?$AA@ 0000000140046cd4     lua-5.1_x64:lmathlib.obj
 0002:00007cdc       ??_C@_04GFPJNGEK@ceil?$AA@ 0000000140046cdc     lua-5.1_x64:lmathlib.obj
 0002:00007ce4       ??_C@_04MLLJIGOK@atan?$AA@ 0000000140046ce4     lua-5.1_x64:lmathlib.obj
 0002:00007cec       ??_C@_05KNGEOGJB@atan2?$AA@ 0000000140046cec     lua-5.1_x64:lmathlib.obj
 0002:00007cf4       ??_C@_04FIHNOPOL@asin?$AA@ 0000000140046cf4     lua-5.1_x64:lmathlib.obj
 0002:00007cfc       ??_C@_04PDIFKINK@acos?$AA@ 0000000140046cfc     lua-5.1_x64:lmathlib.obj
 0002:00007d04       ??_C@_03BCGAIFPO@abs?$AA@  0000000140046d04     lua-5.1_x64:lmathlib.obj
 0002:00007ee0       __mask@@AbsDouble@         0000000140046ee0     lua-5.1_x64:lmathlib.obj
 0002:00007ef0       __real@3f91df46a2529d39    0000000140046ef0     lua-5.1_x64:lmathlib.obj
 0002:00007ef8       ??_C@_0BC@JKHEKPDC@interval?5is?5empty?$AA@ 0000000140046ef8     lua-5.1_x64:lmathlib.obj
 0002:00007f10       ??_C@_0BK@KNAOOCNO@wrong?5number?5of?5arguments?$AA@ 0000000140046f10     lua-5.1_x64:lmathlib.obj
 0002:00007f30       __real@40dfffc000000000    0000000140046f30     lua-5.1_x64:lmathlib.obj
 0002:00007f38       ??_C@_03FFONCNID@mod?$AA@  0000000140046f38     lua-5.1_x64:lmathlib.obj
 0002:00007f3c       ??_C@_04JJGMCGIH@huge?$AA@ 0000000140046f3c     lua-5.1_x64:lmathlib.obj
 0002:00007f44       ??_C@_02OAHAJOFD@pi?$AA@   0000000140046f44     lua-5.1_x64:lmathlib.obj
 0002:00007f48       __real@400921fb54442d18    0000000140046f48     lua-5.1_x64:lmathlib.obj
 0002:00007f50       ??_C@_04CFDJAKFL@math?$AA@ 0000000140046f50     lua-5.1_x64:lmathlib.obj
 0002:00007f58       ??_C@_05NECKJAMC@upper?$AA@ 0000000140046f58     lua-5.1_x64:lstrlib.obj
 0002:00007f60       ??_C@_03KCMAIMAP@sub?$AA@  0000000140046f60     lua-5.1_x64:lstrlib.obj
 0002:00007f68       ??_C@_07KOIEOCCE@reverse?$AA@ 0000000140046f68     lua-5.1_x64:lstrlib.obj
 0002:00007f70       ??_C@_03HOKODIMJ@rep?$AA@  0000000140046f70     lua-5.1_x64:lstrlib.obj
 0002:00007f74       ??_C@_05FNONLPDI@match?$AA@ 0000000140046f74     lua-5.1_x64:lstrlib.obj
 0002:00007f7c       ??_C@_05IPJEPLHL@lower?$AA@ 0000000140046f7c     lua-5.1_x64:lstrlib.obj
 0002:00007f84       ??_C@_03BKCJCHLK@len?$AA@  0000000140046f84     lua-5.1_x64:lstrlib.obj
 0002:00007f88       ??_C@_04GOLEAPFD@gsub?$AA@ 0000000140046f88     lua-5.1_x64:lstrlib.obj
 0002:00007f90       ??_C@_06DPFCLDIO@gmatch?$AA@ 0000000140046f90     lua-5.1_x64:lstrlib.obj
 0002:00007f98       ??_C@_05EIEIBDFD@gfind?$AA@ 0000000140046f98     lua-5.1_x64:lstrlib.obj
 0002:00007fa0       ??_C@_06DLEPGFEF@format?$AA@ 0000000140046fa0     lua-5.1_x64:lstrlib.obj
 0002:00007fa8       ??_C@_04CKFJHKAP@find?$AA@ 0000000140046fa8     lua-5.1_x64:lstrlib.obj
 0002:00007fb0       ??_C@_04GGLOKIEE@dump?$AA@ 0000000140046fb0     lua-5.1_x64:lstrlib.obj
 0002:00007fb8       ??_C@_04ENMBGAPA@char?$AA@ 0000000140046fb8     lua-5.1_x64:lstrlib.obj
 0002:00007fc0       ??_C@_04IHGKJMLH@byte?$AA@ 0000000140046fc0     lua-5.1_x64:lstrlib.obj
 0002:000080d0       ??_C@_0BG@DFAIEAEC@string?5slice?5too?5long?$AA@ 00000001400470d0     lua-5.1_x64:lstrlib.obj
 0002:000080e8       ??_C@_0O@EAJJMEEM@invalid?5value?$AA@ 00000001400470e8     lua-5.1_x64:lstrlib.obj
 0002:000080f8       ??_C@_0BO@BNLBHKJN@unable?5to?5dump?5given?5function?$AA@ 00000001400470f8     lua-5.1_x64:lstrlib.obj
 0002:00008118       ??_C@_0BG@LEHNKOGD@invalid?5capture?5index?$AA@ 0000000140047118     lua-5.1_x64:lstrlib.obj
 0002:00008130       ??_C@_0BI@ECNPHIBF@invalid?5pattern?5capture?$AA@ 0000000140047130     lua-5.1_x64:lstrlib.obj
 0002:00008148       ??_C@_0CD@PLJBIEHA@malformed?5pattern?5?$CIends?5with?5?8?$CF?$CF@ 0000000140047148     lua-5.1_x64:lstrlib.obj
 0002:00008170       ??_C@_0CA@CFGACOGB@malformed?5pattern?5?$CImissing?5?8?$FN?8?$CJ?$AA@ 0000000140047170     lua-5.1_x64:lstrlib.obj
 0002:00008190       ??_C@_0BD@NGJIMPLI@unbalanced?5pattern?$AA@ 0000000140047190     lua-5.1_x64:lstrlib.obj
 0002:000081a8       ??_C@_0BC@IMEAEJPD@too?5many?5captures?$AA@ 00000001400471a8     lua-5.1_x64:lstrlib.obj
 0002:000081c0       ??_C@_0CD@LOJJMDBH@missing?5?8?$FL?8?5after?5?8?$CF?$CFf?8?5in?5patte@ 00000001400471c0     lua-5.1_x64:lstrlib.obj
 0002:000081e8       ??_C@_0BD@BFKNEALP@unfinished?5capture?$AA@ 00000001400471e8     lua-5.1_x64:lstrlib.obj
 0002:00008200       ??_C@_0L@NLFJOONJ@?$FO$?$CK?$CL?$DP?4?$CI?$FL?$CF?9?$AA@ 0000000140047200     lua-5.1_x64:lstrlib.obj
 0002:00008210       ??_C@_0CO@MAGJPEI@?8string?4gfind?8?5was?5renamed?5to?5?8s@ 0000000140047210     lua-5.1_x64:lstrlib.obj
 0002:00008240       ??_C@_0CB@LPDIHGGA@invalid?5replacement?5value?5?$CIa?5?$CFs?$CJ@ 0000000140047240     lua-5.1_x64:lstrlib.obj
 0002:00008268       ??_C@_0BP@PPPOBACA@string?1function?1table?5expected?$AA@ 0000000140047268     lua-5.1_x64:lstrlib.obj
 0002:00008288       ??_C@_04MPDIABOK@?2000?$AA@ 0000000140047288     lua-5.1_x64:lstrlib.obj
 0002:00008290       ??_C@_02HIBBOKEN@?2r?$AA@  0000000140047290     lua-5.1_x64:lstrlib.obj
 0002:00008298       ??_C@_0CN@KALFEKPN@invalid?5format?5?$CIwidth?5or?5precisi@ 0000000140047298     lua-5.1_x64:lstrlib.obj
 0002:000082c8       ??_C@_0CA@COOMGCAO@invalid?5format?5?$CIrepeated?5flags?$CJ?$AA@ 00000001400472c8     lua-5.1_x64:lstrlib.obj
 0002:000082e8       ??_C@_05GGBDHNF@?9?$CL?5?$CD0?$AA@ 00000001400472e8     lua-5.1_x64:lstrlib.obj
 0002:000082f0       ??_C@_0CC@KIPBEOBI@invalid?5option?5?8?$CF?$CF?$CFc?8?5to?5?8format@ 00000001400472f0     lua-5.1_x64:lstrlib.obj
 0002:00008314       ??_C@_05LKJGIMLP@yield?$AA@ 0000000140047314     lua-5.1_x64:lbaselib.obj
 0002:0000831c       ??_C@_04NFDDIEML@wrap?$AA@ 000000014004731c     lua-5.1_x64:lbaselib.obj
 0002:00008324       ??_C@_06DJIHEMFI@status?$AA@ 0000000140047324     lua-5.1_x64:lbaselib.obj
 0002:0000832c       ??_C@_06PLELHCEK@resume?$AA@ 000000014004732c     lua-5.1_x64:lbaselib.obj
 0002:00008334       ??_C@_06HBNONAG@create?$AA@ 0000000140047334     lua-5.1_x64:lbaselib.obj
 0002:0000833c       ??_C@_04BBBDNBOK@dead?$AA@ 000000014004733c     lua-5.1_x64:lbaselib.obj
 0002:00008344       ??_C@_06IKLLLDHL@normal?$AA@ 0000000140047344     lua-5.1_x64:lbaselib.obj
 0002:00008350       ??_C@_09PAHKPJCJ@suspended?$AA@ 0000000140047350     lua-5.1_x64:lbaselib.obj
 0002:00008360       ??_C@_07PANPENDC@running?$AA@ 0000000140047360     lua-5.1_x64:lbaselib.obj
 0002:00008368       ??_C@_06GDLLDIBI@xpcall?$AA@ 0000000140047368     lua-5.1_x64:lbaselib.obj
 0002:00008370       ??_C@_06FIONAGJL@unpack?$AA@ 0000000140047370     lua-5.1_x64:lbaselib.obj
 0002:00008378       ??_C@_08FNIIFOJC@tostring?$AA@ 0000000140047378     lua-5.1_x64:lbaselib.obj
 0002:00008388       ??_C@_08JOIMPOJO@tonumber?$AA@ 0000000140047388     lua-5.1_x64:lbaselib.obj
 0002:00008398       ??_C@_0N@MCAAIDEK@setmetatable?$AA@ 0000000140047398     lua-5.1_x64:lbaselib.obj
 0002:000083a8       ??_C@_07NAJJCHPG@setfenv?$AA@ 00000001400473a8     lua-5.1_x64:lbaselib.obj
 0002:000083b0       ??_C@_06LGNCCACI@select?$AA@ 00000001400473b0     lua-5.1_x64:lbaselib.obj
 0002:000083b8       ??_C@_06ONPLLLOI@rawset?$AA@ 00000001400473b8     lua-5.1_x64:lbaselib.obj
 0002:000083c0       ??_C@_06DCIAHLCA@rawget?$AA@ 00000001400473c0     lua-5.1_x64:lbaselib.obj
 0002:000083c8       ??_C@_08LCBKMMAG@rawequal?$AA@ 00000001400473c8     lua-5.1_x64:lbaselib.obj
 0002:000083d4       ??_C@_05IJDJACGD@print?$AA@ 00000001400473d4     lua-5.1_x64:lbaselib.obj
 0002:000083dc       ??_C@_05JAJCNIIJ@pcall?$AA@ 00000001400473dc     lua-5.1_x64:lbaselib.obj
 0002:000083e4       ??_C@_04CJGEDOF@next?$AA@  00000001400473e4     lua-5.1_x64:lbaselib.obj
 0002:000083f0       ??_C@_0L@BBBJLLLK@loadstring?$AA@ 00000001400473f0     lua-5.1_x64:lbaselib.obj
 0002:000083fc       ??_C@_04EONOHKEP@load?$AA@ 00000001400473fc     lua-5.1_x64:lbaselib.obj
 0002:00008408       ??_C@_08BNNFLGCJ@loadfile?$AA@ 0000000140047408     lua-5.1_x64:lbaselib.obj
 0002:00008418       ??_C@_0N@LGLOEPAG@getmetatable?$AA@ 0000000140047418     lua-5.1_x64:lbaselib.obj
 0002:00008428       ??_C@_07CIGIBICH@getfenv?$AA@ 0000000140047428     lua-5.1_x64:lbaselib.obj
 0002:00008430       ??_C@_06EDAGHKOI@gcinfo?$AA@ 0000000140047430     lua-5.1_x64:lbaselib.obj
 0002:00008438       ??_C@_05KKCIMGE@error?$AA@ 0000000140047438     lua-5.1_x64:lbaselib.obj
 0002:00008440       ??_C@_06ONNDGCDK@dofile?$AA@ 0000000140047440     lua-5.1_x64:lbaselib.obj
 0002:00008448       ??_C@_0P@CKFEAJJE@collectgarbage?$AA@ 0000000140047448     lua-5.1_x64:lbaselib.obj
 0002:00008458       ??_C@_06GMEIIFFN@assert?$AA@ 0000000140047458     lua-5.1_x64:lbaselib.obj
 0002:00008460       ??_C@_0L@KABEJKKP@setstepmul?$AA@ 0000000140047460     lua-5.1_x64:lbaselib.obj
 0002:00008470       ??_C@_08ONFIAENP@setpause?$AA@ 0000000140047470     lua-5.1_x64:lbaselib.obj
 0002:0000847c       ??_C@_04CNBNFAL@step?$AA@  000000014004747c     lua-5.1_x64:lbaselib.obj
 0002:00008488       ??_C@_07JHIJCABF@collect?$AA@ 0000000140047488     lua-5.1_x64:lbaselib.obj
 0002:00008490       ??_C@_07LDHOHMPD@restart?$AA@ 0000000140047490     lua-5.1_x64:lbaselib.obj
 0002:00008498       ??_C@_04PEGFANN@stop?$AA@  0000000140047498     lua-5.1_x64:lbaselib.obj
 0002:00008720       ??_C@_0CL@KMHHCBJA@?8tostring?8?5must?5return?5a?5string?5@ 0000000140047720     lua-5.1_x64:lbaselib.obj
 0002:0000874c       ??_C@_01GPOEFGEJ@?7?$AA@   000000014004774c     lua-5.1_x64:lbaselib.obj
 0002:00008750       ??_C@_0BC@GGLHLOMM@base?5out?5of?5range?$AA@ 0000000140047750     lua-5.1_x64:lbaselib.obj
 0002:00008768       ??_C@_0M@OKDMMFBL@__metatable?$AA@ 0000000140047768     lua-5.1_x64:lbaselib.obj
 0002:00008778       ??_C@_0CE@LJKICCEL@cannot?5change?5a?5protected?5metata@ 0000000140047778     lua-5.1_x64:lbaselib.obj
 0002:000087a0       ??_C@_0BG@HDIIKINN@nil?5or?5table?5expected?$AA@ 00000001400477a0     lua-5.1_x64:lbaselib.obj
 0002:000087b8       ??_C@_0DC@LPPOGBD@no?5function?5environment?5for?5tail@ 00000001400477b8     lua-5.1_x64:lbaselib.obj
 0002:000087ec       ??_C@_01INIBCBCB@f?$AA@    00000001400477ec     lua-5.1_x64:lbaselib.obj
 0002:000087f0       ??_C@_0O@OFBEOMLD@invalid?5level?$AA@ 00000001400477f0     lua-5.1_x64:lbaselib.obj
 0002:00008800       ??_C@_0BL@NGAFCBHD@level?5must?5be?5non?9negative?$AA@ 0000000140047800     lua-5.1_x64:lbaselib.obj
 0002:00008820       ??_C@_0DE@PIGGMBA@?8setfenv?8?5cannot?5change?5environm@ 0000000140047820     lua-5.1_x64:lbaselib.obj
 0002:00008858       __real@3f50000000000000    0000000140047858     lua-5.1_x64:lbaselib.obj
 0002:00008860       ??_C@_0CF@IPNALDCD@reader?5function?5must?5return?5a?5st@ 0000000140047860     lua-5.1_x64:lbaselib.obj
 0002:00008888       ??_C@_0BK@NJPFPDBN@too?5many?5nested?5functions?$AA@ 0000000140047888     lua-5.1_x64:lbaselib.obj
 0002:000088a8       ??_C@_07JEBBFCAN@?$DN?$CIload?$CJ?$AA@ 00000001400478a8     lua-5.1_x64:lbaselib.obj
 0002:000088b0       ??_C@_02DKCKIIND@?$CFs?$AA@ 00000001400478b0     lua-5.1_x64:lbaselib.obj
 0002:000088b8       ??_C@_0BC@ONMFJPBH@assertion?5failed?$CB?$AA@ 00000001400478b8     lua-5.1_x64:lbaselib.obj
 0002:000088d0       ??_C@_0BL@EDBCOFHM@too?5many?5results?5to?5unpack?$AA@ 00000001400478d0     lua-5.1_x64:lbaselib.obj
 0002:000088f0       ??_C@_0BD@ILOGJALA@index?5out?5of?5range?$AA@ 00000001400478f0     lua-5.1_x64:lbaselib.obj
 0002:00008904       ??_C@_06CILKLLDB@?$CFs?3?5?$CFp?$AA@ 0000000140047904     lua-5.1_x64:lbaselib.obj
 0002:00008910       ??_C@_0L@HDFPAPPH@__tostring?$AA@ 0000000140047910     lua-5.1_x64:lbaselib.obj
 0002:00008920       ??_C@_0BK@OMPDBBEM@boolean?5or?5proxy?5expected?$AA@ 0000000140047920     lua-5.1_x64:lbaselib.obj
 0002:00008940       ??_C@_0BD@LDCLGBHF@coroutine?5expected?$AA@ 0000000140047940     lua-5.1_x64:lbaselib.obj
 0002:00008958       ??_C@_0BL@OALEJBKN@too?5many?5results?5to?5resume?$AA@ 0000000140047958     lua-5.1_x64:lbaselib.obj
 0002:00008978       ??_C@_0BL@DGCALGPK@cannot?5resume?5?$CFs?5coroutine?$AA@ 0000000140047978     lua-5.1_x64:lbaselib.obj
 0002:00008998       ??_C@_0BN@CLPLGDGN@too?5many?5arguments?5to?5resume?$AA@ 0000000140047998     lua-5.1_x64:lbaselib.obj
 0002:000089b8       ??_C@_0BG@EHJAKGKG@Lua?5function?5expected?$AA@ 00000001400479b8     lua-5.1_x64:lbaselib.obj
 0002:000089d0       ??_C@_08HDPJFDHB@newproxy?$AA@ 00000001400479d0     lua-5.1_x64:lbaselib.obj
 0002:000089dc       ??_C@_02DNFJNMFM@kv?$AA@   00000001400479dc     lua-5.1_x64:lbaselib.obj
 0002:000089e0       ??_C@_05PEAECDOC@pairs?$AA@ 00000001400479e0     lua-5.1_x64:lbaselib.obj
 0002:000089e8       ??_C@_06MGIEFEAJ@ipairs?$AA@ 00000001400479e8     lua-5.1_x64:lbaselib.obj
 0002:000089f0       ??_C@_08PMLCGGEP@_VERSION?$AA@ 00000001400479f0     lua-5.1_x64:lbaselib.obj
 0002:00008a00       ??_C@_07GLKNJPII@Lua?55?41?$AA@ 0000000140047a00     lua-5.1_x64:lbaselib.obj
 0002:00008a08       ??_C@_02NIGGJGKC@_G?$AA@   0000000140047a08     lua-5.1_x64:lbaselib.obj
 0002:00008a10       ??_C@_09HNKENHFC@coroutine?$AA@ 0000000140047a10     lua-5.1_x64:lbaselib.obj
 0002:00008a1c       ??_C@_04PIMMHFGE@sort?$AA@ 0000000140047a1c     lua-5.1_x64:ltablib.obj
 0002:00008a24       ??_C@_04CDNBBDGJ@setn?$AA@ 0000000140047a24     lua-5.1_x64:ltablib.obj
 0002:00008a2c       ??_C@_06LEMKAMD@remove?$AA@ 0000000140047a2c     lua-5.1_x64:ltablib.obj
 0002:00008a34       ??_C@_06OAOPNKHP@insert?$AA@ 0000000140047a34     lua-5.1_x64:ltablib.obj
 0002:00008a3c       ??_C@_04HKHJFELJ@maxn?$AA@ 0000000140047a3c     lua-5.1_x64:ltablib.obj
 0002:00008a44       ??_C@_04LGLBCCCL@getn?$AA@ 0000000140047a44     lua-5.1_x64:ltablib.obj
 0002:00008a50       ??_C@_08GDLALCOF@foreachi?$AA@ 0000000140047a50     lua-5.1_x64:ltablib.obj
 0002:00008a60       ??_C@_07ICLAOFOB@foreach?$AA@ 0000000140047a60     lua-5.1_x64:ltablib.obj
 0002:00008a68       ??_C@_06CMLIEHFC@concat?$AA@ 0000000140047a68     lua-5.1_x64:ltablib.obj
 0002:00008b10       ??_C@_0BD@OBDNDPKA@?8setn?8?5is?5obsolete?$AA@ 0000000140047b10     lua-5.1_x64:ltablib.obj
 0002:00008b28       ??_C@_0CG@LPGHMHCC@wrong?5number?5of?5arguments?5to?5?8in@ 0000000140047b28     lua-5.1_x64:ltablib.obj
 0002:00008b50       ??_C@_0DF@OJJECDJJ@invalid?5value?5?$CI?$CFs?$CJ?5at?5index?5?$CFd?5i@ 0000000140047b50     lua-5.1_x64:ltablib.obj
 0002:00008b88       ??_C@_0CD@OFHMGIPD@invalid?5order?5function?5for?5sorti@ 0000000140047b88     lua-5.1_x64:ltablib.obj
 0002:00008bac       ??_C@_01LOCGONAA@?$AA?$AA@ 0000000140047bac     wylib_x64:wyString.obj
 0002:00008bb0       ??_C@_13NOLLCAOD@?$AA?$AA?$AA?$AA@ 0000000140047bb0     wylib_x64:wyString.obj
 0002:00008bc8       ??_7CZDecompressionStream@zstream@wylib@@6B@ 0000000140047bc8     wylib_x64:ZDecmprsStream.obj
 0002:00008c98       ??_7CBaseZStream@zstream@wylib@@6B@ 0000000140047c98     wylib_x64:ZStream.obj
 0002:00008cf0       ??_C@_0BA@MOKMMFOD@need?5dictionary?$AA@ 0000000140047cf0     zlib_x64:inflate.obj
 0002:00008d00       ??_C@_0BF@MEIGEHBE@incorrect?5data?5check?$AA@ 0000000140047d00     zlib_x64:inflate.obj
 0002:00008d18       ??_C@_0BH@LIBMMIGA@incorrect?5header?5check?$AA@ 0000000140047d18     zlib_x64:inflate.obj
 0002:00008d30       ??_C@_0BE@EMOGCLGO@invalid?5window?5size?$AA@ 0000000140047d30     zlib_x64:inflate.obj
 0002:00008d48       ??_C@_0BL@IHKGDAEE@unknown?5compression?5method?$AA@ 0000000140047d48     zlib_x64:inflate.obj
 0002:00008d68       ??_C@_0BF@CJFPCCEG@incompatible?5version?$AA@ 0000000140047d68     zlib_x64:zutil.obj
 0002:00008d80       ??_C@_0N@DFPGLBGC@buffer?5error?$AA@ 0000000140047d80     zlib_x64:zutil.obj
 0002:00008d90       ??_C@_0BE@OGGJBMCE@insufficient?5memory?$AA@ 0000000140047d90     zlib_x64:zutil.obj
 0002:00008da8       ??_C@_0L@HAHMBNLP@data?5error?$AA@ 0000000140047da8     zlib_x64:zutil.obj
 0002:00008db8       ??_C@_0N@MKKNPMJD@stream?5error?$AA@ 0000000140047db8     zlib_x64:zutil.obj
 0002:00008dc8       ??_C@_0L@KIJFAKBJ@file?5error?$AA@ 0000000140047dc8     zlib_x64:zutil.obj
 0002:00008dd8       ??_C@_0L@FNAOCBOG@stream?5end?$AA@ 0000000140047dd8     zlib_x64:zutil.obj
 0002:00008de4       ??_C@_05DOIEBMOI@1?41?44?$AA@ 0000000140047de4     zlib_x64:zutil.obj
 0002:00008e40       ??_C@_0BK@BMMPFBBH@invalid?5bit?5length?5repeat?$AA@ 0000000140047e40     zlib_x64:infblock.obj
 0002:00008e60       ??_C@_0CE@GMIGFPBB@too?5many?5length?5or?5distance?5symb@ 0000000140047e60     zlib_x64:infblock.obj
 0002:00008e88       ??_C@_0BN@LGAADGOK@invalid?5stored?5block?5lengths?$AA@ 0000000140047e88     zlib_x64:infblock.obj
 0002:00008ea8       ??_C@_0BD@PJCBIDD@invalid?5block?5type?$AA@ 0000000140047ea8     zlib_x64:infblock.obj
 0002:00008ec0       ??_C@_0BM@FFFLPBBC@invalid?5literal?1length?5code?$AA@ 0000000140047ec0     zlib_x64:infcodes.obj
 0002:00008ee0       ??_C@_0BG@LBKINIKP@invalid?5distance?5code?$AA@ 0000000140047ee0     zlib_x64:infcodes.obj
 0002:00008f00       inflate_copyright          0000000140047f00     zlib_x64:inftrees.obj
 0002:00009128       ??_C@_0CE@LOHAHEGK@incomplete?5dynamic?5bit?5lengths?5t@ 0000000140048128     zlib_x64:inftrees.obj
 0002:00009150       ??_C@_0CI@CGMOPDPD@oversubscribed?5dynamic?5bit?5lengt@ 0000000140048150     zlib_x64:inftrees.obj
 0002:00009178       ??_C@_0BP@NEEEJJNA@incomplete?5literal?1length?5tree?$AA@ 0000000140048178     zlib_x64:inftrees.obj
 0002:00009198       ??_C@_0CD@GJIDGCKE@oversubscribed?5literal?1length?5tr@ 0000000140048198     zlib_x64:inftrees.obj
 0002:000091c0       ??_C@_0CB@KPKKKLFO@empty?5distance?5tree?5with?5lengths@ 00000001400481c0     zlib_x64:inftrees.obj
 0002:000091e8       ??_C@_0BJ@CBCPDPJF@incomplete?5distance?5tree?$AA@ 00000001400481e8     zlib_x64:inftrees.obj
 0002:00009208       ??_C@_0BN@KBLCDIAI@oversubscribed?5distance?5tree?$AA@ 0000000140048208     zlib_x64:inftrees.obj
 0002:0000a4c8       ??_7CCustomLuaConfig@@6B@  00000001400494c8     srvlib_x64:CustomLuaConfig.obj
 0002:0000a508       ??_7?$CBaseList@PEAV?$CRefObjectImpl@VCAnsiString@string@wylib@@@misc@wylib@@@container@wylib@@6B@ 0000000140049508     srvlib_x64:CustomLuaConfig.obj
 0002:0000a520       ??_C@_0CD@ILLPNHEH@falt?5system?5error?3?5lua_gettop?5?$DM?$DN@ 0000000140049520     srvlib_x64:CustomLuaScript.obj
 0002:0000a548       ??_C@_0BA@HFDEDKNE@undefined?5error?$AA@ 0000000140049548     srvlib_x64:CustomLuaScript.obj
 0002:0000a558       ??_C@_0BF@EMLMKIIE@function?3?$CFs?0error?3?$CFs?$AA@ 0000000140049558     srvlib_x64:CustomLuaScript.obj
 0002:0000a578       ??_7CCustomLuaScript@@6B@  0000000140049578     srvlib_x64:CustomLuaScript.obj
 0002:0000a5b8       ??_7CCustomLuaPreProcessor@@6B@ 00000001400495b8     srvlib_x64:CustomLuaPreProcess.obj
 0002:0000a610       ??_7CLineRangeList@CCustomLuaPreProcessor@@6B@ 0000000140049610     srvlib_x64:CustomLuaPreProcess.obj
 0002:0000a630       ??_7?$CBaseList@ULineRange@CCustomLuaPreProcessor@@@container@wylib@@6B@ 0000000140049630     srvlib_x64:CustomLuaPreProcess.obj
 0002:0000a650       ??_7?$CBaseList@UtagPreProcParseEnvir@CCustomLuaPreProcessor@@@container@wylib@@6B@ 0000000140049650     srvlib_x64:CustomLuaPreProcess.obj
 0002:0000a670       ??_7?$CBaseList@PEAVCAnsiString@string@wylib@@@container@wylib@@6B@ 0000000140049670     srvlib_x64:CustomLuaPreProcess.obj
 0002:0000a690       ??_7?$CBaseList@UtagMacro@CCustomLuaPreProcessor@@@container@wylib@@6B@ 0000000140049690     srvlib_x64:CustomLuaPreProcess.obj
 0002:0000a6b0       ??_7?$CBaseList@_N@container@wylib@@6B@ 00000001400496b0     srvlib_x64:CustomLuaPreProcess.obj
 0002:0000a6d0       ??_7?$CBaseList@PEAD@container@wylib@@6B@ 00000001400496d0     srvlib_x64:CustomLuaPreProcess.obj
 0002:0000a6f0       ??_7CLangTextPacket@@6B@   00000001400496f0     srvlib_x64:LangTextSection.obj
 0002:0000a708       ??_7?$CCustomHashTable@VCLangTextSection@@@@6B@ 0000000140049708     srvlib_x64:LangTextSection.obj
 0002:0000a718       ??_C@_06LJBABKPM@class?5?$AA@ 0000000140049718     srvlib_x64:SingleObjectAllocator.obj
 0002:0000a720       ??_C@_07DIBCDNGL@struct?5?$AA@ 0000000140049720     srvlib_x64:SingleObjectAllocator.obj
 0002:0000a728       ??_C@_0M@GMGKAKNE@?3?3addToStat?$AA@ 0000000140049728     srvlib_x64:SingleObjectAllocator.obj
 0002:0000a740       ??_C@_0FN@LJIFPNLF@Counter?$DMclass?5wylib?3?3container?3?3@ 0000000140049740     srvlib_x64:SingleObjectAllocator.obj
 0002:0000a7a8       ??_7?$CBaseLinkedList@PEBVCObjectAllocatorStat@@@container@wylib@@6B@ 00000001400497a8     srvlib_x64:SingleObjectAllocator.obj
 0002:0000a7c8       ??_C@_04POLDLDMI@read?$AA@ 00000001400497c8     srvlib_x64:DefExceptHander.obj
 0002:0000a7d0       ??_C@_05NGFEDHGN@write?$AA@ 00000001400497d0     srvlib_x64:DefExceptHander.obj
 0002:0000a7d8       ??_C@_07EMGJIMLB@execute?$AA@ 00000001400497d8     srvlib_x64:DefExceptHander.obj
 0002:0000a7e0       ??_C@_0BC@BDMDPLFD@unknown?5operation?$AA@ 00000001400497e0     srvlib_x64:DefExceptHander.obj
 0002:0000a800       ??_C@_0ED@LOEMEBHL@f?3?2dragonwork?2code?2server?2gameco@ 0000000140049800     srvlib_x64:TimeStat.obj
 0002:0000a848       ??_C@_0BA@FJDDLIMD@stack?5was?5empty?$AA@ 0000000140049848     srvlib_x64:TimeStat.obj
 0002:0000a858       ??_C@_0CK@OPIPEKGM@Counter?$DMclass?5CTimeProfRecord?$DO?3?3@ 0000000140049858     srvlib_x64:TimeStat.obj
 0002:0000a890       ??_7?$CBaseList@PEAVCTimeProfRecord@@@container@wylib@@6B@ 0000000140049890     srvlib_x64:TimeStat.obj
 0002:0000a8b0       ??_7?$CBaseList@PEAVCTimeProfMgr@@@container@wylib@@6B@ 00000001400498b0     srvlib_x64:TimeStat.obj
 0002:0000a8d0       ??_C@_0EH@MLHAKMFD@f?3?2dragonwork?2code?2server?2common@ 00000001400498d0     srvlib_x64:CustomWorkSocket.obj
 0002:0000a928       ??_7CCustomWorkSocket@@6B@ 0000000140049928     srvlib_x64:CustomWorkSocket.obj
 0002:0000a998       ??_7?$CQueueList@PEAUtagAppInternalMessage@@@container@wylib@@6B@ 0000000140049998     srvlib_x64:CustomWorkSocket.obj
 0002:0000a9b8       ??_7?$CLockList@PEAUtagAppInternalMessage@@@container@wylib@@6B@ 00000001400499b8     srvlib_x64:CustomWorkSocket.obj
 0002:0000a9d8       ??_7?$CBaseList@PEAUtagAppInternalMessage@@@container@wylib@@6B@ 00000001400499d8     srvlib_x64:CustomWorkSocket.obj
 0002:0000a9f0       ??_C@_0CG@DGJLBAIN@Counter?$DMclass?5CDataPacket?$DO?3?3addT@ 00000001400499f0     srvlib_x64:SendPackPool.obj
 0002:0000aa20       ??_7VirturalMap@@6B@       0000000140049a20     servercommon_x64:JXAbsGameMap.obj
 0002:0000aa30       ??_7CAbstractMap@gameMap@jxcomm@@6B@ 0000000140049a30     servercommon_x64:JXAbsGameMap.obj
 0002:0000ac40       ??_R4COPMToFile@@6BCBaseThread@thread@wylib@@@ 0000000140049c40     FileLogger.obj
 0002:0000ac68       ??_R3COPMToFile@@8         0000000140049c68     FileLogger.obj
 0002:0000ac80       ??_R2COPMToFile@@8         0000000140049c80     FileLogger.obj
 0002:0000acb0       ??_R1A@?0A@EA@COPMToFile@@8 0000000140049cb0     FileLogger.obj
 0002:0000acd8       ??_R1A@?0A@EN@CBaseThread@thread@wylib@@8 0000000140049cd8     FileLogger.obj
 0002:0000ad00       ??_R3CBaseThread@thread@wylib@@8 0000000140049d00     FileLogger.obj
 0002:0000ad18       ??_R2CBaseThread@thread@wylib@@8 0000000140049d18     FileLogger.obj
 0002:0000ad28       ??_R1A@?0A@EA@CBaseThread@thread@wylib@@8 0000000140049d28     FileLogger.obj
 0002:0000ad50       ??_R1BI@?0A@EN@CFileStream@stream@wylib@@8 0000000140049d50     FileLogger.obj
 0002:0000ad78       ??_R3CFileStream@stream@wylib@@8 0000000140049d78     FileLogger.obj
 0002:0000ad90       ??_R2CFileStream@stream@wylib@@8 0000000140049d90     FileLogger.obj
 0002:0000adb0       ??_R1A@?0A@EA@CFileStream@stream@wylib@@8 0000000140049db0     FileLogger.obj
 0002:0000add8       ??_R1A@?0A@EA@CHandleStream@stream@wylib@@8 0000000140049dd8     FileLogger.obj
 0002:0000ae00       ??_R3CHandleStream@stream@wylib@@8 0000000140049e00     FileLogger.obj
 0002:0000ae18       ??_R2CHandleStream@stream@wylib@@8 0000000140049e18     FileLogger.obj
 0002:0000ae30       ??_R1BI@?0A@EJ@CHandleStream@stream@wylib@@8 0000000140049e30     FileLogger.obj
 0002:0000ae58       ??_R1BI@?0A@EJ@CBaseStream@stream@wylib@@8 0000000140049e58     FileLogger.obj
 0002:0000ae80       ??_R4COPMToFile@@6BCFileStream@stream@wylib@@@ 0000000140049e80     FileLogger.obj
 0002:0000aea8       ??_R3CAction@@8            0000000140049ea8     ActionMgr.obj
 0002:0000aec0       ??_R2CAction@@8            0000000140049ec0     ActionMgr.obj
 0002:0000aed0       ??_R1A@?0A@EA@CAction@@8   0000000140049ed0     ActionMgr.obj
 0002:0000aef8       ??_R4CTransAction@@6B@     0000000140049ef8     ActionMgr.obj
 0002:0000af20       ??_R3CTransAction@@8       0000000140049f20     ActionMgr.obj
 0002:0000af38       ??_R2CTransAction@@8       0000000140049f38     ActionMgr.obj
 0002:0000af50       ??_R1A@?0A@EA@CTransAction@@8 0000000140049f50     ActionMgr.obj
 0002:0000af78       ??_R4?$CBaseList@PEAVCAction@@@container@wylib@@6B@ 0000000140049f78     ActionMgr.obj
 0002:0000afa0       ??_R3?$CBaseList@PEAVCAction@@@container@wylib@@8 0000000140049fa0     ActionMgr.obj
 0002:0000afb8       ??_R2?$CBaseList@PEAVCAction@@@container@wylib@@8 0000000140049fb8     ActionMgr.obj
 0002:0000afc8       ??_R1A@?0A@EA@?$CBaseList@PEAVCAction@@@container@wylib@@8 0000000140049fc8     ActionMgr.obj
 0002:0000aff0       ??_R4CActionMgr@@6B@       0000000140049ff0     ActionMgr.obj
 0002:0000b018       ??_R3CActionMgr@@8         000000014004a018     ActionMgr.obj
 0002:0000b030       ??_R2CActionMgr@@8         000000014004a030     ActionMgr.obj
 0002:0000b040       ??_R1A@?0A@EA@CActionMgr@@8 000000014004a040     ActionMgr.obj
 0002:0000b068       ??_R4CAutoCombatAction@@6B@ 000000014004a068     ActionMgr.obj
 0002:0000b090       ??_R3CAutoCombatAction@@8  000000014004a090     ActionMgr.obj
 0002:0000b0a8       ??_R2CAutoCombatAction@@8  000000014004a0a8     ActionMgr.obj
 0002:0000b0c0       ??_R1A@?0A@EA@CAutoCombatAction@@8 000000014004a0c0     ActionMgr.obj
 0002:0000b0e8       ??_R3?$CEntitySystem@$0A@@@8 000000014004a0e8     LogicAgent.obj
 0002:0000b100       ??_R2?$CEntitySystem@$0A@@@8 000000014004a100     LogicAgent.obj
 0002:0000b110       ??_R1A@?0A@EA@?$CEntitySystem@$0A@@@8 000000014004a110     LogicAgent.obj
 0002:0000b138       ??_R4?$CBaseList@VCClientMonster@@@container@wylib@@6B@ 000000014004a138     LogicAgent.obj
 0002:0000b160       ??_R3?$CBaseList@VCClientMonster@@@container@wylib@@8 000000014004a160     LogicAgent.obj
 0002:0000b178       ??_R2?$CBaseList@VCClientMonster@@@container@wylib@@8 000000014004a178     LogicAgent.obj
 0002:0000b188       ??_R1A@?0A@EA@?$CBaseList@VCClientMonster@@@container@wylib@@8 000000014004a188     LogicAgent.obj
 0002:0000b1b0       ??_R4?$CBaseList@VCClientActor@@@container@wylib@@6B@ 000000014004a1b0     LogicAgent.obj
 0002:0000b1d8       ??_R3?$CBaseList@VCClientActor@@@container@wylib@@8 000000014004a1d8     LogicAgent.obj
 0002:0000b1f0       ??_R2?$CBaseList@VCClientActor@@@container@wylib@@8 000000014004a1f0     LogicAgent.obj
 0002:0000b200       ??_R1A@?0A@EA@?$CBaseList@VCClientActor@@@container@wylib@@8 000000014004a200     LogicAgent.obj
 0002:0000b228       ??_R3?$CEntitySystem@$04@@8 000000014004a228     LogicAgent.obj
 0002:0000b240       ??_R2?$CEntitySystem@$04@@8 000000014004a240     LogicAgent.obj
 0002:0000b250       ??_R1A@?0A@EA@?$CEntitySystem@$04@@8 000000014004a250     LogicAgent.obj
 0002:0000b278       ??_R4?$CBaseList@UtagClientSkillData@@@container@wylib@@6B@ 000000014004a278     LogicAgent.obj
 0002:0000b2a0       ??_R3?$CBaseList@UtagClientSkillData@@@container@wylib@@8 000000014004a2a0     LogicAgent.obj
 0002:0000b2b8       ??_R2?$CBaseList@UtagClientSkillData@@@container@wylib@@8 000000014004a2b8     LogicAgent.obj
 0002:0000b2c8       ??_R1A@?0A@EA@?$CBaseList@UtagClientSkillData@@@container@wylib@@8 000000014004a2c8     LogicAgent.obj
 0002:0000b2f0       ??_R3?$CEntitySystem@$07@@8 000000014004a2f0     LogicAgent.obj
 0002:0000b308       ??_R2?$CEntitySystem@$07@@8 000000014004a308     LogicAgent.obj
 0002:0000b318       ??_R1A@?0A@EA@?$CEntitySystem@$07@@8 000000014004a318     LogicAgent.obj
 0002:0000b340       ??_R4?$CBaseList@TItemSeries@CUserItem@@@container@wylib@@6B@ 000000014004a340     LogicAgent.obj
 0002:0000b368       ??_R3?$CBaseList@TItemSeries@CUserItem@@@container@wylib@@8 000000014004a368     LogicAgent.obj
 0002:0000b380       ??_R2?$CBaseList@TItemSeries@CUserItem@@@container@wylib@@8 000000014004a380     LogicAgent.obj
 0002:0000b390       ??_R1A@?0A@EA@?$CBaseList@TItemSeries@CUserItem@@@container@wylib@@8 000000014004a390     LogicAgent.obj
 0002:0000b3b8       ??_R3CAgent@@8             000000014004a3b8     LogicAgent.obj
 0002:0000b3d0       ??_R2CAgent@@8             000000014004a3d0     LogicAgent.obj
 0002:0000b3e0       ??_R1A@?0A@EA@CAgent@@8    000000014004a3e0     LogicAgent.obj
 0002:0000b408       ??_R3?$CEntitySystem@$08@@8 000000014004a408     LogicAgent.obj
 0002:0000b420       ??_R2?$CEntitySystem@$08@@8 000000014004a420     LogicAgent.obj
 0002:0000b430       ??_R1A@?0A@EA@?$CEntitySystem@$08@@8 000000014004a430     LogicAgent.obj
 0002:0000b458       ??_R4CChatSystem@@6B@      000000014004a458     LogicAgent.obj
 0002:0000b480       ??_R3CChatSystem@@8        000000014004a480     LogicAgent.obj
 0002:0000b498       ??_R2CChatSystem@@8        000000014004a498     LogicAgent.obj
 0002:0000b4b0       ??_R1A@?0A@EA@CChatSystem@@8 000000014004a4b0     LogicAgent.obj
 0002:0000b4d8       ??_R4CDefaultSystem@@6B@   000000014004a4d8     LogicAgent.obj
 0002:0000b500       ??_R3CDefaultSystem@@8     000000014004a500     LogicAgent.obj
 0002:0000b518       ??_R2CDefaultSystem@@8     000000014004a518     LogicAgent.obj
 0002:0000b530       ??_R1A@?0A@EA@CDefaultSystem@@8 000000014004a530     LogicAgent.obj
 0002:0000b558       ??_R4CSkillSystem@@6B@     000000014004a558     LogicAgent.obj
 0002:0000b580       ??_R3CSkillSystem@@8       000000014004a580     LogicAgent.obj
 0002:0000b598       ??_R2CSkillSystem@@8       000000014004a598     LogicAgent.obj
 0002:0000b5b0       ??_R1A@?0A@EA@CSkillSystem@@8 000000014004a5b0     LogicAgent.obj
 0002:0000b5d8       ??_R4CItemSystem@@6B@      000000014004a5d8     LogicAgent.obj
 0002:0000b600       ??_R3CItemSystem@@8        000000014004a600     LogicAgent.obj
 0002:0000b618       ??_R2CItemSystem@@8        000000014004a618     LogicAgent.obj
 0002:0000b630       ??_R1A@?0A@EA@CItemSystem@@8 000000014004a630     LogicAgent.obj
 0002:0000b658       ??_R4CMiscActionMgr@@6B@   000000014004a658     LogicAgent.obj
 0002:0000b680       ??_R3CMiscActionMgr@@8     000000014004a680     LogicAgent.obj
 0002:0000b698       ??_R2CMiscActionMgr@@8     000000014004a698     LogicAgent.obj
 0002:0000b6b0       ??_R1A@?0A@EA@CMiscActionMgr@@8 000000014004a6b0     LogicAgent.obj
 0002:0000b6d8       ??_R4CLogicAgent@@6B@      000000014004a6d8     LogicAgent.obj
 0002:0000b700       ??_R3CLogicAgent@@8        000000014004a700     LogicAgent.obj
 0002:0000b718       ??_R2CLogicAgent@@8        000000014004a718     LogicAgent.obj
 0002:0000b730       ??_R1A@?0A@EA@CLogicAgent@@8 000000014004a730     LogicAgent.obj
 0002:0000b758       ??_R4?$CSwapQueue@PEAVCDataPacket@@@@6B@ 000000014004a758     LogicAgent.obj
 0002:0000b780       ??_R3?$CSwapQueue@PEAVCDataPacket@@@@8 000000014004a780     LogicAgent.obj
 0002:0000b798       ??_R2?$CSwapQueue@PEAVCDataPacket@@@@8 000000014004a798     LogicAgent.obj
 0002:0000b7c0       ??_R1A@?0A@EA@?$CSwapQueue@PEAVCDataPacket@@@@8 000000014004a7c0     LogicAgent.obj
 0002:0000b7e8       ??_R4bad_alloc@std@@6B@    000000014004a7e8     ConfigLoader.obj
 0002:0000b810       ??_R3bad_alloc@std@@8      000000014004a810     ConfigLoader.obj
 0002:0000b828       ??_R2bad_alloc@std@@8      000000014004a828     ConfigLoader.obj
 0002:0000b840       ??_R1A@?0A@EA@bad_alloc@std@@8 000000014004a840     ConfigLoader.obj
 0002:0000b868       ??_R1A@?0A@EA@exception@std@@8 000000014004a868     ConfigLoader.obj
 0002:0000b890       ??_R3exception@std@@8      000000014004a890     ConfigLoader.obj
 0002:0000b8a8       ??_R2exception@std@@8      000000014004a8a8     ConfigLoader.obj
 0002:0000b8b8       ??_R4?$CBaseList@P8CConfigLoader@@EAA_NXZ@container@wylib@@6B@ 000000014004a8b8     ConfigLoader.obj
 0002:0000b8e0       ??_R3?$CBaseList@P8CConfigLoader@@EAA_NXZ@container@wylib@@8 000000014004a8e0     ConfigLoader.obj
 0002:0000b8f8       ??_R2?$CBaseList@P8CConfigLoader@@EAA_NXZ@container@wylib@@8 000000014004a8f8     ConfigLoader.obj
 0002:0000b908       ??_R1A@?0A@EA@?$CBaseList@P8CConfigLoader@@EAA_NXZ@container@wylib@@8 000000014004a908     ConfigLoader.obj
 0002:0000b930       ??_R4CLanguageTextProvider@@6B@ 000000014004a930     LanguageTextProvider.obj
 0002:0000b958       ??_R3CLanguageTextProvider@@8 000000014004a958     LanguageTextProvider.obj
 0002:0000b970       ??_R2CLanguageTextProvider@@8 000000014004a970     LanguageTextProvider.obj
 0002:0000b998       ??_R1A@?0A@EA@CLanguageTextProvider@@8 000000014004a998     LanguageTextProvider.obj
 0002:0000b9c0       ??_R1A@?0A@EN@CCustomLuaConfig@@8 000000014004a9c0     LanguageTextProvider.obj
 0002:0000b9e8       ??_R1A@?0A@EJ@CCustomLuaScript@@8 000000014004a9e8     LanguageTextProvider.obj
 0002:0000ba10       ??_R1MI@?0A@EA@CLangTextSection@@8 000000014004aa10     LanguageTextProvider.obj
 0002:0000ba38       ??_R3CLangTextSection@@8   000000014004aa38     LanguageTextProvider.obj
 0002:0000ba50       ??_R2CLangTextSection@@8   000000014004aa50     LanguageTextProvider.obj
 0002:0000ba60       ??_R1A@?0A@EA@CLangTextSection@@8 000000014004aa60     LanguageTextProvider.obj
 0002:0000ba88       ??_R3CCustomLogicLuaConfig@@8 000000014004aa88     QuestConfig.obj
 0002:0000baa0       ??_R2CCustomLogicLuaConfig@@8 000000014004aaa0     QuestConfig.obj
 0002:0000bac0       ??_R1A@?0A@EA@CCustomLogicLuaConfig@@8 000000014004aac0     QuestConfig.obj
 0002:0000bae8       ??_R4CQuestConfigLoader@@6B@ 000000014004aae8     QuestConfig.obj
 0002:0000bb10       ??_R3CQuestConfigLoader@@8 000000014004ab10     QuestConfig.obj
 0002:0000bb28       ??_R2CQuestConfigLoader@@8 000000014004ab28     QuestConfig.obj
 0002:0000bb50       ??_R1A@?0A@EA@CQuestConfigLoader@@8 000000014004ab50     QuestConfig.obj
 0002:0000bb78       ??_R4?$CBaseList@UDefinition@CVSPDefinition@@@container@wylib@@6B@ 000000014004ab78     VSPDef.obj
 0002:0000bba0       ??_R3?$CBaseList@UDefinition@CVSPDefinition@@@container@wylib@@8 000000014004aba0     VSPDef.obj
 0002:0000bbb8       ??_R2?$CBaseList@UDefinition@CVSPDefinition@@@container@wylib@@8 000000014004abb8     VSPDef.obj
 0002:0000bbc8       ??_R1A@?0A@EA@?$CBaseList@UDefinition@CVSPDefinition@@@container@wylib@@8 000000014004abc8     VSPDef.obj
 0002:0000bbf0       ??_R4CClientEntity@@6B@    000000014004abf0     DefaultSystem.obj
 0002:0000bc18       ??_R3CClientEntity@@8      000000014004ac18     DefaultSystem.obj
 0002:0000bc30       ??_R2CClientEntity@@8      000000014004ac30     DefaultSystem.obj
 0002:0000bc40       ??_R1A@?0A@EA@CClientEntity@@8 000000014004ac40     DefaultSystem.obj
 0002:0000bc68       ??_R4CClientActor@@6B@     000000014004ac68     DefaultSystem.obj
 0002:0000bc90       ??_R3CClientActor@@8       000000014004ac90     DefaultSystem.obj
 0002:0000bca8       ??_R2CClientActor@@8       000000014004aca8     DefaultSystem.obj
 0002:0000bcc0       ??_R1A@?0A@EA@CClientActor@@8 000000014004acc0     DefaultSystem.obj
 0002:0000bce8       ??_R4CClientMonster@@6B@   000000014004ace8     DefaultSystem.obj
 0002:0000bd10       ??_R3CClientMonster@@8     000000014004ad10     DefaultSystem.obj
 0002:0000bd28       ??_R2CClientMonster@@8     000000014004ad28     DefaultSystem.obj
 0002:0000bd40       ??_R1A@?0A@EA@CClientMonster@@8 000000014004ad40     DefaultSystem.obj
 0002:0000bd68       ??_R3?$CEntitySystem@$0BK@@@8 000000014004ad68     MiscSystem.obj
 0002:0000bd80       ??_R2?$CEntitySystem@$0BK@@@8 000000014004ad80     MiscSystem.obj
 0002:0000bd90       ??_R1A@?0A@EA@?$CEntitySystem@$0BK@@@8 000000014004ad90     MiscSystem.obj
 0002:0000bdb8       ??_R4CMiscSystem@@6B@      000000014004adb8     MiscSystem.obj
 0002:0000bde0       ??_R3CMiscSystem@@8        000000014004ade0     MiscSystem.obj
 0002:0000bdf8       ??_R2CMiscSystem@@8        000000014004adf8     MiscSystem.obj
 0002:0000be10       ??_R1A@?0A@EA@CMiscSystem@@8 000000014004ae10     MiscSystem.obj
 0002:0000be38       ??_R3?$CEntitySystem@$05@@8 000000014004ae38     QuestSystem.obj
 0002:0000be50       ??_R2?$CEntitySystem@$05@@8 000000014004ae50     QuestSystem.obj
 0002:0000be60       ??_R1A@?0A@EA@?$CEntitySystem@$05@@8 000000014004ae60     QuestSystem.obj
 0002:0000be88       ??_R4CQuestSystem@@6B@     000000014004ae88     QuestSystem.obj
 0002:0000beb0       ??_R3CQuestSystem@@8       000000014004aeb0     QuestSystem.obj
 0002:0000bec8       ??_R2CQuestSystem@@8       000000014004aec8     QuestSystem.obj
 0002:0000bee0       ??_R1A@?0A@EA@CQuestSystem@@8 000000014004aee0     QuestSystem.obj
 0002:0000bf08       ??_R4CRobotConfig@@6B@     000000014004af08     main.obj
 0002:0000bf30       ??_R3CRobotConfig@@8       000000014004af30     main.obj
 0002:0000bf48       ??_R2CRobotConfig@@8       000000014004af48     main.obj
 0002:0000bf68       ??_R1A@?0A@EA@CRobotConfig@@8 000000014004af68     main.obj
 0002:0000bf90       ??_R4CRobotClient@@6B@     000000014004af90     RobotGroup.obj
 0002:0000bfb8       ??_R3CRobotClient@@8       000000014004afb8     RobotGroup.obj
 0002:0000bfd0       ??_R2CRobotClient@@8       000000014004afd0     RobotGroup.obj
 0002:0000bff8       ??_R1A@?0A@EA@CRobotClient@@8 000000014004aff8     RobotGroup.obj
 0002:0000c020       ??_R4?$CBaseList@UtagServerConfig@@@container@wylib@@6B@ 000000014004b020     RobotManager.obj
 0002:0000c048       ??_R3?$CBaseList@UtagServerConfig@@@container@wylib@@8 000000014004b048     RobotManager.obj
 0002:0000c060       ??_R2?$CBaseList@UtagServerConfig@@@container@wylib@@8 000000014004b060     RobotManager.obj
 0002:0000c070       ??_R1A@?0A@EA@?$CBaseList@UtagServerConfig@@@container@wylib@@8 000000014004b070     RobotManager.obj
 0002:0000c098       ??_R4?$CBaseList@UtagLoginAccount@@@container@wylib@@6B@ 000000014004b098     RobotManager.obj
 0002:0000c0c0       ??_R3?$CBaseList@UtagLoginAccount@@@container@wylib@@8 000000014004b0c0     RobotManager.obj
 0002:0000c0d8       ??_R2?$CBaseList@UtagLoginAccount@@@container@wylib@@8 000000014004b0d8     RobotManager.obj
 0002:0000c0e8       ??_R1A@?0A@EA@?$CBaseList@UtagLoginAccount@@@container@wylib@@8 000000014004b0e8     RobotManager.obj
 0002:0000c110       ??_R4?$CBaseList@VCRobotGroup@@@container@wylib@@6B@ 000000014004b110     RobotManager.obj
 0002:0000c138       ??_R3?$CBaseList@VCRobotGroup@@@container@wylib@@8 000000014004b138     RobotManager.obj
 0002:0000c150       ??_R2?$CBaseList@VCRobotGroup@@@container@wylib@@8 000000014004b150     RobotManager.obj
 0002:0000c160       ??_R1A@?0A@EA@?$CBaseList@VCRobotGroup@@@container@wylib@@8 000000014004b160     RobotManager.obj
 0002:0000c188       ??_R4?$CBaseList@UtagSceneMapPoint@@@container@wylib@@6B@ 000000014004b188     RobotManager.obj
 0002:0000c1b0       ??_R3?$CBaseList@UtagSceneMapPoint@@@container@wylib@@8 000000014004b1b0     RobotManager.obj
 0002:0000c1c8       ??_R2?$CBaseList@UtagSceneMapPoint@@@container@wylib@@8 000000014004b1c8     RobotManager.obj
 0002:0000c1d8       ??_R1A@?0A@EA@?$CBaseList@UtagSceneMapPoint@@@container@wylib@@8 000000014004b1d8     RobotManager.obj
 0002:0000c200       ??_R4?$CBaseList@PEAVCClientFB@@@container@wylib@@6B@ 000000014004b200     RobotManager.obj
 0002:0000c228       ??_R3?$CBaseList@PEAVCClientFB@@@container@wylib@@8 000000014004b228     RobotManager.obj
 0002:0000c240       ??_R2?$CBaseList@PEAVCClientFB@@@container@wylib@@8 000000014004b240     RobotManager.obj
 0002:0000c250       ??_R1A@?0A@EA@?$CBaseList@PEAVCClientFB@@@container@wylib@@8 000000014004b250     RobotManager.obj
 0002:0000c278       ??_R4CConfigLoader@@6B@    000000014004b278     RobotManager.obj
 0002:0000c2a0       ??_R3CConfigLoader@@8      000000014004b2a0     RobotManager.obj
 0002:0000c2b8       ??_R2CConfigLoader@@8      000000014004b2b8     RobotManager.obj
 0002:0000c2e0       ??_R1A@?0A@EA@CConfigLoader@@8 000000014004b2e0     RobotManager.obj
 0002:0000c308       ??_R1MI@?0A@EA@?$CFileReader@VCConfigLoader@@@@8 000000014004b308     RobotManager.obj
 0002:0000c330       ??_R3?$CFileReader@VCConfigLoader@@@@8 000000014004b330     RobotManager.obj
 0002:0000c348       ??_R2?$CFileReader@VCConfigLoader@@@@8 000000014004b348     RobotManager.obj
 0002:0000c358       ??_R1A@?0A@EA@?$CFileReader@VCConfigLoader@@@@8 000000014004b358     RobotManager.obj
 0002:0000c380       ??_R4CSceneConfigLoader@@6B@ 000000014004b380     SceneConfigLoader.obj
 0002:0000c3a8       ??_R3CSceneConfigLoader@@8 000000014004b3a8     SceneConfigLoader.obj
 0002:0000c3c0       ??_R2CSceneConfigLoader@@8 000000014004b3c0     SceneConfigLoader.obj
 0002:0000c3e8       ??_R1A@?0A@EA@CSceneConfigLoader@@8 000000014004b3e8     SceneConfigLoader.obj
 0002:0000c410       ??_R3CBaseLock@lock@sync@wylib@@8 000000014004b410     wylib_x64:Lock.obj
 0002:0000c428       ??_R2CBaseLock@lock@sync@wylib@@8 000000014004b428     wylib_x64:Lock.obj
 0002:0000c438       ??_R1A@?0A@EA@CBaseLock@lock@sync@wylib@@8 000000014004b438     wylib_x64:Lock.obj
 0002:0000c460       ??_R4CCSLock@lock@sync@wylib@@6B@ 000000014004b460     wylib_x64:Lock.obj
 0002:0000c488       ??_R3CCSLock@lock@sync@wylib@@8 000000014004b488     wylib_x64:Lock.obj
 0002:0000c4a0       ??_R2CCSLock@lock@sync@wylib@@8 000000014004b4a0     wylib_x64:Lock.obj
 0002:0000c4b8       ??_R1A@?0A@EA@CCSLock@lock@sync@wylib@@8 000000014004b4b8     wylib_x64:Lock.obj
 0002:0000c4e0       ??_R4CBaseStream@stream@wylib@@6B@ 000000014004b4e0     wylib_x64:FileStream.obj
 0002:0000c508       ??_R4CFileStream@stream@wylib@@6B@ 000000014004b508     wylib_x64:FileStream.obj
 0002:0000c530       ??_R4CBaseThread@thread@wylib@@6B@ 000000014004b530     wylib_x64:Thread.obj
 0002:0000c558       ??_R4CHandleStream@stream@wylib@@6B@ 000000014004b558     wylib_x64:HandleStream.obj
 0002:0000c580       ??_R4CCustomSocket@socket@inet@wylib@@6B@ 000000014004b580     wylib_x64:CustomSocket.obj
 0002:0000c5a8       ??_R4CMemoryStream@stream@wylib@@6B@ 000000014004b5a8     wylib_x64:MemoryStream.obj
 0002:0000c5d0       ??_R4type_info@@6B@        000000014004b5d0     MSVCRT:ti_inst.obj
 0002:0000c5f8       ??_R3type_info@@8          000000014004b5f8     MSVCRT:ti_inst.obj
 0002:0000c610       ??_R2type_info@@8          000000014004b610     MSVCRT:ti_inst.obj
 0002:0000c620       ??_R1A@?0A@EA@type_info@@8 000000014004b620     MSVCRT:ti_inst.obj
 0002:0000c648       ??_R4CZDecompressionStream@zstream@wylib@@6B@ 000000014004b648     wylib_x64:ZDecmprsStream.obj
 0002:0000c670       ??_R3CZDecompressionStream@zstream@wylib@@8 000000014004b670     wylib_x64:ZDecmprsStream.obj
 0002:0000c688       ??_R2CZDecompressionStream@zstream@wylib@@8 000000014004b688     wylib_x64:ZDecmprsStream.obj
 0002:0000c6a8       ??_R1A@?0A@EA@CZDecompressionStream@zstream@wylib@@8 000000014004b6a8     wylib_x64:ZDecmprsStream.obj
 0002:0000c6d0       ??_R1A@?0A@EA@CBaseZStream@zstream@wylib@@8 000000014004b6d0     wylib_x64:ZDecmprsStream.obj
 0002:0000c6f8       ??_R3CBaseZStream@zstream@wylib@@8 000000014004b6f8     wylib_x64:ZDecmprsStream.obj
 0002:0000c710       ??_R2CBaseZStream@zstream@wylib@@8 000000014004b710     wylib_x64:ZDecmprsStream.obj
 0002:0000c728       ??_R4CBaseZStream@zstream@wylib@@6B@ 000000014004b728     wylib_x64:ZStream.obj
 0002:0000c750       ??_R4?$CBaseList@PEAV?$CRefObjectImpl@VCAnsiString@string@wylib@@@misc@wylib@@@container@wylib@@6B@ 000000014004b750     srvlib_x64:CustomLuaConfig.obj
 0002:0000c778       ??_R3?$CBaseList@PEAV?$CRefObjectImpl@VCAnsiString@string@wylib@@@misc@wylib@@@container@wylib@@8 000000014004b778     srvlib_x64:CustomLuaConfig.obj
 0002:0000c790       ??_R2?$CBaseList@PEAV?$CRefObjectImpl@VCAnsiString@string@wylib@@@misc@wylib@@@container@wylib@@8 000000014004b790     srvlib_x64:CustomLuaConfig.obj
 0002:0000c7a0       ??_R1A@?0A@EA@?$CBaseList@PEAV?$CRefObjectImpl@VCAnsiString@string@wylib@@@misc@wylib@@@container@wylib@@8 000000014004b7a0     srvlib_x64:CustomLuaConfig.obj
 0002:0000c7c8       ??_R4CCustomLuaConfig@@6B@ 000000014004b7c8     srvlib_x64:CustomLuaConfig.obj
 0002:0000c7f0       ??_R3CCustomLuaConfig@@8   000000014004b7f0     srvlib_x64:CustomLuaConfig.obj
 0002:0000c808       ??_R2CCustomLuaConfig@@8   000000014004b808     srvlib_x64:CustomLuaConfig.obj
 0002:0000c820       ??_R1A@?0A@EA@CCustomLuaScript@@8 000000014004b820     srvlib_x64:CustomLuaConfig.obj
 0002:0000c848       ??_R3CCustomLuaScript@@8   000000014004b848     srvlib_x64:CustomLuaConfig.obj
 0002:0000c860       ??_R2CCustomLuaScript@@8   000000014004b860     srvlib_x64:CustomLuaConfig.obj
 0002:0000c870       ??_R1A@?0A@EA@CCustomLuaConfig@@8 000000014004b870     srvlib_x64:CustomLuaConfig.obj
 0002:0000c898       ??_R4?$CRefObjectImpl@VCAnsiString@string@wylib@@@misc@wylib@@6B@ 000000014004b898     srvlib_x64:CustomLuaConfig.obj
 0002:0000c8c0       ??_R3?$CRefObjectImpl@VCAnsiString@string@wylib@@@misc@wylib@@8 000000014004b8c0     srvlib_x64:CustomLuaConfig.obj
 0002:0000c8d8       ??_R2?$CRefObjectImpl@VCAnsiString@string@wylib@@@misc@wylib@@8 000000014004b8d8     srvlib_x64:CustomLuaConfig.obj
 0002:0000c8f0       ??_R1A@?0A@EA@?$CRefObjectImpl@VCAnsiString@string@wylib@@@misc@wylib@@8 000000014004b8f0     srvlib_x64:CustomLuaConfig.obj
 0002:0000c918       ??_R4CAnsiString@string@wylib@@6B@ 000000014004b918     srvlib_x64:CustomLuaConfig.obj
 0002:0000c940       ??_R3CAnsiString@string@wylib@@8 000000014004b940     srvlib_x64:CustomLuaConfig.obj
 0002:0000c958       ??_R2CAnsiString@string@wylib@@8 000000014004b958     srvlib_x64:CustomLuaConfig.obj
 0002:0000c968       ??_R1A@?0A@EA@CAnsiString@string@wylib@@8 000000014004b968     srvlib_x64:CustomLuaConfig.obj
 0002:0000c990       ??_R4?$CRefObject@VCAnsiString@string@wylib@@@misc@wylib@@6B@ 000000014004b990     srvlib_x64:CustomLuaScript.obj
 0002:0000c9b8       ??_R4CCustomLuaScript@@6B@ 000000014004b9b8     srvlib_x64:CustomLuaScript.obj
 0002:0000c9e0       ??_R4?$CTRefString@VCAnsiString@string@wylib@@D@string@wylib@@6B@ 000000014004b9e0     srvlib_x64:CustomLuaScript.obj
 0002:0000ca08       ??_R3?$CTRefString@VCAnsiString@string@wylib@@D@string@wylib@@8 000000014004ba08     srvlib_x64:CustomLuaScript.obj
 0002:0000ca20       ??_R2?$CTRefString@VCAnsiString@string@wylib@@D@string@wylib@@8 000000014004ba20     srvlib_x64:CustomLuaScript.obj
 0002:0000ca38       ??_R1A@?0A@EA@?$CRefObject@VCAnsiString@string@wylib@@@misc@wylib@@8 000000014004ba38     srvlib_x64:CustomLuaScript.obj
 0002:0000ca60       ??_R3?$CRefObject@VCAnsiString@string@wylib@@@misc@wylib@@8 000000014004ba60     srvlib_x64:CustomLuaScript.obj
 0002:0000ca78       ??_R2?$CRefObject@VCAnsiString@string@wylib@@@misc@wylib@@8 000000014004ba78     srvlib_x64:CustomLuaScript.obj
 0002:0000ca88       ??_R1A@?0A@EA@?$CTRefString@VCAnsiString@string@wylib@@D@string@wylib@@8 000000014004ba88     srvlib_x64:CustomLuaScript.obj
 0002:0000cab0       ??_R4?$CBaseList@PEAD@container@wylib@@6B@ 000000014004bab0     srvlib_x64:CustomLuaPreProcess.obj
 0002:0000cad8       ??_R3?$CBaseList@PEAD@container@wylib@@8 000000014004bad8     srvlib_x64:CustomLuaPreProcess.obj
 0002:0000caf0       ??_R2?$CBaseList@PEAD@container@wylib@@8 000000014004baf0     srvlib_x64:CustomLuaPreProcess.obj
 0002:0000cb00       ??_R1A@?0A@EA@?$CBaseList@PEAD@container@wylib@@8 000000014004bb00     srvlib_x64:CustomLuaPreProcess.obj
 0002:0000cb28       ??_R4?$CBaseList@_N@container@wylib@@6B@ 000000014004bb28     srvlib_x64:CustomLuaPreProcess.obj
 0002:0000cb50       ??_R3?$CBaseList@_N@container@wylib@@8 000000014004bb50     srvlib_x64:CustomLuaPreProcess.obj
 0002:0000cb68       ??_R2?$CBaseList@_N@container@wylib@@8 000000014004bb68     srvlib_x64:CustomLuaPreProcess.obj
 0002:0000cb78       ??_R1A@?0A@EA@?$CBaseList@_N@container@wylib@@8 000000014004bb78     srvlib_x64:CustomLuaPreProcess.obj
 0002:0000cba0       ??_R4?$CBaseList@UtagMacro@CCustomLuaPreProcessor@@@container@wylib@@6B@ 000000014004bba0     srvlib_x64:CustomLuaPreProcess.obj
 0002:0000cbc8       ??_R3?$CBaseList@UtagMacro@CCustomLuaPreProcessor@@@container@wylib@@8 000000014004bbc8     srvlib_x64:CustomLuaPreProcess.obj
 0002:0000cbe0       ??_R2?$CBaseList@UtagMacro@CCustomLuaPreProcessor@@@container@wylib@@8 000000014004bbe0     srvlib_x64:CustomLuaPreProcess.obj
 0002:0000cbf0       ??_R1A@?0A@EA@?$CBaseList@UtagMacro@CCustomLuaPreProcessor@@@container@wylib@@8 000000014004bbf0     srvlib_x64:CustomLuaPreProcess.obj
 0002:0000cc18       ??_R4?$CBaseList@PEAVCAnsiString@string@wylib@@@container@wylib@@6B@ 000000014004bc18     srvlib_x64:CustomLuaPreProcess.obj
 0002:0000cc40       ??_R3?$CBaseList@PEAVCAnsiString@string@wylib@@@container@wylib@@8 000000014004bc40     srvlib_x64:CustomLuaPreProcess.obj
 0002:0000cc58       ??_R2?$CBaseList@PEAVCAnsiString@string@wylib@@@container@wylib@@8 000000014004bc58     srvlib_x64:CustomLuaPreProcess.obj
 0002:0000cc68       ??_R1A@?0A@EA@?$CBaseList@PEAVCAnsiString@string@wylib@@@container@wylib@@8 000000014004bc68     srvlib_x64:CustomLuaPreProcess.obj
 0002:0000cc90       ??_R4?$CBaseList@UtagPreProcParseEnvir@CCustomLuaPreProcessor@@@container@wylib@@6B@ 000000014004bc90     srvlib_x64:CustomLuaPreProcess.obj
 0002:0000ccb8       ??_R3?$CBaseList@UtagPreProcParseEnvir@CCustomLuaPreProcessor@@@container@wylib@@8 000000014004bcb8     srvlib_x64:CustomLuaPreProcess.obj
 0002:0000ccd0       ??_R2?$CBaseList@UtagPreProcParseEnvir@CCustomLuaPreProcessor@@@container@wylib@@8 000000014004bcd0     srvlib_x64:CustomLuaPreProcess.obj
 0002:0000cce0       ??_R1A@?0A@EA@?$CBaseList@UtagPreProcParseEnvir@CCustomLuaPreProcessor@@@container@wylib@@8 000000014004bce0     srvlib_x64:CustomLuaPreProcess.obj
 0002:0000cd08       ??_R4?$CBaseList@ULineRange@CCustomLuaPreProcessor@@@container@wylib@@6B@ 000000014004bd08     srvlib_x64:CustomLuaPreProcess.obj
 0002:0000cd30       ??_R4CLineRangeList@CCustomLuaPreProcessor@@6B@ 000000014004bd30     srvlib_x64:CustomLuaPreProcess.obj
 0002:0000cd58       ??_R3CLineRangeList@CCustomLuaPreProcessor@@8 000000014004bd58     srvlib_x64:CustomLuaPreProcess.obj
 0002:0000cd70       ??_R2CLineRangeList@CCustomLuaPreProcessor@@8 000000014004bd70     srvlib_x64:CustomLuaPreProcess.obj
 0002:0000cd88       ??_R1A@?0A@EA@?$CBaseList@ULineRange@CCustomLuaPreProcessor@@@container@wylib@@8 000000014004bd88     srvlib_x64:CustomLuaPreProcess.obj
 0002:0000cdb0       ??_R3?$CBaseList@ULineRange@CCustomLuaPreProcessor@@@container@wylib@@8 000000014004bdb0     srvlib_x64:CustomLuaPreProcess.obj
 0002:0000cdc8       ??_R2?$CBaseList@ULineRange@CCustomLuaPreProcessor@@@container@wylib@@8 000000014004bdc8     srvlib_x64:CustomLuaPreProcess.obj
 0002:0000cdd8       ??_R1A@?0A@EA@CLineRangeList@CCustomLuaPreProcessor@@8 000000014004bdd8     srvlib_x64:CustomLuaPreProcess.obj
 0002:0000ce00       ??_R4CCustomLuaPreProcessor@@6B@ 000000014004be00     srvlib_x64:CustomLuaPreProcess.obj
 0002:0000ce28       ??_R3CCustomLuaPreProcessor@@8 000000014004be28     srvlib_x64:CustomLuaPreProcess.obj
 0002:0000ce40       ??_R2CCustomLuaPreProcessor@@8 000000014004be40     srvlib_x64:CustomLuaPreProcess.obj
 0002:0000ce60       ??_R1A@?0A@EJ@CBaseStream@stream@wylib@@8 000000014004be60     srvlib_x64:CustomLuaPreProcess.obj
 0002:0000ce88       ??_R1A@?0A@EN@CMemoryStream@stream@wylib@@8 000000014004be88     srvlib_x64:CustomLuaPreProcess.obj
 0002:0000ceb0       ??_R3CMemoryStream@stream@wylib@@8 000000014004beb0     srvlib_x64:CustomLuaPreProcess.obj
 0002:0000cec8       ??_R2CMemoryStream@stream@wylib@@8 000000014004bec8     srvlib_x64:CustomLuaPreProcess.obj
 0002:0000cee0       ??_R1A@?0A@EA@CBaseStream@stream@wylib@@8 000000014004bee0     srvlib_x64:CustomLuaPreProcess.obj
 0002:0000cf08       ??_R3CBaseStream@stream@wylib@@8 000000014004bf08     srvlib_x64:CustomLuaPreProcess.obj
 0002:0000cf20       ??_R2CBaseStream@stream@wylib@@8 000000014004bf20     srvlib_x64:CustomLuaPreProcess.obj
 0002:0000cf30       ??_R1A@?0A@EA@CMemoryStream@stream@wylib@@8 000000014004bf30     srvlib_x64:CustomLuaPreProcess.obj
 0002:0000cf58       ??_R1A@?0A@EA@CCustomLuaPreProcessor@@8 000000014004bf58     srvlib_x64:CustomLuaPreProcess.obj
 0002:0000cf80       ??_R4?$CCustomHashTable@VCLangTextSection@@@@6B@ 000000014004bf80     srvlib_x64:LangTextSection.obj
 0002:0000cfa8       ??_R4CLangTextPacket@@6B@  000000014004bfa8     srvlib_x64:LangTextSection.obj
 0002:0000cfd0       ??_R3CLangTextPacket@@8    000000014004bfd0     srvlib_x64:LangTextSection.obj
 0002:0000cfe8       ??_R2CLangTextPacket@@8    000000014004bfe8     srvlib_x64:LangTextSection.obj
 0002:0000d000       ??_R1A@?0A@EA@?$CCustomHashTable@VCLangTextSection@@@@8 000000014004c000     srvlib_x64:LangTextSection.obj
 0002:0000d028       ??_R3?$CCustomHashTable@VCLangTextSection@@@@8 000000014004c028     srvlib_x64:LangTextSection.obj
 0002:0000d040       ??_R2?$CCustomHashTable@VCLangTextSection@@@@8 000000014004c040     srvlib_x64:LangTextSection.obj
 0002:0000d050       ??_R1A@?0A@EA@CLangTextPacket@@8 000000014004c050     srvlib_x64:LangTextSection.obj
 0002:0000d078       ??_R4?$CBaseLinkedList@PEBVCObjectAllocatorStat@@@container@wylib@@6B@ 000000014004c078     srvlib_x64:SingleObjectAllocator.obj
 0002:0000d0a0       ??_R3?$CBaseLinkedList@PEBVCObjectAllocatorStat@@@container@wylib@@8 000000014004c0a0     srvlib_x64:SingleObjectAllocator.obj
 0002:0000d0b8       ??_R2?$CBaseLinkedList@PEBVCObjectAllocatorStat@@@container@wylib@@8 000000014004c0b8     srvlib_x64:SingleObjectAllocator.obj
 0002:0000d0c8       ??_R1A@?0A@EA@?$CBaseLinkedList@PEBVCObjectAllocatorStat@@@container@wylib@@8 000000014004c0c8     srvlib_x64:SingleObjectAllocator.obj
 0002:0000d0f0       ??_R4?$CBaseList@PEAVCTimeProfMgr@@@container@wylib@@6B@ 000000014004c0f0     srvlib_x64:TimeStat.obj
 0002:0000d118       ??_R3?$CBaseList@PEAVCTimeProfMgr@@@container@wylib@@8 000000014004c118     srvlib_x64:TimeStat.obj
 0002:0000d130       ??_R2?$CBaseList@PEAVCTimeProfMgr@@@container@wylib@@8 000000014004c130     srvlib_x64:TimeStat.obj
 0002:0000d140       ??_R1A@?0A@EA@?$CBaseList@PEAVCTimeProfMgr@@@container@wylib@@8 000000014004c140     srvlib_x64:TimeStat.obj
 0002:0000d168       ??_R4?$CBaseList@PEAVCTimeProfRecord@@@container@wylib@@6B@ 000000014004c168     srvlib_x64:TimeStat.obj
 0002:0000d190       ??_R3?$CBaseList@PEAVCTimeProfRecord@@@container@wylib@@8 000000014004c190     srvlib_x64:TimeStat.obj
 0002:0000d1a8       ??_R2?$CBaseList@PEAVCTimeProfRecord@@@container@wylib@@8 000000014004c1a8     srvlib_x64:TimeStat.obj
 0002:0000d1b8       ??_R1A@?0A@EA@?$CBaseList@PEAVCTimeProfRecord@@@container@wylib@@8 000000014004c1b8     srvlib_x64:TimeStat.obj
 0002:0000d1e0       ??_R4?$CBaseList@PEAUtagAppInternalMessage@@@container@wylib@@6B@ 000000014004c1e0     srvlib_x64:CustomWorkSocket.obj
 0002:0000d208       ??_R4?$CLockList@PEAUtagAppInternalMessage@@@container@wylib@@6B@ 000000014004c208     srvlib_x64:CustomWorkSocket.obj
 0002:0000d230       ??_R4?$CQueueList@PEAUtagAppInternalMessage@@@container@wylib@@6B@ 000000014004c230     srvlib_x64:CustomWorkSocket.obj
 0002:0000d258       ??_R3?$CQueueList@PEAUtagAppInternalMessage@@@container@wylib@@8 000000014004c258     srvlib_x64:CustomWorkSocket.obj
 0002:0000d270       ??_R2?$CQueueList@PEAUtagAppInternalMessage@@@container@wylib@@8 000000014004c270     srvlib_x64:CustomWorkSocket.obj
 0002:0000d290       ??_R1A@?0A@EA@?$CLockList@PEAUtagAppInternalMessage@@@container@wylib@@8 000000014004c290     srvlib_x64:CustomWorkSocket.obj
 0002:0000d2b8       ??_R3?$CLockList@PEAUtagAppInternalMessage@@@container@wylib@@8 000000014004c2b8     srvlib_x64:CustomWorkSocket.obj
 0002:0000d2d0       ??_R2?$CLockList@PEAUtagAppInternalMessage@@@container@wylib@@8 000000014004c2d0     srvlib_x64:CustomWorkSocket.obj
 0002:0000d2e8       ??_R1A@?0A@EA@?$CBaseList@PEAUtagAppInternalMessage@@@container@wylib@@8 000000014004c2e8     srvlib_x64:CustomWorkSocket.obj
 0002:0000d310       ??_R3?$CBaseList@PEAUtagAppInternalMessage@@@container@wylib@@8 000000014004c310     srvlib_x64:CustomWorkSocket.obj
 0002:0000d328       ??_R2?$CBaseList@PEAUtagAppInternalMessage@@@container@wylib@@8 000000014004c328     srvlib_x64:CustomWorkSocket.obj
 0002:0000d338       ??_R1A@?0A@EA@?$CQueueList@PEAUtagAppInternalMessage@@@container@wylib@@8 000000014004c338     srvlib_x64:CustomWorkSocket.obj
 0002:0000d360       ??_R4CCustomWorkSocket@@6B@ 000000014004c360     srvlib_x64:CustomWorkSocket.obj
 0002:0000d388       ??_R3CCustomWorkSocket@@8  000000014004c388     srvlib_x64:CustomWorkSocket.obj
 0002:0000d3a0       ??_R2CCustomWorkSocket@@8  000000014004c3a0     srvlib_x64:CustomWorkSocket.obj
 0002:0000d3c0       ??_R1DI@?0A@EA@CSendPacketPool@@8 000000014004c3c0     srvlib_x64:CustomWorkSocket.obj
 0002:0000d3e8       ??_R3CSendPacketPool@@8    000000014004c3e8     srvlib_x64:CustomWorkSocket.obj
 0002:0000d400       ??_R2CSendPacketPool@@8    000000014004c400     srvlib_x64:CustomWorkSocket.obj
 0002:0000d410       ??_R1A@?0A@EA@CSendPacketPool@@8 000000014004c410     srvlib_x64:CustomWorkSocket.obj
 0002:0000d438       ??_R1A@?0A@EA@CCustomSocket@socket@inet@wylib@@8 000000014004c438     srvlib_x64:CustomWorkSocket.obj
 0002:0000d460       ??_R3CCustomSocket@socket@inet@wylib@@8 000000014004c460     srvlib_x64:CustomWorkSocket.obj
 0002:0000d478       ??_R2CCustomSocket@socket@inet@wylib@@8 000000014004c478     srvlib_x64:CustomWorkSocket.obj
 0002:0000d488       ??_R1A@?0A@EA@CCustomWorkSocket@@8 000000014004c488     srvlib_x64:CustomWorkSocket.obj
 0002:0000d4b0       ??_R4?$CLockList@PEAVCDataPacket@@@container@wylib@@6B@ 000000014004c4b0     srvlib_x64:SendPackPool.obj
 0002:0000d4d8       ??_R4?$CQueueList@PEAVCDataPacket@@@container@wylib@@6B@ 000000014004c4d8     srvlib_x64:SendPackPool.obj
 0002:0000d500       ??_R3?$CQueueList@PEAVCDataPacket@@@container@wylib@@8 000000014004c500     srvlib_x64:SendPackPool.obj
 0002:0000d518       ??_R2?$CQueueList@PEAVCDataPacket@@@container@wylib@@8 000000014004c518     srvlib_x64:SendPackPool.obj
 0002:0000d538       ??_R1A@?0A@EA@?$CLockList@PEAVCDataPacket@@@container@wylib@@8 000000014004c538     srvlib_x64:SendPackPool.obj
 0002:0000d560       ??_R3?$CLockList@PEAVCDataPacket@@@container@wylib@@8 000000014004c560     srvlib_x64:SendPackPool.obj
 0002:0000d578       ??_R2?$CLockList@PEAVCDataPacket@@@container@wylib@@8 000000014004c578     srvlib_x64:SendPackPool.obj
 0002:0000d590       ??_R1A@?0A@EA@?$CQueueList@PEAVCDataPacket@@@container@wylib@@8 000000014004c590     srvlib_x64:SendPackPool.obj
 0002:0000d5b8       ??_R4?$CBaseList@PEAVCDataPacket@@@container@wylib@@6B@ 000000014004c5b8     srvlib_x64:SendPackPool.obj
 0002:0000d5e0       ??_R3?$CBaseList@PEAVCDataPacket@@@container@wylib@@8 000000014004c5e0     srvlib_x64:SendPackPool.obj
 0002:0000d5f8       ??_R2?$CBaseList@PEAVCDataPacket@@@container@wylib@@8 000000014004c5f8     srvlib_x64:SendPackPool.obj
 0002:0000d608       ??_R1A@?0A@EA@?$CBaseList@PEAVCDataPacket@@@container@wylib@@8 000000014004c608     srvlib_x64:SendPackPool.obj
 0002:0000d630       ??_R4CAbstractMap@gameMap@jxcomm@@6B@ 000000014004c630     servercommon_x64:JXAbsGameMap.obj
 0002:0000d658       ??_R3CAbstractMap@gameMap@jxcomm@@8 000000014004c658     servercommon_x64:JXAbsGameMap.obj
 0002:0000d670       ??_R2CAbstractMap@gameMap@jxcomm@@8 000000014004c670     servercommon_x64:JXAbsGameMap.obj
 0002:0000d688       ??_R1A@?0A@EA@CAbstractMap@gameMap@jxcomm@@8 000000014004c688     servercommon_x64:JXAbsGameMap.obj
 0002:0000d6b0       ??_R4VirturalMap@@6B@      000000014004c6b0     servercommon_x64:JXAbsGameMap.obj
 0002:0000d6d8       ??_R3VirturalMap@@8        000000014004c6d8     servercommon_x64:JXAbsGameMap.obj
 0002:0000d6f0       ??_R2VirturalMap@@8        000000014004c6f0     servercommon_x64:JXAbsGameMap.obj
 0002:0000d700       ??_R1A@?0A@EA@VirturalMap@@8 000000014004c700     servercommon_x64:JXAbsGameMap.obj
 0002:0000d728       __rtc_iaa                  000000014004c728     MSVCRT:_initsect_.obj
 0002:0000d730       __rtc_izz                  000000014004c730     MSVCRT:_initsect_.obj
 0002:0000d738       __rtc_taa                  000000014004c738     MSVCRT:_initsect_.obj
 0002:0000d740       __rtc_tzz                  000000014004c740     MSVCRT:_initsect_.obj
 0002:00012740       _TI2?AVbad_alloc@std@@     0000000140051740     ConfigLoader.obj
 0002:00012760       _CTA2?AVbad_alloc@std@@    0000000140051760     ConfigLoader.obj
 0002:00012778       _CT??_R0?AVbad_alloc@std@@@8??0bad_alloc@std@@QEAA@AEBV01@@Z24 0000000140051778     ConfigLoader.obj
 0002:000127a0       _CT??_R0?AVexception@std@@@8??0exception@std@@QEAA@AEBV01@@Z24 00000001400517a0     ConfigLoader.obj
 0002:000127c8       _CT??_R0?AV?$CTRefString@VCAnsiString@string@wylib@@D@string@wylib@@@8??0?$CTRefString@VCAnsiString@string@wylib@@D@string@wylib@@QEAA@AEBV012@@Z16 00000001400517c8     srvlib_x64:CustomLuaPreProcess.obj
 0002:000127f0       _CT??_R0?AV?$CRefObject@VCAnsiString@string@wylib@@@misc@wylib@@@8??0?$CRefObject@VCAnsiString@string@wylib@@@misc@wylib@@QEAA@AEAV012@@Z16 00000001400517f0     srvlib_x64:CustomLuaPreProcess.obj
 0002:00012818       _CTA2?AV?$CTRefString@VCAnsiString@string@wylib@@D@string@wylib@@ 0000000140051818     srvlib_x64:CustomLuaPreProcess.obj
 0002:00012830       _TI2?AV?$CTRefString@VCAnsiString@string@wylib@@D@string@wylib@@ 0000000140051830     srvlib_x64:CustomLuaPreProcess.obj
 0002:00012850       _CT??_R0PEAD@88            0000000140051850     srvlib_x64:TimeStat.obj
 0002:00012878       _CT??_R0PEAX@88            0000000140051878     srvlib_x64:TimeStat.obj
 0002:000128a0       _CTA2PEAD                  00000001400518a0     srvlib_x64:TimeStat.obj
 0002:000128b8       _TI2PEAD                   00000001400518b8     srvlib_x64:TimeStat.obj
 0002:000128d4       __IMPORT_DESCRIPTOR_WS2_32 00000001400518d4     Ws2_32:WS2_32.dll
 0002:000128e8       __IMPORT_DESCRIPTOR_KERNEL32 00000001400518e8     kernel32:KERNEL32.dll
 0002:000128fc       __IMPORT_DESCRIPTOR_MSVCR100 00000001400518fc     MSVCRT:MSVCR100.dll
 0002:00012910       __IMPORT_DESCRIPTOR_MSVCP100 0000000140051910     msvcprt:MSVCP100.dll
 0002:00012924       __IMPORT_DESCRIPTOR_dbghelp 0000000140051924     Dbghelp:dbghelp.dll
 0002:00012938       __IMPORT_DESCRIPTOR_WINMM  0000000140051938     winmm:WINMM.dll
 0002:0001294c       __NULL_IMPORT_DESCRIPTOR   000000014005194c     Ws2_32:WS2_32.dll
 0003:00000000       ?g_boOutLogFile@@3_NA      0000000140053000     FileLogger.obj
 0003:00000008       ??_R0?AVCOPMToFile@@@8     0000000140053008     FileLogger.obj
 0003:00000030       ??_R0?AVCBaseThread@thread@wylib@@@8 0000000140053030     FileLogger.obj
 0003:00000060       ??_R0?AVCFileStream@stream@wylib@@@8 0000000140053060     FileLogger.obj
 0003:00000090       ??_R0?AVCHandleStream@stream@wylib@@@8 0000000140053090     FileLogger.obj
 0003:000000d0       ?FormatTags@?1??writeMessage@COPMToFile@@IEAAXW4tagShareOutputMsgType@@PEBD_K12@Z@4PAU<unnamed-type-FormatTags>@?1??12@IEAAX01212@Z@A 00000001400530d0     FileLogger.obj
 0003:00000150       ?s_szActDesc@CAction@@1PADA 0000000140053150     Action.obj
 0003:00000170       ??_R0?AVCAction@@@8        0000000140053170     ActionMgr.obj
 0003:00000190       ??_R0?AVCTransAction@@@8   0000000140053190     ActionMgr.obj
 0003:000001c0       ??_R0?AV?$CBaseList@PEAVCAction@@@container@wylib@@@8 00000001400531c0     ActionMgr.obj
 0003:00000200       ??_R0?AVCActionMgr@@@8     0000000140053200     ActionMgr.obj
 0003:00000228       ??_R0?AVCAutoCombatAction@@@8 0000000140053228     ActionMgr.obj
 0003:00000250       ?s_szActDesc@CAutoCombatAction@@0PADA 0000000140053250     AutoCombatAction.obj
 0003:00000270       ?s_szActDesc@CTransAction@@0PADA 0000000140053270     TransAction.obj
 0003:00000290       ??_R0?AV?$CEntitySystem@$0A@@@@8 0000000140053290     LogicAgent.obj
 0003:000002c0       ??_R0?AV?$CBaseList@VCClientMonster@@@container@wylib@@@8 00000001400532c0     LogicAgent.obj
 0003:00000310       ??_R0?AV?$CBaseList@VCClientActor@@@container@wylib@@@8 0000000140053310     LogicAgent.obj
 0003:00000358       ??_R0?AV?$CEntitySystem@$04@@@8 0000000140053358     LogicAgent.obj
 0003:00000390       ??_R0?AV?$CBaseList@UtagClientSkillData@@@container@wylib@@@8 0000000140053390     LogicAgent.obj
 0003:000003d8       ??_R0?AV?$CEntitySystem@$07@@@8 00000001400533d8     LogicAgent.obj
 0003:00000410       ??_R0?AV?$CBaseList@TItemSeries@CUserItem@@@container@wylib@@@8 0000000140053410     LogicAgent.obj
 0003:00000460       ??_R0?AVCAgent@@@8         0000000140053460     LogicAgent.obj
 0003:00000480       ??_R0?AV?$CEntitySystem@$08@@@8 0000000140053480     LogicAgent.obj
 0003:000004b0       ??_R0?AVCChatSystem@@@8    00000001400534b0     LogicAgent.obj
 0003:000004d8       ??_R0?AVCDefaultSystem@@@8 00000001400534d8     LogicAgent.obj
 0003:00000500       ??_R0?AVCSkillSystem@@@8   0000000140053500     LogicAgent.obj
 0003:00000528       ??_R0?AVCItemSystem@@@8    0000000140053528     LogicAgent.obj
 0003:00000550       ??_R0?AVCMiscActionMgr@@@8 0000000140053550     LogicAgent.obj
 0003:00000578       ??_R0?AVCLogicAgent@@@8    0000000140053578     LogicAgent.obj
 0003:000005a0       ??_R0?AV?$CSwapQueue@PEAVCDataPacket@@@@@8 00000001400535a0     LogicAgent.obj
 0003:000005d8       ??_R0?AVbad_alloc@std@@@8  00000001400535d8     ConfigLoader.obj
 0003:00000600       ??_R0?AVexception@std@@@8  0000000140053600     ConfigLoader.obj
 0003:00000630       ??_R0?AV?$CBaseList@P8CConfigLoader@@EAA_NXZ@container@wylib@@@8 0000000140053630     ConfigLoader.obj
 0003:00000680       ?sLoader@CConfigLoader@@0QBUDataProviderLoadTerm@1@B 0000000140053680     ConfigLoader.obj
 0003:00000720       ??_R0?AVCLanguageTextProvider@@@8 0000000140053720     LanguageTextProvider.obj
 0003:00000750       ??_R0?AVCLangTextSection@@@8 0000000140053750     LanguageTextProvider.obj
 0003:00000778       ??_R0?AVCCustomLogicLuaConfig@@@8 0000000140053778     QuestConfig.obj
 0003:000007a8       ??_R0?AVCQuestConfigLoader@@@8 00000001400537a8     QuestConfig.obj
 0003:000007d8       ?SPID@CVSPDefinition@@2PEBDEB 00000001400537d8     VSPDef.obj
 0003:000007e0       ?LANGUAGE@CVSPDefinition@@2PEBDEB 00000001400537e0     VSPDef.obj
 0003:000007e8       ?GAMENAME@CVSPDefinition@@2PEBDEB 00000001400537e8     VSPDef.obj
 0003:000007f0       ?BINDCOINNAME@CVSPDefinition@@2PEBDEB 00000001400537f0     VSPDef.obj
 0003:000007f8       ?COINNAME@CVSPDefinition@@2PEBDEB 00000001400537f8     VSPDef.obj
 0003:00000800       ?BINDYBNAME@CVSPDefinition@@2PEBDEB 0000000140053800     VSPDef.obj
 0003:00000808       ?YBNAME@CVSPDefinition@@2PEBDEB 0000000140053808     VSPDef.obj
 0003:00000810       ??_R0?AV?$CBaseList@UDefinition@CVSPDefinition@@@container@wylib@@@8 0000000140053810     VSPDef.obj
 0003:00000860       ??_R0?AVCClientEntity@@@8  0000000140053860     DefaultSystem.obj
 0003:00000888       ??_R0?AVCClientActor@@@8   0000000140053888     DefaultSystem.obj
 0003:000008b0       ??_R0?AVCClientMonster@@@8 00000001400538b0     DefaultSystem.obj
 0003:000008d8       ?s_aHandler@CItemSystem@@0PAP81@EAAXAEAVCDataPacketReader@@@ZA 00000001400538d8     ItemSystem.obj
 0003:00000900       ??_R0?AV?$CEntitySystem@$0BK@@@@8 0000000140053900     MiscSystem.obj
 0003:00000930       ??_R0?AVCMiscSystem@@@8    0000000140053930     MiscSystem.obj
 0003:00000968       ??_R0?AV?$CEntitySystem@$05@@@8 0000000140053968     QuestSystem.obj
 0003:00000998       ??_R0?AVCQuestSystem@@@8   0000000140053998     QuestSystem.obj
 0003:000009c0       ??_R0?AVCRobotConfig@@@8   00000001400539c0     main.obj
 0003:000009f0       ??_R0?AVCRobotClient@@@8   00000001400539f0     RobotGroup.obj
 0003:00000a20       ??_R0?AV?$CBaseList@UtagServerConfig@@@container@wylib@@@8 0000000140053a20     RobotManager.obj
 0003:00000a70       ??_R0?AV?$CBaseList@UtagLoginAccount@@@container@wylib@@@8 0000000140053a70     RobotManager.obj
 0003:00000ac0       ??_R0?AV?$CBaseList@VCRobotGroup@@@container@wylib@@@8 0000000140053ac0     RobotManager.obj
 0003:00000b10       ??_R0?AV?$CBaseList@UtagSceneMapPoint@@@container@wylib@@@8 0000000140053b10     RobotManager.obj
 0003:00000b60       ??_R0?AV?$CBaseList@PEAVCClientFB@@@container@wylib@@@8 0000000140053b60     RobotManager.obj
 0003:00000ba8       ??_R0?AVCConfigLoader@@@8  0000000140053ba8     RobotManager.obj
 0003:00000bd0       ??_R0?AV?$CFileReader@VCConfigLoader@@@@@8 0000000140053bd0     RobotManager.obj
 0003:00000c08       ??_R0?AVCSceneConfigLoader@@@8 0000000140053c08     SceneConfigLoader.obj
 0003:00001340       ??_R0?AVCBaseLock@lock@sync@wylib@@@8 0000000140054340     wylib_x64:Lock.obj
 0003:00001370       ??_R0?AVCCSLock@lock@sync@wylib@@@8 0000000140054370     wylib_x64:Lock.obj
 0003:00001420       ??_R0?AVtype_info@@@8      0000000140054420     MSVCRT:ti_inst.obj
 0003:00001440       _fltused                   0000000140054440     MSVCRT:dllsupp.obj
 0003:00001444       __native_dllmain_reason    0000000140054444     MSVCRT:natstart.obj
 0003:00001448       __native_vcclrit_reason    0000000140054448     MSVCRT:natstart.obj
 0003:0000144c       __globallocalestatus       000000014005444c     MSVCRT:xthdloc.obj
 0003:00001450       __defaultmatherr           0000000140054450     MSVCRT:merr.obj
 0003:00001458       __security_cookie          0000000140054458     MSVCRT:gs_cookie.obj
 0003:00001460       __security_cookie_complement 0000000140054460     MSVCRT:gs_cookie.obj
 0003:00001468       ?EMPTY_STR@CWideString@string@wylib@@0PEB_WEB 0000000140054468     wylib_x64:wyString.obj
 0003:00001470       ?EMPTY_STR@CAnsiString@string@wylib@@0PEBDEB 0000000140054470     wylib_x64:wyString.obj
 0003:00001478       ??_R0?AVCZDecompressionStream@zstream@wylib@@@8 0000000140054478     wylib_x64:ZDecmprsStream.obj
 0003:000014b8       ??_R0?AVCBaseZStream@zstream@wylib@@@8 00000001400544b8     wylib_x64:ZDecmprsStream.obj
 0003:000014f0       z_errmsg                   00000001400544f0     zlib_x64:zutil.obj
 0003:00002650       inflate_mask               0000000140055650     zlib_x64:infutil.obj
 0003:00002718       ?s_dwTlsIdx@CTimeProfMgr@@1KA 0000000140055718     srvlib_x64:TimeStat.obj
 0003:00002720       ??_R0?AV?$CBaseList@PEAV?$CRefObjectImpl@VCAnsiString@string@wylib@@@misc@wylib@@@container@wylib@@@8 0000000140055720     srvlib_x64:CustomLuaConfig.obj
 0003:00002790       ??_R0?AVCCustomLuaScript@@@8 0000000140055790     srvlib_x64:CustomLuaConfig.obj
 0003:000027b8       ??_R0?AVCCustomLuaConfig@@@8 00000001400557b8     srvlib_x64:CustomLuaConfig.obj
 0003:000027e0       ??_R0?AV?$CRefObjectImpl@VCAnsiString@string@wylib@@@misc@wylib@@@8 00000001400557e0     srvlib_x64:CustomLuaConfig.obj
 0003:00002830       ??_R0?AVCAnsiString@string@wylib@@@8 0000000140055830     srvlib_x64:CustomLuaConfig.obj
 0003:00002860       ??_R0?AV?$CRefObject@VCAnsiString@string@wylib@@@misc@wylib@@@8 0000000140055860     srvlib_x64:CustomLuaScript.obj
 0003:000028b0       ??_R0?AV?$CTRefString@VCAnsiString@string@wylib@@D@string@wylib@@@8 00000001400558b0     srvlib_x64:CustomLuaScript.obj
 0003:00002900       ??_R0?AV?$CBaseList@PEAD@container@wylib@@@8 0000000140055900     srvlib_x64:CustomLuaPreProcess.obj
 0003:00002938       ??_R0?AV?$CBaseList@_N@container@wylib@@@8 0000000140055938     srvlib_x64:CustomLuaPreProcess.obj
 0003:00002970       ??_R0?AV?$CBaseList@UtagMacro@CCustomLuaPreProcessor@@@container@wylib@@@8 0000000140055970     srvlib_x64:CustomLuaPreProcess.obj
 0003:000029d0       ??_R0?AV?$CBaseList@PEAVCAnsiString@string@wylib@@@container@wylib@@@8 00000001400559d0     srvlib_x64:CustomLuaPreProcess.obj
 0003:00002a30       ??_R0?AV?$CBaseList@UtagPreProcParseEnvir@CCustomLuaPreProcessor@@@container@wylib@@@8 0000000140055a30     srvlib_x64:CustomLuaPreProcess.obj
 0003:00002aa0       ??_R0?AV?$CBaseList@ULineRange@CCustomLuaPreProcessor@@@container@wylib@@@8 0000000140055aa0     srvlib_x64:CustomLuaPreProcess.obj
 0003:00002af8       ??_R0?AVCLineRangeList@CCustomLuaPreProcessor@@@8 0000000140055af8     srvlib_x64:CustomLuaPreProcess.obj
 0003:00002b38       ??_R0?AVCBaseStream@stream@wylib@@@8 0000000140055b38     srvlib_x64:CustomLuaPreProcess.obj
 0003:00002b68       ??_R0?AVCMemoryStream@stream@wylib@@@8 0000000140055b68     srvlib_x64:CustomLuaPreProcess.obj
 0003:00002ba0       ??_R0?AVCCustomLuaPreProcessor@@@8 0000000140055ba0     srvlib_x64:CustomLuaPreProcess.obj
 0003:00002bd0       ??_R0?AV?$CCustomHashTable@VCLangTextSection@@@@@8 0000000140055bd0     srvlib_x64:LangTextSection.obj
 0003:00002c10       ??_R0?AVCLangTextPacket@@@8 0000000140055c10     srvlib_x64:LangTextSection.obj
 0003:00002c40       ??_R0?AV?$CBaseLinkedList@PEBVCObjectAllocatorStat@@@container@wylib@@@8 0000000140055c40     srvlib_x64:SingleObjectAllocator.obj
 0003:00002ca0       ??_R0?AV?$CBaseList@PEAVCTimeProfMgr@@@container@wylib@@@8 0000000140055ca0     srvlib_x64:TimeStat.obj
 0003:00002cf0       ??_R0?AV?$CBaseList@PEAVCTimeProfRecord@@@container@wylib@@@8 0000000140055cf0     srvlib_x64:TimeStat.obj
 0003:00002d38       ??_R0PEAD@8                0000000140055d38     srvlib_x64:TimeStat.obj
 0003:00002d50       ??_R0PEAX@8                0000000140055d50     srvlib_x64:TimeStat.obj
 0003:00002d70       ??_R0?AV?$CBaseList@PEAUtagAppInternalMessage@@@container@wylib@@@8 0000000140055d70     srvlib_x64:CustomWorkSocket.obj
 0003:00002dc0       ??_R0?AV?$CLockList@PEAUtagAppInternalMessage@@@container@wylib@@@8 0000000140055dc0     srvlib_x64:CustomWorkSocket.obj
 0003:00002e10       ??_R0?AV?$CQueueList@PEAUtagAppInternalMessage@@@container@wylib@@@8 0000000140055e10     srvlib_x64:CustomWorkSocket.obj
 0003:00002e60       ??_R0?AVCSendPacketPool@@@8 0000000140055e60     srvlib_x64:CustomWorkSocket.obj
 0003:00002e88       ??_R0?AVCCustomSocket@socket@inet@wylib@@@8 0000000140055e88     srvlib_x64:CustomWorkSocket.obj
 0003:00002ec0       ??_R0?AVCCustomWorkSocket@@@8 0000000140055ec0     srvlib_x64:CustomWorkSocket.obj
 0003:00002ef0       ??_R0?AV?$CLockList@PEAVCDataPacket@@@container@wylib@@@8 0000000140055ef0     srvlib_x64:SendPackPool.obj
 0003:00002f40       ??_R0?AV?$CQueueList@PEAVCDataPacket@@@container@wylib@@@8 0000000140055f40     srvlib_x64:SendPackPool.obj
 0003:00002f90       ??_R0?AV?$CBaseList@PEAVCDataPacket@@@container@wylib@@@8 0000000140055f90     srvlib_x64:SendPackPool.obj
 0003:00002fd8       ??_R0?AVCAbstractMap@gameMap@jxcomm@@@8 0000000140055fd8     servercommon_x64:JXAbsGameMap.obj
 0003:00003010       ??_R0?AVVirturalMap@@@8    0000000140056010     servercommon_x64:JXAbsGameMap.obj
 0003:00003040       ?g_pOPMToFile@@3PEAVCOPMToFile@@EA 0000000140056040     FileLogger.obj
 0003:00003048       ?lpOldFnBeforeSet@@3P6A_JW4tagShareOutputMsgType@@PEBD_J@ZEA 0000000140056048     FileLogger.obj
 0003:00003150       ??_B?1??writeMessage@COPMToFile@@IEAAXW4tagShareOutputMsgType@@PEBD_K12@Z@51 0000000140056150     FileLogger.obj
 0003:00003158       ?m_nCount@?$Counter@VEntityHandle@@@@0_KA 0000000140056158     ActionMgr.obj
 0003:00003160       ?m_bHasAddedToStat@?$Counter@VEntityHandle@@@@0JA 0000000140056160     ActionMgr.obj
 0003:00003168       ?s_pBufferAllocator@CLogicLuaAllocator@@1PEAVCBufferAllocator@@EA 0000000140056168     LogicLuaAllocator.obj
 0003:00003170       ?s_nAllocatorInitCount@CLogicLuaAllocator@@1JA 0000000140056170     LogicLuaAllocator.obj
 0003:00003178       ?s_forbitUpdateMask@CUpdateMask@@2PADA 0000000140056178     NetMsgDef.obj
 0003:00003198       ?s_pRobotManager@CRobotManager@@2PEAV1@EA 0000000140056198     main.obj
 0003:00003200       _dowildcard                0000000140056200     MSVCRT:wildcard.obj
 0003:00003204       _newmode                   0000000140056204     MSVCRT:_newmode.obj
 0003:00003208       _commode                   0000000140056208     MSVCRT:xncommod.obj
 0003:0000320c       _fmode                     000000014005620c     MSVCRT:xtxtmode.obj
 0003:0000ca20       ?g_OutputMsgLock@@3U_RTL_CRITICAL_SECTION@@A 000000014005fa20     srvlib_x64:ShareUtil.obj
 0003:0000ca48       ?g_lpOutputMsg@@3P6A_JW4tagShareOutputMsgType@@PEBD_J@ZEA 000000014005fa48     srvlib_x64:ShareUtil.obj
 0003:0000ca5c       ??_B?1??getSingleton@CounterManager@@SAAEAV1@XZ@51 000000014005fa5c     srvlib_x64:SingleObjectAllocator.obj
 0003:0000ca60       ?mgr@?1??getSingleton@CounterManager@@SAAEAV2@XZ@4V2@A 000000014005fa60     srvlib_x64:SingleObjectAllocator.obj
 0003:00034a68       ?mgr@?1??getSingleton@CSingleObjectAllocStatMgr@@SAAEAV2@XZ@4V2@A 0000000140087a68     srvlib_x64:SingleObjectAllocator.obj
 0003:00034a90       ??_B?1??getSingleton@CSingleObjectAllocStatMgr@@SAAEAV1@XZ@51 0000000140087a90     srvlib_x64:SingleObjectAllocator.obj
 0003:00034a98       ?m_nCount@?$Counter@V?$CLinkedNode@PEBVCObjectAllocatorStat@@@container@wylib@@@@0_KA 0000000140087a98     srvlib_x64:SingleObjectAllocator.obj
 0003:00034aa0       ?m_bHasAddedToStat@?$Counter@V?$CLinkedNode@PEBVCObjectAllocatorStat@@@container@wylib@@@@0JA 0000000140087aa0     srvlib_x64:SingleObjectAllocator.obj
 0003:00034aa8       ?m_nCount@?$Counter@VCTimeProfRecord@@@@0_KA 0000000140087aa8     srvlib_x64:TimeStat.obj
 0003:00034ab0       ?m_bHasAddedToStat@?$Counter@VCTimeProfRecord@@@@0JA 0000000140087ab0     srvlib_x64:TimeStat.obj
 0003:00034ab8       ?m_nCount@?$Counter@VCDataPacket@@@@0_KA 0000000140087ab8     srvlib_x64:SendPackPool.obj
 0003:00034ac0       ?m_bHasAddedToStat@?$Counter@VCDataPacket@@@@0JA 0000000140087ac0     srvlib_x64:SendPackPool.obj
 0003:00034ad0       ?mgr@?1??getSingleton@CTimeProfMgr@@SAAEAV2@XZ@4V2@A 0000000140087ad0     srvlib_x64:TimeStat.obj
 0003:00034c58       ??_B?1??getSingleton@CTimeProfMgr@@SAAEAV1@XZ@51 0000000140087c58     srvlib_x64:TimeStat.obj
 0003:00034c5c       __native_startup_state     0000000140087c5c     <common>
 0003:00034c60       __native_startup_lock      0000000140087c60     <common>
 0003:00034c68       __dyn_tls_init_callback    0000000140087c68     <common>
 0003:00034c70       __onexitend                0000000140087c70     <common>
 0003:00034c78       __onexitbegin              0000000140087c78     <common>

 entry point at        0001:0002b070

 Static symbols

 0001:00015400       index2adr                  0000000140016400 f   lua-5.1_x64:lapi.obj
 0001:00016500       f_call                     0000000140017500 f   lua-5.1_x64:lapi.obj
 0001:000165a0       f_Ccall                    00000001400175a0 f   lua-5.1_x64:lapi.obj
 0001:00016da0       adjuststack                0000000140017da0 f   lua-5.1_x64:lauxlib.obj
 0001:00017080       getF                       0000000140018080 f   lua-5.1_x64:lauxlib.obj
 0001:00017110       errfile                    0000000140018110 f   lua-5.1_x64:lauxlib.obj
 0001:000173b0       getS                       00000001400183b0 f   lua-5.1_x64:lauxlib.obj
 0001:00017450       l_alloc                    0000000140018450 f   lua-5.1_x64:lauxlib.obj
 0001:00017480       panic                      0000000140018480 f   lua-5.1_x64:lauxlib.obj
 0001:000175f0       tag_error                  00000001400185f0 f   lua-5.1_x64:lauxlib.obj
 0001:00017b70       stack_init                 0000000140018b70 f   lua-5.1_x64:lstate.obj
 0001:00017c20       f_luaopen                  0000000140018c20 f   lua-5.1_x64:lstate.obj
 0001:00017cd0       close_state                0000000140018cd0 f   lua-5.1_x64:lstate.obj
 0001:00018070       callallgcTM                0000000140019070 f   lua-5.1_x64:lstate.obj
 0001:000182c0       pushstr                    00000001400192c0 f   lua-5.1_x64:lobject.obj
 0001:00018990       correctstack               0000000140019990 f   lua-5.1_x64:ldo.obj
 0001:00018cb0       adjust_varargs             0000000140019cb0 f   lua-5.1_x64:ldo.obj
 0001:00018e70       tryfuncTM                  0000000140019e70 f   lua-5.1_x64:ldo.obj
 0001:00018f30       callrethooks               0000000140019f30 f   lua-5.1_x64:ldo.obj
 0001:00019140       resume_error               000000014001a140 f   lua-5.1_x64:ldo.obj
 0001:00019210       f_parser                   000000014001a210 f   lua-5.1_x64:ldo.obj
 0001:00019310       resetstack                 000000014001a310 f   lua-5.1_x64:ldo.obj
 0001:00019420       growCI                     000000014001a420 f   lua-5.1_x64:ldo.obj
 0001:00019760       resume                     000000014001a760 f   lua-5.1_x64:ldo.obj
 0001:00019a20       reallymarkobject           000000014001aa20 f   lua-5.1_x64:lgc.obj
 0001:00019b40       marktmu                    000000014001ab40 f   lua-5.1_x64:lgc.obj
 0001:00019d30       traversetable              000000014001ad30 f   lua-5.1_x64:lgc.obj
 0001:00019f10       traverseproto              000000014001af10 f   lua-5.1_x64:lgc.obj
 0001:0001a010       traverseclosure            000000014001b010 f   lua-5.1_x64:lgc.obj
 0001:0001a0c0       traversestack              000000014001b0c0 f   lua-5.1_x64:lgc.obj
 0001:0001a1f0       propagatemark              000000014001b1f0 f   lua-5.1_x64:lgc.obj
 0001:0001a330       propagateall               000000014001b330 f   lua-5.1_x64:lgc.obj
 0001:0001a4a0       cleartable                 000000014001b4a0 f   lua-5.1_x64:lgc.obj
 0001:0001a5d0       freeobj                    000000014001b5d0 f   lua-5.1_x64:lgc.obj
 0001:0001a670       sweeplist                  000000014001b670 f   lua-5.1_x64:lgc.obj
 0001:0001a7f0       checkSizes                 000000014001b7f0 f   lua-5.1_x64:lgc.obj
 0001:0001a880       GCTM                       000000014001b880 f   lua-5.1_x64:lgc.obj
 0001:0001ac10       markmt                     000000014001bc10 f   lua-5.1_x64:lgc.obj
 0001:0001ad30       markroot                   000000014001bd30 f   lua-5.1_x64:lgc.obj
 0001:0001adc0       atomic                     000000014001bdc0 f   lua-5.1_x64:lgc.obj
 0001:0001af70       singlestep                 000000014001bf70 f   lua-5.1_x64:lgc.obj
 0001:0001b4b0       currentline                000000014001c4b0 f   lua-5.1_x64:ldebug.obj
 0001:0001b580       funcinfo                   000000014001c580 f   lua-5.1_x64:ldebug.obj
 0001:0001b600       collectvalidlines          000000014001c600 f   lua-5.1_x64:ldebug.obj
 0001:0001b700       checkArgMode               000000014001c700 f   lua-5.1_x64:ldebug.obj
 0001:0001b750       symbexec                   000000014001c750 f   lua-5.1_x64:ldebug.obj
 0001:0001bd10       getobjname                 000000014001cd10 f   lua-5.1_x64:ldebug.obj
 0001:0001bf20       getfuncname                000000014001cf20 f   lua-5.1_x64:ldebug.obj
 0001:0001bfe0       addinfo                    000000014001cfe0 f   lua-5.1_x64:ldebug.obj
 0001:0001c1b0       auxgetinfo                 000000014001d1b0 f   lua-5.1_x64:ldebug.obj
 0001:0001c7e0       traceexec                  000000014001d7e0 f   lua-5.1_x64:lvm.obj
 0001:0001c8b0       callTMres                  000000014001d8b0 f   lua-5.1_x64:lvm.obj
 0001:0001c960       callTM                     000000014001d960 f   lua-5.1_x64:lvm.obj
 0001:0001cce0       call_binTM                 000000014001dce0 f   lua-5.1_x64:lvm.obj
 0001:0001cd60       get_compTM                 000000014001dd60 f   lua-5.1_x64:lvm.obj
 0001:0001ce30       call_orderTM               000000014001de30 f   lua-5.1_x64:lvm.obj
 0001:0001cee0       l_strcmp                   000000014001dee0 f   lua-5.1_x64:lvm.obj
 0001:0001d050       lessequal                  000000014001e050 f   lua-5.1_x64:lvm.obj
 0001:0001d570       Arith                      000000014001e570 f   lua-5.1_x64:lvm.obj
 0001:0001ee00       mainposition               000000014001fe00 f   lua-5.1_x64:ltable.obj
 0001:0001eef0       findindex                  000000014001fef0 f   lua-5.1_x64:ltable.obj
 0001:0001f100       setarrayvector             0000000140020100 f   lua-5.1_x64:ltable.obj
 0001:0001f190       setnodevector              0000000140020190 f   lua-5.1_x64:ltable.obj
 0001:0001f650       unbound_search             0000000140020650 f   lua-5.1_x64:ltable.obj
 0001:0001f920       resize                     0000000140020920 f   lua-5.1_x64:ltable.obj
 0001:0001fb90       rehash                     0000000140020b90 f   lua-5.1_x64:ltable.obj
 0001:0001fd90       newkey                     0000000140020d90 f   lua-5.1_x64:ltable.obj
 0001:00020970       DumpString                 0000000140021970 f   lua-5.1_x64:ldump.obj
 0001:00020a00       DumpConstants              0000000140021a00 f   lua-5.1_x64:ldump.obj
 0001:00020b50       DumpDebug                  0000000140021b50 f   lua-5.1_x64:ldump.obj
 0001:00020dc0       DumpFunction               0000000140021dc0 f   lua-5.1_x64:ldump.obj
 0001:00021150       save                       0000000140022150 f   lua-5.1_x64:llex.obj
 0001:000212e0       txtToken                   00000001400222e0 f   lua-5.1_x64:llex.obj
 0001:000214a0       inclinenumber              00000001400224a0 f   lua-5.1_x64:llex.obj
 0001:00021600       trydecpoint                0000000140022600 f   lua-5.1_x64:llex.obj
 0001:00021740       read_numeral               0000000140022740 f   lua-5.1_x64:llex.obj
 0001:000218c0       skip_sep                   00000001400228c0 f   lua-5.1_x64:llex.obj
 0001:00021a90       read_long_string           0000000140022a90 f   lua-5.1_x64:llex.obj
 0001:00021dc0       read_string                0000000140022dc0 f   lua-5.1_x64:llex.obj
 0001:000221f0       llex                       00000001400231f0 f   lua-5.1_x64:llex.obj
 0001:00022b20       check_match                0000000140023b20 f   lua-5.1_x64:lparser.obj
 0001:00022be0       registerlocalvar           0000000140023be0 f   lua-5.1_x64:lparser.obj
 0001:00022cc0       new_localvar               0000000140023cc0 f   lua-5.1_x64:lparser.obj
 0001:00022d80       indexupvalue               0000000140023d80 f   lua-5.1_x64:lparser.obj
 0001:00022f20       singlevaraux               0000000140023f20 f   lua-5.1_x64:lparser.obj
 0001:00023050       singlevar                  0000000140024050 f   lua-5.1_x64:lparser.obj
 0001:000230e0       leaveblock                 00000001400240e0 f   lua-5.1_x64:lparser.obj
 0001:00023180       pushclosure                0000000140024180 f   lua-5.1_x64:lparser.obj
 0001:000232d0       open_func                  00000001400242d0 f   lua-5.1_x64:lparser.obj
 0001:000233c0       close_func                 00000001400243c0 f   lua-5.1_x64:lparser.obj
 0001:000235f0       field                      00000001400245f0 f   lua-5.1_x64:lparser.obj
 0001:000236b0       recfield                   00000001400246b0 f   lua-5.1_x64:lparser.obj
 0001:000238b0       constructor                00000001400248b0 f   lua-5.1_x64:lparser.obj
 0001:00023b70       parlist                    0000000140024b70 f   lua-5.1_x64:lparser.obj
 0001:00023ca0       body                       0000000140024ca0 f   lua-5.1_x64:lparser.obj
 0001:00023e00       funcargs                   0000000140024e00 f   lua-5.1_x64:lparser.obj
 0001:00023f90       prefixexp                  0000000140024f90 f   lua-5.1_x64:lparser.obj
 0001:00024020       primaryexp                 0000000140025020 f   lua-5.1_x64:lparser.obj
 0001:000242d0       simpleexp                  00000001400252d0 f   lua-5.1_x64:lparser.obj
 0001:00024550       getbinopr                  0000000140025550 f   lua-5.1_x64:lparser.obj
 0001:00024710       subexpr                    0000000140025710 f   lua-5.1_x64:lparser.obj
 0001:00024850       block                      0000000140025850 f   lua-5.1_x64:lparser.obj
 0001:000248a0       assignment                 00000001400258a0 f   lua-5.1_x64:lparser.obj
 0001:00024b70       breakstat                  0000000140025b70 f   lua-5.1_x64:lparser.obj
 0001:00024c00       whilestat                  0000000140025c00 f   lua-5.1_x64:lparser.obj
 0001:00024d70       repeatstat                 0000000140025d70 f   lua-5.1_x64:lparser.obj
 0001:00024ec0       forbody                    0000000140025ec0 f   lua-5.1_x64:lparser.obj
 0001:000250e0       fornum                     00000001400260e0 f   lua-5.1_x64:lparser.obj
 0001:000252d0       forlist                    00000001400262d0 f   lua-5.1_x64:lparser.obj
 0001:00025520       forstat                    0000000140026520 f   lua-5.1_x64:lparser.obj
 0001:00025630       test_then_block            0000000140026630 f   lua-5.1_x64:lparser.obj
 0001:00025710       ifstat                     0000000140026710 f   lua-5.1_x64:lparser.obj
 0001:00025840       localfunc                  0000000140026840 f   lua-5.1_x64:lparser.obj
 0001:00025950       localstat                  0000000140026950 f   lua-5.1_x64:lparser.obj
 0001:00025b00       funcstat                   0000000140026b00 f   lua-5.1_x64:lparser.obj
 0001:00025ca0       retstat                    0000000140026ca0 f   lua-5.1_x64:lparser.obj
 0001:00025dc0       statement                  0000000140026dc0 f   lua-5.1_x64:lparser.obj
 0001:00025fd0       chunk                      0000000140026fd0 f   lua-5.1_x64:lparser.obj
 0001:000261d0       LoadInt                    00000001400271d0 f   lua-5.1_x64:lundump.obj
 0001:00026260       LoadString                 0000000140027260 f   lua-5.1_x64:lundump.obj
 0001:00026330       LoadCode                   0000000140027330 f   lua-5.1_x64:lundump.obj
 0001:000263e0       LoadConstants              00000001400273e0 f   lua-5.1_x64:lundump.obj
 0001:000266f0       LoadDebug                  00000001400276f0 f   lua-5.1_x64:lundump.obj
 0001:00026a20       LoadFunction               0000000140027a20 f   lua-5.1_x64:lundump.obj
 0001:00026ca0       LoadHeader                 0000000140027ca0 f   lua-5.1_x64:lundump.obj
 0001:00026de0       fixjump                    0000000140027de0 f   lua-5.1_x64:lcode.obj
 0001:00026e60       removevalues               0000000140027e60 f   lua-5.1_x64:lcode.obj
 0001:00026ef0       patchlistaux               0000000140027ef0 f   lua-5.1_x64:lcode.obj
 0001:000271c0       addk                       00000001400281c0 f   lua-5.1_x64:lcode.obj
 0001:00027430       invertjump                 0000000140028430 f   lua-5.1_x64:lcode.obj
 0001:00027480       constfolding               0000000140028480 f   lua-5.1_x64:lcode.obj
 0001:00027600       luaK_code                  0000000140028600 f   lua-5.1_x64:lcode.obj
 0001:00027a80       discharge2reg              0000000140028a80 f   lua-5.1_x64:lcode.obj
 0001:00027bd0       discharge2anyreg           0000000140028bd0 f   lua-5.1_x64:lcode.obj
 0001:00027c10       exp2reg                    0000000140028c10 f   lua-5.1_x64:lcode.obj
 0001:00028300       jumponcond                 0000000140029300 f   lua-5.1_x64:lcode.obj
 0001:00028500       luaK_goiffalse             0000000140029500 f   lua-5.1_x64:lcode.obj
 0001:00028600       codenot                    0000000140029600 f   lua-5.1_x64:lcode.obj
 0001:00028720       codearith                  0000000140029720 f   lua-5.1_x64:lcode.obj
 0001:00028830       codecomp                   0000000140029830 f   lua-5.1_x64:lcode.obj
 0001:00029d30       MD5Transform               000000014002ad30 f   wylib_x64:md5c.obj
 0001:0002adb8       pre_cpp_init               000000014002bdb8 f   MSVCRT:crtexe.obj
 0001:0002ae20       __tmainCRTStartup          000000014002be20 f   MSVCRT:crtexe.obj
 0001:0002afa0       pre_c_init                 000000014002bfa0 f   MSVCRT:crtexe.obj
 0001:0002b360       math_abs                   000000014002c360 f   lua-5.1_x64:lmathlib.obj
 0001:0002b3a0       math_sin                   000000014002c3a0 f   lua-5.1_x64:lmathlib.obj
 0001:0002b3d0       math_sinh                  000000014002c3d0 f   lua-5.1_x64:lmathlib.obj
 0001:0002b400       math_cos                   000000014002c400 f   lua-5.1_x64:lmathlib.obj
 0001:0002b430       math_cosh                  000000014002c430 f   lua-5.1_x64:lmathlib.obj
 0001:0002b460       math_tan                   000000014002c460 f   lua-5.1_x64:lmathlib.obj
 0001:0002b490       math_tanh                  000000014002c490 f   lua-5.1_x64:lmathlib.obj
 0001:0002b4c0       math_asin                  000000014002c4c0 f   lua-5.1_x64:lmathlib.obj
 0001:0002b4f0       math_acos                  000000014002c4f0 f   lua-5.1_x64:lmathlib.obj
 0001:0002b520       math_atan                  000000014002c520 f   lua-5.1_x64:lmathlib.obj
 0001:0002b550       math_atan2                 000000014002c550 f   lua-5.1_x64:lmathlib.obj
 0001:0002b5b0       math_ceil                  000000014002c5b0 f   lua-5.1_x64:lmathlib.obj
 0001:0002b5e0       math_floor                 000000014002c5e0 f   lua-5.1_x64:lmathlib.obj
 0001:0002b610       math_fmod                  000000014002c610 f   lua-5.1_x64:lmathlib.obj
 0001:0002b670       math_modf                  000000014002c670 f   lua-5.1_x64:lmathlib.obj
 0001:0002b6d0       math_sqrt                  000000014002c6d0 f   lua-5.1_x64:lmathlib.obj
 0001:0002b700       math_pow                   000000014002c700 f   lua-5.1_x64:lmathlib.obj
 0001:0002b760       math_log                   000000014002c760 f   lua-5.1_x64:lmathlib.obj
 0001:0002b790       math_log10                 000000014002c790 f   lua-5.1_x64:lmathlib.obj
 0001:0002b7c0       math_exp                   000000014002c7c0 f   lua-5.1_x64:lmathlib.obj
 0001:0002b7f0       math_deg                   000000014002c7f0 f   lua-5.1_x64:lmathlib.obj
 0001:0002b830       math_rad                   000000014002c830 f   lua-5.1_x64:lmathlib.obj
 0001:0002b870       math_frexp                 000000014002c870 f   lua-5.1_x64:lmathlib.obj
 0001:0002b8c0       math_ldexp                 000000014002c8c0 f   lua-5.1_x64:lmathlib.obj
 0001:0002b910       math_min                   000000014002c910 f   lua-5.1_x64:lmathlib.obj
 0001:0002b990       math_max                   000000014002c990 f   lua-5.1_x64:lmathlib.obj
 0001:0002ba10       math_random                000000014002ca10 f   lua-5.1_x64:lmathlib.obj
 0001:0002bb70       math_randomseed            000000014002cb70 f   lua-5.1_x64:lmathlib.obj
 0001:0002bc30       str_len                    000000014002cc30 f   lua-5.1_x64:lstrlib.obj
 0001:0002bc60       str_sub                    000000014002cc60 f   lua-5.1_x64:lstrlib.obj
 0001:0002bd30       str_reverse                000000014002cd30 f   lua-5.1_x64:lstrlib.obj
 0001:0002bdf0       str_lower                  000000014002cdf0 f   lua-5.1_x64:lstrlib.obj
 0001:0002bea0       str_upper                  000000014002cea0 f   lua-5.1_x64:lstrlib.obj
 0001:0002bf50       str_rep                    000000014002cf50 f   lua-5.1_x64:lstrlib.obj
 0001:0002bfe0       str_byte                   000000014002cfe0 f   lua-5.1_x64:lstrlib.obj
 0001:0002c0f0       str_char                   000000014002d0f0 f   lua-5.1_x64:lstrlib.obj
 0001:0002c1b0       writer                     000000014002d1b0 f   lua-5.1_x64:lstrlib.obj
 0001:0002c1d0       str_dump                   000000014002d1d0 f   lua-5.1_x64:lstrlib.obj
 0001:0002c250       classend                   000000014002d250 f   lua-5.1_x64:lstrlib.obj
 0001:0002c2f0       match_class                000000014002d2f0 f   lua-5.1_x64:lstrlib.obj
 0001:0002c450       matchbracketclass          000000014002d450 f   lua-5.1_x64:lstrlib.obj
 0001:0002c650       matchbalance               000000014002d650 f   lua-5.1_x64:lstrlib.obj
 0001:0002c6f0       max_expand                 000000014002d6f0 f   lua-5.1_x64:lstrlib.obj
 0001:0002c7c0       min_expand                 000000014002d7c0 f   lua-5.1_x64:lstrlib.obj
 0001:0002c880       start_capture              000000014002d880 f   lua-5.1_x64:lstrlib.obj
 0001:0002c910       end_capture                000000014002d910 f   lua-5.1_x64:lstrlib.obj
 0001:0002c9c0       match_capture              000000014002d9c0 f   lua-5.1_x64:lstrlib.obj
 0001:0002ca60       match                      000000014002da60 f   lua-5.1_x64:lstrlib.obj
 0001:0002cd00       lmemfind                   000000014002dd00 f   lua-5.1_x64:lstrlib.obj
 0001:0002cda0       push_onecapture            000000014002dda0 f   lua-5.1_x64:lstrlib.obj
 0001:0002ce60       push_captures              000000014002de60 f   lua-5.1_x64:lstrlib.obj
 0001:0002cf70       str_find_aux               000000014002df70 f   lua-5.1_x64:lstrlib.obj
 0001:0002d170       str_find                   000000014002e170 f   lua-5.1_x64:lstrlib.obj
 0001:0002d180       str_match                  000000014002e180 f   lua-5.1_x64:lstrlib.obj
 0001:0002d190       gmatch_aux                 000000014002e190 f   lua-5.1_x64:lstrlib.obj
 0001:0002d290       gmatch                     000000014002e290 f   lua-5.1_x64:lstrlib.obj
 0001:0002d2f0       gfind_nodef                000000014002e2f0 f   lua-5.1_x64:lstrlib.obj
 0001:0002d300       add_s                      000000014002e300 f   lua-5.1_x64:lstrlib.obj
 0001:0002d410       add_value                  000000014002e410 f   lua-5.1_x64:lstrlib.obj
 0001:0002d540       str_gsub                   000000014002e540 f   lua-5.1_x64:lstrlib.obj
 0001:0002d720       addquoted                  000000014002e720 f   lua-5.1_x64:lstrlib.obj
 0001:0002d840       scanformat                 000000014002e840 f   lua-5.1_x64:lstrlib.obj
 0001:0002d950       str_format                 000000014002e950 f   lua-5.1_x64:lstrlib.obj
 0001:0002dc80       createmetatable            000000014002ec80 f   lua-5.1_x64:lstrlib.obj
 0001:0002dd60       luaB_print                 000000014002ed60 f   lua-5.1_x64:lbaselib.obj
 0001:0002de60       luaB_tonumber              000000014002ee60 f   lua-5.1_x64:lbaselib.obj
 0001:0002df90       luaB_error                 000000014002ef90 f   lua-5.1_x64:lbaselib.obj
 0001:0002e010       luaB_getmetatable          000000014002f010 f   lua-5.1_x64:lbaselib.obj
 0001:0002e070       luaB_setmetatable          000000014002f070 f   lua-5.1_x64:lbaselib.obj
 0001:0002e110       getfunc                    000000014002f110 f   lua-5.1_x64:lbaselib.obj
 0001:0002e1f0       luaB_getfenv               000000014002f1f0 f   lua-5.1_x64:lbaselib.obj
 0001:0002e240       luaB_setfenv               000000014002f240 f   lua-5.1_x64:lbaselib.obj
 0001:0002e300       luaB_rawequal              000000014002f300 f   lua-5.1_x64:lbaselib.obj
 0001:0002e350       luaB_rawget                000000014002f350 f   lua-5.1_x64:lbaselib.obj
 0001:0002e3a0       luaB_rawset                000000014002f3a0 f   lua-5.1_x64:lbaselib.obj
 0001:0002e400       luaB_gcinfo                000000014002f400 f   lua-5.1_x64:lbaselib.obj
 0001:0002e430       luaB_collectgarbage        000000014002f430 f   lua-5.1_x64:lbaselib.obj
 0001:0002e500       luaB_type                  000000014002f500 f   lua-5.1_x64:lbaselib.obj
 0001:0002e540       luaB_next                  000000014002f540 f   lua-5.1_x64:lbaselib.obj
 0001:0002e5a0       luaB_pairs                 000000014002f5a0 f   lua-5.1_x64:lbaselib.obj
 0001:0002e5f0       ipairsaux                  000000014002f5f0 f   lua-5.1_x64:lbaselib.obj
 0001:0002e660       luaB_ipairs                000000014002f660 f   lua-5.1_x64:lbaselib.obj
 0001:0002e6b0       luaB_loadstring            000000014002f6b0 f   lua-5.1_x64:lbaselib.obj
 0001:0002e730       luaB_loadfile              000000014002f730 f   lua-5.1_x64:lbaselib.obj
 0001:0002e790       generic_reader             000000014002f790 f   lua-5.1_x64:lbaselib.obj
 0001:0002e840       luaB_load                  000000014002f840 f   lua-5.1_x64:lbaselib.obj
 0001:0002e8d0       luaB_dofile                000000014002f8d0 f   lua-5.1_x64:lbaselib.obj
 0001:0002e940       luaB_assert                000000014002f940 f   lua-5.1_x64:lbaselib.obj
 0001:0002e9a0       luaB_unpack                000000014002f9a0 f   lua-5.1_x64:lbaselib.obj
 0001:0002ea90       luaB_select                000000014002fa90 f   lua-5.1_x64:lbaselib.obj
 0001:0002eb40       luaB_pcall                 000000014002fb40 f   lua-5.1_x64:lbaselib.obj
 0001:0002eba0       luaB_xpcall                000000014002fba0 f   lua-5.1_x64:lbaselib.obj
 0001:0002ec10       luaB_tostring              000000014002fc10 f   lua-5.1_x64:lbaselib.obj
 0001:0002ed30       luaB_newproxy              000000014002fd30 f   lua-5.1_x64:lbaselib.obj
 0001:0002ee30       costatus                   000000014002fe30 f   lua-5.1_x64:lbaselib.obj
 0001:0002eec0       luaB_costatus              000000014002fec0 f   lua-5.1_x64:lbaselib.obj
 0001:0002ef30       auxresume                  000000014002ff30 f   lua-5.1_x64:lbaselib.obj
 0001:0002f030       luaB_coresume              0000000140030030 f   lua-5.1_x64:lbaselib.obj
 0001:0002f0d0       luaB_auxwrap               00000001400300d0 f   lua-5.1_x64:lbaselib.obj
 0001:0002f160       luaB_cocreate              0000000140030160 f   lua-5.1_x64:lbaselib.obj
 0001:0002f1e0       luaB_cowrap                00000001400301e0 f   lua-5.1_x64:lbaselib.obj
 0001:0002f210       luaB_yield                 0000000140030210 f   lua-5.1_x64:lbaselib.obj
 0001:0002f230       luaB_corunning             0000000140030230 f   lua-5.1_x64:lbaselib.obj
 0001:0002f260       base_open                  0000000140030260 f   lua-5.1_x64:lbaselib.obj
 0001:0002f3f0       foreachi                   00000001400303f0 f   lua-5.1_x64:ltablib.obj
 0001:0002f4c0       foreach                    00000001400304c0 f   lua-5.1_x64:ltablib.obj
 0001:0002f580       maxn                       0000000140030580 f   lua-5.1_x64:ltablib.obj
 0001:0002f620       getn                       0000000140030620 f   lua-5.1_x64:ltablib.obj
 0001:0002f660       setn                       0000000140030660 f   lua-5.1_x64:ltablib.obj
 0001:0002f6a0       tinsert                    00000001400306a0 f   lua-5.1_x64:ltablib.obj
 0001:0002f780       tremove                    0000000140030780 f   lua-5.1_x64:ltablib.obj
 0001:0002f860       tconcat                    0000000140030860 f   lua-5.1_x64:ltablib.obj
 0001:0002f9f0       auxsort                    00000001400309f0 f   lua-5.1_x64:ltablib.obj
 0001:0002ff30       sort                       0000000140030f30 f   lua-5.1_x64:ltablib.obj
 0001:000300b0       initCryptrTable            00000001400310b0 f   wylib_x64:bzhash.obj
 0001:00032140       huft_build                 0000000140033140 f   zlib_x64:inftrees.obj
 0001:00034600       time                       0000000140035600 f    CIL library: CIL module
 0001:00034620       localtime                  0000000140035620 f    CIL library: CIL module
 0001:000349c0       ?setMetaNameClosure@CLangTextSectionExport@@YAXPEAUlua_State@@PEBDPEBXH@Z 00000001400359c0 f    CIL library: CIL module
 0001:00034a30       ?setType@CLangTextSectionExport@@YAXPEAUlua_State@@PEBDH@Z 0000000140035a30 f    CIL library: CIL module
 0001:00034ab0       ?getDataPtr@CLangTextSectionExport@@YAPEAVCLangTextSection@@PEAUlua_State@@H@Z 0000000140035ab0 f    CIL library: CIL module
 0001:00034bf0       ?setGlobal@CLangTextSectionExport@@YAXPEAUlua_State@@AEAVCLangTextSection@@PEBD@Z 0000000140035bf0 f    CIL library: CIL module
 0001:00034c60       ?newRef@CLangTextSectionExport@@YAHPEAUlua_State@@AEAVCLangTextSection@@@Z 0000000140035c60 f    CIL library: CIL module
 0001:00034d00       ?get@CLangTextSectionExport@@YAHPEAUlua_State@@@Z 0000000140035d00 f    CIL library: CIL module
 0001:00034db0       ?registTo@CLangTextSectionExport@@YAXPEAUlua_State@@PEBD@Z 0000000140035db0 f    CIL library: CIL module
 0001:00034f60       ?allocFromAllocator@@YAPEAXPEAV?$CObjectAllocator@D@@PEAX_K@Z 0000000140035f60 f    CIL library: CIL module
 0001:0003b790       ?dtor$0@?0???0COPMToFile@@QEAA@PEBD@Z@4HA 000000014003c790 f   FileLogger.obj
 0001:0003b7a0       ?dtor$1@?0???0COPMToFile@@QEAA@PEBD@Z@4HA 000000014003c7a0 f   FileLogger.obj
 0001:0003b7b0       ?dtor$2@?0???0COPMToFile@@QEAA@PEBD@Z@4HA 000000014003c7b0 f   FileLogger.obj
 0001:0003b7c0       ?dtor$3@?0???0COPMToFile@@QEAA@PEBD@Z@4HA 000000014003c7c0 f   FileLogger.obj
 0001:0003b7e0       ?dtor$4@?0???0COPMToFile@@QEAA@PEBD@Z@4HA 000000014003c7e0 f   FileLogger.obj
 0001:0003b800       ?dtor$5@?0???0COPMToFile@@QEAA@PEBD@Z@4HA 000000014003c800 f   FileLogger.obj
 0001:0003b820       ?dtor$6@?0???0COPMToFile@@QEAA@PEBD@Z@4HA 000000014003c820 f   FileLogger.obj
 0001:0003b840       ?dtor$7@?0???0COPMToFile@@QEAA@PEBD@Z@4HA 000000014003c840 f   FileLogger.obj
 0001:0003b860       ?dtor$0@?0??DumpImpl@COPMToFile@@IEAAXXZ@4HA 000000014003c860 f   FileLogger.obj
 0001:0003b870       ?dtor$0@?0???1COPMToFile@@UEAA@XZ@4HA 000000014003c870 f   FileLogger.obj
 0001:0003b880       ?dtor$1@?0???1COPMToFile@@UEAA@XZ@4HA 000000014003c880 f   FileLogger.obj
 0001:0003b890       ?dtor$2@?0???1COPMToFile@@UEAA@XZ@4HA 000000014003c890 f   FileLogger.obj
 0001:0003b8a0       ?dtor$3@?0???1COPMToFile@@UEAA@XZ@4HA 000000014003c8a0 f   FileLogger.obj
 0001:0003b8c0       ?dtor$4@?0???1COPMToFile@@UEAA@XZ@4HA 000000014003c8c0 f   FileLogger.obj
 0001:0003b8e0       ?dtor$5@?0???1COPMToFile@@UEAA@XZ@4HA 000000014003c8e0 f   FileLogger.obj
 0001:0003b900       ?dtor$6@?0???1COPMToFile@@UEAA@XZ@4HA 000000014003c900 f   FileLogger.obj
 0001:0003b920       ?dtor$7@?0???1COPMToFile@@UEAA@XZ@4HA 000000014003c920 f   FileLogger.obj
 0001:0003b940       ?dtor$8@?0???1COPMToFile@@UEAA@XZ@4HA 000000014003c940 f   FileLogger.obj
 0001:0003b950       ?dtor$9@?0???1COPMToFile@@UEAA@XZ@4HA 000000014003c950 f   FileLogger.obj
 0001:0003b960       ?dtor$0@?0???0CFileLogger@@QEAA@PEBDZZ@4HA 000000014003c960 f   FileLogger.obj
 0001:0003b970       ?dtor$1@?0???0CMiscActionMgr@@QEAA@XZ@4HA 000000014003c970 f   LogicAgent.obj
 0001:0003b980       ?dtor$0@?0???1CLogicAgent@@UEAA@XZ@4HA 000000014003c980 f   LogicAgent.obj
 0001:0003b990       ?dtor$1@?0???1CLogicAgent@@UEAA@XZ@4HA 000000014003c990 f   LogicAgent.obj
 0001:0003b9b0       ?dtor$2@?0???1CLogicAgent@@UEAA@XZ@4HA 000000014003c9b0 f   LogicAgent.obj
 0001:0003b9d0       ?dtor$3@?0???1CLogicAgent@@UEAA@XZ@4HA 000000014003c9d0 f   LogicAgent.obj
 0001:0003b9f0       ?dtor$4@?0???1CLogicAgent@@UEAA@XZ@4HA 000000014003c9f0 f   LogicAgent.obj
 0001:0003ba10       ?dtor$5@?0???1CLogicAgent@@UEAA@XZ@4HA 000000014003ca10 f   LogicAgent.obj
 0001:0003ba30       ?dtor$6@?0???1CLogicAgent@@UEAA@XZ@4HA 000000014003ca30 f   LogicAgent.obj
 0001:0003ba50       ?dtor$7@?0???1CLogicAgent@@UEAA@XZ@4HA 000000014003ca50 f   LogicAgent.obj
 0001:0003ba70       ?dtor$10@?0???1CLogicAgent@@UEAA@XZ@4HA 000000014003ca70 f   LogicAgent.obj
 0001:0003ba80       ?dtor$12@?0???1CLogicAgent@@UEAA@XZ@4HA 000000014003ca80 f   LogicAgent.obj
 0001:0003ba90       ?dtor$0@?0???_G?$CSwapQueue@PEAVCDataPacket@@@@UEAAPEAXI@Z@4HA 000000014003ca90 f   LogicAgent.obj
 0001:0003ba90       ?dtor$0@?0???1?$CSwapQueue@PEAVCDataPacket@@@@UEAA@XZ@4HA 000000014003ca90 f   LogicAgent.obj
 0001:0003ba90       ?dtor$0@?0???0?$CSwapQueue@PEAVCDataPacket@@@@QEAA@XZ@4HA 000000014003ca90 f   LogicAgent.obj
 0001:0003baa0       ?dtor$0@?0???0CLogicAgent@@QEAA@XZ@4HA 000000014003caa0 f   LogicAgent.obj
 0001:0003bab0       ?dtor$1@?0???0CLogicAgent@@QEAA@XZ@4HA 000000014003cab0 f   LogicAgent.obj
 0001:0003bad0       ?dtor$2@?0???0CLogicAgent@@QEAA@XZ@4HA 000000014003cad0 f   LogicAgent.obj
 0001:0003baf0       ?dtor$3@?0???0CLogicAgent@@QEAA@XZ@4HA 000000014003caf0 f   LogicAgent.obj
 0001:0003bb10       ?dtor$4@?0???0CLogicAgent@@QEAA@XZ@4HA 000000014003cb10 f   LogicAgent.obj
 0001:0003bb30       ?dtor$5@?0???0CLogicAgent@@QEAA@XZ@4HA 000000014003cb30 f   LogicAgent.obj
 0001:0003bb50       ?dtor$6@?0???0CLogicAgent@@QEAA@XZ@4HA 000000014003cb50 f   LogicAgent.obj
 0001:0003bb70       ?dtor$7@?0???0CLogicAgent@@QEAA@XZ@4HA 000000014003cb70 f   LogicAgent.obj
 0001:0003bb90       ?dtor$0@?0??LoadFileFunc@?$CFileReader@VCConfigLoader@@@@QEAA_NPEAVCConfigLoader@@PEBDAEAV?$CBaseList@P8CConfigLoader@@EAA_NXZ@container@wylib@@@Z@4HA 000000014003cb90 f   ConfigLoader.obj
 0001:0003bba0       ?dtor$1@?0??LoadFileFunc@?$CFileReader@VCConfigLoader@@@@QEAA_NPEAVCConfigLoader@@PEBDAEAV?$CBaseList@P8CConfigLoader@@EAA_NXZ@container@wylib@@@Z@4HA 000000014003cba0 f   ConfigLoader.obj
 0001:0003bbb0       ?catch$0@?0??LoadFileFunc@?$CFileReader@VCConfigLoader@@@@QEAA_NPEAVCConfigLoader@@PEBDAEAV?$CBaseList@P8CConfigLoader@@EAA_NXZ@container@wylib@@@Z@4HA 000000014003cbb0 f   ConfigLoader.obj
 0001:0003bbbd       __catch$?LoadFileFunc@?$CFileReader@VCConfigLoader@@@@QEAA_NPEAVCConfigLoader@@PEBDAEAV?$CBaseList@P8CConfigLoader@@EAA_NXZ@container@wylib@@@Z$0 000000014003cbbd f   ConfigLoader.obj
 0001:0003bc00       ?catch$1@?0??LoadFileFunc@?$CFileReader@VCConfigLoader@@@@QEAA_NPEAVCConfigLoader@@PEBDAEAV?$CBaseList@P8CConfigLoader@@EAA_NXZ@container@wylib@@@Z@4HA 000000014003cc00 f   ConfigLoader.obj
 0001:0003bc0d       __catch$?LoadFileFunc@?$CFileReader@VCConfigLoader@@@@QEAA_NPEAVCConfigLoader@@PEBDAEAV?$CBaseList@P8CConfigLoader@@EAA_NXZ@container@wylib@@@Z$1 000000014003cc0d f   ConfigLoader.obj
 0001:0003bc40       ?catch$0@?0??reserve@?$vector@PEADV?$allocator@PEAD@std@@@std@@QEAAX_K@Z@4HA 000000014003cc40 f   ConfigLoader.obj
 0001:0003bc4d       __catch$?reserve@?$vector@PEADV?$allocator@PEAD@std@@@std@@QEAAX_K@Z$0 000000014003cc4d f   ConfigLoader.obj
 0001:0003bc60       ?dtor$0@?0??LoadFile@?$CFileReader@VCConfigLoader@@@@QEAA_NPEAVCConfigLoader@@PEBDP82@EAA_NXZ222@Z@4HA 000000014003cc60 f   ConfigLoader.obj
 0001:0003bc70       ?dtor$0@?0???0CLanguageTextProvider@@QEAA@XZ@4HA 000000014003cc70 f   LanguageTextProvider.obj
 0001:0003bc80       ?dtor$1@?0???0CLanguageTextProvider@@QEAA@XZ@4HA 000000014003cc80 f   LanguageTextProvider.obj
 0001:0003bca0       ?dtor$2@?0???0CLanguageTextProvider@@QEAA@XZ@4HA 000000014003cca0 f   LanguageTextProvider.obj
 0001:0003bcc0       ?dtor$0@?0???1CLanguageTextProvider@@UEAA@XZ@4HA 000000014003ccc0 f   LanguageTextProvider.obj
 0001:0003bcd0       ?dtor$1@?0???1CLanguageTextProvider@@UEAA@XZ@4HA 000000014003ccd0 f   LanguageTextProvider.obj
 0001:0003bcf0       ?dtor$2@?0???1CLanguageTextProvider@@UEAA@XZ@4HA 000000014003ccf0 f   LanguageTextProvider.obj
 0001:0003bd10       ?dtor$3@?0???1CLanguageTextProvider@@UEAA@XZ@4HA 000000014003cd10 f   LanguageTextProvider.obj
 0001:0003bd30       ?dtor$1@?0??showError@CRobotConfig@@MEAAXPEBD@Z@4HA 000000014003cd30 f   LanguageTextProvider.obj
 0001:0003bd30       ?dtor$1@?0??showError@CSceneConfigLoader@@MEAAXPEBD@Z@4HA 000000014003cd30 f   LanguageTextProvider.obj
 0001:0003bd30       ?dtor$1@?0??showError@CLanguageTextProvider@@MEAAXPEBD@Z@4HA 000000014003cd30 f   LanguageTextProvider.obj
 0001:0003bd40       ?dtor$0@?0??showError@CSceneConfigLoader@@MEAAXPEBD@Z@4HA 000000014003cd40 f   LanguageTextProvider.obj
 0001:0003bd40       ?dtor$0@?0??showError@CLanguageTextProvider@@MEAAXPEBD@Z@4HA 000000014003cd40 f   LanguageTextProvider.obj
 0001:0003bd40       ?dtor$0@?0??showError@CRobotConfig@@MEAAXPEBD@Z@4HA 000000014003cd40 f   LanguageTextProvider.obj
 0001:0003bd50       ?dtor$4@?0??showError@CRobotConfig@@MEAAXPEBD@Z@4HA 000000014003cd50 f   LanguageTextProvider.obj
 0001:0003bd50       ?dtor$4@?0??showError@CLanguageTextProvider@@MEAAXPEBD@Z@4HA 000000014003cd50 f   LanguageTextProvider.obj
 0001:0003bd50       ?dtor$4@?0??showError@CSceneConfigLoader@@MEAAXPEBD@Z@4HA 000000014003cd50 f   LanguageTextProvider.obj
 0001:0003bd60       ?dtor$0@?0??LoadFromFile@CLanguageTextProvider@@QEAA_NPEBD@Z@4HA 000000014003cd60 f   LanguageTextProvider.obj
 0001:0003bd70       ?dtor$1@?0??LoadFromFile@CLanguageTextProvider@@QEAA_NPEBD@Z@4HA 000000014003cd70 f   LanguageTextProvider.obj
 0001:0003bd80       ?catch$0@?0??LoadFromFile@CLanguageTextProvider@@QEAA_NPEBD@Z@4HA 000000014003cd80 f   LanguageTextProvider.obj
 0001:0003bd8d       __catch$?LoadFromFile@CLanguageTextProvider@@QEAA_NPEBD@Z$0 000000014003cd8d f   LanguageTextProvider.obj
 0001:0003bdd0       ?catch$1@?0??LoadFromFile@CLanguageTextProvider@@QEAA_NPEBD@Z@4HA 000000014003cdd0 f   LanguageTextProvider.obj
 0001:0003bddd       __catch$?LoadFromFile@CLanguageTextProvider@@QEAA_NPEBD@Z$1 000000014003cddd f   LanguageTextProvider.obj
 0001:0003be00       ?catch$0@?0???$_Uninit_move@PEAUMonsterData@@PEAU1@V?$allocator@UMonsterData@@@std@@U1@@std@@YAPEAUMonsterData@@PEAU1@00AEAV?$allocator@UMonsterData@@@0@0U_Nonscalar_ptr_iterator_tag@0@@Z@4HA 000000014003ce00 f   QuestConfig.obj
 0001:0003be0d       __catch$??$_Uninit_move@PEAUMonsterData@@PEAU1@V?$allocator@UMonsterData@@@std@@U1@@std@@YAPEAUMonsterData@@PEAU1@00AEAV?$allocator@UMonsterData@@@0@0U_Nonscalar_ptr_iterator_tag@0@@Z$0 000000014003ce0d f   QuestConfig.obj
 0001:0003be20       ?catch$0@?0???$_Uninit_move@PEAUtagQuestConfig@@PEAU1@V?$allocator@UtagQuestConfig@@@std@@U1@@std@@YAPEAUtagQuestConfig@@PEAU1@00AEAV?$allocator@UtagQuestConfig@@@0@0U_Nonscalar_ptr_iterator_tag@0@@Z@4HA 000000014003ce20 f   QuestConfig.obj
 0001:0003be2d       __catch$??$_Uninit_move@PEAUtagQuestConfig@@PEAU1@V?$allocator@UtagQuestConfig@@@std@@U1@@std@@YAPEAUtagQuestConfig@@PEAU1@00AEAV?$allocator@UtagQuestConfig@@@0@0U_Nonscalar_ptr_iterator_tag@0@@Z$0 000000014003ce2d f   QuestConfig.obj
 0001:0003be40       ?catch$0@?0??reserve@?$vector@UMonsterData@@V?$allocator@UMonsterData@@@std@@@std@@QEAAX_K@Z@4HA 000000014003ce40 f   QuestConfig.obj
 0001:0003be4d       __catch$?reserve@?$vector@UMonsterData@@V?$allocator@UMonsterData@@@std@@@std@@QEAAX_K@Z$0 000000014003ce4d f   QuestConfig.obj
 0001:0003be60       ?catch$0@?0??reserve@?$vector@UtagQuestConfig@@V?$allocator@UtagQuestConfig@@@std@@@std@@QEAAX_K@Z@4HA 000000014003ce60 f   QuestConfig.obj
 0001:0003be6d       __catch$?reserve@?$vector@UtagQuestConfig@@V?$allocator@UtagQuestConfig@@@std@@@std@@QEAAX_K@Z$0 000000014003ce6d f   QuestConfig.obj
 0001:0003be80       ?dtor$0@?0???1CQuestConfigLoader@@UEAA@XZ@4HA 000000014003ce80 f   QuestConfig.obj
 0001:0003be80       ?dtor$0@?0???0CQuestConfigLoader@@QEAA@XZ@4HA 000000014003ce80 f   QuestConfig.obj
 0001:0003be90       ?dtor$1@?0???0CQuestConfigLoader@@QEAA@XZ@4HA 000000014003ce90 f   QuestConfig.obj
 0001:0003be90       ?dtor$1@?0???1CQuestConfigLoader@@UEAA@XZ@4HA 000000014003ce90 f   QuestConfig.obj
 0001:0003beb0       ?dtor$0@?0??LoadMonsterConfig@CQuestConfigLoader@@QEAA_NPEBD@Z@4HA 000000014003ceb0 f   QuestConfig.obj
 0001:0003bec0       ?dtor$1@?0??LoadMonsterConfig@CQuestConfigLoader@@QEAA_NPEBD@Z@4HA 000000014003cec0 f   QuestConfig.obj
 0001:0003bed0       ?catch$0@?0??LoadMonsterConfig@CQuestConfigLoader@@QEAA_NPEBD@Z@4HA 000000014003ced0 f   QuestConfig.obj
 0001:0003bedd       __catch$?LoadMonsterConfig@CQuestConfigLoader@@QEAA_NPEBD@Z$0 000000014003cedd f   QuestConfig.obj
 0001:0003bf10       ?catch$1@?0??LoadMonsterConfig@CQuestConfigLoader@@QEAA_NPEBD@Z@4HA 000000014003cf10 f   QuestConfig.obj
 0001:0003bf1d       __catch$?LoadMonsterConfig@CQuestConfigLoader@@QEAA_NPEBD@Z$1 000000014003cf1d f   QuestConfig.obj
 0001:0003bf50       ?dtor$0@?0??LoadFile@CQuestConfigLoader@@QEAA_NPEBD@Z@4HA 000000014003cf50 f   QuestConfig.obj
 0001:0003bf60       ?dtor$1@?0??LoadFile@CQuestConfigLoader@@QEAA_NPEBD@Z@4HA 000000014003cf60 f   QuestConfig.obj
 0001:0003bf70       ?catch$0@?0??LoadFile@CQuestConfigLoader@@QEAA_NPEBD@Z@4HA 000000014003cf70 f   QuestConfig.obj
 0001:0003bf7d       __catch$?LoadFile@CQuestConfigLoader@@QEAA_NPEBD@Z$0 000000014003cf7d f   QuestConfig.obj
 0001:0003bfb0       ?catch$1@?0??LoadFile@CQuestConfigLoader@@QEAA_NPEBD@Z@4HA 000000014003cfb0 f   QuestConfig.obj
 0001:0003bfbd       __catch$?LoadFile@CQuestConfigLoader@@QEAA_NPEBD@Z$1 000000014003cfbd f   QuestConfig.obj
 0001:0003bff0       ?filt$0@?0??ClearDefinitions@CVSPDefinition@@IEAAXXZ@4HA 000000014003cff0 f   VSPDef.obj
 0001:0003c010       ?dtor$0@?0???1CVSPDefinition@@QEAA@XZ@4HA 000000014003d010 f   VSPDef.obj
 0001:0003c020       ?dtor$0@?0??LoadDefinitions@CVSPDefinition@@QEAA_NPEBD@Z@4HA 000000014003d020 f   VSPDef.obj
 0001:0003c030       ?dtor$0@?0???$writeAtom@VEntityHandle@@@CDataPacket@@QEAAXVEntityHandle@@@Z@4HA 000000014003d030 f   DefaultSystem.obj
 0001:0003c030       ?dtor$0@?0???$?6VEntityHandle@@@CDataPacket@@QEAAAEAV0@VEntityHandle@@@Z@4HA 000000014003d030 f   DefaultSystem.obj
 0001:0003c030       ?dtor$0@?0??GetMonsterPos@CDefaultSystem@@QEAA_NVEntityHandle@@AEAH1@Z@4HA 000000014003d030 f   DefaultSystem.obj
 0001:0003c040       ?dtor$0@?0??ProcessMainActorCreated@CDefaultSystem@@AEAAXAEAVCDataPacketReader@@@Z@4HA 000000014003d040 f   DefaultSystem.obj
 0001:0003c050       ?dtor$0@?0??ProcessActorAppear@CDefaultSystem@@AEAAXAEAVCDataPacketReader@@@Z@4HA 000000014003d050 f   DefaultSystem.obj
 0001:0003c060       ?dtor$1@?0??ProcessActorAppear@CDefaultSystem@@AEAAXAEAVCDataPacketReader@@@Z@4HA 000000014003d060 f   DefaultSystem.obj
 0001:0003c070       ?dtor$3@?0??ProcessActorAppear@CDefaultSystem@@AEAAXAEAVCDataPacketReader@@@Z@4HA 000000014003d070 f   DefaultSystem.obj
 0001:0003c080       ?dtor$0@?0??ProcessNonActorAppear@CDefaultSystem@@AEAAXAEAVCDataPacketReader@@@Z@4HA 000000014003d080 f   DefaultSystem.obj
 0001:0003c090       ?dtor$1@?0??ProcessNonActorAppear@CDefaultSystem@@AEAAXAEAVCDataPacketReader@@@Z@4HA 000000014003d090 f   DefaultSystem.obj
 0001:0003c0a0       ?dtor$2@?0??ProcessNonActorAppear@CDefaultSystem@@AEAAXAEAVCDataPacketReader@@@Z@4HA 000000014003d0a0 f   DefaultSystem.obj
 0001:0003c0b0       ?dtor$0@?0??ProcessEntityDisappear@CDefaultSystem@@AEAAXAEAVCDataPacketReader@@@Z@4HA 000000014003d0b0 f   DefaultSystem.obj
 0001:0003c0c0       ?dtor$0@?0??ProcessOtherEntityPropChange@CDefaultSystem@@AEAAXAEAVCDataPacketReader@@@Z@4HA 000000014003d0c0 f   DefaultSystem.obj
 0001:0003c0d0       ?dtor$0@?0??ProcessOtherEntityMove@CDefaultSystem@@AEAAXAEAVCDataPacketReader@@@Z@4HA 000000014003d0d0 f   DefaultSystem.obj
 0001:0003c0e0       ?catch$0@?0???$_Uninit_move@PEAUtagMeetingActor@@PEAU1@V?$allocator@UtagMeetingActor@@@std@@U1@@std@@YAPEAUtagMeetingActor@@PEAU1@00AEAV?$allocator@UtagMeetingActor@@@0@0U_Nonscalar_ptr_iterator_tag@0@@Z@4HA 000000014003d0e0 f   MiscSystem.obj
 0001:0003c0ed       __catch$??$_Uninit_move@PEAUtagMeetingActor@@PEAU1@V?$allocator@UtagMeetingActor@@@std@@U1@@std@@YAPEAUtagMeetingActor@@PEAU1@00AEAV?$allocator@UtagMeetingActor@@@0@0U_Nonscalar_ptr_iterator_tag@0@@Z$0 000000014003d0ed f   MiscSystem.obj
 0001:0003c120       ?dtor$0@?0???0CMiscSystem@@QEAA@XZ@4HA 000000014003d120 f   MiscSystem.obj
 0001:0003c130       ?dtor$1@?0???0CMiscSystem@@QEAA@XZ@4HA 000000014003d130 f   MiscSystem.obj
 0001:0003c140       ?dtor$0@?0???1CMiscSystem@@QEAA@XZ@4HA 000000014003d140 f   MiscSystem.obj
 0001:0003c150       ?dtor$1@?0???1CMiscSystem@@QEAA@XZ@4HA 000000014003d150 f   MiscSystem.obj
 0001:0003c160       ?catch$0@?0??reserve@?$vector@UtagMeetingActor@@V?$allocator@UtagMeetingActor@@@std@@@std@@QEAAX_K@Z@4HA 000000014003d160 f   MiscSystem.obj
 0001:0003c16d       __catch$?reserve@?$vector@UtagMeetingActor@@V?$allocator@UtagMeetingActor@@@std@@@std@@QEAAX_K@Z$0 000000014003d16d f   MiscSystem.obj
 0001:0003c180       ?dtor$0@?0???1CQuestSystem@@QEAA@XZ@4HA 000000014003d180 f   QuestSystem.obj
 0001:0003c190       ?dtor$1@?0??CheckFinishQuest@CQuestSystem@@QEAA_NXZ@4HA 000000014003d190 f   QuestSystem.obj
 0001:0003c1a0       ?dtor$3@?0??CheckFinishQuest@CQuestSystem@@QEAA_NXZ@4HA 000000014003d1a0 f   QuestSystem.obj
 0001:0003c1b0       ?dtor$5@?0??CheckFinishQuest@CQuestSystem@@QEAA_NXZ@4HA 000000014003d1b0 f   QuestSystem.obj
 0001:0003c1c0       ?dtor$0@?0??CallNpcFunc@CQuestSystem@@QEAA_NVEntityHandle@@PEBD@Z@4HA 000000014003d1c0 f   QuestSystem.obj
 0001:0003c1d0       ?dtor$2@?0??CallNpcFunc@CQuestSystem@@QEAA_NVEntityHandle@@PEBD@Z@4HA 000000014003d1d0 f   QuestSystem.obj
 0001:0003c1e0       ?dtor$0@?0??CheckAcceptQuest@CQuestSystem@@QEAA_NXZ@4HA 000000014003d1e0 f   QuestSystem.obj
 0001:0003c1f0       ?dtor$0@?0??NearAttack@CSkillSystem@@QEAAXVEntityHandle@@@Z@4HA 000000014003d1f0 f   SkillSystem.obj
 0001:0003c200       ?dtor$1@?0??NearAttack@CSkillSystem@@QEAAXVEntityHandle@@@Z@4HA 000000014003d200 f   SkillSystem.obj
 0001:0003c210       ?dtor$2@?0??NearAttack@CSkillSystem@@QEAAXVEntityHandle@@@Z@4HA 000000014003d210 f   SkillSystem.obj
 0001:0003c220       ?dtor$0@?0??SetupRobotManagerConfig@@YAHPEAVCRobotManager@@PEBD@Z@4HA 000000014003d220 f   main.obj
 0001:0003c230       ?dtor$0@?0??ServerMain@@YAXHPEAPEAD@Z@4HA 000000014003d230 f   main.obj
 0001:0003c240       ?dtor$1@?0??ServerMain@@YAXHPEAPEAD@Z@4HA 000000014003d240 f   main.obj
 0001:0003c250       ?dtor$0@?0??getSingleton@CTimeProfMgr@@SAAEAV1@XZ@4HA 000000014003d250 f   main.obj
 0001:0003c250       main$dtor$0                000000014003d250 f   main.obj
 0001:0003c270       ?dtor$0@?0??loadConfig@CRobotConfig@@QEAA_NPEAVCRobotManager@@PEBD@Z@4HA 000000014003d270 f   RobotConfig.obj
 0001:0003c280       ?catch$0@?0??loadConfig@CRobotConfig@@QEAA_NPEAVCRobotManager@@PEBD@Z@4HA 000000014003d280 f   RobotConfig.obj
 0001:0003c28d       __catch$?loadConfig@CRobotConfig@@QEAA_NPEAVCRobotManager@@PEBD@Z$0 000000014003d28d f   RobotConfig.obj
 0001:0003c2c0       ?catch$1@?0??loadConfig@CRobotConfig@@QEAA_NPEAVCRobotManager@@PEBD@Z@4HA 000000014003d2c0 f   RobotConfig.obj
 0001:0003c2cd       __catch$?loadConfig@CRobotConfig@@QEAA_NPEAVCRobotManager@@PEBD@Z$1 000000014003d2cd f   RobotConfig.obj
 0001:0003c2f0       ?dtor$0@?0???_ECRobotClient@@UEAAPEAXI@Z@4HA 000000014003d2f0 f   RobotGroup.obj
 0001:0003c2f0       ?dtor$0@?0???1CRobotClient@@UEAA@XZ@4HA 000000014003d2f0 f   RobotGroup.obj
 0001:0003c300       ?dtor$0@?0???0CRobotClient@@QEAA@XZ@4HA 000000014003d300 f   RobotGroup.obj
 0001:0003c310       ?dtor$1@?0???0CRobotClient@@QEAA@XZ@4HA 000000014003d310 f   RobotGroup.obj
 0001:0003c330       ?dtor$2@?0???0CRobotClient@@QEAA@XZ@4HA 000000014003d330 f   RobotGroup.obj
 0001:0003c350       ?dtor$0@?0??Init@CRobotGroup@@QEAA_NHH@Z@4HA 000000014003d350 f   RobotGroup.obj
 0001:0003c360       ?dtor$0@?0??Startup@CRobotManager@@QEAAHXZ@4HA 000000014003d360 f   RobotManager.obj
 0001:0003c370       ?dtor$0@?0???1CSceneConfigLoader@@UEAA@XZ@4HA 000000014003d370 f   RobotManager.obj
 0001:0003c380       ?dtor$1@?0???1CSceneConfigLoader@@UEAA@XZ@4HA 000000014003d380 f   RobotManager.obj
 0001:0003c3a0       ?dtor$2@?0???1CSceneConfigLoader@@UEAA@XZ@4HA 000000014003d3a0 f   RobotManager.obj
 0001:0003c3c0       ?dtor$0@?0???0CConfigLoader@@QEAA@XZ@4HA 000000014003d3c0 f   RobotManager.obj
 0001:0003c3d0       ?dtor$1@?0???0CConfigLoader@@QEAA@XZ@4HA 000000014003d3d0 f   RobotManager.obj
 0001:0003c3f0       ?dtor$2@?0???0CConfigLoader@@QEAA@XZ@4HA 000000014003d3f0 f   RobotManager.obj
 0001:0003c410       ?dtor$0@?0???1CConfigLoader@@UEAA@XZ@4HA 000000014003d410 f   RobotManager.obj
 0001:0003c420       ?dtor$1@?0???1CConfigLoader@@UEAA@XZ@4HA 000000014003d420 f   RobotManager.obj
 0001:0003c440       ?dtor$2@?0???1CConfigLoader@@UEAA@XZ@4HA 000000014003d440 f   RobotManager.obj
 0001:0003c460       ?dtor$3@?0???1CConfigLoader@@UEAA@XZ@4HA 000000014003d460 f   RobotManager.obj
 0001:0003c480       ?dtor$0@?0???1CRobotManager@@QEAA@XZ@4HA 000000014003d480 f   RobotManager.obj
 0001:0003c490       ?dtor$1@?0???1CRobotManager@@QEAA@XZ@4HA 000000014003d490 f   RobotManager.obj
 0001:0003c4a0       ?dtor$2@?0???1CRobotManager@@QEAA@XZ@4HA 000000014003d4a0 f   RobotManager.obj
 0001:0003c4b0       ?dtor$3@?0???1CRobotManager@@QEAA@XZ@4HA 000000014003d4b0 f   RobotManager.obj
 0001:0003c4c0       ?dtor$4@?0???1CRobotManager@@QEAA@XZ@4HA 000000014003d4c0 f   RobotManager.obj
 0001:0003c4e0       ?dtor$5@?0???1CRobotManager@@QEAA@XZ@4HA 000000014003d4e0 f   RobotManager.obj
 0001:0003c500       ?dtor$6@?0???1CRobotManager@@QEAA@XZ@4HA 000000014003d500 f   RobotManager.obj
 0001:0003c520       ?dtor$0@?0???0CRobotManager@@QEAA@XZ@4HA 000000014003d520 f   RobotManager.obj
 0001:0003c530       ?dtor$1@?0???0CRobotManager@@QEAA@XZ@4HA 000000014003d530 f   RobotManager.obj
 0001:0003c540       ?dtor$2@?0???0CRobotManager@@QEAA@XZ@4HA 000000014003d540 f   RobotManager.obj
 0001:0003c550       ?dtor$3@?0???0CRobotManager@@QEAA@XZ@4HA 000000014003d550 f   RobotManager.obj
 0001:0003c560       ?dtor$4@?0???0CRobotManager@@QEAA@XZ@4HA 000000014003d560 f   RobotManager.obj
 0001:0003c580       ?dtor$5@?0???0CRobotManager@@QEAA@XZ@4HA 000000014003d580 f   RobotManager.obj
 0001:0003c5a0       ?dtor$0@?0???0CSceneConfigLoader@@QEAA@XZ@4HA 000000014003d5a0 f   SceneConfigLoader.obj
 0001:0003c5b0       ?dtor$1@?0???0CSceneConfigLoader@@QEAA@XZ@4HA 000000014003d5b0 f   SceneConfigLoader.obj
 0001:0003c5d0       ?dtor$2@?0???0CSceneConfigLoader@@QEAA@XZ@4HA 000000014003d5d0 f   SceneConfigLoader.obj
 0001:0003c5f0       ?dtor$0@?0??Load@CSceneConfigLoader@@QEAA_NXZ@4HA 000000014003d5f0 f   SceneConfigLoader.obj
 0001:0003c600       ?dtor$1@?0??Load@CSceneConfigLoader@@QEAA_NXZ@4HA 000000014003d600 f   SceneConfigLoader.obj
 0001:0003c610       ?catch$0@?0??Load@CSceneConfigLoader@@QEAA_NXZ@4HA 000000014003d610 f   SceneConfigLoader.obj
 0001:0003c61d       __catch$?Load@CSceneConfigLoader@@QEAA_NXZ$0 000000014003d61d f   SceneConfigLoader.obj
 0001:0003c650       ?catch$1@?0??Load@CSceneConfigLoader@@QEAA_NXZ@4HA 000000014003d650 f   SceneConfigLoader.obj
 0001:0003c65d       __catch$?Load@CSceneConfigLoader@@QEAA_NXZ$1 000000014003d65d f   SceneConfigLoader.obj
 0001:0003c690       ?dtor$0@?0???1CZDecompressionStream@zstream@wylib@@UEAA@XZ@4HA 000000014003d690 f   wylib_x64:FileStream.obj
 0001:0003c690       ?dtor$0@?0???0CFileStream@stream@wylib@@QEAA@PEBDKW4OpenDisposition@012@@Z@4HA 000000014003d690 f   wylib_x64:FileStream.obj
 0001:0003c690       ?dtor$0@?0???_GCZDecompressionStream@zstream@wylib@@UEAAPEAXI@Z@4HA 000000014003d690 f   wylib_x64:FileStream.obj
 0001:0003c690       ?dtor$0@?0???0CBaseZStream@zstream@wylib@@QEAA@AEAVCBaseStream@stream@2@@Z@4HA 000000014003d690 f   wylib_x64:FileStream.obj
 0001:0003c690       ?dtor$0@?0???0CFileStream@stream@wylib@@QEAA@PEBDK@Z@4HA 000000014003d690 f   wylib_x64:FileStream.obj
 0001:0003c6a0       ?dtor$0@?0??loadFromFile@CMemoryStream@stream@wylib@@QEAA_JPEBD@Z@4HA 000000014003d6a0 f   wylib_x64:MemoryStream.obj
 0001:0003c6ac       ?fin$0@?0???_L@YAXPEAX_KHP6AX0@Z2@Z@4HA 000000014003d6ac f   MSVCRT:ehvecctr.obj
 0001:0003c6d8       ?filt$0@?0??__ArrayUnwind@@YAXPEAX_KHP6AX0@Z@Z@4HA 000000014003d6d8 f   MSVCRT:ehvecdtr.obj
 0001:0003c719       ?fin$0@?0???_M@YAXPEAX_KHP6AX0@Z@Z@4HA 000000014003d719 f   MSVCRT:ehvecdtr.obj
 0001:0003c745       _onexit$fin$0              000000014003d745 f   MSVCRT:atonexit.obj
 0001:0003c760       __tmainCRTStartup$filt$0   000000014003d760 f   MSVCRT:crtexe.obj
 0001:0003c780       _IsNonwritableInCurrentImage$filt$0 000000014003d780 f   MSVCRT:pesect.obj
 0001:0003c7b0       ?dtor$0@?0??LoadFromStreamDKM@CAbstractMap@gameMap@jxcomm@@QEAA_NAEAVCBaseStream@stream@wylib@@@Z@4HA 000000014003d7b0 f    CIL library: CIL module
 0001:0003c7d0       ?dtor$1@?0??LoadFromStreamDKM@CAbstractMap@gameMap@jxcomm@@QEAA_NAEAVCBaseStream@stream@wylib@@@Z@4HA 000000014003d7d0 f    CIL library: CIL module
 0001:0003c7f0       ?dtor$0@?0??LoadFromStream@CAbstractMap@gameMap@jxcomm@@QEAA_NAEAVCBaseStream@stream@wylib@@@Z@4HA 000000014003d7f0 f    CIL library: CIL module
 0001:0003c810       ?dtor$1@?0??LoadFromStream@CAbstractMap@gameMap@jxcomm@@QEAA_NAEAVCBaseStream@stream@wylib@@@Z@4HA 000000014003d810 f    CIL library: CIL module
 0001:0003c830       ?dtor$0@?0??LoadFromFile@CAbstractMap@gameMap@jxcomm@@QEAA_NPEBD@Z@4HA 000000014003d830 f    CIL library: CIL module
 0001:0003c860       ?dtor$0@?0???0CSendPacketPool@@QEAA@XZ@4HA 000000014003d860 f    CIL library: CIL module
 0001:0003c880       ?dtor$1@?0???0CSendPacketPool@@QEAA@XZ@4HA 000000014003d880 f    CIL library: CIL module
 0001:0003c8b0       ?dtor$0@?0??removeAllocStat@CSingleObjectAllocStatMgr@@QEAAXPEBVCObjectAllocatorStat@@@Z@4HA 000000014003d8b0 f    CIL library: CIL module
 0001:0003c8d0       ?dtor$0@?0??addAllocStat@CSingleObjectAllocStatMgr@@QEAAXPEBVCObjectAllocatorStat@@@Z@4HA 000000014003d8d0 f    CIL library: CIL module
 0001:0003c8f0       ?dtor$0@?0???1CCustomLuaPreProcessor@@UEAA@XZ@4HA 000000014003d8f0 f    CIL library: CIL module
 0001:0003c910       ?dtor$1@?0???1CCustomLuaPreProcessor@@UEAA@XZ@4HA 000000014003d910 f    CIL library: CIL module
 0001:0003c930       ?dtor$2@?0???1CCustomLuaPreProcessor@@UEAA@XZ@4HA 000000014003d930 f    CIL library: CIL module
 0001:0003c950       ?dtor$3@?0???1CCustomLuaPreProcessor@@UEAA@XZ@4HA 000000014003d950 f    CIL library: CIL module
 0001:0003c970       ?dtor$4@?0???1CCustomLuaPreProcessor@@UEAA@XZ@4HA 000000014003d970 f    CIL library: CIL module
 0001:0003c990       ?dtor$5@?0???1CCustomLuaPreProcessor@@UEAA@XZ@4HA 000000014003d990 f    CIL library: CIL module
 0001:0003c9b0       ?dtor$6@?0???1CCustomLuaPreProcessor@@UEAA@XZ@4HA 000000014003d9b0 f    CIL library: CIL module
 0001:0003c9d0       ?dtor$7@?0???1CCustomLuaPreProcessor@@UEAA@XZ@4HA 000000014003d9d0 f    CIL library: CIL module
 0001:0003ca00       ?dtor$0@?0???1CSendPacketPool@@QEAA@XZ@4HA 000000014003da00 f    CIL library: CIL module
 0001:0003ca20       ?dtor$1@?0???1CSendPacketPool@@QEAA@XZ@4HA 000000014003da20 f    CIL library: CIL module
 0001:0003ca40       ?dtor$2@?0???1CSendPacketPool@@QEAA@XZ@4HA 000000014003da40 f    CIL library: CIL module
 0001:0003ca60       ?dtor$3@?0???1CSendPacketPool@@QEAA@XZ@4HA 000000014003da60 f    CIL library: CIL module
 0001:0003ca80       ?dtor$4@?0???1CSendPacketPool@@QEAA@XZ@4HA 000000014003da80 f    CIL library: CIL module
 0001:0003caa0       ?dtor$5@?0???1CSendPacketPool@@QEAA@XZ@4HA 000000014003daa0 f    CIL library: CIL module
 0001:0003cac0       ?dtor$6@?0???1CSendPacketPool@@QEAA@XZ@4HA 000000014003dac0 f    CIL library: CIL module
 0001:0003caf0       ?dtor$0@?0???1CCustomWorkSocket@@UEAA@XZ@4HA 000000014003daf0 f    CIL library: CIL module
 0001:0003cb10       ?dtor$1@?0???1CCustomWorkSocket@@UEAA@XZ@4HA 000000014003db10 f    CIL library: CIL module
 0001:0003cb30       ?dtor$2@?0???1CCustomWorkSocket@@UEAA@XZ@4HA 000000014003db30 f    CIL library: CIL module
 0001:0003cb50       ?dtor$3@?0???1CCustomWorkSocket@@UEAA@XZ@4HA 000000014003db50 f    CIL library: CIL module
 0001:0003cb70       ?dtor$4@?0???1CCustomWorkSocket@@UEAA@XZ@4HA 000000014003db70 f    CIL library: CIL module
 0001:0003cba0       ?dtor$0@?0???0CCustomWorkSocket@@QEAA@XZ@4HA 000000014003dba0 f    CIL library: CIL module
 0001:0003cbc0       ?dtor$1@?0???0CCustomWorkSocket@@QEAA@XZ@4HA 000000014003dbc0 f    CIL library: CIL module
 0001:0003cbe0       ?dtor$2@?0???0CCustomWorkSocket@@QEAA@XZ@4HA 000000014003dbe0 f    CIL library: CIL module
 0001:0003cc00       ?dtor$3@?0???0CCustomWorkSocket@@QEAA@XZ@4HA 000000014003dc00 f    CIL library: CIL module
 0001:0003cc30       ?dtor$0@?0???1CLangTextPacket@@UEAA@XZ@4HA 000000014003dc30 f    CIL library: CIL module
 0001:0003cc50       ?dtor$0@?0???1CCustomLuaScript@@UEAA@XZ@4HA 000000014003dc50 f    CIL library: CIL module
 0001:0003cc80       ?dtor$0@?0???1CCustomLuaConfig@@UEAA@XZ@4HA 000000014003dc80 f    CIL library: CIL module
 0001:0003cca0       ?dtor$1@?0???1CCustomLuaConfig@@UEAA@XZ@4HA 000000014003dca0 f    CIL library: CIL module
 0001:0003ccd0       ?dtor$0@?0??SearchAndLoadIncludeFile@CCustomLuaPreProcessor@@AEAA_NPEBD_N@Z@4HA 000000014003dcd0 f    CIL library: CIL module
 0001:0003ccf0       ?dtor$0@?0??showError@CCustomLuaPreProcessor@@MEAAXPEBD@Z@4HA 000000014003dcf0 f    CIL library: CIL module
 0001:0003cd20       ?fin$0@?0??ParseSource@CCustomLuaPreProcessor@@IEAAPEBDPEBD@Z@4HA 000000014003dd20 f    CIL library: CIL module
 0001:0003cd50       ?dtor$0@?0??showFieldDoesNotContainValue@CCustomLuaConfig@@IEAAXPEBD0@Z@4HA 000000014003dd50 f    CIL library: CIL module
 0001:0003cd70       ?dtor$0@?0??showTableNotExists@CCustomLuaConfig@@IEAAXPEBD@Z@4HA 000000014003dd70 f    CIL library: CIL module
 0001:0003cd90       ?dtor$0@?0??showError@CCustomLuaConfig@@MEAAXPEBD@Z@4HA 000000014003dd90 f    CIL library: CIL module
 0001:0003cdb0       ?dtor$0@?0??allocSendPacketList@CSendPacketPool@@QEAAXAEAV?$CBaseList@PEAVCDataPacket@@@container@wylib@@_JPEAPEAVCDataPacket@@@Z@4HA 000000014003ddb0 f    CIL library: CIL module
 0001:0003cde0       ?dtor$0@?0??SaveFileDirAndParse@CCustomLuaPreProcessor@@AEAAPEBDPEBD0@Z@4HA 000000014003dde0 f    CIL library: CIL module
 0001:0003ce00       ?dtor$0@?0???0CTimeProfMgr@@QEAA@XZ@4HA 000000014003de00 f    CIL library: CIL module
 0001:0003ce20       ?dtor$1@?0???0CTimeProfMgr@@QEAA@XZ@4HA 000000014003de20 f    CIL library: CIL module
 0001:0003ce40       ?dtor$2@?0???0CTimeProfMgr@@QEAA@XZ@4HA 000000014003de40 f    CIL library: CIL module
 0001:0003ce60       ?dtor$3@?0???0CTimeProfMgr@@QEAA@XZ@4HA 000000014003de60 f    CIL library: CIL module
 0001:0003ce80       ?dtor$4@?0???0CTimeProfMgr@@QEAA@XZ@4HA 000000014003de80 f    CIL library: CIL module
 0001:0003ceb0       ?dtor$0@?0??LoadIncludeFile@CCustomLuaPreProcessor@@AEAA_NPEBD_N@Z@4HA 000000014003deb0 f    CIL library: CIL module
 0001:0003ced0       ?dtor$0@?0???1CTimeProfRecord@@QEAA@XZ@4HA 000000014003ded0 f    CIL library: CIL module
 0001:0003cef0       ?dtor$1@?0???1CTimeProfRecord@@QEAA@XZ@4HA 000000014003def0 f    CIL library: CIL module
 0001:0003cf20       ?dtor$0@?0???1CTimeProfMgr@@QEAA@XZ@4HA 000000014003df20 f    CIL library: CIL module
 0001:0003cf40       ?dtor$1@?0???1CTimeProfMgr@@QEAA@XZ@4HA 000000014003df40 f    CIL library: CIL module
 0001:0003cf60       ?dtor$2@?0???1CTimeProfMgr@@QEAA@XZ@4HA 000000014003df60 f    CIL library: CIL module
 0001:0003cf80       ?dtor$3@?0???1CTimeProfMgr@@QEAA@XZ@4HA 000000014003df80 f    CIL library: CIL module
 0001:0003cfa0       ?dtor$4@?0???1CTimeProfMgr@@QEAA@XZ@4HA 000000014003dfa0 f    CIL library: CIL module
 0001:0003cfc0       ?dtor$0@?0???1CSingleObjectAllocStatMgr@@QEAA@XZ@4HA 000000014003dfc0 f    CIL library: CIL module
 0001:0003cfe0       ?dtor$0@?0???1CDataPacket@@QEAA@XZ@4HA 000000014003dfe0 f    CIL library: CIL module
 0001:0003d000       ?dtor$0@?0??getSingleton@CounterManager@@SAAEAV1@XZ@4HA 000000014003e000 f    CIL library: CIL module
 0001:0003d020       ?dtor$0@?0???YCAnsiString@string@wylib@@QEAAXPEBD@Z@4HA 000000014003e020 f    CIL library: CIL module
 0001:0003d040       ?dtor$0@?0??allocNode@?$CBaseLinkedList@PEBVCObjectAllocatorStat@@@container@wylib@@MEAAPEAV?$CLinkedNode@PEBVCObjectAllocatorStat@@@23@XZ@4HA 000000014003e040 f    CIL library: CIL module
 0001:0003d060       ?dtor$0@?0???0?$CTRefString@VCAnsiString@string@wylib@@D@string@wylib@@QEAA@AEBV012@@Z@4HA 000000014003e060 f    CIL library: CIL module
 0001:0003d080       ?dtor$0@?0??allocTimeProfRecord@CTimeProfMgr@@IEAAXXZ@4HA 000000014003e080 f    CIL library: CIL module
 0001:0003d0a0       ?dtor$0@?0??getThreadInst@CTimeProfMgr@@QEAAPEAV1@XZ@4HA 000000014003e0a0 f    CIL library: CIL module
 0001:0003d0c0       ??__ERegistedTypeId@CLangTextSectionExport@@YAXXZ 000000014003e0c0 f    CIL library: CIL module
 0001:0003d0e0       ??__ERegistedRefTypeId@CLangTextSectionExport@@YAXXZ 000000014003e0e0 f    CIL library: CIL module
 0001:0003d100       ??__E?sLoader@CConfigLoader@@0QBUDataProviderLoadTerm@1@B@@YAXXZ 000000014003e100 f   ConfigLoader.obj
 0001:0003d1c0       ??__EINVALID_ENTITY_HANDLE@@YAXXZ 000000014003e1c0 f   StdAfx.obj
 0001:0003d1f0       ??__EmmPeriod@@YAXXZ       000000014003e1f0 f   wylib_x64:Tick.obj
 0001:0003d210       ??__EllStartTick@@YAXXZ    000000014003e210 f   wylib_x64:Tick.obj
 0001:0003d230       ??__EdwLastShortTick@@YAXXZ 000000014003e230 f   wylib_x64:Tick.obj
 0001:0003d290       ??__FINVALID_ENTITY_HANDLE@@YAXXZ 000000014003e290 f   StdAfx.obj
