 DBServer64_R

 Timestamp is 577a2379 (Mon Jul 04 16:51:05 2016)

 Preferred load address is 0000000140000000

 Start         Length     Name                   Class
 0001:00000000 000678acH .text                   CODE
 0001:000678b0 000047c6H .text$x                 CODE
 0001:0006c080 00000125H .text$yc                CODE
 0001:0006c1b0 00000095H .text$yd                CODE
 0002:00000000 00000808H .idata$5                DATA
 0002:00000808 00000008H .CRT$XCA                DATA
 0002:00000810 00000008H .CRT$XCAA               DATA
 0002:00000818 00000038H .CRT$XCU                DATA
 0002:00000850 00000008H .CRT$XCZ                DATA
 0002:00000858 00000008H .CRT$XIA                DATA
 0002:00000860 00000008H .CRT$XIAA               DATA
 0002:00000868 00000008H .CRT$XIY                DATA
 0002:00000870 00000008H .CRT$XIZ                DATA
 0002:00000880 0000e8a8H .rdata                  DATA
 0002:0000f128 00000057H .rdata$debug            DATA
 0002:0000f180 000025f4H .rdata$r                DATA
 0002:00011778 00000008H .rtc$IAA                DATA
 0002:00011780 00000008H .rtc$IZZ                DATA
 0002:00011788 00000008H .rtc$TAA                DATA
 0002:00011790 00000008H .rtc$TZZ                DATA
 0002:00011798 00007eb0H .xdata                  DATA
 0002:00019648 00000194H .xdata$x                DATA
 0002:000197dc 000000dcH .idata$2                DATA
 0002:000198b8 00000014H .idata$3                DATA
 0002:000198d0 00000808H .idata$4                DATA
 0002:0001a0d8 00000e18H .idata$6                DATA
 0002:0001aef0 00000000H .edata                  DATA
 0003:00000000 000021e0H .data                   DATA
 0003:000021e0 00034e18H .bss                    DATA
 0004:00000000 00006960H .pdata                  DATA

  Address         Publics by Value              Rva+Base               Lib:Object

 0000:00000000       ___safe_se_handler_table   0000000000000000     <absolute>
 0000:00000000       ___safe_se_handler_count   0000000000000000     <absolute>
 0000:00000000       __ImageBase                0000000140000000     <linker-defined>
 0001:00000000       _tcsstr                    0000000140001000 f i srvlib_x64:TimeStat.obj
 0001:00000030       ??2@YAPEAX_KPEAX@Z         0000000140001030 f i srvlib_x64:TimeStat.obj
 0001:00000040       ??0CounterNode@CounterManager@@QEAA@XZ 0000000140001040 f i srvlib_x64:TimeStat.obj
 0001:00000070       ??0CounterNode@CounterManager@@QEAA@PEBDPEAX_K@Z 0000000140001070 f i srvlib_x64:TimeStat.obj
 0001:00000230       ??4CounterNode@CounterManager@@QEAAAEAU01@AEBU01@@Z 0000000140001230 f i srvlib_x64:TimeStat.obj
 0001:00000260       ?getSingleton@CounterManager@@SAAEAV1@XZ 0000000140001260 f i srvlib_x64:TimeStat.obj
 0001:000002b0       ??0CounterManager@@QEAA@XZ 00000001400012b0 f i srvlib_x64:TimeStat.obj
 0001:00000300       ?addObjectCounter@CounterManager@@QEAAXPEBDPEAX_K@Z 0000000140001300 f i srvlib_x64:TimeStat.obj
 0001:000003c0       ??_H@YAXPEAX_KHP6APEAX0@Z@Z 00000001400013c0 f i srvlib_x64:TimeStat.obj
 0001:00000410       ??0CTimeProfRecord@@QEAA@XZ 0000000140001410 f i srvlib_x64:TimeStat.obj
 0001:00000440       ?addChild@CTimeProfRecord@@QEAAXPEAV1@@Z 0000000140001440 f i srvlib_x64:TimeStat.obj
 0001:00000470       ?getChildByHash@CTimeProfRecord@@QEAAPEAV1@H@Z 0000000140001470 f i srvlib_x64:TimeStat.obj
 0001:00000500       ?reset@CTimeProfRecord@@QEAAX_N@Z 0000000140001500 f i srvlib_x64:TimeStat.obj
 0001:00000580       ?reInitBasicData@CTimeProfRecord@@QEAAXPEBDI@Z 0000000140001580 f i srvlib_x64:TimeStat.obj
 0001:000006b0       ?startProf@CTimeProfRecord@@QEAAXXZ 00000001400016b0 f i srvlib_x64:TimeStat.obj
 0001:00000700       ?endProf@CTimeProfRecord@@QEAAXXZ 0000000140001700 f i srvlib_x64:TimeStat.obj
 0001:000007e0       ?getSingleton@CTimeProfMgr@@SAAEAV1@XZ 00000001400017e0 f i srvlib_x64:TimeStat.obj
 0001:00000830       ?getThreadInst@CTimeProfMgr@@QEAAPEAV1@XZ 0000000140001830 f i srvlib_x64:TimeStat.obj
 0001:00000960       ?OnTimeProfRecordStart@CTimeProfMgr@@QEAAXPEAVCTimeProfRecord@@@Z 0000000140001960 f i srvlib_x64:TimeStat.obj
 0001:00000990       ?OnTimeProfRecordEnd@CTimeProfMgr@@QEAAXPEAVCTimeProfRecord@@@Z 0000000140001990 f i srvlib_x64:TimeStat.obj
 0001:000009b0       ?GetExeUnitCount@CTimeProfMgr@@QEAA_JXZ 00000001400019b0 f i srvlib_x64:TimeStat.obj
 0001:000009d0       ?getCurrTimeProfRecord@CTimeProfMgr@@QEAAPEAVCTimeProfRecord@@XZ 00000001400019d0 f i srvlib_x64:TimeStat.obj
 0001:00000a10       ?allocRecord@CTimeProfMgr@@QEAAPEAVCTimeProfRecord@@XZ 0000000140001a10 f i srvlib_x64:TimeStat.obj
 0001:00000a60       ?freeRecord@CTimeProfMgr@@QEAAXPEAVCTimeProfRecord@@@Z 0000000140001a60 f i srvlib_x64:TimeStat.obj
 0001:00000a90       ?clear@CTimeProfMgr@@QEAAXXZ 0000000140001a90 f i srvlib_x64:TimeStat.obj
 0001:00000c30       ?allocTimeProfRecord@CTimeProfMgr@@IEAAXXZ 0000000140001c30 f i srvlib_x64:TimeStat.obj
 0001:00000ce0       ?setThreadId@CTimeProfMgr@@IEAAXK@Z 0000000140001ce0 f i srvlib_x64:TimeStat.obj
 0001:00000d00       ??_GCTimeProfRecord@@QEAAPEAXI@Z 0000000140001d00 f i srvlib_x64:TimeStat.obj
 0001:00000d40       ??_GCTimeProfMgr@@QEAAPEAXI@Z 0000000140001d40 f i srvlib_x64:TimeStat.obj
 0001:00000d80       ??0?$Counter@VCTimeProfDummy@@@@QEAA@XZ 0000000140001d80 f i srvlib_x64:TimeStat.obj
 0001:00000da0       ??1?$Counter@VCTimeProfDummy@@@@QEAA@XZ 0000000140001da0 f i srvlib_x64:TimeStat.obj
 0001:00000dc0       ??0?$Counter@VCTimeProfRecord@@@@QEAA@XZ 0000000140001dc0 f i srvlib_x64:TimeStat.obj
 0001:00000de0       ??1?$Counter@VCTimeProfRecord@@@@QEAA@XZ 0000000140001de0 f i srvlib_x64:TimeStat.obj
 0001:00000e00       ??0?$CBaseList@PEAVCTimeProfRecord@@@container@wylib@@QEAA@XZ 0000000140001e00 f i srvlib_x64:TimeStat.obj
 0001:00000e50       ??1?$CBaseList@PEAVCTimeProfRecord@@@container@wylib@@UEAA@XZ 0000000140001e50 f i srvlib_x64:TimeStat.obj
 0001:00000e80       ?reserve@?$CBaseList@PEBD@container@wylib@@UEAAX_J@Z 0000000140001e80 f i srvlib_x64:NameAllocator.obj
 0001:00000e80       ?reserve@?$CBaseList@PEAUNameOperateData@CNameSyncClient@@@container@wylib@@UEAAX_J@Z 0000000140001e80 f i DBNSClient.obj
 0001:00000e80       ?reserve@?$CBaseList@PEAUtagGameServerRoute@jxSrvDef@@@container@wylib@@UEAAX_J@Z 0000000140001e80 f i DBServer.obj
 0001:00000e80       ?reserve@?$CBaseList@PEAVCDataPacket@@@container@wylib@@UEAAX_J@Z 0000000140001e80 f i srvlib_x64:SendPackPool.obj
 0001:00000e80       ?reserve@?$CBaseList@PEATtagASyncNameOPData@CDBDataClient@@@container@wylib@@UEAAX_J@Z 0000000140001e80 f i DBDataClient.obj
 0001:00000e80       ?reserve@?$CBaseList@PEAVCTimeProfMgr@@@container@wylib@@UEAAX_J@Z 0000000140001e80 f i srvlib_x64:TimeStat.obj
 0001:00000e80       ?reserve@?$CBaseList@PEAVCDBDataClient@@@container@wylib@@UEAAX_J@Z 0000000140001e80 f i DBDataServer.obj
 0001:00000e80       ?reserve@?$CBaseList@PEAV?$CRefObjectImpl@VCAnsiString@string@wylib@@@misc@wylib@@@container@wylib@@UEAAX_J@Z 0000000140001e80 f i srvlib_x64:CustomLuaConfig.obj
 0001:00000e80       ?reserve@?$CBaseList@PEAVCTimeProfRecord@@@container@wylib@@UEAAX_J@Z 0000000140001e80 f i srvlib_x64:TimeStat.obj
 0001:00000e80       ?reserve@?$CBaseList@PEAUtagAppInternalMessage@@@container@wylib@@UEAAX_J@Z 0000000140001e80 f i srvlib_x64:CustomWorkSocket.obj
 0001:00000e80       ?reserve@?$CBaseList@PEAVCCustomServerClientSocket@@@container@wylib@@UEAAX_J@Z 0000000140001e80 f i srvlib_x64:CustomServerSocket.obj
 0001:00000ef0       ?push@?$CBaseList@PEAVCTimeProfRecord@@@container@wylib@@QEAA_JAEBQEAVCTimeProfRecord@@@Z 0000000140001ef0 f i srvlib_x64:TimeStat.obj
 0001:00000f20       ??0?$CBaseList@PEAVCTimeProfMgr@@@container@wylib@@QEAA@XZ 0000000140001f20 f i srvlib_x64:TimeStat.obj
 0001:00000f70       ??1?$CBaseList@PEAVCTimeProfMgr@@@container@wylib@@UEAA@XZ 0000000140001f70 f i srvlib_x64:TimeStat.obj
 0001:00000fa0       ??_E?$CBaseList@PEAVCTimeProfRecord@@@container@wylib@@UEAAPEAXI@Z 0000000140001fa0 f i  CIL library: CIL module
 0001:00000fa0       ??_G?$CBaseList@PEAVCTimeProfRecord@@@container@wylib@@UEAAPEAXI@Z 0000000140001fa0 f i srvlib_x64:TimeStat.obj
 0001:00000fe0       ??_E?$CBaseList@PEAVCTimeProfMgr@@@container@wylib@@UEAAPEAXI@Z 0000000140001fe0 f i  CIL library: CIL module
 0001:00000fe0       ??_G?$CBaseList@PEAVCTimeProfMgr@@@container@wylib@@UEAAPEAXI@Z 0000000140001fe0 f i srvlib_x64:TimeStat.obj
 0001:00001020       ?addToStat@?$Counter@VCTimeProfDummy@@@@IEAAXXZ 0000000140002020 f i srvlib_x64:TimeStat.obj
 0001:00001080       ?addToStat@?$Counter@VCTimeProfRecord@@@@IEAAXXZ 0000000140002080 f i srvlib_x64:TimeStat.obj
 0001:000010e0       ?getCount@?$Counter@VCTimeProfDummy@@@@SA_KXZ 00000001400020e0 f i srvlib_x64:TimeStat.obj
 0001:000010f0       ?getCount@?$Counter@VCTimeProfRecord@@@@SA_KXZ 00000001400020f0 f i srvlib_x64:TimeStat.obj
 0001:00001100       ??$strcpy_s@$0EA@@@YAHAEAY0EA@DPEBD@Z 0000000140002100 f i srvlib_x64:TimeStat.obj
 0001:00001130       ??$sprintf_s@$0CAA@@@YAHAEAY0CAA@DPEBDZZ 0000000140002130 f i srvlib_x64:TimeStat.obj
 0001:00001180       ??$sprintf_s@$0EA@@@YAHAEAY0EA@DPEBDZZ 0000000140002180 f i srvlib_x64:TimeStat.obj
 0001:000011d0       ?GetAccessViolationOperationName@@YAPEBD_K@Z 00000001400021d0 f i srvlib_x64:DefExceptHander.obj
 0001:00001220       ??0StackWalkerInternal@@QEAA@PEAVStackWalker@@PEAX@Z 0000000140002220 f i srvlib_x64:StackWalker.obj
 0001:00001320       ??1StackWalkerInternal@@QEAA@XZ 0000000140002320 f i srvlib_x64:StackWalker.obj
 0001:000013b0       ?Init@StackWalkerInternal@@QEAAHPEBD@Z 00000001400023b0 f i srvlib_x64:StackWalker.obj
 0001:00001a20       ?GetModuleListTH32@StackWalkerInternal@@AEAAHPEAXK@Z 0000000140002a20 f i srvlib_x64:StackWalker.obj
 0001:00001c80       ?GetModuleListPSAPI@StackWalkerInternal@@AEAAHPEAX@Z 0000000140002c80 f i srvlib_x64:StackWalker.obj
 0001:00001fe0       ?LoadModule@StackWalkerInternal@@AEAAKPEAXPEBD1_KK@Z 0000000140002fe0 f i srvlib_x64:StackWalker.obj
 0001:00002390       ?LoadModules@StackWalkerInternal@@QEAAHPEAXK@Z 0000000140003390 f i srvlib_x64:StackWalker.obj
 0001:000023e0       ?GetModuleInfo@StackWalkerInternal@@QEAAHPEAX_KPEAUIMAGEHLP_MODULE64_V2@1@@Z 00000001400033e0 f i srvlib_x64:StackWalker.obj
 0001:000024d0       ??_GStackWalker@@UEAAPEAXI@Z 00000001400034d0 f i srvlib_x64:StackWalker.obj
 0001:000024d0       ??_EStackWalker@@UEAAPEAXI@Z 00000001400034d0 f i  CIL library: CIL module
 0001:00002510       ??_GStackWalkerInternal@@QEAAPEAXI@Z 0000000140003510 f i srvlib_x64:StackWalker.obj
 0001:00002550       ??$strcat_s@$0BAAA@@@YAHAEAY0BAAA@DPEBD@Z 0000000140003550 f i srvlib_x64:StackWalker.obj
 0001:00002580       ??$strcpy_s@$0EAA@@@YAHAEAY0EAA@DPEBD@Z 0000000140003580 f i srvlib_x64:StackWalker.obj
 0001:000025b0       ??$_snprintf_s@$0EAA@@@YAHAEAY0EAA@D_KPEBDZZ 00000001400035b0 f i srvlib_x64:StackWalker.obj
 0001:00002600       _tcsncpy                   0000000140003600 f i srvlib_x64:CustomClientSocket.obj
 0001:00002630       ?connected@CCustomSocket@socket@inet@wylib@@QEAA_NXZ 0000000140003630 f i srvlib_x64:CustomClientSocket.obj
 0001:00002640       ?CheckMemory@CSendPacketPool@@QEAAX_NH@Z 0000000140003640 f i srvlib_x64:CustomClientSocket.obj
 0001:000026c0       ??_ECCustomClientSocket@@UEAAPEAXI@Z 00000001400036c0 f i  CIL library: CIL module
 0001:000026c0       ??_GCCustomClientSocket@@UEAAPEAXI@Z 00000001400036c0 f i srvlib_x64:CustomClientSocket.obj
 0001:00002700       ?getLength@CDataPacketReader@@QEAA_KXZ 0000000140003700 f i srvlib_x64:CustomWorkSocket.obj
 0001:00002720       ?writeBuf@CDataPacket@@QEAAXPEBX_K@Z 0000000140003720 f i srvlib_x64:CustomWorkSocket.obj
 0001:000027e0       ?setLength@CDataPacket@@QEAAX_K@Z 00000001400037e0 f i srvlib_x64:CustomWorkSocket.obj
 0001:00002860       ?setPosition@CDataPacket@@QEAA_K_K@Z 0000000140003860 f i srvlib_x64:CustomWorkSocket.obj
 0001:000028f0       ?setSize@CDataPacket@@IEAAX_K@Z 00000001400038f0 f i srvlib_x64:CustomWorkSocket.obj
 0001:00002a30       ?allocSendPacket@CSendPacketPool@@QEAAAEAVCDataPacket@@XZ 0000000140003a30 f i srvlib_x64:CustomWorkSocket.obj
 0001:00002a70       ?flushSendPacket@CSendPacketPool@@QEAAXAEAVCDataPacket@@@Z 0000000140003a70 f i srvlib_x64:CustomWorkSocket.obj
 0001:00002b20       ??_GCCustomWorkSocket@@UEAAPEAXI@Z 0000000140003b20 f i srvlib_x64:CustomWorkSocket.obj
 0001:00002b20       ??_ECCustomWorkSocket@@UEAAPEAXI@Z 0000000140003b20 f i  CIL library: CIL module
 0001:00002b60       ??0?$CQueueList@PEAUtagAppInternalMessage@@@container@wylib@@QEAA@XZ 0000000140003b60 f i srvlib_x64:CustomWorkSocket.obj
 0001:00002ba0       ??1?$CQueueList@PEAUtagAppInternalMessage@@@container@wylib@@UEAA@XZ 0000000140003ba0 f i srvlib_x64:CustomWorkSocket.obj
 0001:00002bd0       ??_E?$CQueueList@PEAUtagAppInternalMessage@@@container@wylib@@UEAAPEAXI@Z 0000000140003bd0 f i  CIL library: CIL module
 0001:00002bd0       ??_G?$CQueueList@PEAUtagAppInternalMessage@@@container@wylib@@UEAAPEAXI@Z 0000000140003bd0 f i srvlib_x64:CustomWorkSocket.obj
 0001:00002c10       ??1?$CLockList@PEAUtagAppInternalMessage@@@container@wylib@@UEAA@XZ 0000000140003c10 f i srvlib_x64:CustomWorkSocket.obj
 0001:00002c30       ?append@?$CQueueList@PEAVCCustomServerClientSocket@@@container@wylib@@QEAAXAEBQEAVCCustomServerClientSocket@@@Z 0000000140003c30 f i srvlib_x64:CustomServerSocket.obj
 0001:00002c30       ?append@?$CQueueList@PEAUtagAppInternalMessage@@@container@wylib@@QEAAXAEBQEAUtagAppInternalMessage@@@Z 0000000140003c30 f i srvlib_x64:CustomWorkSocket.obj
 0001:00002c30       ?append@?$CQueueList@PEAVCDataPacket@@@container@wylib@@QEAAXAEBQEAVCDataPacket@@@Z 0000000140003c30 f i srvlib_x64:CustomWorkSocket.obj
 0001:00002c70       ?unlock@?$CLockList@PEAUNameOperateData@CNameSyncClient@@@container@wylib@@QEAAXXZ 0000000140003c70 f i DBNSClient.obj
 0001:00002c70       ?unlock@?$CLockList@PEAVCDataPacket@@@container@wylib@@QEAAXXZ 0000000140003c70 f i srvlib_x64:CustomWorkSocket.obj
 0001:00002c70       ?unlock@?$CLockList@PEATtagASyncNameOPData@CDBDataClient@@@container@wylib@@QEAAXXZ 0000000140003c70 f i DBDataClient.obj
 0001:00002c70       ?unlock@?$CLockList@PEAUtagGameServerRoute@jxSrvDef@@@container@wylib@@QEAAXXZ 0000000140003c70 f i DBServer.obj
 0001:00002c70       ?unlock@?$CLockList@PEAUtagAppInternalMessage@@@container@wylib@@QEAAXXZ 0000000140003c70 f i srvlib_x64:CustomWorkSocket.obj
 0001:00002c70       ?unlock@?$CLockList@PEAVCCustomServerClientSocket@@@container@wylib@@QEAAXXZ 0000000140003c70 f i srvlib_x64:CustomServerSocket.obj
 0001:00002cb0       ??0?$CLockList@PEAUtagAppInternalMessage@@@container@wylib@@QEAA@PEAVCBaseLock@lock@sync@2@@Z 0000000140003cb0 f i srvlib_x64:CustomWorkSocket.obj
 0001:00002cf0       ??0?$CBaseList@PEAUtagAppInternalMessage@@@container@wylib@@QEAA@XZ 0000000140003cf0 f i srvlib_x64:CustomWorkSocket.obj
 0001:00002d40       ??1?$CBaseList@PEAUtagAppInternalMessage@@@container@wylib@@UEAA@XZ 0000000140003d40 f i srvlib_x64:CustomWorkSocket.obj
 0001:00002d70       ?clear@?$CBaseList@PEAVCTimeProfMgr@@@container@wylib@@QEAAXXZ 0000000140003d70 f i srvlib_x64:TimeStat.obj
 0001:00002d70       ?clear@?$CBaseList@VCActorCacheData@@@container@wylib@@QEAAXXZ 0000000140003d70 f i DBDataCache.obj
 0001:00002d70       ?clear@?$CBaseList@PEAV?$CRefObjectImpl@VCAnsiString@string@wylib@@@misc@wylib@@@container@wylib@@QEAAXXZ 0000000140003d70 f i srvlib_x64:CustomLuaConfig.obj
 0001:00002d70       ?clear@?$CBaseList@H@container@wylib@@QEAAXXZ 0000000140003d70 f i DBDataServer.obj
 0001:00002d70       ?clear@?$CBaseList@UPlayerZYDistribute@@@container@wylib@@QEAAXXZ 0000000140003d70 f i DBDataServer.obj
 0001:00002d70       ?clear@?$CBaseList@UtagDbEsql@@@container@wylib@@QEAAXXZ 0000000140003d70 f i EsqlMgr.obj
 0001:00002d70       ?clear@?$CBaseList@PEAUtagGameServerRoute@jxSrvDef@@@container@wylib@@QEAAXXZ 0000000140003d70 f i DBServer.obj
 0001:00002d70       ?clear@?$CBaseList@V?$Handle@I@@@container@wylib@@QEAAXXZ 0000000140003d70 f i DBDataCache.obj
 0001:00002d70       ?clear@?$CBaseList@PEAUtagAppInternalMessage@@@container@wylib@@QEAAXXZ 0000000140003d70 f i srvlib_x64:CustomWorkSocket.obj
 0001:00002d70       ?clear@?$CBaseList@PEATtagASyncNameOPData@CDBDataClient@@@container@wylib@@QEAAXXZ 0000000140003d70 f i DBDataClient.obj
 0001:00002d70       ?clear@?$CBaseList@PEBD@container@wylib@@QEAAXXZ 0000000140003d70 f i srvlib_x64:NameAllocator.obj
 0001:00002d70       ?clear@?$CBaseList@PEAVCTimeProfRecord@@@container@wylib@@QEAAXXZ 0000000140003d70 f i srvlib_x64:TimeStat.obj
 0001:00002d70       ?clear@?$CBaseList@PEAVCDBDataClient@@@container@wylib@@QEAAXXZ 0000000140003d70 f i DBDataServer.obj
 0001:00002d70       ?clear@?$CBaseList@PEAVCDataPacket@@@container@wylib@@QEAAXXZ 0000000140003d70 f i srvlib_x64:SendPackPool.obj
 0001:00002d70       ?clear@?$CBaseList@_N@container@wylib@@QEAAXXZ 0000000140003d70 f i srvlib_x64:NameAllocator.obj
 0001:00002d70       ?clear@?$CBaseList@PEAUNameOperateData@CNameSyncClient@@@container@wylib@@QEAAXXZ 0000000140003d70 f i DBNSClient.obj
 0001:00002d70       ?clear@?$CBaseList@UPlayerJobDistribute@@@container@wylib@@QEAAXXZ 0000000140003d70 f i DBDataServer.obj
 0001:00002d70       ?clear@?$CBaseList@V?$CBaseList@VCActorCacheData@@@container@wylib@@@container@wylib@@QEAAXXZ 0000000140003d70 f i DBDataCache.obj
 0001:00002d70       ?clear@?$CBaseList@V?$CBaseList@V?$Handle@I@@@container@wylib@@@container@wylib@@QEAAXXZ 0000000140003d70 f i DBDataCache.obj
 0001:00002d70       ?clear@?$CBaseList@I@container@wylib@@QEAAXXZ 0000000140003d70 f i DBDataCache.obj
 0001:00002d70       ?clear@?$CBaseList@PEAVCCustomServerClientSocket@@@container@wylib@@QEAAXXZ 0000000140003d70 f i srvlib_x64:CustomServerSocket.obj
 0001:00002d70       ?clear@?$CBaseList@UPlayerNameDistribute@@@container@wylib@@QEAAXXZ 0000000140003d70 f i DBDataServer.obj
 0001:00002d90       ??_E?$CLockList@PEAUtagAppInternalMessage@@@container@wylib@@UEAAPEAXI@Z 0000000140003d90 f i  CIL library: CIL module
 0001:00002d90       ??_G?$CLockList@PEAUtagAppInternalMessage@@@container@wylib@@UEAAPEAXI@Z 0000000140003d90 f i srvlib_x64:CustomWorkSocket.obj
 0001:00002dd0       ??_E?$CBaseList@PEAUtagAppInternalMessage@@@container@wylib@@UEAAPEAXI@Z 0000000140003dd0 f i  CIL library: CIL module
 0001:00002dd0       ??_G?$CBaseList@PEAUtagAppInternalMessage@@@container@wylib@@UEAAPEAXI@Z 0000000140003dd0 f i srvlib_x64:CustomWorkSocket.obj
 0001:00002e10       ?lock@?$CLockList@PEAUtagGameServerRoute@jxSrvDef@@@container@wylib@@QEAAXXZ 0000000140003e10 f i DBServer.obj
 0001:00002e10       ?lock@?$CLockList@PEAVCDataPacket@@@container@wylib@@QEAAXXZ 0000000140003e10 f i srvlib_x64:CustomWorkSocket.obj
 0001:00002e10       ?lock@?$CLockList@PEAUNameOperateData@CNameSyncClient@@@container@wylib@@QEAAXXZ 0000000140003e10 f i DBNSClient.obj
 0001:00002e10       ?lock@?$CLockList@PEAVCCustomServerClientSocket@@@container@wylib@@QEAAXXZ 0000000140003e10 f i srvlib_x64:CustomServerSocket.obj
 0001:00002e10       ?lock@?$CLockList@PEATtagASyncNameOPData@CDBDataClient@@@container@wylib@@QEAAXXZ 0000000140003e10 f i DBDataClient.obj
 0001:00002e10       ?lock@?$CLockList@PEAUtagAppInternalMessage@@@container@wylib@@QEAAXXZ 0000000140003e10 f i srvlib_x64:CustomWorkSocket.obj
 0001:00002e50       ?add@?$CBaseList@PEAVCTimeProfMgr@@@container@wylib@@QEAA_JAEBQEAVCTimeProfMgr@@@Z 0000000140003e50 f i srvlib_x64:TimeStat.obj
 0001:00002e50       ?add@?$CBaseList@PEAVCCustomServerClientSocket@@@container@wylib@@QEAA_JAEBQEAVCCustomServerClientSocket@@@Z 0000000140003e50 f i srvlib_x64:CustomServerSocket.obj
 0001:00002e50       ?add@?$CBaseList@PEBD@container@wylib@@QEAA_JAEBQEBD@Z 0000000140003e50 f i srvlib_x64:NameAllocator.obj
 0001:00002e50       ?add@?$CBaseList@PEAV?$CRefObjectImpl@VCAnsiString@string@wylib@@@misc@wylib@@@container@wylib@@QEAA_JAEBQEAV?$CRefObjectImpl@VCAnsiString@string@wylib@@@misc@3@@Z 0000000140003e50 f i srvlib_x64:CustomLuaConfig.obj
 0001:00002e50       ?add@?$CBaseList@PEAVCTimeProfRecord@@@container@wylib@@QEAA_JAEBQEAVCTimeProfRecord@@@Z 0000000140003e50 f i srvlib_x64:TimeStat.obj
 0001:00002e50       ?add@?$CBaseList@PEAVCDataPacket@@@container@wylib@@QEAA_JAEBQEAVCDataPacket@@@Z 0000000140003e50 f i srvlib_x64:CustomWorkSocket.obj
 0001:00002e50       ?add@?$CBaseList@PEAUtagAppInternalMessage@@@container@wylib@@QEAA_JAEBQEAUtagAppInternalMessage@@@Z 0000000140003e50 f i srvlib_x64:CustomWorkSocket.obj
 0001:00002f00       ?addArray@?$CBaseList@PEAUtagAppInternalMessage@@@container@wylib@@QEAAXPEAPEAUtagAppInternalMessage@@_J@Z 0000000140003f00 f i srvlib_x64:CustomWorkSocket.obj
 0001:00002f00       ?addArray@?$CBaseList@PEAVCCustomServerClientSocket@@@container@wylib@@QEAAXPEAPEAVCCustomServerClientSocket@@_J@Z 0000000140003f00 f i srvlib_x64:CustomServerSocket.obj
 0001:00002f00       ?addArray@?$CBaseList@PEAVCDataPacket@@@container@wylib@@QEAAXPEAPEAVCDataPacket@@_J@Z 0000000140003f00 f i srvlib_x64:SendPackPool.obj
 0001:00002fa0       ?getAvaliableLength@CDataPacketReader@@QEAA_KXZ 0000000140003fa0 f i srvlib_x64:SendPackPool.obj
 0001:00002fc0       ??0CDataPacketReader@@QEAA@XZ 0000000140003fc0 f i srvlib_x64:SendPackPool.obj
 0001:00003000       ?adjustOffset@CDataPacket@@QEAA_K_J@Z 0000000140004000 f i srvlib_x64:SendPackPool.obj
 0001:000030c0       ?getMemorySize@CDataPacket@@QEAA_KXZ 00000001400040c0 f i srvlib_x64:SendPackPool.obj
 0001:000030e0       ??0CDataPacket@@QEAA@PEAVCBufferAllocator@@@Z 00000001400040e0 f i srvlib_x64:SendPackPool.obj
 0001:00003130       ??1CDataPacket@@QEAA@XZ    0000000140004130 f i srvlib_x64:SendPackPool.obj
 0001:000031c0       ??0?$CQueueList@PEAVCDataPacket@@@container@wylib@@QEAA@XZ 00000001400041c0 f i srvlib_x64:SendPackPool.obj
 0001:00003200       ??1?$CQueueList@PEAVCDataPacket@@@container@wylib@@UEAA@XZ 0000000140004200 f i srvlib_x64:SendPackPool.obj
 0001:00003230       ??1?$CLockList@PEAVCDataPacket@@@container@wylib@@UEAA@XZ 0000000140004230 f i srvlib_x64:SendPackPool.obj
 0001:00003250       ??_G?$CQueueList@PEAVCDataPacket@@@container@wylib@@UEAAPEAXI@Z 0000000140004250 f i srvlib_x64:SendPackPool.obj
 0001:00003250       ??_E?$CQueueList@PEAVCDataPacket@@@container@wylib@@UEAAPEAXI@Z 0000000140004250 f i  CIL library: CIL module
 0001:00003290       ??_GCDataPacket@@QEAAPEAXI@Z 0000000140004290 f i srvlib_x64:SendPackPool.obj
 0001:000032d0       ??0?$Counter@VCDataPacket@@@@QEAA@XZ 00000001400042d0 f i srvlib_x64:SendPackPool.obj
 0001:000032f0       ??1?$Counter@VCDataPacket@@@@QEAA@XZ 00000001400042f0 f i srvlib_x64:SendPackPool.obj
 0001:00003310       ?flush@?$CQueueList@PEAUtagAppInternalMessage@@@container@wylib@@QEAAXXZ 0000000140004310 f i srvlib_x64:CustomWorkSocket.obj
 0001:00003310       ?flush@?$CQueueList@PEAVCCustomServerClientSocket@@@container@wylib@@QEAAXXZ 0000000140004310 f i srvlib_x64:CustomServerSocket.obj
 0001:00003310       ?flush@?$CQueueList@PEAVCDataPacket@@@container@wylib@@QEAAXXZ 0000000140004310 f i srvlib_x64:SendPackPool.obj
 0001:00003380       ??0?$CLockList@PEAVCDataPacket@@@container@wylib@@QEAA@PEAVCBaseLock@lock@sync@2@@Z 0000000140004380 f i srvlib_x64:SendPackPool.obj
 0001:000033c0       ??0?$CBaseList@PEAVCDataPacket@@@container@wylib@@QEAA@XZ 00000001400043c0 f i srvlib_x64:SendPackPool.obj
 0001:00003410       ??1?$CBaseList@PEAVCDataPacket@@@container@wylib@@UEAA@XZ 0000000140004410 f i srvlib_x64:SendPackPool.obj
 0001:00003440       ??_G?$CLockList@PEAVCDataPacket@@@container@wylib@@UEAAPEAXI@Z 0000000140004440 f i srvlib_x64:SendPackPool.obj
 0001:00003440       ??_E?$CLockList@PEAVCDataPacket@@@container@wylib@@UEAAPEAXI@Z 0000000140004440 f i  CIL library: CIL module
 0001:00003480       ??_G?$CBaseList@PEAVCDataPacket@@@container@wylib@@UEAAPEAXI@Z 0000000140004480 f i srvlib_x64:SendPackPool.obj
 0001:00003480       ??_E?$CBaseList@PEAVCDataPacket@@@container@wylib@@UEAAPEAXI@Z 0000000140004480 f i  CIL library: CIL module
 0001:000034c0       ?addToStat@?$Counter@VCDataPacket@@@@IEAAXXZ 00000001400044c0 f i srvlib_x64:SendPackPool.obj
 0001:00003520       ?addList@?$CBaseList@PEAVCDataPacket@@@container@wylib@@QEAAXAEBV123@@Z 0000000140004520 f i srvlib_x64:SendPackPool.obj
 0001:00003520       ?addList@?$CBaseList@PEAVCCustomServerClientSocket@@@container@wylib@@QEAAXAEBV123@@Z 0000000140004520 f i srvlib_x64:CustomServerSocket.obj
 0001:00003520       ?addList@?$CBaseList@PEAUtagAppInternalMessage@@@container@wylib@@QEAAXAEBV123@@Z 0000000140004520 f i srvlib_x64:CustomWorkSocket.obj
 0001:00003560       ?getCount@?$Counter@VCDataPacket@@@@SA_KXZ 0000000140004560 f i srvlib_x64:SendPackPool.obj
 0001:00003570       ?alloc@CAnsiString@string@wylib@@MEAAPEAXPEAX_K@Z 0000000140004570 f i srvlib_x64:CustomLuaConfig.obj
 0001:000035c0       ?setData@CAnsiString@string@wylib@@IEAAXPEBD@Z 00000001400045c0 f i srvlib_x64:CustomLuaConfig.obj
 0001:00003660       ?catData@CAnsiString@string@wylib@@IEAAXPEBD@Z 0000000140004660 f i srvlib_x64:CustomLuaConfig.obj
 0001:00003700       ??0CAnsiString@string@wylib@@QEAA@XZ 0000000140004700 f i srvlib_x64:CustomLuaConfig.obj
 0001:00003730       ??0CAnsiString@string@wylib@@QEAA@PEBD@Z 0000000140004730 f i srvlib_x64:CustomLuaConfig.obj
 0001:00003780       ??1CAnsiString@string@wylib@@UEAA@XZ 0000000140004780 f i srvlib_x64:CustomLuaConfig.obj
 0001:000037b0       ??BCAnsiString@string@wylib@@QEAAPEADXZ 00000001400047b0 f i srvlib_x64:CustomLuaConfig.obj
 0001:000037f0       ??4CAnsiString@string@wylib@@QEAAXPEBD@Z 00000001400047f0 f i srvlib_x64:CustomLuaConfig.obj
 0001:00003830       ??YCAnsiString@string@wylib@@QEAAXPEBD@Z 0000000140004830 f i srvlib_x64:CustomLuaConfig.obj
 0001:000038a0       ?length@CAnsiString@string@wylib@@QEBA_KXZ 00000001400048a0 f i srvlib_x64:CustomLuaConfig.obj
 0001:000038e0       ?isEmpty@CAnsiString@string@wylib@@QEBA_NXZ 00000001400048e0 f i srvlib_x64:CustomLuaConfig.obj
 0001:00003920       ??_GCAnsiString@string@wylib@@UEAAPEAXI@Z 0000000140004920 f i srvlib_x64:CustomLuaConfig.obj
 0001:00003920       ??_ECAnsiString@string@wylib@@UEAAPEAXI@Z 0000000140004920 f i  CIL library: CIL module
 0001:00003960       ??_ECCustomLuaConfig@@UEAAPEAXI@Z 0000000140004960 f i  CIL library: CIL module
 0001:00003960       ??_GCCustomLuaConfig@@UEAAPEAXI@Z 0000000140004960 f i srvlib_x64:CustomLuaConfig.obj
 0001:000039a0       ??4?$CTRefString@VCAnsiString@string@wylib@@D@string@wylib@@QEAAXPEBD@Z 00000001400049a0 f i srvlib_x64:CustomLuaConfig.obj
 0001:00003a40       ??0?$CBaseList@PEAV?$CRefObjectImpl@VCAnsiString@string@wylib@@@misc@wylib@@@container@wylib@@QEAA@XZ 0000000140004a40 f i srvlib_x64:CustomLuaConfig.obj
 0001:00003a90       ??1?$CBaseList@PEAV?$CRefObjectImpl@VCAnsiString@string@wylib@@@misc@wylib@@@container@wylib@@UEAA@XZ 0000000140004a90 f i srvlib_x64:CustomLuaConfig.obj
 0001:00003ac0       ??0?$CRefObjectImpl@VCAnsiString@string@wylib@@@misc@wylib@@QEAA@XZ 0000000140004ac0 f i srvlib_x64:CustomLuaConfig.obj
 0001:00003b00       ?addRef@?$CRefObjectImpl@VCAnsiString@string@wylib@@@misc@wylib@@QEAAJXZ 0000000140004b00 f i srvlib_x64:CustomLuaConfig.obj
 0001:00003b20       ?release@?$CRefObjectImpl@VCAnsiString@string@wylib@@@misc@wylib@@QEAAJXZ 0000000140004b20 f i srvlib_x64:CustomLuaConfig.obj
 0001:00003b70       ?finallRelease@?$CRefObjectImpl@VCAnsiString@string@wylib@@@misc@wylib@@MEAAXXZ 0000000140004b70 f i srvlib_x64:CustomLuaConfig.obj
 0001:00003bc0       ??_G?$CBaseList@PEAV?$CRefObjectImpl@VCAnsiString@string@wylib@@@misc@wylib@@@container@wylib@@UEAAPEAXI@Z 0000000140004bc0 f i srvlib_x64:CustomLuaConfig.obj
 0001:00003bc0       ??_E?$CBaseList@PEAV?$CRefObjectImpl@VCAnsiString@string@wylib@@@misc@wylib@@@container@wylib@@UEAAPEAXI@Z 0000000140004bc0 f i  CIL library: CIL module
 0001:00003c00       ??_E?$CRefObjectImpl@VCAnsiString@string@wylib@@@misc@wylib@@UEAAPEAXI@Z 0000000140004c00 f i  CIL library: CIL module
 0001:00003c00       ??_G?$CRefObjectImpl@VCAnsiString@string@wylib@@@misc@wylib@@UEAAPEAXI@Z 0000000140004c00 f i srvlib_x64:CustomLuaConfig.obj
 0001:00003c40       ??1?$CRefObjectImpl@VCAnsiString@string@wylib@@@misc@wylib@@UEAA@XZ 0000000140004c40 f i srvlib_x64:CustomLuaConfig.obj
 0001:00003c60       ?getPosition@CDataPacketReader@@QEAA_KXZ 0000000140004c60 f i srvlib_x64:CustomLuaScript.obj
 0001:00003c80       ??_ECCustomLuaScript@@UEAAPEAXI@Z 0000000140004c80 f i  CIL library: CIL module
 0001:00003c80       ??_GCCustomLuaScript@@UEAAPEAXI@Z 0000000140004c80 f i srvlib_x64:CustomLuaScript.obj
 0001:00003cc0       ??1?$CTRefString@VCAnsiString@string@wylib@@D@string@wylib@@UEAA@XZ 0000000140004cc0 f i srvlib_x64:CustomLuaScript.obj
 0001:00003ce0       ?lcCheck@CCustomLuaScript@@IEAA_NH@Z 0000000140004ce0 f i srvlib_x64:CustomLuaScript.obj
 0001:00003e00       ??0?$CTRefString@VCAnsiString@string@wylib@@D@string@wylib@@QEAA@XZ 0000000140004e00 f i srvlib_x64:CustomLuaScript.obj
 0001:00003e30       ??1?$CRefObject@VCAnsiString@string@wylib@@@misc@wylib@@UEAA@XZ 0000000140004e30 f i srvlib_x64:CustomLuaScript.obj
 0001:00003e70       ??_E?$CTRefString@VCAnsiString@string@wylib@@D@string@wylib@@UEAAPEAXI@Z 0000000140004e70 f i  CIL library: CIL module
 0001:00003e70       ??_G?$CTRefString@VCAnsiString@string@wylib@@D@string@wylib@@UEAAPEAXI@Z 0000000140004e70 f i srvlib_x64:CustomLuaScript.obj
 0001:00003eb0       ??_G?$CRefObject@VCAnsiString@string@wylib@@@misc@wylib@@UEAAPEAXI@Z 0000000140004eb0 f i srvlib_x64:CustomLuaScript.obj
 0001:00003eb0       ??_E?$CRefObject@VCAnsiString@string@wylib@@@misc@wylib@@UEAAPEAXI@Z 0000000140004eb0 f i  CIL library: CIL module
 0001:00003ef0       ??0?$CRefObject@VCAnsiString@string@wylib@@@misc@wylib@@QEAA@XZ 0000000140004ef0 f i srvlib_x64:CustomLuaScript.obj
 0001:00003f20       ??_GCCustomServerClientSocket@@UEAAPEAXI@Z 0000000140004f20 f i srvlib_x64:CustomServerClientSocket.obj
 0001:00003f20       ??_ECCustomServerClientSocket@@UEAAPEAXI@Z 0000000140004f20 f i  CIL library: CIL module
 0001:00003f60       ??0?$Counter@VCCustomServerClientSocket@@@@QEAA@XZ 0000000140004f60 f i srvlib_x64:CustomServerClientSocket.obj
 0001:00003f80       ??1?$Counter@VCCustomServerClientSocket@@@@QEAA@XZ 0000000140004f80 f i srvlib_x64:CustomServerClientSocket.obj
 0001:00003fa0       ?addToStat@?$Counter@VCCustomServerClientSocket@@@@IEAAXXZ 0000000140004fa0 f i srvlib_x64:CustomServerClientSocket.obj
 0001:00004000       ?getCount@?$Counter@VCCustomServerClientSocket@@@@SA_KXZ 0000000140005000 f i srvlib_x64:CustomServerClientSocket.obj
 0001:00004010       ?Run@CCustomServerClientSocket@@QEAAXXZ 0000000140005010 f i srvlib_x64:CustomServerSocket.obj
 0001:00004030       ??_GCCustomServerSocket@@UEAAPEAXI@Z 0000000140005030 f i srvlib_x64:CustomServerSocket.obj
 0001:00004030       ??_ECCustomServerSocket@@UEAAPEAXI@Z 0000000140005030 f i  CIL library: CIL module
 0001:00004070       ??0?$CQueueList@PEAVCCustomServerClientSocket@@@container@wylib@@QEAA@XZ 0000000140005070 f i srvlib_x64:CustomServerSocket.obj
 0001:000040b0       ??1?$CQueueList@PEAVCCustomServerClientSocket@@@container@wylib@@UEAA@XZ 00000001400050b0 f i srvlib_x64:CustomServerSocket.obj
 0001:000040e0       ??_G?$CQueueList@PEAVCCustomServerClientSocket@@@container@wylib@@UEAAPEAXI@Z 00000001400050e0 f i srvlib_x64:CustomServerSocket.obj
 0001:000040e0       ??_E?$CQueueList@PEAVCCustomServerClientSocket@@@container@wylib@@UEAAPEAXI@Z 00000001400050e0 f i  CIL library: CIL module
 0001:00004120       ??1?$CLockList@PEAVCCustomServerClientSocket@@@container@wylib@@UEAA@XZ 0000000140005120 f i srvlib_x64:CustomServerSocket.obj
 0001:00004140       ??0?$CLockList@PEAVCCustomServerClientSocket@@@container@wylib@@QEAA@PEAVCBaseLock@lock@sync@2@@Z 0000000140005140 f i srvlib_x64:CustomServerSocket.obj
 0001:00004180       ??0?$CBaseList@PEAVCCustomServerClientSocket@@@container@wylib@@QEAA@XZ 0000000140005180 f i srvlib_x64:CustomServerSocket.obj
 0001:000041d0       ??1?$CBaseList@PEAVCCustomServerClientSocket@@@container@wylib@@UEAA@XZ 00000001400051d0 f i srvlib_x64:CustomServerSocket.obj
 0001:00004200       ?remove@?$CBaseList@PEAV?$CRefObjectImpl@VCAnsiString@string@wylib@@@misc@wylib@@@container@wylib@@QEAAX_J@Z 0000000140005200 f i srvlib_x64:CustomLuaConfig.obj
 0001:00004200       ?remove@?$CBaseList@PEAVCCustomServerClientSocket@@@container@wylib@@QEAAX_J@Z 0000000140005200 f i srvlib_x64:CustomServerSocket.obj
 0001:00004240       ??_E?$CLockList@PEAVCCustomServerClientSocket@@@container@wylib@@UEAAPEAXI@Z 0000000140005240 f i  CIL library: CIL module
 0001:00004240       ??_G?$CLockList@PEAVCCustomServerClientSocket@@@container@wylib@@UEAAPEAXI@Z 0000000140005240 f i srvlib_x64:CustomServerSocket.obj
 0001:00004280       ??_E?$CBaseList@PEAVCCustomServerClientSocket@@@container@wylib@@UEAAPEAXI@Z 0000000140005280 f i  CIL library: CIL module
 0001:00004280       ??_G?$CBaseList@PEAVCCustomServerClientSocket@@@container@wylib@@UEAAPEAXI@Z 0000000140005280 f i srvlib_x64:CustomServerSocket.obj
 0001:000042c0       ?remove@?$CBaseList@PEAV?$CRefObjectImpl@VCAnsiString@string@wylib@@@misc@wylib@@@container@wylib@@QEAAX_J0@Z 00000001400052c0 f i srvlib_x64:CustomLuaConfig.obj
 0001:000042c0       ?remove@?$CBaseList@PEAVCCustomServerClientSocket@@@container@wylib@@QEAAX_J0@Z 00000001400052c0 f i srvlib_x64:CustomServerSocket.obj
 0001:00004360       _tcschr                    0000000140005360 f i srvlib_x64:NameAllocator.obj
 0001:00004390       ??_GCNameAllocator@@UEAAPEAXI@Z 0000000140005390 f i srvlib_x64:NameAllocator.obj
 0001:00004390       ??_ECNameAllocator@@UEAAPEAXI@Z 0000000140005390 f i  CIL library: CIL module
 0001:000043d0       ??0?$CBaseList@PEBD@container@wylib@@QEAA@XZ 00000001400053d0 f i srvlib_x64:NameAllocator.obj
 0001:00004420       ??1?$CBaseList@PEBD@container@wylib@@UEAA@XZ 0000000140005420 f i srvlib_x64:NameAllocator.obj
 0001:00004450       ??0?$CBaseList@_N@container@wylib@@QEAA@XZ 0000000140005450 f i srvlib_x64:NameAllocator.obj
 0001:000044a0       ??1?$CBaseList@_N@container@wylib@@UEAA@XZ 00000001400054a0 f i srvlib_x64:NameAllocator.obj
 0001:000044d0       ?reserve@?$CBaseList@_N@container@wylib@@UEAAX_J@Z 00000001400054d0 f i srvlib_x64:NameAllocator.obj
 0001:00004530       ??_E?$CBaseList@PEBD@container@wylib@@UEAAPEAXI@Z 0000000140005530 f i  CIL library: CIL module
 0001:00004530       ??_G?$CBaseList@PEBD@container@wylib@@UEAAPEAXI@Z 0000000140005530 f i srvlib_x64:NameAllocator.obj
 0001:00004570       ??_G?$CBaseList@_N@container@wylib@@UEAAPEAXI@Z 0000000140005570 f i srvlib_x64:NameAllocator.obj
 0001:00004570       ??_E?$CBaseList@_N@container@wylib@@UEAAPEAXI@Z 0000000140005570 f i  CIL library: CIL module
 0001:000045b0       ?_tcsstr@@YAPEADPEADPEBD@Z 00000001400055b0 f i srvlib_x64:WinService.obj
 0001:000045e0       ??_GCWinService@@UEAAPEAXI@Z 00000001400055e0 f i srvlib_x64:WinService.obj
 0001:000045e0       ??_ECWinService@@UEAAPEAXI@Z 00000001400055e0 f i  CIL library: CIL module
 0001:00004620       ?readBuf@CDataPacketReader@@QEAA_KPEAX_K@Z 0000000140005620 f i servercommon_x64:CustomJXClientSocket.obj
 0001:000046b0       ??0CDataPacketReader@@QEAA@PEBX_K@Z 00000001400056b0 f i servercommon_x64:CustomJXClientSocket.obj
 0001:00004720       ?GetClientName@CCustomClientSocket@@QEAAPEBDXZ 0000000140005720 f i servercommon_x64:CustomJXClientSocket.obj
 0001:00004740       ??$?6G@CDataPacket@@QEAAAEAV0@G@Z 0000000140005740 f i servercommon_x64:CustomJXClientSocket.obj
 0001:00004740       ??$?6_W@CDataPacket@@QEAAAEAV0@_W@Z 0000000140005740 f i servercommon_x64:FileLogger.obj
 0001:00004790       ??$?5G@CDataPacketReader@@QEAAAEAV0@AEAG@Z 0000000140005790 f i servercommon_x64:CustomJXClientSocket.obj
 0001:000047e0       ??$readAtom@G@CDataPacketReader@@QEAAGXZ 00000001400057e0 f i servercommon_x64:CustomJXClientSocket.obj
 0001:000048a0       ?linkAfter@?$CBaseLinkedList@PEBVHandleMgrStat@@@container@wylib@@QEAAPEAV?$CLinkedNode@PEBVHandleMgrStat@@@23@AEBQEBVHandleMgrStat@@PEAV423@@Z 00000001400058a0 f i servercommon_x64:HandleStat.obj
 0001:000048a0       ?linkAfter@?$CBaseLinkedList@PEAVCActorCacheData@@@container@wylib@@QEAAPEAV?$CLinkedNode@PEAVCActorCacheData@@@23@AEBQEAVCActorCacheData@@PEAV423@@Z 00000001400058a0 f i DBDataCache.obj
 0001:000049c0       ??0?$CLinkedListIterator@PEBVHandleMgrStat@@@container@wylib@@QEAA@AEAV?$CBaseLinkedList@PEBVHandleMgrStat@@@12@@Z 00000001400059c0 f i servercommon_x64:HandleStat.obj
 0001:00004a20       ?remove@?$CLinkedListIterator@PEAVCActorCacheData@@@container@wylib@@QEAAXPEAV?$CLinkedNode@PEAVCActorCacheData@@@23@H@Z 0000000140005a20 f i DBDataCache.obj
 0001:00004a20       ?remove@?$CLinkedListIterator@PEBVHandleMgrStat@@@container@wylib@@QEAAXPEAV?$CLinkedNode@PEBVHandleMgrStat@@@23@H@Z 0000000140005a20 f i servercommon_x64:HandleStat.obj
 0001:00004a70       ?first@?$CLinkedListIterator@PEBVHandleMgrStat@@@container@wylib@@QEAAPEAV?$CLinkedNode@PEBVHandleMgrStat@@@23@XZ 0000000140005a70 f i servercommon_x64:HandleStat.obj
 0001:00004aa0       ?setList@?$CLinkedListIterator@PEBVHandleMgrStat@@@container@wylib@@QEAAXAEAV?$CBaseLinkedList@PEBVHandleMgrStat@@@23@@Z 0000000140005aa0 f i servercommon_x64:HandleStat.obj
 0001:00004b30       ??_G?$CLinkedListIterator@PEBVHandleMgrStat@@@container@wylib@@QEAAPEAXI@Z 0000000140005b30 f i servercommon_x64:HandleStat.obj
 0001:00004b70       ?GetRemoteHost@CCustomServerClientSocket@@QEAAPEBDXZ 0000000140005b70 f i servercommon_x64:CustomJXServerClientSocket.obj
 0001:00004b90       ?GetRemotePort@CCustomServerClientSocket@@QEAAHXZ 0000000140005b90 f i servercommon_x64:CustomJXServerClientSocket.obj
 0001:00004bb0       ?getServerTypeName@jxSrvDef@@YAPEBDW4tagServerType@1@@Z 0000000140005bb0 f i servercommon_x64:CustomJXServerClientSocket.obj
 0001:00004c40       ?getClientName@CCustomJXServerClientSocket@@QEAAPEBDXZ 0000000140005c40 f i servercommon_x64:CustomJXServerClientSocket.obj
 0001:00004c60       ?OnThreadStarted@CKBaseThread@thread@wylib@@MEAAXXZ 0000000140005c60 f i DBDataClientHandler.obj
 0001:00004c60       ?OnStackWalkStart@StackWalker@@MEAAXXZ 0000000140005c60 f i srvlib_x64:StackWalker.obj
 0001:00004c60       ??1?$_String_val@DV?$allocator@D@std@@@std@@QEAA@XZ 0000000140005c60 f i main.obj
 0001:00004c60       ?OnRegDataValidated@CCustomJXServerClientSocket@@MEAAXXZ 0000000140005c60 f i servercommon_x64:CustomJXServerClientSocket.obj
 0001:00004c60       ?_Assert@CDataPacket@@QEAAXXZ 0000000140005c60 f i srvlib_x64:CustomWorkSocket.obj
 0001:00004c60       ?OnStackWalkEnd@StackWalker@@MEAAXXZ 0000000140005c60 f i srvlib_x64:StackWalker.obj
 0001:00004c60       ??$_Destroy@U?$pair@$$CBIPEAVCActorCacheData@@@std@@@std@@YAXPEAU?$pair@$$CBIPEAVCActorCacheData@@@0@@Z 0000000140005c60 f i DBDataCache.obj
 0001:00004c70       ??_GCCustomJXServerClientSocket@@UEAAPEAXI@Z 0000000140005c70 f i servercommon_x64:CustomJXServerClientSocket.obj
 0001:00004c70       ??_ECCustomJXServerClientSocket@@UEAAPEAXI@Z 0000000140005c70 f i  CIL library: CIL module
 0001:00004cb0       ??1CCustomJXServerClientSocket@@UEAA@XZ 0000000140005cb0 f i servercommon_x64:CustomJXServerClientSocket.obj
 0001:00004cd0       ?terminated@CBaseThread@thread@wylib@@IEAA_NXZ 0000000140005cd0 f i servercommon_x64:FileLogger.obj
 0001:00004ce0       ?readString@CDataPacketReader@@QEAA_KPEAD_K@Z 0000000140005ce0 f i servercommon_x64:FileLogger.obj
 0001:00004d10       ??5CDataPacketReader@@QEAAAEAV0@AEAPEBD@Z 0000000140005d10 f i servercommon_x64:FileLogger.obj
 0001:00004d40       ??0COPMToFile@@QEAA@PEBD@Z 0000000140005d40 f i servercommon_x64:FileLogger.obj
 0001:00004eb0       ?addRef@COPMToFile@@QEAAJXZ 0000000140005eb0 f i servercommon_x64:FileLogger.obj
 0001:00004ed0       ?release@COPMToFile@@QEAAJXZ 0000000140005ed0 f i servercommon_x64:FileLogger.obj
 0001:00004f60       ??1COPMToFile@@UEAA@XZ     0000000140005f60 f i servercommon_x64:FileLogger.obj
 0001:000051f0       ?addMsg@COPMToFile@@QEAAXW4tagShareOutputMsgType@@PEBD_J@Z 00000001400061f0 f i servercommon_x64:FileLogger.obj
 0001:00005430       ?OnRountine@COPMToFile@@MEAAXXZ 0000000140006430 f i servercommon_x64:FileLogger.obj
 0001:000054b0       ?ProcessMessages@COPMToFile@@IEAAXXZ 00000001400064b0 f i servercommon_x64:FileLogger.obj
 0001:000057a0       ?writeMessage@COPMToFile@@IEAAXW4tagShareOutputMsgType@@PEBD_K12@Z 00000001400067a0 f i servercommon_x64:FileLogger.obj
 0001:00005a70       ?displayMessage@COPMToFile@@IEAAXW4tagShareOutputMsgType@@PEBD1_K@Z 0000000140006a70 f i servercommon_x64:FileLogger.obj
 0001:00005b00       ?convertToUTF8@COPMToFile@@IEAA_KPEBD_KPEAD1@Z 0000000140006b00 f i servercommon_x64:FileLogger.obj
 0001:00005c10       ?convertToACP@COPMToFile@@IEAA_KPEBD_KPEAD1@Z 0000000140006c10 f i servercommon_x64:FileLogger.obj
 0001:00005d60       ?DumpImpl@COPMToFile@@IEAAXXZ 0000000140006d60 f i servercommon_x64:FileLogger.obj
 0001:00006220       ??_ECOPMToFile@@UEAAPEAXI@Z 0000000140007220 f i  CIL library: CIL module
 0001:00006220       ??_GCOPMToFile@@UEAAPEAXI@Z 0000000140007220 f i servercommon_x64:FileLogger.obj
 0001:00006260       ?appendCount@?$CQueueList@PEAVCDataPacket@@@container@wylib@@QEAA_JXZ 0000000140007260 f i servercommon_x64:FileLogger.obj
 0001:00006280       ??$rawReadStringLen@PEADG@CDataPacketReader@@IEAA_KPEAD_K@Z 0000000140007280 f i servercommon_x64:FileLogger.obj
 0001:00006420       ??$rawReadStringPtr@DG@CDataPacketReader@@IEAAPEBDXZ 0000000140007420 f i servercommon_x64:FileLogger.obj
 0001:000064b0       ??$?5W4tagShareOutputMsgType@@@CDataPacketReader@@QEAAAEAV0@AEAW4tagShareOutputMsgType@@@Z 00000001400074b0 f i servercommon_x64:FileLogger.obj
 0001:00006500       ??$?5U_SYSTEMTIME@@@CDataPacketReader@@QEAAAEAV0@AEAU_SYSTEMTIME@@@Z 0000000140007500 f i servercommon_x64:FileLogger.obj
 0001:00006570       ??$writeAtom@_W@CDataPacket@@QEAAX_W@Z 0000000140007570 f i servercommon_x64:FileLogger.obj
 0001:00006570       ??$writeAtom@G@CDataPacket@@QEAAXG@Z 0000000140007570 f i servercommon_x64:CustomJXClientSocket.obj
 0001:00006620       ??$readAtom@W4tagShareOutputMsgType@@@CDataPacketReader@@QEAA?AW4tagShareOutputMsgType@@XZ 0000000140007620 f i servercommon_x64:FileLogger.obj
 0001:000066e0       ??$readAtom@U_SYSTEMTIME@@@CDataPacketReader@@QEAA?AU_SYSTEMTIME@@XZ 00000001400076e0 f i servercommon_x64:FileLogger.obj
 0001:000067e0       ??_ECOPMToFile@@WBI@EAAPEAXI@Z 00000001400077e0 f i servercommon_x64:FileLogger.obj
 0001:000067f0       ?LoadBrotherGroupList@CLogicDBReqestHandler@@QEAAXAEAVCDataPacketReader@@@Z 00000001400077f0 f   BrotherData.obj
 0001:00006af0       ?LoadBrothGroupDetail@CLogicDBReqestHandler@@QEAAXAEAVCDataPacketReader@@@Z 0000000140007af0 f   BrotherData.obj
 0001:00006e90       ?AddBrothGroup@CLogicDBReqestHandler@@QEAAXAEAVCDataPacketReader@@@Z 0000000140007e90 f   BrotherData.obj
 0001:000070b0       ?SaveBrother@CLogicDBReqestHandler@@QEAAXAEAVCDataPacketReader@@@Z 00000001400080b0 f   BrotherData.obj
 0001:00007250       ?DeleteBrotherGroup@CLogicDBReqestHandler@@QEAAXAEAVCDataPacketReader@@@Z 0000000140008250 f   BrotherData.obj
 0001:000073d0       ?UpdateBrotherGroup@CLogicDBReqestHandler@@QEAAXAEAVCDataPacketReader@@@Z 00000001400083d0 f   BrotherData.obj
 0001:000075a0       ?QueryMyBrother@CLogicDBReqestHandler@@QEAAX_KHH@Z 00000001400085a0 f   BrotherData.obj
 0001:00007780       ??$?6D@CDataPacket@@QEAAAEAV0@D@Z 0000000140008780 f i DBCenterClient.obj
 0001:00007780       ??$?6E@CDataPacket@@QEAAAEAV0@E@Z 0000000140008780 f i BrotherData.obj
 0001:000077d0       ??$?6_J@CDataPacket@@QEAAAEAV0@_J@Z 00000001400087d0 f i BrotherData.obj
 0001:000077d0       ??$?6UtagGuildSkill@@@CDataPacket@@QEAAAEAV0@UtagGuildSkill@@@Z 00000001400087d0 f i GuildData.obj
 0001:000077d0       ??$?6TItemSeries@CUserItem@@@CDataPacket@@QEAAAEAV0@TItemSeries@CUserItem@@@Z 00000001400087d0 f i FriendData.obj
 0001:000077d0       ??$?6_K@CDataPacket@@QEAAAEAV0@_K@Z 00000001400087d0 f i DBDataClient.obj
 0001:00007820       ??$?5_J@CDataPacketReader@@QEAAAEAV0@AEA_J@Z 0000000140008820 f i BrotherData.obj
 0001:00007820       ??$?5_K@CDataPacketReader@@QEAAAEAV0@AEA_K@Z 0000000140008820 f i GateDBRequestHandler.obj
 0001:00007870       ??$?6W4tagShareOutputMsgType@@@CDataPacket@@QEAAAEAV0@W4tagShareOutputMsgType@@@Z 0000000140008870 f i servercommon_x64:FileLogger.obj
 0001:00007870       ??$?6H@CDataPacket@@QEAAAEAV0@H@Z 0000000140008870 f i BrotherData.obj
 0001:00007870       ??$?6W4tagResultError@DbServerProto@jxInterSrvComm@@@CDataPacket@@QEAAAEAV0@W4tagResultError@DbServerProto@jxInterSrvComm@@@Z 0000000140008870 f i DBDataCache.obj
 0001:00007870       ??$?6I@CDataPacket@@QEAAAEAV0@I@Z 0000000140008870 f i BrotherData.obj
 0001:000078c0       ??$?5H@CDataPacketReader@@QEAAAEAV0@AEAH@Z 00000001400088c0 f i BrotherData.obj
 0001:000078c0       ??$?5I@CDataPacketReader@@QEAAAEAV0@AEAI@Z 00000001400088c0 f i BrotherData.obj
 0001:000078c0       ??$?5W4tagNameServerOPError@NameServerProto@jxInterSrvComm@@@CDataPacketReader@@QEAAAEAV0@AEAW4tagNameServerOPError@NameServerProto@jxInterSrvComm@@@Z 00000001400088c0 f i DBNSClient.obj
 0001:00007910       ??$writeAtom@W4tagResultError@DbServerProto@jxInterSrvComm@@@CDataPacket@@QEAAXW4tagResultError@DbServerProto@jxInterSrvComm@@@Z 0000000140008910 f i DBDataCache.obj
 0001:00007910       ??$writeAtom@I@CDataPacket@@QEAAXI@Z 0000000140008910 f i BrotherData.obj
 0001:00007910       ??$writeAtom@W4tagShareOutputMsgType@@@CDataPacket@@QEAAXW4tagShareOutputMsgType@@@Z 0000000140008910 f i servercommon_x64:FileLogger.obj
 0001:00007910       ??$writeAtom@H@CDataPacket@@QEAAXH@Z 0000000140008910 f i BrotherData.obj
 0001:000079c0       ??$writeAtom@_K@CDataPacket@@QEAAX_K@Z 00000001400089c0 f i DBDataClient.obj
 0001:000079c0       ??$writeAtom@UtagGuildSkill@@@CDataPacket@@QEAAXUtagGuildSkill@@@Z 00000001400089c0 f i GuildData.obj
 0001:000079c0       ??$writeAtom@TItemSeries@CUserItem@@@CDataPacket@@QEAAXTItemSeries@CUserItem@@@Z 00000001400089c0 f i FriendData.obj
 0001:000079c0       ??$writeAtom@_J@CDataPacket@@QEAAX_J@Z 00000001400089c0 f i BrotherData.obj
 0001:00007a70       ??$readAtom@_K@CDataPacketReader@@QEAA_KXZ 0000000140008a70 f i GateDBRequestHandler.obj
 0001:00007a70       ??$readAtom@_J@CDataPacketReader@@QEAA_JXZ 0000000140008a70 f i BrotherData.obj
 0001:00007b30       ??$readAtom@I@CDataPacketReader@@QEAAIXZ 0000000140008b30 f i BrotherData.obj
 0001:00007b30       ??$readAtom@H@CDataPacketReader@@QEAAHXZ 0000000140008b30 f i BrotherData.obj
 0001:00007b30       ??$readAtom@W4tagNameServerOPError@NameServerProto@jxInterSrvComm@@@CDataPacketReader@@QEAA?AW4tagNameServerOPError@NameServerProto@jxInterSrvComm@@XZ 0000000140008b30 f i DBNSClient.obj
 0001:00007bf0       ?getPositionPtr@CDataPacketReader@@QEAAPEAD_K@Z 0000000140008bf0 f i BrotherData.obj
 0001:00007c10       ?writeString@CDataPacket@@QEAAXPEBD_K@Z 0000000140008c10 f i BrotherData.obj
 0001:00007c40       ?Connected@CSQLConenction@@QEAAHXZ 0000000140008c40 f i BrotherData.obj
 0001:00007c60       ?GetRowCount@CSQLConenction@@QEAAHXZ 0000000140008c60 f i BrotherData.obj
 0001:00007c80       ?CurrentRow@CSQLConenction@@QEAAPEAPEADXZ 0000000140008c80 f i BrotherData.obj
 0001:00007ca0       ?NextRow@CSQLConenction@@QEAAPEAPEADXZ 0000000140008ca0 f i BrotherData.obj
 0001:00007cf0       ?hashlstr@CTimeProfRecord@@SAIPEBD_K@Z 0000000140008cf0 f i BrotherData.obj
 0001:00007d80       ??$rawWriteStringLen@G@CDataPacket@@IEAAXPEBD_K@Z 0000000140008d80 f i BrotherData.obj
 0001:00007e00       ??$writeAtom@E@CDataPacket@@QEAAXE@Z 0000000140008e00 f i BrotherData.obj
 0001:00007e00       ??$writeAtom@D@CDataPacket@@QEAAXD@Z 0000000140008e00 f i BrotherData.obj
 0001:00007eb0       ??0EntityHandle@@QEAA@XZ   0000000140008eb0 f i BrotherData.obj
 0001:00007ee0       ??0?$Counter@VEntityHandle@@@@QEAA@XZ 0000000140008ee0 f i BrotherData.obj
 0001:00007f00       ?addToStat@?$Counter@VEntityHandle@@@@IEAAXXZ 0000000140008f00 f i BrotherData.obj
 0001:00007f60       ?getCount@?$Counter@VEntityHandle@@@@SA_KXZ 0000000140008f60 f i BrotherData.obj
 0001:00007f70       ??1EntityHandle@@QEAA@XZ   0000000140008f70 f i BrotherData.obj
 0001:00007f90       ??1?$Counter@VEntityHandle@@@@QEAA@XZ 0000000140008f90 f i BrotherData.obj
 0001:00007fb0       ?CustomExceptHandler@@YAKQEAU_EXCEPTION_POINTERS@@@Z 0000000140008fb0 f   CustomExceptHander.obj
 0001:00008060       ??0CustomStackWalker@@QEAA@XZ 0000000140009060 f i CustomExceptHander.obj
 0001:000080c0       ?OnStackWalkStart@CustomStackWalker@@UEAAXXZ 00000001400090c0 f i CustomExceptHander.obj
 0001:00008200       ?OnStackWalkEnd@CustomStackWalker@@UEAAXXZ 0000000140009200 f i CustomExceptHander.obj
 0001:00008270       ?OnOutput@CustomStackWalker@@UEAAXPEBD@Z 0000000140009270 f i CustomExceptHander.obj
 0001:000082d0       ??_GCustomStackWalker@@UEAAPEAXI@Z 00000001400092d0 f i CustomExceptHander.obj
 0001:000082d0       ??_ECustomStackWalker@@UEAAPEAXI@Z 00000001400092d0 f i CustomExceptHander.obj
 0001:00008310       ??1CustomStackWalker@@UEAA@XZ 0000000140009310 f i CustomExceptHander.obj
 0001:00008330       ??$sprintf_s@$0BAE@@@YAHAEAY0BAE@DPEBDZZ 0000000140009330 f i CustomExceptHander.obj
 0001:00008380       ??0CDBCenterClient@@QEAA@PEAVCDBServer@@@Z 0000000140009380 f   DBCenterClient.obj
 0001:000084a0       ??1CDBCenterClient@@UEAA@XZ 00000001400094a0 f   DBCenterClient.obj
 0001:000085f0       ?AllocDataPacket@CDBCenterClient@@UEAAAEAVCDataPacket@@G@Z 00000001400095f0 f   DBCenterClient.obj
 0001:00008630       ?FlushDataPacket@CDBCenterClient@@UEAAXAEAVCDataPacket@@@Z 0000000140009630 f   DBCenterClient.obj
 0001:00008670       ?Init@CDBCenterClient@@QEAAXXZ 0000000140009670 f   DBCenterClient.obj
 0001:00008730       ?Stop@CDBCenterClient@@QEAAXXZ 0000000140009730 f   DBCenterClient.obj
 0001:00008760       ?DispatchInternalMessage@CDBCenterClient@@MEAAXI_K000@Z 0000000140009760 f   DBCenterClient.obj
 0001:000087b0       ?PostUpdateLogicClientList@CDBCenterClient@@QEAAXAEBV?$CBaseList@H@container@wylib@@@Z 00000001400097b0 f   DBCenterClient.obj
 0001:00008870       ?UpdateLogicClientList@CDBCenterClient@@QEAAX_JPEAH@Z 0000000140009870 f   DBCenterClient.obj
 0001:00008950       ?OnDispatchRecvPacket@CDBCenterClient@@MEAAXGAEAVCDataPacketReader@@@Z 0000000140009950 f   DBCenterClient.obj
 0001:00008aa0       ?HandleDBGateRequest@CDBCenterClient@@IEAAXAEAVCDataPacketReader@@@Z 0000000140009aa0 f   DBCenterClient.obj
 0001:00008b30       ?OnRecvEnterGame@CDBCenterClient@@IEAAXAEAVCDataPacketReader@@@Z 0000000140009b30 f   DBCenterClient.obj
 0001:00008dd0       ?OnRecvQueryActorList@CDBCenterClient@@IEAAXAEAVCDataPacketReader@@@Z 0000000140009dd0 f   DBCenterClient.obj
 0001:00008ea0       ?HandleLogicRequest@CDBCenterClient@@IEAAXAEAVCDataPacketReader@@@Z 0000000140009ea0 f   DBCenterClient.obj
 0001:00008ef0       ?getLocalServerType@CDBCenterClient@@MEAA?AW4tagServerType@jxSrvDef@@XZ 0000000140009ef0 f   DBCenterClient.obj
 0001:00008f10       ?getLocalServerIndex@CDBCenterClient@@MEAAHXZ 0000000140009f10 f   DBCenterClient.obj
 0001:00008f90       ?getLocalServerName@CDBCenterClient@@MEAAPEBDXZ 0000000140009f90 f   DBCenterClient.obj
 0001:00008fc0       ?AllocSendPacket@CDBCenterClient@@IEAAPEAVCDataPacket@@XZ 0000000140009fc0 f   DBCenterClient.obj
 0001:00009070       ?FreeBackUserDataPacket@CDBCenterClient@@QEAAXPEAVCDataPacket@@@Z 000000014000a070 f   DBCenterClient.obj
 0001:000090a0       ??_ECDBCenterClient@@UEAAPEAXI@Z 000000014000a0a0 f i DBCenterClient.obj
 0001:000090a0       ??_GCDBCenterClient@@UEAAPEAXI@Z 000000014000a0a0 f i DBCenterClient.obj
 0001:000090e0       ??0CCustomJXClientSocket@@QEAA@XZ 000000014000a0e0 f i DBCenterClient.obj
 0001:00009110       ??1CCustomJXClientSocket@@UEAA@XZ 000000014000a110 f i DBCenterClient.obj
 0001:00009130       ??0ILogicDBRequestHost@@QEAA@XZ 000000014000a130 f i DBCenterClient.obj
 0001:00009150       ??_ECCustomJXClientSocket@@UEAAPEAXI@Z 000000014000a150 f i DBCenterClient.obj
 0001:00009150       ??_GCCustomJXClientSocket@@UEAAPEAXI@Z 000000014000a150 f i DBCenterClient.obj
 0001:00009190       ?pop@?$CBaseList@PEAVCDataPacket@@@container@wylib@@QEAAPEAVCDataPacket@@XZ 000000014000a190 f i DBCenterClient.obj
 0001:00009190       ?pop@?$CBaseList@PEAVCTimeProfRecord@@@container@wylib@@QEAAPEAVCTimeProfRecord@@XZ 000000014000a190 f i srvlib_x64:TimeStat.obj
 0001:00009200       ?setPosition@CDataPacketReader@@QEAA_K_K@Z 000000014000a200 f i DBCenterClient.obj
 0001:00009260       ?GetSQLConnection@CDBDataServer@@QEAAPEAVCSQLConenction@@XZ 000000014000a260 f i DBCenterClient.obj
 0001:00009280       ?getDataServer@CDBServer@@QEAAPEAVCDBDataServer@@XZ 000000014000a280 f i DBCenterClient.obj
 0001:000092a0       ?getServerIndex@CDBServer@@QEAAHXZ 000000014000a2a0 f i DBCenterClient.obj
 0001:000092c0       ?GetSpid@CDBServer@@QEAAHXZ 000000014000a2c0 f i DBCenterClient.obj
 0001:000092e0       ?CatchCreateGuild@CDBCenterClient@@UEAAHIPEBD0H_KE_J@Z 000000014000a2e0 f i DBCenterClient.obj
 0001:00009300       ??0CDBConfig@@QEAA@XZ      000000014000a300 f   DBConfig.obj
 0001:00009340       ??1CDBConfig@@UEAA@XZ      000000014000a340 f   DBConfig.obj
 0001:00009370       ?LoadCrossServerConfig@CDBConfig@@QEAA_NXZ 000000014000a370 f   DBConfig.obj
 0001:00009380       ?ReadConfig@CDBConfig@@QEAA_NXZ 000000014000a380 f   DBConfig.obj
 0001:000099c0       ?ShowError@CDBConfig@@IEAAXQEBD@Z 000000014000a9c0 f   DBConfig.obj
 0001:00009a50       ??_ECDBConfig@@UEAAPEAXI@Z 000000014000aa50 f i DBConfig.obj
 0001:00009a50       ??_GCDBConfig@@UEAAPEAXI@Z 000000014000aa50 f i DBConfig.obj
 0001:00009a90       ??0?$CTRefString@VCAnsiString@string@wylib@@D@string@wylib@@QEAA@AEBV012@@Z 000000014000aa90 f i DBConfig.obj
 0001:00009af0       ??Y?$CTRefString@VCAnsiString@string@wylib@@D@string@wylib@@QEAAXPEBD@Z 000000014000aaf0 f i DBConfig.obj
 0001:00009bc0       ??B?$CTRefString@VCAnsiString@string@wylib@@D@string@wylib@@QEBAPEBDXZ 000000014000abc0 f i DBConfig.obj
 0001:00009bc0       ?rawStr@?$CTRefString@VCAnsiString@string@wylib@@D@string@wylib@@QEAAPEADXZ 000000014000abc0 f i DBConfig.obj
 0001:00009c00       ??0?$CRefObject@VCAnsiString@string@wylib@@@misc@wylib@@QEAA@AEAV012@@Z 000000014000ac00 f i DBConfig.obj
 0001:00009c60       ??4CAnsiString@string@wylib@@QEAAXAEBV012@@Z 000000014000ac60 f i DBConfig.obj
 0001:00009ca0       ?PostponeNextSaveTick@CActorCacheData@@QEAAXXZ 000000014000aca0 f   DBDataCache.obj
 0001:00009cd0       ?GetCmdIdByCDT@CDBDataCache@@IEAAGW4enActorCacheDataType@@@Z 000000014000acd0 f   DBDataCache.obj
 0001:00009d10       ??0CDBDataCache@@QEAA@XZ   000000014000ad10 f   DBDataCache.obj
 0001:00009e00       ?SetDBClient@CDBDataCache@@QEAAXPEAVILogicDBRequestHost@@PEAVCDBDataClientHandler@@@Z 000000014000ae00 f   DBDataCache.obj
 0001:00009e40       ?CacheData@CDBDataCache@@QEAA_NW4enActorCacheDataType@@AEAVCDataPacketReader@@@Z 000000014000ae40 f   DBDataCache.obj
 0001:0000a040       ?GetActorId@CDBDataCache@@IEAAIAEAVCDataPacketReader@@_J@Z 000000014000b040 f   DBDataCache.obj
 0001:0000a0d0       ?GetActorDataByte@CDBDataCache@@IEAAIAEAVCDataPacketReader@@_J@Z 000000014000b0d0 f   DBDataCache.obj
 0001:0000a160       ?OnActorLogin@CDBDataCache@@QEAAXAEAVCDataPacketReader@@@Z 000000014000b160 f   DBDataCache.obj
 0001:0000a1a0       ?OnActorLogout@CDBDataCache@@QEAAXAEAVCDataPacketReader@@@Z 000000014000b1a0 f   DBDataCache.obj
 0001:0000a340       ?SaveAllActorDataImmediately@CDBDataCache@@QEAAXXZ 000000014000b340 f   DBDataCache.obj
 0001:0000a390       ?GetLogicDBRequestHandler@CDBDataCache@@IEAAAEAVCLogicDBReqestHandler@@XZ 000000014000b390 f   DBDataCache.obj
 0001:0000a3c0       ?SaveActorBasicData@CDBDataCache@@IEAA_NAEAVCDataPacketReader@@_N@Z 000000014000b3c0 f   DBDataCache.obj
 0001:0000a400       ?SaveBagItemData@CDBDataCache@@IEAA_NAEAVCDataPacketReader@@_N@Z 000000014000b400 f   DBDataCache.obj
 0001:0000a440       ?SaveEquipItemData@CDBDataCache@@IEAA_NAEAVCDataPacketReader@@_N@Z 000000014000b440 f   DBDataCache.obj
 0001:0000a480       ?SaveDepotItemData@CDBDataCache@@IEAA_NAEAVCDataPacketReader@@_N@Z 000000014000b480 f   DBDataCache.obj
 0001:0000a4c0       ?SaveDmkjItemData@CDBDataCache@@IEAA_NAEAVCDataPacketReader@@_N@Z 000000014000b4c0 f   DBDataCache.obj
 0001:0000a500       ?SaveMagicItemData@CDBDataCache@@IEAA_NAEAVCDataPacketReader@@_N@Z 000000014000b500 f   DBDataCache.obj
 0001:0000a540       ?SaveTalentCatchData@CDBDataCache@@IEAA_NAEAVCDataPacketReader@@_N@Z 000000014000b540 f   DBDataCache.obj
 0001:0000a580       ?SaveScabbardCatchData@CDBDataCache@@IEAA_NAEAVCDataPacketReader@@_N@Z 000000014000b580 f   DBDataCache.obj
 0001:0000a5c0       ?SavCombatGameInfoData@CDBDataCache@@IEAA_NAEAVCDataPacketReader@@_N@Z 000000014000b5c0 f   DBDataCache.obj
 0001:0000a600       ?SavCombatRecordData@CDBDataCache@@IEAA_NAEAVCDataPacketReader@@_N@Z 000000014000b600 f   DBDataCache.obj
 0001:0000a640       ?SaveFriendData@CDBDataCache@@IEAA_NAEAVCDataPacketReader@@_N@Z 000000014000b640 f   DBDataCache.obj
 0001:0000a680       ?SaveDiamondData@CDBDataCache@@IEAA_NAEAVCDataPacketReader@@_N@Z 000000014000b680 f   DBDataCache.obj
 0001:0000a6c0       ?SavGamesetData@CDBDataCache@@IEAA_NAEAVCDataPacketReader@@_N@Z 000000014000b6c0 f   DBDataCache.obj
 0001:0000a700       ?SavTimeRideData@CDBDataCache@@IEAA_NAEAVCDataPacketReader@@_N@Z 000000014000b700 f   DBDataCache.obj
 0001:0000a740       ?SaveGodWealthData@CDBDataCache@@IEAA_NAEAVCDataPacketReader@@_N@Z 000000014000b740 f   DBDataCache.obj
 0001:0000a780       ?SavePetItemData@CDBDataCache@@IEAA_NAEAVCDataPacketReader@@_N@Z 000000014000b780 f   DBDataCache.obj
 0001:0000a7c0       ?SaveSkillData@CDBDataCache@@IEAA_NAEAVCDataPacketReader@@_N@Z 000000014000b7c0 f   DBDataCache.obj
 0001:0000a800       ?SaveQuestData@CDBDataCache@@IEAA_NAEAVCDataPacketReader@@_N@Z 000000014000b800 f   DBDataCache.obj
 0001:0000a840       ?SaveGuildData@CDBDataCache@@IEAA_NAEAVCDataPacketReader@@_N@Z 000000014000b840 f   DBDataCache.obj
 0001:0000a880       ?SaveInterActionData@CDBDataCache@@IEAA_NAEAVCDataPacketReader@@_N@Z 000000014000b880 f   DBDataCache.obj
 0001:0000a8a0       ?SaveMiscData@CDBDataCache@@IEAA_NAEAVCDataPacketReader@@_N@Z 000000014000b8a0 f   DBDataCache.obj
 0001:0000a8c0       ?SaveAchieveData@CDBDataCache@@IEAA_NAEAVCDataPacketReader@@_N@Z 000000014000b8c0 f   DBDataCache.obj
 0001:0000a8e0       ?SaveScriptData@CDBDataCache@@IEAA_NAEAVCDataPacketReader@@_N@Z 000000014000b8e0 f   DBDataCache.obj
 0001:0000a920       ?SaveAcupointData@CDBDataCache@@IEAA_NAEAVCDataPacketReader@@_N@Z 000000014000b920 f   DBDataCache.obj
 0001:0000a960       ?SaveGemData@CDBDataCache@@IEAA_NAEAVCDataPacketReader@@_N@Z 000000014000b960 f   DBDataCache.obj
 0001:0000a9a0       ?SaveGemSuitData@CDBDataCache@@IEAA_NAEAVCDataPacketReader@@_N@Z 000000014000b9a0 f   DBDataCache.obj
 0001:0000a9e0       ?SavePetData@CDBDataCache@@IEAA_NAEAVCDataPacketReader@@_N@Z 000000014000b9e0 f   DBDataCache.obj
 0001:0000aa20       ?SavePetSkillData@CDBDataCache@@IEAA_NAEAVCDataPacketReader@@_N@Z 000000014000ba20 f   DBDataCache.obj
 0001:0000aa60       ?SaveData@CDBDataCache@@QEAA_N_N0_J@Z 000000014000ba60 f   DBDataCache.obj
 0001:0000ab90       ?SaveActorDataImmediately@CDBDataCache@@IEAA_NI_N@Z 000000014000bb90 f   DBDataCache.obj
 0001:0000ac50       ?RemoveExpireCache@CDBDataCache@@IEAAXXZ 000000014000bc50 f   DBDataCache.obj
 0001:0000ad60       ?SaveActorDataImpl@CDBDataCache@@IEAA_NAEAVCActorCacheData@@_N_J1@Z 000000014000bd60 f   DBDataCache.obj
 0001:0000af20       ?RunOne@CDBDataCache@@QEAAX_J@Z 000000014000bf20 f   DBDataCache.obj
 0001:0000afb0       ?AllocActorCacheData@CDBDataCache@@IEAAPEAVCActorCacheData@@IAEAV?$Handle@I@@@Z 000000014000bfb0 f   DBDataCache.obj
 0001:0000b080       ?GetActorCacheData@CDBDataCache@@IEAAPEAVCActorCacheData@@AEBV?$Handle@I@@@Z 000000014000c080 f   DBDataCache.obj
 0001:0000b0c0       ?GetActorCacheDataByActorId@CDBDataCache@@IEAAPEAVCActorCacheData@@I@Z 000000014000c0c0 f   DBDataCache.obj
 0001:0000b140       ?FreeActorCacheData@CDBDataCache@@IEAAXAEBV?$Handle@I@@_N@Z 000000014000c140 f   DBDataCache.obj
 0001:0000b260       ?Trace@CDBDataCache@@QEAAXXZ 000000014000c260 f   DBDataCache.obj
 0001:0000b3b0       ??0?$CBaseLinkedList@PEAVCActorCacheData@@@container@wylib@@QEAA@XZ 000000014000c3b0 f i DBDataCache.obj
 0001:0000b400       ?count@?$CBaseLinkedList@PEAVCActorCacheData@@@container@wylib@@QEBA_JXZ 000000014000c400 f i DBDataCache.obj
 0001:0000b410       ??0?$map@IPEAVCActorCacheData@@U?$less@I@std@@V?$allocator@U?$pair@$$CBIPEAVCActorCacheData@@@std@@@3@@std@@QEAA@XZ 000000014000c410 f i DBDataCache.obj
 0001:0000b440       ?find@?$_Tree@V?$_Tmap_traits@IPEAVCActorCacheData@@U?$less@I@std@@V?$allocator@U?$pair@$$CBIPEAVCActorCacheData@@@std@@@3@$0A@@std@@@std@@QEAA?AV?$_Tree_iterator@V?$_Tree_val@V?$_Tmap_traits@IPEAVCActorCacheData@@U?$less@I@std@@V?$allocator@U?$pair@$$CBIPEAVCActorCacheData@@@std@@@3@$0A@@std@@@std@@@2@AEBI@Z 000000014000c440 f i DBDataCache.obj
 0001:0000b500       ??0?$CLinkedListIterator@PEAVCActorCacheData@@@container@wylib@@QEAA@XZ 000000014000c500 f i DBDataCache.obj
 0001:0000b540       ?setList@?$CLinkedListIterator@PEAVCActorCacheData@@@container@wylib@@QEAAXAEAV?$CBaseLinkedList@PEAVCActorCacheData@@@23@@Z 000000014000c540 f i DBDataCache.obj
 0001:0000b5d0       ?next@?$CLinkedListIterator@PEBVHandleMgrStat@@@container@wylib@@QEAAPEAV?$CLinkedNode@PEBVHandleMgrStat@@@23@XZ 000000014000c5d0 f i servercommon_x64:HandleStat.obj
 0001:0000b5d0       ?next@?$CLinkedListIterator@PEAVCActorCacheData@@@container@wylib@@QEAAPEAV?$CLinkedNode@PEAVCActorCacheData@@@23@XZ 000000014000c5d0 f i DBDataCache.obj
 0001:0000b630       ??C?$_Tree_iterator@V?$_Tree_val@V?$_Tmap_traits@IPEAVCActorCacheData@@U?$less@I@std@@V?$allocator@U?$pair@$$CBIPEAVCActorCacheData@@@std@@@3@$0A@@std@@@std@@@std@@QEBAPEAU?$pair@$$CBIPEAVCActorCacheData@@@1@XZ 000000014000c630 f i DBDataCache.obj
 0001:0000b650       ??E?$_Tree_iterator@V?$_Tree_val@V?$_Tmap_traits@IPEAVCActorCacheData@@U?$less@I@std@@V?$allocator@U?$pair@$$CBIPEAVCActorCacheData@@@std@@@3@$0A@@std@@@std@@@std@@QEAAAEAV01@XZ 000000014000c650 f i DBDataCache.obj
 0001:0000b670       ??E?$_Tree_iterator@V?$_Tree_val@V?$_Tmap_traits@IPEAVCActorCacheData@@U?$less@I@std@@V?$allocator@U?$pair@$$CBIPEAVCActorCacheData@@@std@@@3@$0A@@std@@@std@@@std@@QEAA?AV01@H@Z 000000014000c670 f i DBDataCache.obj
 0001:0000b6c0       ??_G?$CLinkedListIterator@PEAVCActorCacheData@@@container@wylib@@QEAAPEAXI@Z 000000014000c6c0 f i DBDataCache.obj
 0001:0000b700       ?getMemory@CMemoryStream@stream@wylib@@QEAAPEAXXZ 000000014000c700 f i srvlib_x64:NameAllocator.obj
 0001:0000b700       ??B?$CBaseList@_N@container@wylib@@QEBAPEA_NXZ 000000014000c700 f i srvlib_x64:NameAllocator.obj
 0001:0000b700       ??B?$CBaseList@H@container@wylib@@QEBAPEAHXZ 000000014000c700 f i DBCenterClient.obj
 0001:0000b700       ??B?$CBaseList@I@container@wylib@@QEBAPEAIXZ 000000014000c700 f i DBDataCache.obj
 0001:0000b700       ??B?$CBaseList@PEAV?$CRefObjectImpl@VCAnsiString@string@wylib@@@misc@wylib@@@container@wylib@@QEBAPEAPEAV?$CRefObjectImpl@VCAnsiString@string@wylib@@@misc@2@XZ 000000014000c700 f i srvlib_x64:CustomLuaConfig.obj
 0001:0000b700       ??B?$CBaseList@V?$CBaseList@VCActorCacheData@@@container@wylib@@@container@wylib@@QEBAPEAV?$CBaseList@VCActorCacheData@@@12@XZ 000000014000c700 f i DBDataCache.obj
 0001:0000b700       ??B?$CBaseList@PEBD@container@wylib@@QEBAPEAPEBDXZ 000000014000c700 f i srvlib_x64:NameAllocator.obj
 0001:0000b700       ?first@?$CBaseLinkedList@PEBVHandleMgrStat@@@container@wylib@@QEAAPEAV?$CLinkedNode@PEBVHandleMgrStat@@@23@XZ 000000014000c700 f i servercommon_x64:HandleStat.obj
 0001:0000b700       ??B?$CBaseList@PEATtagASyncNameOPData@CDBDataClient@@@container@wylib@@QEBAPEAPEATtagASyncNameOPData@CDBDataClient@@XZ 000000014000c700 f i DBDataClient.obj
 0001:0000b700       ??B?$CBaseList@UPlayerJobDistribute@@@container@wylib@@QEBAPEAUPlayerJobDistribute@@XZ 000000014000c700 f i JobZyCountMgr.obj
 0001:0000b700       ?getSocket@CCustomSocket@socket@inet@wylib@@QEAA_KXZ 000000014000c700 f i srvlib_x64:CustomClientSocket.obj
 0001:0000b700       ??B?$CBaseList@PEAVCDBDataClient@@@container@wylib@@QEBAPEAPEAVCDBDataClient@@XZ 000000014000c700 f i DBDataServer.obj
 0001:0000b700       ??B?$CBaseList@PEAVCDataPacket@@@container@wylib@@QEBAPEAPEAVCDataPacket@@XZ 000000014000c700 f i srvlib_x64:SendPackPool.obj
 0001:0000b700       ?rawStr@CAnsiString@string@wylib@@QEAAPEADXZ 000000014000c700 f i srvlib_x64:CustomLuaConfig.obj
 0001:0000b700       ??B?$CBaseList@UtagDbEsql@@@container@wylib@@QEBAPEAUtagDbEsql@@XZ 000000014000c700 f i EsqlMgr.obj
 0001:0000b700       ??B?$CBaseList@PEAVCTimeProfMgr@@@container@wylib@@QEBAPEAPEAVCTimeProfMgr@@XZ 000000014000c700 f i srvlib_x64:TimeStat.obj
 0001:0000b700       ??B?$CBaseList@V?$Handle@I@@@container@wylib@@QEBAPEAV?$Handle@I@@XZ 000000014000c700 f i DBDataCache.obj
 0001:0000b700       ??B?$CBaseList@VCActorCacheData@@@container@wylib@@QEBAPEAVCActorCacheData@@XZ 000000014000c700 f i DBDataCache.obj
 0001:0000b700       ?first@?$CBaseLinkedList@PEAVCActorCacheData@@@container@wylib@@QEAAPEAV?$CLinkedNode@PEAVCActorCacheData@@@23@XZ 000000014000c700 f i DBDataCache.obj
 0001:0000b700       ??B?$CBaseList@PEAUtagAppInternalMessage@@@container@wylib@@QEBAPEAPEAUtagAppInternalMessage@@XZ 000000014000c700 f i srvlib_x64:CustomWorkSocket.obj
 0001:0000b700       ??B?$CBaseList@UPlayerZYDistribute@@@container@wylib@@QEBAPEAUPlayerZYDistribute@@XZ 000000014000c700 f i JobZyCountMgr.obj
 0001:0000b700       ??B?$CBaseList@PEAVCCustomServerClientSocket@@@container@wylib@@QEBAPEAPEAVCCustomServerClientSocket@@XZ 000000014000c700 f i srvlib_x64:CustomServerSocket.obj
 0001:0000b700       ??B?$CBaseList@PEAVCTimeProfRecord@@@container@wylib@@QEBAPEAPEAVCTimeProfRecord@@XZ 000000014000c700 f i srvlib_x64:TimeStat.obj
 0001:0000b700       ??B?$CBaseList@PEAUNameOperateData@CNameSyncClient@@@container@wylib@@QEBAPEAPEAUNameOperateData@CNameSyncClient@@XZ 000000014000c700 f i DBNSClient.obj
 0001:0000b700       ??B?$CBaseList@PEAUtagGameServerRoute@jxSrvDef@@@container@wylib@@QEBAPEAPEAUtagGameServerRoute@jxSrvDef@@XZ 000000014000c700 f i DBServer.obj
 0001:0000b700       ??B?$CBaseList@V?$CBaseList@V?$Handle@I@@@container@wylib@@@container@wylib@@QEBAPEAV?$CBaseList@V?$Handle@I@@@12@XZ 000000014000c700 f i DBDataCache.obj
 0001:0000b700       ??B?$CBaseList@UPlayerNameDistribute@@@container@wylib@@QEBAPEAUPlayerNameDistribute@@XZ 000000014000c700 f i JobZyCountMgr.obj
 0001:0000b710       ?remove@?$CBaseLinkedList@PEBVHandleMgrStat@@@container@wylib@@QEAAXPEAV?$CLinkedNode@PEBVHandleMgrStat@@@23@H@Z 000000014000c710 f i servercommon_x64:HandleStat.obj
 0001:0000b710       ?remove@?$CBaseLinkedList@PEAVCActorCacheData@@@container@wylib@@QEAAXPEAV?$CLinkedNode@PEAVCActorCacheData@@@23@H@Z 000000014000c710 f i DBDataCache.obj
 0001:0000b880       ??0?$_Tree@V?$_Tmap_traits@IPEAVCActorCacheData@@U?$less@I@std@@V?$allocator@U?$pair@$$CBIPEAVCActorCacheData@@@std@@@3@$0A@@std@@@std@@QEAA@AEBU?$less@I@1@AEBV?$allocator@U?$pair@$$CBIPEAVCActorCacheData@@@std@@@1@@Z 000000014000c880 f i DBDataCache.obj
 0001:0000b8d0       ?lower_bound@?$_Tree@V?$_Tmap_traits@IPEAVCActorCacheData@@U?$less@I@std@@V?$allocator@U?$pair@$$CBIPEAVCActorCacheData@@@std@@@3@$0A@@std@@@std@@QEAA?AV?$_Tree_iterator@V?$_Tree_val@V?$_Tmap_traits@IPEAVCActorCacheData@@U?$less@I@std@@V?$allocator@U?$pair@$$CBIPEAVCActorCacheData@@@std@@@3@$0A@@std@@@std@@@2@AEBI@Z 000000014000c8d0 f i DBDataCache.obj
 0001:0000b910       ?_Key@?$_Tree_val@V?$_Tmap_traits@IPEAVCActorCacheData@@U?$less@I@std@@V?$allocator@U?$pair@$$CBIPEAVCActorCacheData@@@std@@@3@$0A@@std@@@std@@SAAEAIPEAU_Node@?$_Tree_nod@V?$_Tmap_traits@IPEAVCActorCacheData@@U?$less@I@std@@V?$allocator@U?$pair@$$CBIPEAVCActorCacheData@@@std@@@3@$0A@@std@@@2@@Z 000000014000c910 f i DBDataCache.obj
 0001:0000b930       ??R?$less@I@std@@QEBA_NAEBI0@Z 000000014000c930 f i DBDataCache.obj
 0001:0000b970       ??D?$_Tree_iterator@V?$_Tree_val@V?$_Tmap_traits@IPEAVCActorCacheData@@U?$less@I@std@@V?$allocator@U?$pair@$$CBIPEAVCActorCacheData@@@std@@@3@$0A@@std@@@std@@@std@@QEBAAEAU?$pair@$$CBIPEAVCActorCacheData@@@1@XZ 000000014000c970 f i DBDataCache.obj
 0001:0000b990       ?_Lbound@?$_Tree@V?$_Tmap_traits@IPEAVCActorCacheData@@U?$less@I@std@@V?$allocator@U?$pair@$$CBIPEAVCActorCacheData@@@std@@@3@$0A@@std@@@std@@IEAAPEAU_Node@?$_Tree_nod@V?$_Tmap_traits@IPEAVCActorCacheData@@U?$less@I@std@@V?$allocator@U?$pair@$$CBIPEAVCActorCacheData@@@std@@@3@$0A@@std@@@2@AEBI@Z 000000014000c990 f i DBDataCache.obj
 0001:0000ba30       ??0?$_Tree_val@V?$_Tmap_traits@IPEAVCActorCacheData@@U?$less@I@std@@V?$allocator@U?$pair@$$CBIPEAVCActorCacheData@@@std@@@3@$0A@@std@@@std@@QEAA@AEBU?$less@I@1@V?$allocator@U?$pair@$$CBIPEAVCActorCacheData@@@std@@@1@@Z 000000014000ca30 f i DBDataCache.obj
 0001:0000bb20       ??0?$allocator@D@std@@QEAA@AEBV01@@Z 000000014000cb20 f i main.obj
 0001:0000bb20       ??0?$allocator@U?$pair@$$CBIPEAVCActorCacheData@@@std@@@std@@QEAA@AEBV01@@Z 000000014000cb20 f i DBDataCache.obj
 0001:0000bb20       ??$?0U?$pair@$$CBIPEAVCActorCacheData@@@std@@@?$allocator@U_Node@?$_Tree_nod@V?$_Tmap_traits@IPEAVCActorCacheData@@U?$less@I@std@@V?$allocator@U?$pair@$$CBIPEAVCActorCacheData@@@std@@@3@$0A@@std@@@std@@@std@@QEAA@AEBV?$allocator@U?$pair@$$CBIPEAVCActorCacheData@@@std@@@1@@Z 000000014000cb20 f i DBDataCache.obj
 0001:0000bb30       ??D?$_Tree_const_iterator@V?$_Tree_val@V?$_Tmap_traits@IPEAVCActorCacheData@@U?$less@I@std@@V?$allocator@U?$pair@$$CBIPEAVCActorCacheData@@@std@@@3@$0A@@std@@@std@@@std@@QEBAAEBU?$pair@$$CBIPEAVCActorCacheData@@@1@XZ 000000014000cb30 f i DBDataCache.obj
 0001:0000bb50       ??0?$_Tree_nod@V?$_Tmap_traits@IPEAVCActorCacheData@@U?$less@I@std@@V?$allocator@U?$pair@$$CBIPEAVCActorCacheData@@@std@@@3@$0A@@std@@@std@@QEAA@AEBU?$less@I@1@V?$allocator@U?$pair@$$CBIPEAVCActorCacheData@@@std@@@1@@Z 000000014000cb50 f i DBDataCache.obj
 0001:0000bbb0       ?allocate@?$allocator@U_Node@?$_Tree_nod@V?$_Tmap_traits@IPEAVCActorCacheData@@U?$less@I@std@@V?$allocator@U?$pair@$$CBIPEAVCActorCacheData@@@std@@@3@$0A@@std@@@std@@@std@@QEAAPEAU_Node@?$_Tree_nod@V?$_Tmap_traits@IPEAVCActorCacheData@@U?$less@I@std@@V?$allocator@U?$pair@$$CBIPEAVCActorCacheData@@@std@@@3@$0A@@std@@@2@_K@Z 000000014000cbb0 f i DBDataCache.obj
 0001:0000bbd0       ??0?$_Tmap_traits@IPEAVCActorCacheData@@U?$less@I@std@@V?$allocator@U?$pair@$$CBIPEAVCActorCacheData@@@std@@@3@$0A@@std@@QEAA@U?$less@I@1@@Z 000000014000cbd0 f i DBDataCache.obj
 0001:0000bbe0       ??0?$HandleMgr@VCActorCacheData@@V?$Handle@I@@$0EAA@@@QEAA@PEBD@Z 000000014000cbe0 f i DBDataCache.obj
 0001:0000bc80       ?Acquire@?$HandleMgr@VCActorCacheData@@V?$Handle@I@@$0EAA@@@QEAAPEAVCActorCacheData@@AEAV?$Handle@I@@@Z 000000014000cc80 f i DBDataCache.obj
 0001:0000c350       ?Release@?$HandleMgr@VCActorCacheData@@V?$Handle@I@@$0EAA@@@QEAAXV?$Handle@I@@@Z 000000014000d350 f i DBDataCache.obj
 0001:0000c510       ?GetDataPtr@?$HandleMgr@VCActorCacheData@@V?$Handle@I@@$0EAA@@@QEAAPEAVCActorCacheData@@V?$Handle@I@@@Z 000000014000d510 f i DBDataCache.obj
 0001:0000c610       ??$?5E@CDataPacketReader@@QEAAAEAV0@AEAE@Z 000000014000d610 f i DBDataCache.obj
 0001:0000c610       ??$?5_N@CDataPacketReader@@QEAAAEAV0@AEA_N@Z 000000014000d610 f i DBDataCache.obj
 0001:0000c660       ??$make_pair@AEAIAEAPEAVCActorCacheData@@@std@@YA?AU?$pair@IPEAVCActorCacheData@@@0@AEAIAEAPEAVCActorCacheData@@@Z 000000014000d660 f i DBDataCache.obj
 0001:0000c6b0       ??$insert@U?$pair@IPEAVCActorCacheData@@@std@@@?$_Tree@V?$_Tmap_traits@IPEAVCActorCacheData@@U?$less@I@std@@V?$allocator@U?$pair@$$CBIPEAVCActorCacheData@@@std@@@3@$0A@@std@@@std@@QEAA?AU?$pair@V?$_Tree_iterator@V?$_Tree_val@V?$_Tmap_traits@IPEAVCActorCacheData@@U?$less@I@std@@V?$allocator@U?$pair@$$CBIPEAVCActorCacheData@@@std@@@3@$0A@@std@@@std@@@std@@_N@1@$$QEAU?$pair@IPEAVCActorCacheData@@@1@@Z 000000014000d6b0 f i DBDataCache.obj
 0001:0000c700       ??$_Allocate@U_Node@?$_Tree_nod@V?$_Tmap_traits@IPEAVCActorCacheData@@U?$less@I@std@@V?$allocator@U?$pair@$$CBIPEAVCActorCacheData@@@std@@@3@$0A@@std@@@std@@@std@@YAPEAU_Node@?$_Tree_nod@V?$_Tmap_traits@IPEAVCActorCacheData@@U?$less@I@std@@V?$allocator@U?$pair@$$CBIPEAVCActorCacheData@@@std@@@3@$0A@@std@@@0@_KPEAU120@@Z 000000014000d700 f i DBDataCache.obj
 0001:0000c780       ??0?$CBaseList@I@container@wylib@@QEAA@XZ 000000014000d780 f i DBDataCache.obj
 0001:0000c7d0       ?Init@?$Handle@I@@QEAAXI@Z 000000014000d7d0 f i DBDataCache.obj
 0001:0000c870       ?GetMagic@?$Handle@I@@QEBAIXZ 000000014000d870 f i DBDataCache.obj
 0001:0000c890       ?GetMaxIndex@?$Handle@I@@QEAAIXZ 000000014000d890 f i DBDataCache.obj
 0001:0000c8a0       ?GetUsedHandleCount@?$HandleMgr@VCActorCacheData@@V?$Handle@I@@$0EAA@@@QEBAIXZ 000000014000d8a0 f i DBDataCache.obj
 0001:0000c8b0       ?GetTotalHandleCount@?$HandleMgr@VCActorCacheData@@V?$Handle@I@@$0EAA@@@QEAAIXZ 000000014000d8b0 f i DBDataCache.obj
 0001:0000c8e0       ?GetChunkIdPos@?$HandleMgr@VCActorCacheData@@V?$Handle@I@@$0EAA@@@QEAAXIAEAI0@Z 000000014000d8e0 f i DBDataCache.obj
 0001:0000c920       ??0?$CBaseList@V?$CBaseList@VCActorCacheData@@@container@wylib@@@container@wylib@@QEAA@XZ 000000014000d920 f i DBDataCache.obj
 0001:0000c970       ?addArray@?$CBaseList@V?$CBaseList@VCActorCacheData@@@container@wylib@@@container@wylib@@QEAAXPEAV?$CBaseList@VCActorCacheData@@@23@_J@Z 000000014000d970 f i DBDataCache.obj
 0001:0000c970       ?addArray@?$CBaseList@V?$CBaseList@V?$Handle@I@@@container@wylib@@@container@wylib@@QEAAXPEAV?$CBaseList@V?$Handle@I@@@23@_J@Z 000000014000d970 f i DBDataCache.obj
 0001:0000ca10       ??0?$CBaseList@V?$CBaseList@V?$Handle@I@@@container@wylib@@@container@wylib@@QEAA@XZ 000000014000da10 f i DBDataCache.obj
 0001:0000ca60       ?_Linsert@?$_Tree@V?$_Tmap_traits@IPEAVCActorCacheData@@U?$less@I@std@@V?$allocator@U?$pair@$$CBIPEAVCActorCacheData@@@std@@@3@$0A@@std@@@std@@QEAA?AU?$pair@V?$_Tree_iterator@V?$_Tree_val@V?$_Tmap_traits@IPEAVCActorCacheData@@U?$less@I@std@@V?$allocator@U?$pair@$$CBIPEAVCActorCacheData@@@std@@@3@$0A@@std@@@std@@@std@@_N@2@PEAU_Node@?$_Tree_nod@V?$_Tmap_traits@IPEAVCActorCacheData@@U?$less@I@std@@V?$allocator@U?$pair@$$CBIPEAVCActorCacheData@@@std@@@3@$0A@@std@@@2@_N@Z 000000014000da60 f i DBDataCache.obj
 0001:0000cdf0       ??0?$CBaseList@VCActorCacheData@@@container@wylib@@QEAA@XZ 000000014000ddf0 f i DBDataCache.obj
 0001:0000ce40       ?trunc@?$CBaseList@V?$Handle@I@@@container@wylib@@QEAAX_J@Z 000000014000de40 f i DBDataCache.obj
 0001:0000ce40       ?trunc@?$CBaseList@VCActorCacheData@@@container@wylib@@QEAAX_J@Z 000000014000de40 f i DBDataCache.obj
 0001:0000ce40       ?trunc@?$CBaseList@PEAVCDataPacket@@@container@wylib@@QEAAX_J@Z 000000014000de40 f i srvlib_x64:SendPackPool.obj
 0001:0000ce40       ?trunc@?$CBaseList@PEAUtagAppInternalMessage@@@container@wylib@@QEAAX_J@Z 000000014000de40 f i srvlib_x64:CustomWorkSocket.obj
 0001:0000ce40       ?trunc@?$CBaseList@PEAVCCustomServerClientSocket@@@container@wylib@@QEAAX_J@Z 000000014000de40 f i srvlib_x64:CustomServerSocket.obj
 0001:0000ce40       ?trunc@?$CBaseList@_N@container@wylib@@QEAAX_J@Z 000000014000de40 f i srvlib_x64:NameAllocator.obj
 0001:0000ce70       ??0?$CBaseList@V?$Handle@I@@@container@wylib@@QEAA@XZ 000000014000de70 f i DBDataCache.obj
 0001:0000cec0       ?IncMagicNumImpl@?$Handle@I@@IEAAXAEAI@Z 000000014000dec0 f i DBDataCache.obj
 0001:0000cf00       ?_Insert@?$_Tree@V?$_Tmap_traits@IPEAVCActorCacheData@@U?$less@I@std@@V?$allocator@U?$pair@$$CBIPEAVCActorCacheData@@@std@@@3@$0A@@std@@@std@@IEAA?AV?$_Tree_iterator@V?$_Tree_val@V?$_Tmap_traits@IPEAVCActorCacheData@@U?$less@I@std@@V?$allocator@U?$pair@$$CBIPEAVCActorCacheData@@@std@@@3@$0A@@std@@@std@@@2@_NPEAU_Node@?$_Tree_nod@V?$_Tmap_traits@IPEAVCActorCacheData@@U?$less@I@std@@V?$allocator@U?$pair@$$CBIPEAVCActorCacheData@@@std@@@3@$0A@@std@@@2@1@Z 000000014000df00 f i DBDataCache.obj
 0001:0000d340       ??0bad_alloc@std@@QEAA@PEBD@Z 000000014000e340 f i DBDataCache.obj
 0001:0000d380       ??F?$_Tree_iterator@V?$_Tree_val@V?$_Tmap_traits@IPEAVCActorCacheData@@U?$less@I@std@@V?$allocator@U?$pair@$$CBIPEAVCActorCacheData@@@std@@@3@$0A@@std@@@std@@@std@@QEAAAEAV01@XZ 000000014000e380 f i DBDataCache.obj
 0001:0000d3a0       ??$?0AEAV?$_Tree_iterator@V?$_Tree_val@V?$_Tmap_traits@IPEAVCActorCacheData@@U?$less@I@std@@V?$allocator@U?$pair@$$CBIPEAVCActorCacheData@@@std@@@3@$0A@@std@@@std@@@std@@_N@?$pair@V?$_Tree_iterator@V?$_Tree_val@V?$_Tmap_traits@IPEAVCActorCacheData@@U?$less@I@std@@V?$allocator@U?$pair@$$CBIPEAVCActorCacheData@@@std@@@3@$0A@@std@@@std@@@std@@_N@std@@QEAA@AEAV?$_Tree_iterator@V?$_Tree_val@V?$_Tmap_traits@IPEAVCActorCacheData@@U?$less@I@std@@V?$allocator@U?$pair@$$CBIPEAVCActorCacheData@@@std@@@3@$0A@@std@@@std@@@1@$$QEA_N@Z 000000014000e3a0 f i DBDataCache.obj
 0001:0000d3a0       ??0?$pair@V?$_Tree_iterator@V?$_Tree_val@V?$_Tmap_traits@IPEAVCActorCacheData@@U?$less@I@std@@V?$allocator@U?$pair@$$CBIPEAVCActorCacheData@@@std@@@3@$0A@@std@@@std@@@std@@_N@std@@QEAA@$$QEAV?$_Tree_iterator@V?$_Tree_val@V?$_Tmap_traits@IPEAVCActorCacheData@@U?$less@I@std@@V?$allocator@U?$pair@$$CBIPEAVCActorCacheData@@@std@@@3@$0A@@std@@@std@@@1@$$QEA_N@Z 000000014000e3a0 f i DBDataCache.obj
 0001:0000d3f0       ?max_size@?$_Tree@V?$_Tmap_traits@IPEAVCActorCacheData@@U?$less@I@std@@V?$allocator@U?$pair@$$CBIPEAVCActorCacheData@@@std@@@3@$0A@@std@@@std@@QEBA_KXZ 000000014000e3f0 f i DBDataCache.obj
 0001:0000d410       ??1bad_alloc@std@@UEAA@XZ  000000014000e410 f i DBDataCache.obj
 0001:0000d440       ??F?$_Tree_const_iterator@V?$_Tree_val@V?$_Tmap_traits@IPEAVCActorCacheData@@U?$less@I@std@@V?$allocator@U?$pair@$$CBIPEAVCActorCacheData@@@std@@@3@$0A@@std@@@std@@@std@@QEAAAEAV01@XZ 000000014000e440 f i DBDataCache.obj
 0001:0000d460       ??$?0AEAV?$_Tree_iterator@V?$_Tree_val@V?$_Tmap_traits@IPEAVCActorCacheData@@U?$less@I@std@@V?$allocator@U?$pair@$$CBIPEAVCActorCacheData@@@std@@@3@$0A@@std@@@std@@@std@@_N@?$_Pair_base@V?$_Tree_iterator@V?$_Tree_val@V?$_Tmap_traits@IPEAVCActorCacheData@@U?$less@I@std@@V?$allocator@U?$pair@$$CBIPEAVCActorCacheData@@@std@@@3@$0A@@std@@@std@@@std@@_N@std@@QEAA@AEAV?$_Tree_iterator@V?$_Tree_val@V?$_Tmap_traits@IPEAVCActorCacheData@@U?$less@I@std@@V?$allocator@U?$pair@$$CBIPEAVCActorCacheData@@@std@@@3@$0A@@std@@@std@@@1@$$QEA_N@Z 000000014000e460 f i DBDataCache.obj
 0001:0000d460       ??0?$_Pair_base@V?$_Tree_iterator@V?$_Tree_val@V?$_Tmap_traits@IPEAVCActorCacheData@@U?$less@I@std@@V?$allocator@U?$pair@$$CBIPEAVCActorCacheData@@@std@@@3@$0A@@std@@@std@@@std@@_N@std@@QEAA@$$QEAV?$_Tree_iterator@V?$_Tree_val@V?$_Tmap_traits@IPEAVCActorCacheData@@U?$less@I@std@@V?$allocator@U?$pair@$$CBIPEAVCActorCacheData@@@std@@@3@$0A@@std@@@std@@@1@$$QEA_N@Z 000000014000e460 f i DBDataCache.obj
 0001:0000d4b0       ??_Gbad_alloc@std@@UEAAPEAXI@Z 000000014000e4b0 f i DBDataCache.obj
 0001:0000d4b0       ??_Ebad_alloc@std@@UEAAPEAXI@Z 000000014000e4b0 f i DBDataCache.obj
 0001:0000d4f0       ?max_size@?$allocator@U?$pair@$$CBIPEAVCActorCacheData@@@std@@@std@@QEBA_KXZ 000000014000e4f0 f i DBDataCache.obj
 0001:0000d530       ??F?$_Tree_unchecked_const_iterator@V?$_Tree_val@V?$_Tmap_traits@IPEAVCActorCacheData@@U?$less@I@std@@V?$allocator@U?$pair@$$CBIPEAVCActorCacheData@@@std@@@3@$0A@@std@@@std@@U_Iterator_base0@2@@std@@QEAAAEAV01@XZ 000000014000e530 f i DBDataCache.obj
 0001:0000d620       ??$readAtom@E@CDataPacketReader@@QEAAEXZ 000000014000e620 f i DBDataCache.obj
 0001:0000d620       ??$readAtom@_N@CDataPacketReader@@QEAA_NXZ 000000014000e620 f i DBDataCache.obj
 0001:0000d6e0       ??$forward@PEAVCActorCacheData@@@std@@YA$$QEAPEAVCActorCacheData@@AEAPEAV1@@Z 000000014000e6e0 f i DBDataCache.obj
 0001:0000d6e0       ??$addressof@U?$pair@$$CBIPEAVCActorCacheData@@@std@@@std@@YAPEAU?$pair@$$CBIPEAVCActorCacheData@@@0@AEAU10@@Z 000000014000e6e0 f i DBDataCache.obj
 0001:0000d6e0       ??B?$CLinkedNode@PEAVCActorCacheData@@@container@wylib@@QEAAAEAPEAVCActorCacheData@@XZ 000000014000e6e0 f i DBDataCache.obj
 0001:0000d6e0       ?getServerName@CDBServer@@QEAAPEBDXZ 000000014000e6e0 f i DBCenterClient.obj
 0001:0000d6e0       ??$_Kfn@$$CBIPEAVCActorCacheData@@@?$_Tmap_traits@IPEAVCActorCacheData@@U?$less@I@std@@V?$allocator@U?$pair@$$CBIPEAVCActorCacheData@@@std@@@3@$0A@@std@@SAAEBIAEBU?$pair@$$CBIPEAVCActorCacheData@@@1@@Z 000000014000e6e0 f i DBDataCache.obj
 0001:0000d6e0       ?GetHandle@CActorCacheData@@QEBAAEBV?$Handle@I@@XZ 000000014000e6e0 f i DBDataCache.obj
 0001:0000d6e0       ??$forward@AEAV?$_Tree_iterator@V?$_Tree_val@V?$_Tmap_traits@IPEAVCActorCacheData@@U?$less@I@std@@V?$allocator@U?$pair@$$CBIPEAVCActorCacheData@@@std@@@3@$0A@@std@@@std@@@std@@@std@@YAAEAV?$_Tree_iterator@V?$_Tree_val@V?$_Tmap_traits@IPEAVCActorCacheData@@U?$less@I@std@@V?$allocator@U?$pair@$$CBIPEAVCActorCacheData@@@std@@@3@$0A@@std@@@std@@@0@AEAV10@@Z 000000014000e6e0 f i DBDataCache.obj
 0001:0000d6e0       ?GetBuffAlloc@CSendPacketPool@@QEAAAEAVCBufferAllocator@@XZ 000000014000e6e0 f i DBDataClientHandler.obj
 0001:0000d6e0       ?_Left@?$_Tree_val@V?$_Tmap_traits@IPEAVCActorCacheData@@U?$less@I@std@@V?$allocator@U?$pair@$$CBIPEAVCActorCacheData@@@std@@@3@$0A@@std@@@std@@SAAEAPEAU_Node@?$_Tree_nod@V?$_Tmap_traits@IPEAVCActorCacheData@@U?$less@I@std@@V?$allocator@U?$pair@$$CBIPEAVCActorCacheData@@@std@@@3@$0A@@std@@@2@PEAU342@@Z 000000014000e6e0 f i DBDataCache.obj
 0001:0000d6e0       ??$forward@AEAPEAVCActorCacheData@@@std@@YAAEAPEAVCActorCacheData@@AEAPEAV1@@Z 000000014000e6e0 f i DBDataCache.obj
 0001:0000d6e0       ?GetMySql@CSQLConenction@@QEAAPEAUst_mysql@@XZ 000000014000e6e0 f i DBDataServer.obj
 0001:0000d6e0       ??0?$allocator@U?$pair@$$CBIPEAVCActorCacheData@@@std@@@std@@QEAA@XZ 000000014000e6e0 f i DBDataCache.obj
 0001:0000d6e0       ??$forward@U?$pair@IPEAVCActorCacheData@@@std@@@std@@YA$$QEAU?$pair@IPEAVCActorCacheData@@@0@AEAU10@@Z 000000014000e6e0 f i DBDataCache.obj
 0001:0000d6e0       ??0?$allocator@D@std@@QEAA@XZ 000000014000e6e0 f i main.obj
 0001:0000d6e0       ??$_Move@AEAD@std@@YA$$QEADAEAD@Z 000000014000e6e0 f i DBDataCache.obj
 0001:0000d6e0       ??$move@AEA_N@std@@YA$$QEA_NAEA_N@Z 000000014000e6e0 f i DBDataCache.obj
 0001:0000d6e0       ??$forward@I@std@@YA$$QEAIAEAI@Z 000000014000e6e0 f i DBDataCache.obj
 0001:0000d6e0       ??$forward@V?$basic_string@DU?$char_traits@D@std@@V?$allocator@D@2@@std@@@std@@YA$$QEAV?$basic_string@DU?$char_traits@D@std@@V?$allocator@D@2@@0@AEAV10@@Z 000000014000e6e0 f i main.obj
 0001:0000d6e0       ??$forward@_N@std@@YA$$QEA_NAEA_N@Z 000000014000e6e0 f i DBDataCache.obj
 0001:0000d6e0       ??$forward@AEAI@std@@YAAEAIAEAI@Z 000000014000e6e0 f i DBDataCache.obj
 0001:0000d6e0       ??$move@AEAV?$_Tree_iterator@V?$_Tree_val@V?$_Tmap_traits@IPEAVCActorCacheData@@U?$less@I@std@@V?$allocator@U?$pair@$$CBIPEAVCActorCacheData@@@std@@@3@$0A@@std@@@std@@@std@@@std@@YA$$QEAV?$_Tree_iterator@V?$_Tree_val@V?$_Tmap_traits@IPEAVCActorCacheData@@U?$less@I@std@@V?$allocator@U?$pair@$$CBIPEAVCActorCacheData@@@std@@@3@$0A@@std@@@std@@@0@AEAV10@@Z 000000014000e6e0 f i DBDataCache.obj
 0001:0000d6f0       ??$?0AEAIAEAPEAVCActorCacheData@@@?$pair@IPEAVCActorCacheData@@@std@@QEAA@AEAIAEAPEAVCActorCacheData@@@Z 000000014000e6f0 f i DBDataCache.obj
 0001:0000d740       ??$_Buynode@U?$pair@IPEAVCActorCacheData@@@std@@@?$_Tree_val@V?$_Tmap_traits@IPEAVCActorCacheData@@U?$less@I@std@@V?$allocator@U?$pair@$$CBIPEAVCActorCacheData@@@std@@@3@$0A@@std@@@std@@QEAAPEAU_Node@?$_Tree_nod@V?$_Tmap_traits@IPEAVCActorCacheData@@U?$less@I@std@@V?$allocator@U?$pair@$$CBIPEAVCActorCacheData@@@std@@@3@$0A@@std@@@1@$$QEAU?$pair@IPEAVCActorCacheData@@@1@@Z 000000014000e740 f i DBDataCache.obj
 0001:0000d7c0       ?_Buynode@?$_Tree_val@V?$_Tmap_traits@IPEAVCActorCacheData@@U?$less@I@std@@V?$allocator@U?$pair@$$CBIPEAVCActorCacheData@@@std@@@3@$0A@@std@@@std@@QEAAPEAU_Node@?$_Tree_nod@V?$_Tmap_traits@IPEAVCActorCacheData@@U?$less@I@std@@V?$allocator@U?$pair@$$CBIPEAVCActorCacheData@@@std@@@3@$0A@@std@@@2@XZ 000000014000e7c0 f i DBDataCache.obj
 0001:0000d850       ??$_Cons_val@V?$allocator@U?$pair@$$CBIPEAVCActorCacheData@@@std@@@std@@U?$pair@$$CBIPEAVCActorCacheData@@@2@U?$pair@IPEAVCActorCacheData@@@2@@std@@YAXAEAV?$allocator@U?$pair@$$CBIPEAVCActorCacheData@@@std@@@0@PEAU?$pair@$$CBIPEAVCActorCacheData@@@0@$$QEAU?$pair@IPEAVCActorCacheData@@@0@@Z 000000014000e850 f i DBDataCache.obj
 0001:0000d890       ??$construct@U?$pair@IPEAVCActorCacheData@@@std@@@?$allocator@U?$pair@$$CBIPEAVCActorCacheData@@@std@@@std@@QEAAXPEAU?$pair@$$CBIPEAVCActorCacheData@@@1@$$QEAU?$pair@IPEAVCActorCacheData@@@1@@Z 000000014000e890 f i DBDataCache.obj
 0001:0000d900       ??$?0IPEAVCActorCacheData@@@?$pair@$$CBIPEAVCActorCacheData@@@std@@QEAA@$$QEAU?$pair@IPEAVCActorCacheData@@@1@@Z 000000014000e900 f i DBDataCache.obj
 0001:0000d950       ??$?0AEAIAEAPEAVCActorCacheData@@@?$_Pair_base@IPEAVCActorCacheData@@@std@@QEAA@AEAIAEAPEAVCActorCacheData@@@Z 000000014000e950 f i DBDataCache.obj
 0001:0000d950       ??$?0IPEAVCActorCacheData@@@?$_Pair_base@$$CBIPEAVCActorCacheData@@@std@@QEAA@$$QEAI$$QEAPEAVCActorCacheData@@@Z 000000014000e950 f i DBDataCache.obj
 0001:0000d9a0       ?adjustOffset@CDataPacketReader@@QEAA_K_J@Z 000000014000e9a0 f i DBDataCache.obj
 0001:0000da30       ??0HandleMgrStat@@QEAA@PEBD_J@Z 000000014000ea30 f i DBDataCache.obj
 0001:0000db20       ?getSingleton@HandleMgrCollector@@SAAEAV1@XZ 000000014000eb20 f i DBDataCache.obj
 0001:0000db70       ??0HandleMgrCollector@@QEAA@XZ 000000014000eb70 f i DBDataCache.obj
 0001:0000db90       ??1HandleMgrCollector@@QEAA@XZ 000000014000eb90 f i DBDataCache.obj
 0001:0000dbb0       ??1HandleMgrStat@@QEAA@XZ  000000014000ebb0 f i DBDataCache.obj
 0001:0000dbd0       ??0CActorCacheData@@QEAA@XZ 000000014000ebd0 f i DBDataCache.obj
 0001:0000dc60       ??0CDataPacket@@QEAA@XZ    000000014000ec60 f i DBDataCache.obj
 0001:0000dca0       ?Init@CActorCacheData@@QEAAXAEAVCBufferAllocator@@I@Z 000000014000eca0 f i DBDataCache.obj
 0001:0000dd40       ?setAllocator@CDataPacket@@QEAAXPEAVCBufferAllocator@@@Z 000000014000ed40 f i DBDataCache.obj
 0001:0000dd60       ?Trace@CActorCacheData@@QEAA_JXZ 000000014000ed60 f i DBDataCache.obj
 0001:0000dde0       ?IsDirty@CActorCacheData@@QEBA_NXZ 000000014000ede0 f i DBDataCache.obj
 0001:0000de20       ?IsACDDirty@CActorCacheData@@QEBA_NH@Z 000000014000ee20 f i DBDataCache.obj
 0001:0000de70       ?SetDirty@CActorCacheData@@QEAAXH_N@Z 000000014000ee70 f i DBDataCache.obj
 0001:0000df00       ?ResetDirty@CActorCacheData@@QEAAXXZ 000000014000ef00 f i DBDataCache.obj
 0001:0000df20       ?SetHandle@CActorCacheData@@QEAAXAEAV?$Handle@I@@@Z 000000014000ef20 f i DBDataCache.obj
 0001:0000df40       ?IsExpired@CActorCacheData@@QEBA_NXZ 000000014000ef40 f i DBDataCache.obj
 0001:0000df60       ?SetExpired@CActorCacheData@@QEAAX_N@Z 000000014000ef60 f i DBDataCache.obj
 0001:0000df90       ?CheckAndSet@CActorCacheData@@QEAA_N_J@Z 000000014000ef90 f i DBDataCache.obj
 0001:0000dfd0       ??_ECDBDataCache@@UEAAPEAXI@Z 000000014000efd0 f i DBDataCache.obj
 0001:0000dfd0       ??_GCDBDataCache@@UEAAPEAXI@Z 000000014000efd0 f i DBDataCache.obj
 0001:0000e010       ??1CDBDataCache@@UEAA@XZ   000000014000f010 f i DBDataCache.obj
 0001:0000e0a0       ??1?$map@IPEAVCActorCacheData@@U?$less@I@std@@V?$allocator@U?$pair@$$CBIPEAVCActorCacheData@@@std@@@3@@std@@QEAA@XZ 000000014000f0a0 f i DBDataCache.obj
 0001:0000e0c0       ?GetDBRequestHandler@CDBDataClientHandler@@QEAAAEAVCLogicDBReqestHandler@@XZ 000000014000f0c0 f i DBDataCache.obj
 0001:0000e0e0       ?HasReadOPFlag@CDBDataClientHandler@@IEBAHXZ 000000014000f0e0 f i DBDataCache.obj
 0001:0000e100       ??0?$CBaseLinkedList@PEBVHandleMgrStat@@@container@wylib@@QEAA@XZ 000000014000f100 f i DBDataCache.obj
 0001:0000e150       ??1?$CBaseLinkedList@PEBVHandleMgrStat@@@container@wylib@@UEAA@XZ 000000014000f150 f i DBDataCache.obj
 0001:0000e180       ?allocNode@?$CBaseLinkedList@PEBVHandleMgrStat@@@container@wylib@@MEAAPEAV?$CLinkedNode@PEBVHandleMgrStat@@@23@XZ 000000014000f180 f i DBDataCache.obj
 0001:0000e1e0       ?freeNode@?$CBaseLinkedList@PEBVHandleMgrStat@@@container@wylib@@MEAAXPEAV?$CLinkedNode@PEBVHandleMgrStat@@@23@@Z 000000014000f1e0 f i DBDataCache.obj
 0001:0000e230       ??0CMiniDateTime@@QEAA@XZ  000000014000f230 f i GuildData.obj
 0001:0000e230       ??0?$Handle@I@@QEAA@XZ     000000014000f230 f i DBDataCache.obj
 0001:0000e250       ??0?$Handle@I@@QEAA@I@Z    000000014000f250 f i DBDataCache.obj
 0001:0000e270       ??1?$CBaseLinkedList@PEAVCActorCacheData@@@container@wylib@@UEAA@XZ 000000014000f270 f i DBDataCache.obj
 0001:0000e2a0       ?clear@?$CBaseLinkedList@PEBVHandleMgrStat@@@container@wylib@@UEAAXXZ 000000014000f2a0 f i DBDataCache.obj
 0001:0000e2a0       ?clear@?$CBaseLinkedList@PEAVCActorCacheData@@@container@wylib@@UEAAXXZ 000000014000f2a0 f i DBDataCache.obj
 0001:0000e320       ?allocNode@?$CBaseLinkedList@PEAVCActorCacheData@@@container@wylib@@MEAAPEAV?$CLinkedNode@PEAVCActorCacheData@@@23@XZ 000000014000f320 f i DBDataCache.obj
 0001:0000e380       ?freeNode@?$CBaseLinkedList@PEAVCActorCacheData@@@container@wylib@@MEAAXPEAV?$CLinkedNode@PEAVCActorCacheData@@@23@@Z 000000014000f380 f i DBDataCache.obj
 0001:0000e3d0       ??1?$HandleMgr@VCActorCacheData@@V?$Handle@I@@$0EAA@@@QEAA@XZ 000000014000f3d0 f i DBDataCache.obj
 0001:0000e440       ??1?$CBaseList@I@container@wylib@@UEAA@XZ 000000014000f440 f i DBDataCache.obj
 0001:0000e470       ??1?$CBaseList@V?$CBaseList@VCActorCacheData@@@container@wylib@@@container@wylib@@UEAA@XZ 000000014000f470 f i DBDataCache.obj
 0001:0000e4a0       ??1?$CBaseList@V?$CBaseList@V?$Handle@I@@@container@wylib@@@container@wylib@@UEAA@XZ 000000014000f4a0 f i DBDataCache.obj
 0001:0000e4d0       ?reserve@?$CBaseList@V?$CBaseList@V?$Handle@I@@@container@wylib@@@container@wylib@@UEAAX_J@Z 000000014000f4d0 f i DBDataCache.obj
 0001:0000e4d0       ?reserve@?$CBaseList@V?$CBaseList@VCActorCacheData@@@container@wylib@@@container@wylib@@UEAAX_J@Z 000000014000f4d0 f i DBDataCache.obj
 0001:0000e540       ??1?$_Tree@V?$_Tmap_traits@IPEAVCActorCacheData@@U?$less@I@std@@V?$allocator@U?$pair@$$CBIPEAVCActorCacheData@@@std@@@3@$0A@@std@@@std@@QEAA@XZ 000000014000f540 f i DBDataCache.obj
 0001:0000e570       ??1?$CLinkedListIterator@PEBVHandleMgrStat@@@container@wylib@@QEAA@XZ 000000014000f570 f i servercommon_x64:HandleStat.obj
 0001:0000e570       ??1?$CLinkedListIterator@PEAVCActorCacheData@@@container@wylib@@QEAA@XZ 000000014000f570 f i DBDataCache.obj
 0001:0000e630       ??_E?$CBaseLinkedList@PEBVHandleMgrStat@@@container@wylib@@UEAAPEAXI@Z 000000014000f630 f i DBDataCache.obj
 0001:0000e630       ??_G?$CBaseLinkedList@PEBVHandleMgrStat@@@container@wylib@@UEAAPEAXI@Z 000000014000f630 f i DBDataCache.obj
 0001:0000e670       ??0?$CLinkedNode@PEBVHandleMgrStat@@@container@wylib@@QEAA@XZ 000000014000f670 f i DBDataCache.obj
 0001:0000e690       ??_G?$CLinkedNode@PEBVHandleMgrStat@@@container@wylib@@QEAAPEAXI@Z 000000014000f690 f i DBDataCache.obj
 0001:0000e6d0       ??_E?$CBaseList@I@container@wylib@@UEAAPEAXI@Z 000000014000f6d0 f i DBDataCache.obj
 0001:0000e6d0       ??_G?$CBaseList@I@container@wylib@@UEAAPEAXI@Z 000000014000f6d0 f i DBDataCache.obj
 0001:0000e710       ??_E?$CBaseLinkedList@PEAVCActorCacheData@@@container@wylib@@UEAAPEAXI@Z 000000014000f710 f i DBDataCache.obj
 0001:0000e710       ??_G?$CBaseLinkedList@PEAVCActorCacheData@@@container@wylib@@UEAAPEAXI@Z 000000014000f710 f i DBDataCache.obj
 0001:0000e750       ??0?$CLinkedNode@PEAVCActorCacheData@@@container@wylib@@QEAA@XZ 000000014000f750 f i DBDataCache.obj
 0001:0000e770       ??_G?$CLinkedNode@PEAVCActorCacheData@@@container@wylib@@QEAAPEAXI@Z 000000014000f770 f i DBDataCache.obj
 0001:0000e7b0       ??_G?$CBaseList@V?$CBaseList@VCActorCacheData@@@container@wylib@@@container@wylib@@UEAAPEAXI@Z 000000014000f7b0 f i DBDataCache.obj
 0001:0000e7b0       ??_E?$CBaseList@V?$CBaseList@VCActorCacheData@@@container@wylib@@@container@wylib@@UEAAPEAXI@Z 000000014000f7b0 f i DBDataCache.obj
 0001:0000e7f0       ??_E?$CBaseList@V?$CBaseList@V?$Handle@I@@@container@wylib@@@container@wylib@@UEAAPEAXI@Z 000000014000f7f0 f i DBDataCache.obj
 0001:0000e7f0       ??_G?$CBaseList@V?$CBaseList@V?$Handle@I@@@container@wylib@@@container@wylib@@UEAAPEAXI@Z 000000014000f7f0 f i DBDataCache.obj
 0001:0000e830       ??1?$CLinkedNode@PEBVHandleMgrStat@@@container@wylib@@QEAA@XZ 000000014000f830 f i DBDataCache.obj
 0001:0000e850       ??1?$CLinkedNode@PEAVCActorCacheData@@@container@wylib@@QEAA@XZ 000000014000f850 f i DBDataCache.obj
 0001:0000e870       ?_Tidy@?$_Tree@V?$_Tmap_traits@IPEAVCActorCacheData@@U?$less@I@std@@V?$allocator@U?$pair@$$CBIPEAVCActorCacheData@@@std@@@3@$0A@@std@@@std@@IEAAXXZ 000000014000f870 f i DBDataCache.obj
 0001:0000e8d0       ??1?$_Tree_val@V?$_Tmap_traits@IPEAVCActorCacheData@@U?$less@I@std@@V?$allocator@U?$pair@$$CBIPEAVCActorCacheData@@@std@@@3@$0A@@std@@@std@@QEAA@XZ 000000014000f8d0 f i DBDataCache.obj
 0001:0000e900       ??0?$Counter@V?$CLinkedNode@PEBVHandleMgrStat@@@container@wylib@@@@QEAA@XZ 000000014000f900 f i DBDataCache.obj
 0001:0000e920       ??1?$Counter@V?$CLinkedNode@PEBVHandleMgrStat@@@container@wylib@@@@QEAA@XZ 000000014000f920 f i DBDataCache.obj
 0001:0000e940       ??0?$Counter@V?$CLinkedNode@PEAVCActorCacheData@@@container@wylib@@@@QEAA@XZ 000000014000f940 f i DBDataCache.obj
 0001:0000e960       ??1?$Counter@V?$CLinkedNode@PEAVCActorCacheData@@@container@wylib@@@@QEAA@XZ 000000014000f960 f i DBDataCache.obj
 0001:0000e980       ??1?$CBaseList@VCActorCacheData@@@container@wylib@@UEAA@XZ 000000014000f980 f i DBDataCache.obj
 0001:0000e9b0       ?reserve@?$CBaseList@VCActorCacheData@@@container@wylib@@UEAAX_J@Z 000000014000f9b0 f i DBDataCache.obj
 0001:0000ea20       ??1?$CBaseList@V?$Handle@I@@@container@wylib@@UEAA@XZ 000000014000fa20 f i DBDataCache.obj
 0001:0000ea50       ?reserve@?$CBaseList@I@container@wylib@@UEAAX_J@Z 000000014000fa50 f i DBDataCache.obj
 0001:0000ea50       ?reserve@?$CBaseList@H@container@wylib@@UEAAX_J@Z 000000014000fa50 f i DBDataServer.obj
 0001:0000ea50       ?reserve@?$CBaseList@V?$Handle@I@@@container@wylib@@UEAAX_J@Z 000000014000fa50 f i DBDataCache.obj
 0001:0000eac0       ??_E?$CBaseList@VCActorCacheData@@@container@wylib@@UEAAPEAXI@Z 000000014000fac0 f i DBDataCache.obj
 0001:0000eac0       ??_G?$CBaseList@VCActorCacheData@@@container@wylib@@UEAAPEAXI@Z 000000014000fac0 f i DBDataCache.obj
 0001:0000eb00       ??_G?$CBaseList@V?$Handle@I@@@container@wylib@@UEAAPEAXI@Z 000000014000fb00 f i DBDataCache.obj
 0001:0000eb00       ??_E?$CBaseList@V?$Handle@I@@@container@wylib@@UEAAPEAXI@Z 000000014000fb00 f i DBDataCache.obj
 0001:0000eb40       ?begin@?$_Tree@V?$_Tmap_traits@IPEAVCActorCacheData@@U?$less@I@std@@V?$allocator@U?$pair@$$CBIPEAVCActorCacheData@@@std@@@3@$0A@@std@@@std@@QEAA?AV?$_Tree_iterator@V?$_Tree_val@V?$_Tmap_traits@IPEAVCActorCacheData@@U?$less@I@std@@V?$allocator@U?$pair@$$CBIPEAVCActorCacheData@@@std@@@3@$0A@@std@@@std@@@2@XZ 000000014000fb40 f i DBDataCache.obj
 0001:0000eb80       ?end@?$_Tree@V?$_Tmap_traits@IPEAVCActorCacheData@@U?$less@I@std@@V?$allocator@U?$pair@$$CBIPEAVCActorCacheData@@@std@@@3@$0A@@std@@@std@@QEAA?AV?$_Tree_iterator@V?$_Tree_val@V?$_Tmap_traits@IPEAVCActorCacheData@@U?$less@I@std@@V?$allocator@U?$pair@$$CBIPEAVCActorCacheData@@@std@@@3@$0A@@std@@@std@@@2@XZ 000000014000fb80 f i DBDataCache.obj
 0001:0000ebb0       ?erase@?$_Tree@V?$_Tmap_traits@IPEAVCActorCacheData@@U?$less@I@std@@V?$allocator@U?$pair@$$CBIPEAVCActorCacheData@@@std@@@3@$0A@@std@@@std@@QEAA?AV?$_Tree_iterator@V?$_Tree_val@V?$_Tmap_traits@IPEAVCActorCacheData@@U?$less@I@std@@V?$allocator@U?$pair@$$CBIPEAVCActorCacheData@@@std@@@3@$0A@@std@@@std@@@2@V?$_Tree_const_iterator@V?$_Tree_val@V?$_Tmap_traits@IPEAVCActorCacheData@@U?$less@I@std@@V?$allocator@U?$pair@$$CBIPEAVCActorCacheData@@@std@@@3@$0A@@std@@@std@@@2@0@Z 000000014000fbb0 f i DBDataCache.obj
 0001:0000ec90       ?deallocate@?$allocator@U_Node@?$_Tree_nod@V?$_Tmap_traits@IPEAVCActorCacheData@@U?$less@I@std@@V?$allocator@U?$pair@$$CBIPEAVCActorCacheData@@@std@@@3@$0A@@std@@@std@@@std@@QEAAXPEAU_Node@?$_Tree_nod@V?$_Tmap_traits@IPEAVCActorCacheData@@U?$less@I@std@@V?$allocator@U?$pair@$$CBIPEAVCActorCacheData@@@std@@@3@$0A@@std@@@2@_K@Z 000000014000fc90 f i DBDataCache.obj
 0001:0000ec90       ?deallocate@?$allocator@D@std@@QEAAXPEAD_K@Z 000000014000fc90 f i main.obj
 0001:0000ecc0       ?addToStat@?$Counter@V?$CLinkedNode@PEBVHandleMgrStat@@@container@wylib@@@@IEAAXXZ 000000014000fcc0 f i DBDataCache.obj
 0001:0000ed20       ?addToStat@?$Counter@V?$CLinkedNode@PEAVCActorCacheData@@@container@wylib@@@@IEAAXXZ 000000014000fd20 f i DBDataCache.obj
 0001:0000ed80       ?erase@?$_Tree@V?$_Tmap_traits@IPEAVCActorCacheData@@U?$less@I@std@@V?$allocator@U?$pair@$$CBIPEAVCActorCacheData@@@std@@@3@$0A@@std@@@std@@QEAA?AV?$_Tree_iterator@V?$_Tree_val@V?$_Tmap_traits@IPEAVCActorCacheData@@U?$less@I@std@@V?$allocator@U?$pair@$$CBIPEAVCActorCacheData@@@std@@@3@$0A@@std@@@std@@@2@V?$_Tree_const_iterator@V?$_Tree_val@V?$_Tmap_traits@IPEAVCActorCacheData@@U?$less@I@std@@V?$allocator@U?$pair@$$CBIPEAVCActorCacheData@@@std@@@3@$0A@@std@@@std@@@2@@Z 000000014000fd80 f i DBDataCache.obj
 0001:0000f5c0       ?clear@?$_Tree@V?$_Tmap_traits@IPEAVCActorCacheData@@U?$less@I@std@@V?$allocator@U?$pair@$$CBIPEAVCActorCacheData@@@std@@@3@$0A@@std@@@std@@QEAAXXZ 00000001400105c0 f i DBDataCache.obj
 0001:0000f640       ?_Lmost@?$_Tree@V?$_Tmap_traits@IPEAVCActorCacheData@@U?$less@I@std@@V?$allocator@U?$pair@$$CBIPEAVCActorCacheData@@@std@@@3@$0A@@std@@@std@@IEBAAEAPEAU_Node@?$_Tree_nod@V?$_Tmap_traits@IPEAVCActorCacheData@@U?$less@I@std@@V?$allocator@U?$pair@$$CBIPEAVCActorCacheData@@@std@@@3@$0A@@std@@@2@XZ 0000000140010640 f i DBDataCache.obj
 0001:0000f660       ?getCount@?$Counter@V?$CLinkedNode@PEBVHandleMgrStat@@@container@wylib@@@@SA_KXZ 0000000140010660 f i DBDataCache.obj
 0001:0000f670       ?getCount@?$Counter@V?$CLinkedNode@PEAVCActorCacheData@@@container@wylib@@@@SA_KXZ 0000000140010670 f i DBDataCache.obj
 0001:0000f680       ??0?$_Tree_iterator@V?$_Tree_val@V?$_Tmap_traits@IPEAVCActorCacheData@@U?$less@I@std@@V?$allocator@U?$pair@$$CBIPEAVCActorCacheData@@@std@@@3@$0A@@std@@@std@@@std@@QEAA@PEAU_Node@?$_Tree_nod@V?$_Tmap_traits@IPEAVCActorCacheData@@U?$less@I@std@@V?$allocator@U?$pair@$$CBIPEAVCActorCacheData@@@std@@@3@$0A@@std@@@1@PEBV?$_Tree_val@V?$_Tmap_traits@IPEAVCActorCacheData@@U?$less@I@std@@V?$allocator@U?$pair@$$CBIPEAVCActorCacheData@@@std@@@3@$0A@@std@@@1@@Z 0000000140010680 f i DBDataCache.obj
 0001:0000f6c0       ??E?$_Tree_const_iterator@V?$_Tree_val@V?$_Tmap_traits@IPEAVCActorCacheData@@U?$less@I@std@@V?$allocator@U?$pair@$$CBIPEAVCActorCacheData@@@std@@@3@$0A@@std@@@std@@@std@@QEAA?AV01@H@Z 00000001400106c0 f i DBDataCache.obj
 0001:0000f710       ??8?$_Tree_const_iterator@V?$_Tree_val@V?$_Tmap_traits@IPEAVCActorCacheData@@U?$less@I@std@@V?$allocator@U?$pair@$$CBIPEAVCActorCacheData@@@std@@@3@$0A@@std@@@std@@@std@@QEBA_NAEBV01@@Z 0000000140010710 f i DBDataCache.obj
 0001:0000f750       ??9?$_Tree_const_iterator@V?$_Tree_val@V?$_Tmap_traits@IPEAVCActorCacheData@@U?$less@I@std@@V?$allocator@U?$pair@$$CBIPEAVCActorCacheData@@@std@@@3@$0A@@std@@@std@@@std@@QEBA_NAEBV01@@Z 0000000140010750 f i DBDataCache.obj
 0001:0000f790       ?_Erase@?$_Tree@V?$_Tmap_traits@IPEAVCActorCacheData@@U?$less@I@std@@V?$allocator@U?$pair@$$CBIPEAVCActorCacheData@@@std@@@3@$0A@@std@@@std@@IEAAXPEAU_Node@?$_Tree_nod@V?$_Tmap_traits@IPEAVCActorCacheData@@U?$less@I@std@@V?$allocator@U?$pair@$$CBIPEAVCActorCacheData@@@std@@@3@$0A@@std@@@2@@Z 0000000140010790 f i DBDataCache.obj
 0001:0000f840       ?_Lrotate@?$_Tree@V?$_Tmap_traits@IPEAVCActorCacheData@@U?$less@I@std@@V?$allocator@U?$pair@$$CBIPEAVCActorCacheData@@@std@@@3@$0A@@std@@@std@@IEAAXPEAU_Node@?$_Tree_nod@V?$_Tmap_traits@IPEAVCActorCacheData@@U?$less@I@std@@V?$allocator@U?$pair@$$CBIPEAVCActorCacheData@@@std@@@3@$0A@@std@@@2@@Z 0000000140010840 f i DBDataCache.obj
 0001:0000f980       ?_Rmost@?$_Tree@V?$_Tmap_traits@IPEAVCActorCacheData@@U?$less@I@std@@V?$allocator@U?$pair@$$CBIPEAVCActorCacheData@@@std@@@3@$0A@@std@@@std@@IEBAAEAPEAU_Node@?$_Tree_nod@V?$_Tmap_traits@IPEAVCActorCacheData@@U?$less@I@std@@V?$allocator@U?$pair@$$CBIPEAVCActorCacheData@@@std@@@3@$0A@@std@@@2@XZ 0000000140010980 f i DBDataCache.obj
 0001:0000f9a0       ?_Root@?$_Tree@V?$_Tmap_traits@IPEAVCActorCacheData@@U?$less@I@std@@V?$allocator@U?$pair@$$CBIPEAVCActorCacheData@@@std@@@3@$0A@@std@@@std@@IEBAAEAPEAU_Node@?$_Tree_nod@V?$_Tmap_traits@IPEAVCActorCacheData@@U?$less@I@std@@V?$allocator@U?$pair@$$CBIPEAVCActorCacheData@@@std@@@3@$0A@@std@@@2@XZ 00000001400109a0 f i DBDataCache.obj
 0001:0000f9c0       ?_Rrotate@?$_Tree@V?$_Tmap_traits@IPEAVCActorCacheData@@U?$less@I@std@@V?$allocator@U?$pair@$$CBIPEAVCActorCacheData@@@std@@@3@$0A@@std@@@std@@IEAAXPEAU_Node@?$_Tree_nod@V?$_Tmap_traits@IPEAVCActorCacheData@@U?$less@I@std@@V?$allocator@U?$pair@$$CBIPEAVCActorCacheData@@@std@@@3@$0A@@std@@@2@@Z 00000001400109c0 f i DBDataCache.obj
 0001:0000fb00       ?_Color@?$_Tree_val@V?$_Tmap_traits@IPEAVCActorCacheData@@U?$less@I@std@@V?$allocator@U?$pair@$$CBIPEAVCActorCacheData@@@std@@@3@$0A@@std@@@std@@SAAEADPEAU_Node@?$_Tree_nod@V?$_Tmap_traits@IPEAVCActorCacheData@@U?$less@I@std@@V?$allocator@U?$pair@$$CBIPEAVCActorCacheData@@@std@@@3@$0A@@std@@@2@@Z 0000000140010b00 f i DBDataCache.obj
 0001:0000fb10       ?_Isnil@?$_Tree_val@V?$_Tmap_traits@IPEAVCActorCacheData@@U?$less@I@std@@V?$allocator@U?$pair@$$CBIPEAVCActorCacheData@@@std@@@3@$0A@@std@@@std@@SAAEADPEAU_Node@?$_Tree_nod@V?$_Tmap_traits@IPEAVCActorCacheData@@U?$less@I@std@@V?$allocator@U?$pair@$$CBIPEAVCActorCacheData@@@std@@@3@$0A@@std@@@2@@Z 0000000140010b10 f i DBDataCache.obj
 0001:0000fb20       ?_Parent@?$_Tree_val@V?$_Tmap_traits@IPEAVCActorCacheData@@U?$less@I@std@@V?$allocator@U?$pair@$$CBIPEAVCActorCacheData@@@std@@@3@$0A@@std@@@std@@SAAEAPEAU_Node@?$_Tree_nod@V?$_Tmap_traits@IPEAVCActorCacheData@@U?$less@I@std@@V?$allocator@U?$pair@$$CBIPEAVCActorCacheData@@@std@@@3@$0A@@std@@@2@PEAU342@@Z 0000000140010b20 f i DBDataCache.obj
 0001:0000fb30       ?_Right@?$_Tree_val@V?$_Tmap_traits@IPEAVCActorCacheData@@U?$less@I@std@@V?$allocator@U?$pair@$$CBIPEAVCActorCacheData@@@std@@@3@$0A@@std@@@std@@SAAEAPEAU_Node@?$_Tree_nod@V?$_Tmap_traits@IPEAVCActorCacheData@@U?$less@I@std@@V?$allocator@U?$pair@$$CBIPEAVCActorCacheData@@@std@@@3@$0A@@std@@@2@PEAU342@@Z 0000000140010b30 f i DBDataCache.obj
 0001:0000fb40       ?_Myval@?$_Tree_val@V?$_Tmap_traits@IPEAVCActorCacheData@@U?$less@I@std@@V?$allocator@U?$pair@$$CBIPEAVCActorCacheData@@@std@@@3@$0A@@std@@@std@@SAAEAU?$pair@$$CBIPEAVCActorCacheData@@@2@PEAU_Node@?$_Tree_nod@V?$_Tmap_traits@IPEAVCActorCacheData@@U?$less@I@std@@V?$allocator@U?$pair@$$CBIPEAVCActorCacheData@@@std@@@3@$0A@@std@@@2@@Z 0000000140010b40 f i DBDataCache.obj
 0001:0000fb50       ?_Max@?$_Tree_val@V?$_Tmap_traits@IPEAVCActorCacheData@@U?$less@I@std@@V?$allocator@U?$pair@$$CBIPEAVCActorCacheData@@@std@@@3@$0A@@std@@@std@@SAPEAU_Node@?$_Tree_nod@V?$_Tmap_traits@IPEAVCActorCacheData@@U?$less@I@std@@V?$allocator@U?$pair@$$CBIPEAVCActorCacheData@@@std@@@3@$0A@@std@@@2@PEAU342@@Z 0000000140010b50 f i DBDataCache.obj
 0001:0000fb90       ?_Min@?$_Tree_val@V?$_Tmap_traits@IPEAVCActorCacheData@@U?$less@I@std@@V?$allocator@U?$pair@$$CBIPEAVCActorCacheData@@@std@@@3@$0A@@std@@@std@@SAPEAU_Node@?$_Tree_nod@V?$_Tmap_traits@IPEAVCActorCacheData@@U?$less@I@std@@V?$allocator@U?$pair@$$CBIPEAVCActorCacheData@@@std@@@3@$0A@@std@@@2@PEAU342@@Z 0000000140010b90 f i DBDataCache.obj
 0001:0000fbd0       ??0?$_Tree_const_iterator@V?$_Tree_val@V?$_Tmap_traits@IPEAVCActorCacheData@@U?$less@I@std@@V?$allocator@U?$pair@$$CBIPEAVCActorCacheData@@@std@@@3@$0A@@std@@@std@@@std@@QEAA@PEAU_Node@?$_Tree_nod@V?$_Tmap_traits@IPEAVCActorCacheData@@U?$less@I@std@@V?$allocator@U?$pair@$$CBIPEAVCActorCacheData@@@std@@@3@$0A@@std@@@1@PEBV?$_Tree_val@V?$_Tmap_traits@IPEAVCActorCacheData@@U?$less@I@std@@V?$allocator@U?$pair@$$CBIPEAVCActorCacheData@@@std@@@3@$0A@@std@@@1@@Z 0000000140010bd0 f i DBDataCache.obj
 0001:0000fc10       ??E?$_Tree_const_iterator@V?$_Tree_val@V?$_Tmap_traits@IPEAVCActorCacheData@@U?$less@I@std@@V?$allocator@U?$pair@$$CBIPEAVCActorCacheData@@@std@@@3@$0A@@std@@@std@@@std@@QEAAAEAV01@XZ 0000000140010c10 f i DBDataCache.obj
 0001:0000fc30       ?_Mynode@?$_Tree_unchecked_const_iterator@V?$_Tree_val@V?$_Tmap_traits@IPEAVCActorCacheData@@U?$less@I@std@@V?$allocator@U?$pair@$$CBIPEAVCActorCacheData@@@std@@@3@$0A@@std@@@std@@U_Iterator_base0@2@@std@@QEBAPEAU_Node@?$_Tree_nod@V?$_Tmap_traits@IPEAVCActorCacheData@@U?$less@I@std@@V?$allocator@U?$pair@$$CBIPEAVCActorCacheData@@@std@@@3@$0A@@std@@@2@XZ 0000000140010c30 f i DBDataCache.obj
 0001:0000fc30       ?getMemoryPtr@CDataPacketReader@@QEAAPEADXZ 0000000140010c30 f i srvlib_x64:CustomLuaScript.obj
 0001:0000fc40       ??0?$_Tree_unchecked_const_iterator@V?$_Tree_val@V?$_Tmap_traits@IPEAVCActorCacheData@@U?$less@I@std@@V?$allocator@U?$pair@$$CBIPEAVCActorCacheData@@@std@@@3@$0A@@std@@@std@@U_Iterator_base0@2@@std@@QEAA@PEAU_Node@?$_Tree_nod@V?$_Tmap_traits@IPEAVCActorCacheData@@U?$less@I@std@@V?$allocator@U?$pair@$$CBIPEAVCActorCacheData@@@std@@@3@$0A@@std@@@1@PEBV?$_Tree_val@V?$_Tmap_traits@IPEAVCActorCacheData@@U?$less@I@std@@V?$allocator@U?$pair@$$CBIPEAVCActorCacheData@@@std@@@3@$0A@@std@@@1@@Z 0000000140010c40 f i DBDataCache.obj
 0001:0000fc80       ?_Adopt@_Iterator_base0@std@@QEAAXPEBX@Z 0000000140010c80 f i DBDataCache.obj
 0001:0000fc80       ??3@YAXPEAX0@Z             0000000140010c80 f i srvlib_x64:TimeStat.obj
 0001:0000fc90       ??E?$_Tree_unchecked_const_iterator@V?$_Tree_val@V?$_Tmap_traits@IPEAVCActorCacheData@@U?$less@I@std@@V?$allocator@U?$pair@$$CBIPEAVCActorCacheData@@@std@@@3@$0A@@std@@@std@@U_Iterator_base0@2@@std@@QEAAAEAV01@XZ 0000000140010c90 f i DBDataCache.obj
 0001:0000fd50       ?Empty@?$HandleMgr@VCActorCacheData@@V?$Handle@I@@$0EAA@@@QEAAXXZ 0000000140010d50 f i DBDataCache.obj
 0001:0000ff60       ??$swap@D@std@@YAXAEAD0@Z  0000000140010f60 f i DBDataCache.obj
 0001:0000ffb0       ??$_Dest_val@V?$allocator@U?$pair@$$CBIPEAVCActorCacheData@@@std@@@std@@U?$pair@$$CBIPEAVCActorCacheData@@@2@@std@@YAXAEAV?$allocator@U?$pair@$$CBIPEAVCActorCacheData@@@std@@@0@PEAU?$pair@$$CBIPEAVCActorCacheData@@@0@@Z 0000000140010fb0 f i DBDataCache.obj
 0001:0000ffe0       ??_GCActorCacheData@@QEAAPEAXI@Z 0000000140010fe0 f i DBDataCache.obj
 0001:00010020       ??0bad_alloc@std@@QEAA@AEBV01@@Z 0000000140011020 f i DBDataCache.obj
 0001:00010060       ??1CActorCacheData@@QEAA@XZ 0000000140011060 f i DBDataCache.obj
 0001:000100a0       ?GetIndex@?$Handle@I@@QEBAIXZ 00000001400110a0 f i DBDataCache.obj
 0001:000100c0       ??BCMiniDateTime@@QEAAIXZ  00000001400110c0 f i GuildData.obj
 0001:000100c0       ?GetHandle@?$Handle@I@@QEBAIXZ 00000001400110c0 f i DBDataCache.obj
 0001:000100d0       ?IsNull@?$Handle@I@@QEBA_NXZ 00000001400110d0 f i DBDataCache.obj
 0001:00010100       ?destroy@?$allocator@U?$pair@$$CBIPEAVCActorCacheData@@@std@@@std@@QEAAXPEAU?$pair@$$CBIPEAVCActorCacheData@@@2@@Z 0000000140011100 f i DBDataCache.obj
 0001:00010120       ??0CDBDataClient@@QEAA@PEAVCDBDataServer@@PEAVCSQLConenction@@_KPEAUsockaddr_in@@@Z 0000000140011120 f   DBDataClient.obj
 0001:000102e0       ??1CDBDataClient@@UEAA@XZ  00000001400112e0 f   DBDataClient.obj
 0001:000103c0       ?AllocDataPacket@CDBDataClient@@UEAAAEAVCDataPacket@@G@Z 00000001400113c0 f   DBDataClient.obj
 0001:00010400       ?FlushDataPacket@CDBDataClient@@UEAAXAEAVCDataPacket@@@Z 0000000140011400 f   DBDataClient.obj
 0001:00010440       ?OnDisconnected@CDBDataClient@@MEAAXXZ 0000000140011440 f   DBDataClient.obj
 0001:000104a0       ?Disconnected@CDBDataClient@@MEAAXXZ 00000001400114a0 f   DBDataClient.obj
 0001:000104e0       ?OnError@CDBDataClient@@MEAAXH@Z 00000001400114e0 f   DBDataClient.obj
 0001:00010540       ?DispatchInternalMessage@CDBDataClient@@MEAAXI_K000@Z 0000000140011540 f   DBDataClient.obj
 0001:000106b0       ?OnRun@CDBDataClient@@MEAAXXZ 00000001400116b0 f   DBDataClient.obj
 0001:000106c0       ?OnDispatchRecvPacketEx@CDBDataClient@@AEAAXGAEAVCDataPacketReader@@@Z 00000001400116c0 f   DBDataClient.obj
 0001:00010760       ?OnDispatchRecvPacket@CDBDataClient@@MEAAXGAEAVCDataPacketReader@@@Z 0000000140011760 f   DBDataClient.obj
 0001:00010840       ?DefaultPacket@CDBDataClient@@IEAAXAEAVCDataPacketReader@@@Z 0000000140011840 f   DBDataClient.obj
 0001:00010860       ?ClearASyncNameOPList@CDBDataClient@@IEAAXXZ 0000000140011860 f   DBDataClient.obj
 0001:00010920       ?PeekASyncNameOPData@CDBDataClient@@IEAAPEATtagASyncNameOPData@1@PEAT21@@Z 0000000140011920 f   DBDataClient.obj
 0001:00010980       ?RenameCharOnDatabase@CDBDataClient@@IEAA_J_JPEBD@Z 0000000140011980 f   DBDataClient.obj
 0001:00010a50       ?ProcessRenameCharResult@CDBDataClient@@IEAAXPEATtagASyncNameOPData@1@_J@Z 0000000140011a50 f   DBDataClient.obj
 0001:00010bf0       ?SendAddGuildResult@CDBDataClient@@AEAAXHHHH_KIPEBD1E_J@Z 0000000140011bf0 f   DBDataClient.obj
 0001:00010cc0       ?ProcessAllocGuildResult@CDBDataClient@@IEAAXPEATtagASyncNameOPData@1@_J_K@Z 0000000140011cc0 f   DBDataClient.obj
 0001:000110a0       ?DispatchRecvMsg@CDBDataClient@@AEAAXPEBD_K@Z 00000001400120a0 f   DBDataClient.obj
 0001:000110c0       ?CatchRenameChar@CDBDataClient@@AEAAHPEBD_K@Z 00000001400120c0 f   DBDataClient.obj
 0001:00011370       ?CatchCreateGuild@CDBDataClient@@MEAAHIPEBD0H_KE_J@Z 0000000140012370 f   DBDataClient.obj
 0001:00011760       ?HasRemainData@CDBDataClient@@QEAAHXZ 0000000140012760 f   DBDataClient.obj
 0001:00011870       ?OnValidateRegData@CDBDataClient@@MEAA_NQEAUtagServerRegistData@jxSrvDef@@@Z 0000000140012870 f   DBDataClient.obj
 0001:000118c0       ?OnRegDataValidated@CDBDataClient@@MEAAXXZ 00000001400128c0 f   DBDataClient.obj
 0001:000118f0       ??_ECDBDataClient@@UEAAPEAXI@Z 00000001400128f0 f i DBDataClient.obj
 0001:000118f0       ??_GCDBDataClient@@UEAAPEAXI@Z 00000001400128f0 f i DBDataClient.obj
 0001:00011930       ??1?$CLockList@PEATtagASyncNameOPData@CDBDataClient@@@container@wylib@@UEAA@XZ 0000000140012930 f i DBDataClient.obj
 0001:00011950       ?strchr@@YAPEADPEADH@Z     0000000140012950 f i DBDataClient.obj
 0001:00011980       ??0?$CLockList@PEATtagASyncNameOPData@CDBDataClient@@@container@wylib@@QEAA@PEAVCBaseLock@lock@sync@2@@Z 0000000140012980 f i DBDataClient.obj
 0001:000119c0       ?index@?$CBaseList@PEATtagASyncNameOPData@CDBDataClient@@@container@wylib@@QEBA_JAEBQEATtagASyncNameOPData@CDBDataClient@@@Z 00000001400129c0 f i DBDataClient.obj
 0001:00011a30       ??_G?$CLockList@PEATtagASyncNameOPData@CDBDataClient@@@container@wylib@@UEAAPEAXI@Z 0000000140012a30 f i DBDataClient.obj
 0001:00011a30       ??_E?$CLockList@PEATtagASyncNameOPData@CDBDataClient@@@container@wylib@@UEAAPEAXI@Z 0000000140012a30 f i DBDataClient.obj
 0001:00011a70       ??0?$CBaseList@PEATtagASyncNameOPData@CDBDataClient@@@container@wylib@@QEAA@XZ 0000000140012a70 f i DBDataClient.obj
 0001:00011ac0       ?getRecvBuffer@CCustomWorkSocket@@IEAAQEAUtagDataBuffer@@XZ 0000000140012ac0 f i DBDataClient.obj
 0001:00011ae0       ?getProcRecvBuffer@CCustomWorkSocket@@IEAAQEAUtagDataBuffer@@XZ 0000000140012ae0 f i DBDataClient.obj
 0001:00011b00       ?getInternalMessageCount@CCustomWorkSocket@@IEAA_JXZ 0000000140012b00 f i DBDataClient.obj
 0001:00011b30       ?GetDBEngine@CDBDataServer@@QEAAPEAVCDBServer@@XZ 0000000140012b30 f i DBDataClient.obj
 0001:00011b50       ?GetJobZyMgr@CDBDataServer@@QEAAPEAVCJobZyCountMgr@@XZ 0000000140012b50 f i DBDataClient.obj
 0001:00011b70       ?getNameSyncClient@CDBServer@@QEAAPEAVCNameSyncClient@@XZ 0000000140012b70 f i DBDataClient.obj
 0001:00011b90       ?getClientServerIndex@CCustomJXServerClientSocket@@QEAAHXZ 0000000140012b90 f i DBDataClient.obj
 0001:00011bb0       ??1?$CBaseList@PEATtagASyncNameOPData@CDBDataClient@@@container@wylib@@UEAA@XZ 0000000140012bb0 f i DBDataClient.obj
 0001:00011be0       ?empty@?$CBaseList@PEBD@container@wylib@@UEAAXXZ 0000000140012be0 f i srvlib_x64:NameAllocator.obj
 0001:00011be0       ?empty@?$CBaseList@V?$CBaseList@VCActorCacheData@@@container@wylib@@@container@wylib@@UEAAXXZ 0000000140012be0 f i DBDataCache.obj
 0001:00011be0       ?empty@?$CBaseList@V?$Handle@I@@@container@wylib@@UEAAXXZ 0000000140012be0 f i DBDataCache.obj
 0001:00011be0       ?empty@?$CBaseList@PEAUtagAppInternalMessage@@@container@wylib@@UEAAXXZ 0000000140012be0 f i srvlib_x64:CustomWorkSocket.obj
 0001:00011be0       ?empty@?$CBaseList@UPlayerNameDistribute@@@container@wylib@@UEAAXXZ 0000000140012be0 f i DBDataServer.obj
 0001:00011be0       ?empty@?$CBaseList@PEAVCTimeProfRecord@@@container@wylib@@UEAAXXZ 0000000140012be0 f i srvlib_x64:TimeStat.obj
 0001:00011be0       ?empty@?$CBaseList@V?$CBaseList@V?$Handle@I@@@container@wylib@@@container@wylib@@UEAAXXZ 0000000140012be0 f i DBDataCache.obj
 0001:00011be0       ?empty@?$CBaseList@UPlayerZYDistribute@@@container@wylib@@UEAAXXZ 0000000140012be0 f i DBDataServer.obj
 0001:00011be0       ?empty@?$CBaseList@PEAVCDBDataClient@@@container@wylib@@UEAAXXZ 0000000140012be0 f i DBDataServer.obj
 0001:00011be0       ?empty@?$CBaseList@PEATtagASyncNameOPData@CDBDataClient@@@container@wylib@@UEAAXXZ 0000000140012be0 f i DBDataClient.obj
 0001:00011be0       ?empty@?$CBaseList@PEAVCTimeProfMgr@@@container@wylib@@UEAAXXZ 0000000140012be0 f i srvlib_x64:TimeStat.obj
 0001:00011be0       ?empty@?$CBaseList@PEAVCDataPacket@@@container@wylib@@UEAAXXZ 0000000140012be0 f i srvlib_x64:SendPackPool.obj
 0001:00011be0       ?empty@?$CBaseList@H@container@wylib@@UEAAXXZ 0000000140012be0 f i DBDataServer.obj
 0001:00011be0       ?empty@?$CBaseList@PEAUtagGameServerRoute@jxSrvDef@@@container@wylib@@UEAAXXZ 0000000140012be0 f i DBServer.obj
 0001:00011be0       ?empty@?$CBaseList@PEAUNameOperateData@CNameSyncClient@@@container@wylib@@UEAAXXZ 0000000140012be0 f i DBNSClient.obj
 0001:00011be0       ?empty@?$CBaseList@_N@container@wylib@@UEAAXXZ 0000000140012be0 f i srvlib_x64:NameAllocator.obj
 0001:00011be0       ?empty@?$CBaseList@PEAV?$CRefObjectImpl@VCAnsiString@string@wylib@@@misc@wylib@@@container@wylib@@UEAAXXZ 0000000140012be0 f i srvlib_x64:CustomLuaConfig.obj
 0001:00011be0       ?empty@?$CBaseList@UtagDbEsql@@@container@wylib@@UEAAXXZ 0000000140012be0 f i EsqlMgr.obj
 0001:00011be0       ?empty@?$CBaseList@I@container@wylib@@UEAAXXZ 0000000140012be0 f i DBDataCache.obj
 0001:00011be0       ?empty@?$CBaseList@PEAVCCustomServerClientSocket@@@container@wylib@@UEAAXXZ 0000000140012be0 f i srvlib_x64:CustomServerSocket.obj
 0001:00011be0       ?empty@?$CBaseList@UPlayerJobDistribute@@@container@wylib@@UEAAXXZ 0000000140012be0 f i DBDataServer.obj
 0001:00011be0       ?empty@?$CBaseList@VCActorCacheData@@@container@wylib@@UEAAXXZ 0000000140012be0 f i DBDataCache.obj
 0001:00011c30       ??_E?$CBaseList@PEATtagASyncNameOPData@CDBDataClient@@@container@wylib@@UEAAPEAXI@Z 0000000140012c30 f i DBDataClient.obj
 0001:00011c30       ??_G?$CBaseList@PEATtagASyncNameOPData@CDBDataClient@@@container@wylib@@UEAAPEAXI@Z 0000000140012c30 f i DBDataClient.obj
 0001:00011c70       ??0CDBDataClientHandler@@QEAA@XZ 0000000140012c70 f   DBDataClientHandler.obj
 0001:00011dc0       ??1CDBDataClientHandler@@QEAA@XZ 0000000140012dc0 f   DBDataClientHandler.obj
 0001:00011ed0       ?AddMessage@CDBDataClientHandler@@QEAAXGAEAVCDataPacketReader@@@Z 0000000140012ed0 f   DBDataClientHandler.obj
 0001:00011fc0       ?Trace@CDBDataClientHandler@@QEAAXXZ 0000000140012fc0 f   DBDataClientHandler.obj
 0001:00012260       ?IsReadCmd@CDBDataClientHandler@@IEAA_NG@Z 0000000140013260 f   DBDataClientHandler.obj
 0001:00012370       ?HandleDBMessage@CDBDataClientHandler@@IEAAXGAEAVCDataPacket@@@Z 0000000140013370 f   DBDataClientHandler.obj
 0001:00013b10       ?Start@CDBDataClientHandler@@QEAA_NPEAVILogicDBRequestHost@@PEAVCSQLConenction@@@Z 0000000140014b10 f   DBDataClientHandler.obj
 0001:00013bb0       ?Stop@CDBDataClientHandler@@QEAA_NXZ 0000000140014bb0 f   DBDataClientHandler.obj
 0001:00013bd0       ?OnRountine@CDBDataClientHandler@@MEAAXXZ 0000000140014bd0 f   DBDataClientHandler.obj
 0001:00013c00       ?ThreadLogicProc@CDBDataClientHandler@@IEAAXXZ 0000000140014c00 f   DBDataClientHandler.obj
 0001:00013c10       ?OnTerminated@CDBDataClientHandler@@MEAAXXZ 0000000140014c10 f   DBDataClientHandler.obj
 0001:00013c50       ?RunOne@CDBDataClientHandler@@IEAAXXZ 0000000140014c50 f   DBDataClientHandler.obj
 0001:00013d80       ?AllocPacket@CDBDataClientHandler@@IEAAPEAVCDataPacket@@XZ 0000000140014d80 f   DBDataClientHandler.obj
 0001:00013e70       ?FreePacket@CDBDataClientHandler@@IEAAXPEAVCDataPacket@@@Z 0000000140014e70 f   DBDataClientHandler.obj
 0001:00013eb0       ?DestroyPacketList@CDBDataClientHandler@@IEAAXAEAV?$CQueueList@PEAVCDataPacket@@@container@wylib@@@Z 0000000140014eb0 f   DBDataClientHandler.obj
 0001:00013f40       ?SetSQLConnection@CLogicDBReqestHandler@@QEAAXPEAVCSQLConenction@@@Z 0000000140014f40 f i DBDataClientHandler.obj
 0001:00013f60       ?SetRequestHost@CLogicDBReqestHandler@@QEAAXPEAVILogicDBRequestHost@@@Z 0000000140014f60 f i DBDataClientHandler.obj
 0001:00013f80       ?SetReadOpFlag@CDBDataClientHandler@@IEAAXH@Z 0000000140014f80 f i DBDataClientHandler.obj
 0001:00013fa0       ??0CDBDataServer@@QEAA@PEAVCDBServer@@@Z 0000000140014fa0 f   DBDataServer.obj
 0001:00014100       ??1CDBDataServer@@UEAA@XZ  0000000140015100 f   DBDataServer.obj
 0001:00014190       ?CreateClientSocket@CDBDataServer@@MEAAPEAVCCustomServerClientSocket@@_KPEAUsockaddr_in@@@Z 0000000140015190 f   DBDataServer.obj
 0001:00014220       ?DestroyClientSocket@CDBDataServer@@MEAAXPEAVCCustomServerClientSocket@@@Z 0000000140015220 f   DBDataServer.obj
 0001:00014300       ?ProcessClients@CDBDataServer@@MEAAXXZ 0000000140015300 f   DBDataServer.obj
 0001:00014390       ?DispatchInternalMessage@CDBDataServer@@MEAAXI_K000@Z 0000000140015390 f   DBDataServer.obj
 0001:00014540       ?OnSocketDataThreadStop@CDBDataServer@@MEAAXXZ 0000000140015540 f   DBDataServer.obj
 0001:000145c0       ?SingleRun@CDBDataServer@@MEAAXXZ 00000001400155c0 f   DBDataServer.obj
 0001:000145f0       ?OnRun@CDBDataServer@@MEAAXXZ 00000001400155f0 f   DBDataServer.obj
 0001:00014a80       ?UpdateLogicClientList@CDBDataServer@@QEAAXXZ 0000000140015a80 f   DBDataServer.obj
 0001:00014c60       ?Trace@CDBDataServer@@QEAAXXZ 0000000140015c60 f   DBDataServer.obj
 0001:00014d10       ?SendDataClientMsg@CDBDataServer@@IEAA_J_JPEBX_K@Z 0000000140015d10 f   DBDataServer.obj
 0001:00014df0       ?getGameReady@CDBDataServer@@QEAAHH@Z 0000000140015df0 f   DBDataServer.obj
 0001:00014ea0       ?PostClientInternalMessages@CDBDataServer@@IEAA_J_KI0000@Z 0000000140015ea0 f   DBDataServer.obj
 0001:00014fa0       ?ConnectSQL@CDBDataServer@@AEAAHXZ 0000000140015fa0 f   DBDataServer.obj
 0001:000150b0       ?ProcessClosedClients@CDBDataServer@@AEAAXXZ 00000001400160b0 f   DBDataServer.obj
 0001:000151b0       ?AllDataProcessed@CDBDataServer@@AEAAHXZ 00000001400161b0 f   DBDataServer.obj
 0001:000152e0       ?FreeAllClient@CDBDataServer@@AEAAXXZ 00000001400162e0 f   DBDataServer.obj
 0001:00015420       ?GetAvailableDataClientCount@CDBDataServer@@QEAA_J_J@Z 0000000140016420 f   DBDataServer.obj
 0001:00015520       ?IsCharSavedFailure@CDBDataServer@@QEAAH_J@Z 0000000140016520 f   DBDataServer.obj
 0001:00015530       ??_GCDBDataServer@@UEAAPEAXI@Z 0000000140016530 f i DBDataServer.obj
 0001:00015530       ??_ECDBDataServer@@UEAAPEAXI@Z 0000000140016530 f i DBDataServer.obj
 0001:00015570       ??1CJobZyCountMgr@@QEAA@XZ 0000000140016570 f i DBDataServer.obj
 0001:00015620       ??0?$CBaseList@PEAVCDBDataClient@@@container@wylib@@QEAA@XZ 0000000140016620 f i DBDataServer.obj
 0001:00015670       ??0?$CBaseList@H@container@wylib@@QEAA@XZ 0000000140016670 f i DBDataServer.obj
 0001:000156c0       ??1?$CBaseList@H@container@wylib@@UEAA@XZ 00000001400166c0 f i DBDataServer.obj
 0001:000156f0       ?add@?$CBaseList@H@container@wylib@@QEAA_JAEBH@Z 00000001400166f0 f i DBDataServer.obj
 0001:000156f0       ?add@?$CBaseList@I@container@wylib@@QEAA_JAEBI@Z 00000001400166f0 f i DBDataCache.obj
 0001:000157a0       ??_E?$CBaseList@H@container@wylib@@UEAAPEAXI@Z 00000001400167a0 f i DBDataServer.obj
 0001:000157a0       ??_G?$CBaseList@H@container@wylib@@UEAAPEAXI@Z 00000001400167a0 f i DBDataServer.obj
 0001:000157e0       ??0CDataPacket@@QEAA@PEBX_K@Z 00000001400167e0 f i DBDataServer.obj
 0001:00015840       ?SetParam@CJobZyCountMgr@@QEAAXPEAVCSQLConenction@@@Z 0000000140016840 f i DBDataServer.obj
 0001:00015860       ?HasLoadJobData@CJobZyCountMgr@@QEAA_NXZ 0000000140016860 f i DBDataServer.obj
 0001:00015870       ?getDBCenterClient@CDBServer@@QEAAPEAVCDBCenterClient@@XZ 0000000140016870 f i DBDataServer.obj
 0001:00015890       ?registed@CCustomJXServerClientSocket@@QEAA_NXZ 0000000140016890 f i DBDataServer.obj
 0001:000158b0       ?Trace@CDBDataClient@@QEAAXXZ 00000001400168b0 f i DBDataServer.obj
 0001:000159a0       ?GetPlatfromFlag@CDBCenterClient@@QEAAHXZ 00000001400169a0 f i DBDataServer.obj
 0001:000159c0       ??1?$CBaseList@UPlayerZYDistribute@@@container@wylib@@UEAA@XZ 00000001400169c0 f i DBDataServer.obj
 0001:000159f0       ?reserve@?$CBaseList@UPlayerZYDistribute@@@container@wylib@@UEAAX_J@Z 00000001400169f0 f i DBDataServer.obj
 0001:000159f0       ?reserve@?$CBaseList@UPlayerJobDistribute@@@container@wylib@@UEAAX_J@Z 00000001400169f0 f i DBDataServer.obj
 0001:00015a60       ??1?$CBaseList@UPlayerJobDistribute@@@container@wylib@@UEAA@XZ 0000000140016a60 f i DBDataServer.obj
 0001:00015a90       ??1?$CBaseList@UPlayerNameDistribute@@@container@wylib@@UEAA@XZ 0000000140016a90 f i DBDataServer.obj
 0001:00015ac0       ?reserve@?$CBaseList@UPlayerNameDistribute@@@container@wylib@@UEAAX_J@Z 0000000140016ac0 f i DBDataServer.obj
 0001:00015b30       ??1?$CBaseList@PEAVCDBDataClient@@@container@wylib@@UEAA@XZ 0000000140016b30 f i DBDataServer.obj
 0001:00015b60       ??_G?$CBaseList@UPlayerZYDistribute@@@container@wylib@@UEAAPEAXI@Z 0000000140016b60 f i DBDataServer.obj
 0001:00015b60       ??_E?$CBaseList@UPlayerZYDistribute@@@container@wylib@@UEAAPEAXI@Z 0000000140016b60 f i DBDataServer.obj
 0001:00015ba0       ??_G?$CBaseList@UPlayerJobDistribute@@@container@wylib@@UEAAPEAXI@Z 0000000140016ba0 f i DBDataServer.obj
 0001:00015ba0       ??_E?$CBaseList@UPlayerJobDistribute@@@container@wylib@@UEAAPEAXI@Z 0000000140016ba0 f i DBDataServer.obj
 0001:00015be0       ??_E?$CBaseList@UPlayerNameDistribute@@@container@wylib@@UEAAPEAXI@Z 0000000140016be0 f i DBDataServer.obj
 0001:00015be0       ??_G?$CBaseList@UPlayerNameDistribute@@@container@wylib@@UEAAPEAXI@Z 0000000140016be0 f i DBDataServer.obj
 0001:00015c20       ??_G?$CBaseList@PEAVCDBDataClient@@@container@wylib@@UEAAPEAXI@Z 0000000140016c20 f i DBDataServer.obj
 0001:00015c20       ??_E?$CBaseList@PEAVCDBDataClient@@@container@wylib@@UEAAPEAXI@Z 0000000140016c20 f i DBDataServer.obj
 0001:00015c60       ??0CDBServer@@QEAA@XZ      0000000140016c60 f   DBServer.obj
 0001:00015f80       ??1CDBServer@@QEAA@XZ      0000000140016f80 f   DBServer.obj
 0001:00016330       ?Trace@CDBServer@@QEAAXXZ  0000000140017330 f   DBServer.obj
 0001:00016390       ?FreeGameServerRoute@CDBServer@@AEAAXXZ 0000000140017390 f   DBServer.obj
 0001:00016420       ?SetupSQLConnection@CDBServer@@QEAAXPEAVCSQLConenction@@@Z 0000000140017420 f   DBServer.obj
 0001:000164c0       ?LowerCaseNameStr@CDBServer@@QEAAPEBDPEAD_J@Z 00000001400174c0 f   DBServer.obj
 0001:00016570       ?getServerRoute@@YAPEAUtagGameServerRoute@jxSrvDef@@AEAV?$CBaseList@PEAUtagGameServerRoute@jxSrvDef@@@container@wylib@@H@Z 0000000140017570 f   DBServer.obj
 0001:000165f0       ?LoadGameServerRoute@CDBServer@@QEAAHXZ 00000001400175f0 f   DBServer.obj
 0001:00016900       ?SelecteGameGateRouteIndex@CDBServer@@AEAA_JPEAUtagGameServerRoute@jxSrvDef@@@Z 0000000140017900 f   DBServer.obj
 0001:000169e0       ?TraceGameServerRoute@CDBServer@@QEAAXXZ 00000001400179e0 f   DBServer.obj
 0001:00016b00       ?UpdateLogicGateUserInfo@CDBServer@@QEAAXAEAVCDataPacketReader@@@Z 0000000140017b00 f   DBServer.obj
 0001:00016d50       ?SelectGameServerRoute@CDBServer@@QEAAHHPEAD_KPEA_J@Z 0000000140017d50 f   DBServer.obj
 0001:00016ea0       ?SetServerName@CDBServer@@QEAAXPEBD@Z 0000000140017ea0 f   DBServer.obj
 0001:00016ee0       ?SetGateServiceAddress@CDBServer@@QEAAXPEBD_J@Z 0000000140017ee0 f   DBServer.obj
 0001:00016f00       ?SetSessionServerAddress@CDBServer@@QEAAXPEBD_J@Z 0000000140017f00 f   DBServer.obj
 0001:00016f20       ?SetLogServerAddress@CDBServer@@QEAAXPEBD_J@Z 0000000140017f20 f   DBServer.obj
 0001:00016f40       ?SetDBCenterAddress@CDBServer@@QEAAXPEBD_J@Z 0000000140017f40 f   DBServer.obj
 0001:00016f90       ?SetSQLConfig@CDBServer@@QEAAXPEBD_J000@Z 0000000140017f90 f   DBServer.obj
 0001:00017070       ?SetSelectCountryEnabledOnCreateFirstChar@CDBServer@@QEAAXH@Z 0000000140018070 f   DBServer.obj
 0001:00017090       ?SetNameSyncServerAddress@CDBServer@@QEAAXPEBD_J@Z 0000000140018090 f   DBServer.obj
 0001:00017120       ?SetDataServiceAddress@CDBServer@@QEAAXPEBD_J@Z 0000000140018120 f   DBServer.obj
 0001:00017170       ?SetServerIndex@CDBServer@@QEAAXH@Z 0000000140018170 f   DBServer.obj
 0001:00017190       ?Startup@CDBServer@@QEAAHXZ 0000000140018190 f   DBServer.obj
 0001:00017210       ?Shutdown@CDBServer@@QEAAXXZ 0000000140018210 f   DBServer.obj
 0001:000172c0       ?getGameReady@CDBServer@@QEAAHH@Z 00000001400182c0 f   DBServer.obj
 0001:000172f0       ?LoadFilterNames@CDBServer@@QEAAHXZ 00000001400182f0 f   DBServer.obj
 0001:00017500       ?GetStrLenUtf8@CDBServer@@SA_JPEBD@Z 0000000140018500 f   DBServer.obj
 0001:00017600       ?CheckNameStr@CDBServer@@QEAAHPEBD@Z 0000000140018600 f   DBServer.obj
 0001:00017760       ?LoadActorNameList@CDBServer@@QEAAHPEBD0@Z 0000000140018760 f   DBServer.obj
 0001:00017970       ?hasFilterWordsInclude@CDBServer@@QEAA_NPEBD@Z 0000000140018970 f   DBServer.obj
 0001:00017a60       ?GetRandomName@CDBServer@@QEAA_JAEAPEBD_J@Z 0000000140018a60 f   DBServer.obj
 0001:00017bd0       ?AllocRandomName@CDBServer@@QEAAX_J0@Z 0000000140018bd0 f   DBServer.obj
 0001:00017d20       ?SaveNameFile@CDBServer@@QEAAXXZ 0000000140018d20 f   DBServer.obj
 0001:00017f30       ?RunEsqlFile@CDBServer@@QEAAXPEAD0@Z 0000000140018f30 f   DBServer.obj
 0001:00017f80       ??1?$CLockList@PEAUtagGameServerRoute@jxSrvDef@@@container@wylib@@UEAA@XZ 0000000140018f80 f i DBServer.obj
 0001:00017fa0       ??0?$CLockList@PEAUtagGameServerRoute@jxSrvDef@@@container@wylib@@QEAA@PEAVCBaseLock@lock@sync@2@@Z 0000000140018fa0 f i DBServer.obj
 0001:00017fe0       ?setLock@?$CLockList@PEAUtagAppInternalMessage@@@container@wylib@@QEAAPEAVCBaseLock@lock@sync@3@PEAV4563@@Z 0000000140018fe0 f i srvlib_x64:CustomWorkSocket.obj
 0001:00017fe0       ?setLock@?$CLockList@PEATtagASyncNameOPData@CDBDataClient@@@container@wylib@@QEAAPEAVCBaseLock@lock@sync@3@PEAV4563@@Z 0000000140018fe0 f i DBDataClient.obj
 0001:00017fe0       ?setLock@?$CLockList@PEAVCCustomServerClientSocket@@@container@wylib@@QEAAPEAVCBaseLock@lock@sync@3@PEAV4563@@Z 0000000140018fe0 f i srvlib_x64:CustomServerSocket.obj
 0001:00017fe0       ?setLock@?$CLockList@PEAVCDataPacket@@@container@wylib@@QEAAPEAVCBaseLock@lock@sync@3@PEAV4563@@Z 0000000140018fe0 f i srvlib_x64:SendPackPool.obj
 0001:00017fe0       ?setLock@?$CLockList@PEAUtagGameServerRoute@jxSrvDef@@@container@wylib@@QEAAPEAVCBaseLock@lock@sync@3@PEAV4563@@Z 0000000140018fe0 f i DBServer.obj
 0001:00017fe0       ?setLock@?$CLockList@PEAUNameOperateData@CNameSyncClient@@@container@wylib@@QEAAPEAVCBaseLock@lock@sync@3@PEAV4563@@Z 0000000140018fe0 f i DBNSClient.obj
 0001:00018020       ??0?$CBaseList@PEAUtagGameServerRoute@jxSrvDef@@@container@wylib@@QEAA@XZ 0000000140019020 f i DBServer.obj
 0001:00018070       ?add@?$CBaseList@PEAUNameOperateData@CNameSyncClient@@@container@wylib@@QEAA_JAEBQEAUNameOperateData@CNameSyncClient@@@Z 0000000140019070 f i DBNSClient.obj
 0001:00018070       ?add@?$CBaseList@PEAUtagGameServerRoute@jxSrvDef@@@container@wylib@@QEAA_JAEBQEAUtagGameServerRoute@jxSrvDef@@@Z 0000000140019070 f i DBServer.obj
 0001:00018070       ?add@?$CBaseList@PEATtagASyncNameOPData@CDBDataClient@@@container@wylib@@QEAA_JAEBQEATtagASyncNameOPData@CDBDataClient@@@Z 0000000140019070 f i DBDataClient.obj
 0001:00018070       ?add@?$CBaseList@PEAVCDBDataClient@@@container@wylib@@QEAA_JAEBQEAVCDBDataClient@@@Z 0000000140019070 f i DBDataServer.obj
 0001:00018120       ??_E?$CLockList@PEAUtagGameServerRoute@jxSrvDef@@@container@wylib@@UEAAPEAXI@Z 0000000140019120 f i DBServer.obj
 0001:00018120       ??_G?$CLockList@PEAUtagGameServerRoute@jxSrvDef@@@container@wylib@@UEAAPEAXI@Z 0000000140019120 f i DBServer.obj
 0001:00018160       ?addArray@?$CBaseList@PEAUNameOperateData@CNameSyncClient@@@container@wylib@@QEAAXPEAPEAUNameOperateData@CNameSyncClient@@_J@Z 0000000140019160 f i DBNSClient.obj
 0001:00018160       ?addArray@?$CBaseList@PEAUtagGameServerRoute@jxSrvDef@@@container@wylib@@QEAAXPEAPEAUtagGameServerRoute@jxSrvDef@@_J@Z 0000000140019160 f i DBServer.obj
 0001:00018200       ??0CFilter@@QEAA@XZ        0000000140019200 f i DBServer.obj
 0001:00018220       ??1CFilter@@QEAA@XZ        0000000140019220 f i DBServer.obj
 0001:00018250       ?Trace@CDBCenterClient@@QEAAXXZ 0000000140019250 f i DBServer.obj
 0001:000182a0       ??1?$CBaseList@PEAUtagGameServerRoute@jxSrvDef@@@container@wylib@@UEAA@XZ 00000001400192a0 f i DBServer.obj
 0001:000182d0       ??_G?$CBaseList@PEAUtagGameServerRoute@jxSrvDef@@@container@wylib@@UEAAPEAXI@Z 00000001400192d0 f i DBServer.obj
 0001:000182d0       ??_E?$CBaseList@PEAUtagGameServerRoute@jxSrvDef@@@container@wylib@@UEAAPEAXI@Z 00000001400192d0 f i DBServer.obj
 0001:00018310       ??0CNameSyncClient@@QEAA@PEAVCDBServer@@@Z 0000000140019310 f   DBNSClient.obj
 0001:000183e0       ??1CNameSyncClient@@UEAA@XZ 00000001400193e0 f   DBNSClient.obj
 0001:00018460       ?getLocalServerType@CNameSyncClient@@MEAA?AW4tagServerType@jxSrvDef@@XZ 0000000140019460 f   DBNSClient.obj
 0001:00018480       ?getLocalServerName@CNameSyncClient@@MEAAPEBDXZ 0000000140019480 f   DBNSClient.obj
 0001:000184b0       ?OnRun@CNameSyncClient@@MEAAXXZ 00000001400194b0 f   DBNSClient.obj
 0001:00018600       ?OnDispatchRecvPacket@CNameSyncClient@@MEAAXGAEAVCDataPacketReader@@@Z 0000000140019600 f   DBNSClient.obj
 0001:000189a0       ?SendNewNameOperateRequest@CNameSyncClient@@AEAAXXZ 00000001400199a0 f   DBNSClient.obj
 0001:00018b90       ?GetNameOperatePtr@CNameSyncClient@@AEAAPEAUNameOperateData@1@W4eNameOperateType@21@PEBDPEA_JH@Z 0000000140019b90 f   DBNSClient.obj
 0001:00018c70       ?NameOperateTimedOut@CNameSyncClient@@AEAAXPEBUNameOperateData@1@@Z 0000000140019c70 f   DBNSClient.obj
 0001:00018d60       ?PostAllocateCharId@CNameSyncClient@@QEAAHHHPEBDPEAUtagCreateActorData@@@Z 0000000140019d60 f   DBNSClient.obj
 0001:00018e90       ?PostAllocateGuildId@CNameSyncClient@@QEAAHHPEBD_K@Z 0000000140019e90 f   DBNSClient.obj
 0001:00018fa0       ?PostCharRename@CNameSyncClient@@QEAAHHHPEBD_K@Z 0000000140019fa0 f   DBNSClient.obj
 0001:000190b0       ??_GCNameSyncClient@@UEAAPEAXI@Z 000000014001a0b0 f i DBNSClient.obj
 0001:000190b0       ??_ECNameSyncClient@@UEAAPEAXI@Z 000000014001a0b0 f i DBNSClient.obj
 0001:000190f0       ??1?$CLockList@PEAUNameOperateData@CNameSyncClient@@@container@wylib@@UEAA@XZ 000000014001a0f0 f i DBNSClient.obj
 0001:00019110       ??0?$CBaseList@PEAUNameOperateData@CNameSyncClient@@@container@wylib@@QEAA@XZ 000000014001a110 f i DBNSClient.obj
 0001:00019160       ?remove@?$CBaseList@PEATtagASyncNameOPData@CDBDataClient@@@container@wylib@@QEAAX_J@Z 000000014001a160 f i DBDataClient.obj
 0001:00019160       ?remove@?$CBaseList@PEAVCDBDataClient@@@container@wylib@@QEAAX_J@Z 000000014001a160 f i DBDataServer.obj
 0001:00019160       ?remove@?$CBaseList@PEAUNameOperateData@CNameSyncClient@@@container@wylib@@QEAAX_J@Z 000000014001a160 f i DBNSClient.obj
 0001:00019160       ?remove@?$CBaseList@PEAVCDataPacket@@@container@wylib@@QEAAX_J@Z 000000014001a160 f i DBDataClientHandler.obj
 0001:000191a0       ?addList@?$CBaseList@PEAUtagGameServerRoute@jxSrvDef@@@container@wylib@@QEAAXAEBV123@@Z 000000014001a1a0 f i DBServer.obj
 0001:000191a0       ?addList@?$CBaseList@PEAUNameOperateData@CNameSyncClient@@@container@wylib@@QEAAXAEBV123@@Z 000000014001a1a0 f i DBNSClient.obj
 0001:000191e0       ??0?$CLockList@PEAUNameOperateData@CNameSyncClient@@@container@wylib@@QEAA@PEAVCBaseLock@lock@sync@2@@Z 000000014001a1e0 f i DBNSClient.obj
 0001:00019220       ??_E?$CLockList@PEAUNameOperateData@CNameSyncClient@@@container@wylib@@UEAAPEAXI@Z 000000014001a220 f i DBNSClient.obj
 0001:00019220       ??_G?$CLockList@PEAUNameOperateData@CNameSyncClient@@@container@wylib@@UEAAPEAXI@Z 000000014001a220 f i DBNSClient.obj
 0001:00019260       ?remove@?$CBaseList@PEAVCDBDataClient@@@container@wylib@@QEAAX_J0@Z 000000014001a260 f i DBDataServer.obj
 0001:00019260       ?remove@?$CBaseList@PEAVCDataPacket@@@container@wylib@@QEAAX_J0@Z 000000014001a260 f i DBDataClientHandler.obj
 0001:00019260       ?remove@?$CBaseList@PEAUNameOperateData@CNameSyncClient@@@container@wylib@@QEAAX_J0@Z 000000014001a260 f i DBNSClient.obj
 0001:00019260       ?remove@?$CBaseList@PEATtagASyncNameOPData@CDBDataClient@@@container@wylib@@QEAAX_J0@Z 000000014001a260 f i DBDataClient.obj
 0001:00019300       ??6CDataPacket@@QEAAAEAV0@PEAD@Z 000000014001a300 f i DBNSClient.obj
 0001:00019340       ?PostAllocGuildNameResult@CDBDataServer@@QEAAX_JPEA_J_K@Z 000000014001a340 f i DBNSClient.obj
 0001:00019390       ?PostRenameCharResult@CDBDataServer@@QEAAX_JW4tagNameServerOPError@NameServerProto@jxInterSrvComm@@_K@Z 000000014001a390 f i DBNSClient.obj
 0001:000193e0       ?PostCreateActorResult@CDBDataServer@@QEAAX_JHIPEAUtagCreateActorData@@@Z 000000014001a3e0 f i DBNSClient.obj
 0001:00019430       ??1?$CBaseList@PEAUNameOperateData@CNameSyncClient@@@container@wylib@@UEAA@XZ 000000014001a430 f i DBNSClient.obj
 0001:00019460       ??_G?$CBaseList@PEAUNameOperateData@CNameSyncClient@@@container@wylib@@UEAAPEAXI@Z 000000014001a460 f i DBNSClient.obj
 0001:00019460       ??_E?$CBaseList@PEAUNameOperateData@CNameSyncClient@@@container@wylib@@UEAAPEAXI@Z 000000014001a460 f i DBNSClient.obj
 0001:000194a0       ??0CEsqlManager@@QEAA@XZ   000000014001a4a0 f   EsqlMgr.obj
 0001:000194e0       ??1CEsqlManager@@QEAA@XZ   000000014001a4e0 f   EsqlMgr.obj
 0001:00019520       ?EsqlMain@CEsqlManager@@QEAAXPEAD0@Z 000000014001a520 f   EsqlMgr.obj
 0001:000195b0       ?FileExist@CEsqlManager@@QEAA_NPEBD@Z 000000014001a5b0 f   EsqlMgr.obj
 0001:000195f0       ?GetAllFileName@CEsqlManager@@QEAAXXZ 000000014001a5f0 f   EsqlMgr.obj
 0001:00019760       ?bSqlFile@CEsqlManager@@QEAA_NPEAD@Z 000000014001a760 f   EsqlMgr.obj
 0001:000197e0       ?GetEsqlId@CEsqlManager@@QEAAHPEAD@Z 000000014001a7e0 f   EsqlMgr.obj
 0001:00019900       ?AddEsqlToList@CEsqlManager@@QEAAXHPEAD@Z 000000014001a900 f   EsqlMgr.obj
 0001:00019a30       ?OnRunEsqlTool@CEsqlManager@@QEAAXPEAD0@Z 000000014001aa30 f   EsqlMgr.obj
 0001:00019d70       ?DeleteEsqlFile@CEsqlManager@@QEAAXXZ 000000014001ad70 f   EsqlMgr.obj
 0001:00019e70       ??0?$CBaseList@UtagDbEsql@@@container@wylib@@QEAA@XZ 000000014001ae70 f i EsqlMgr.obj
 0001:00019ec0       ?count@?$CBaseList@V?$CBaseList@VCActorCacheData@@@container@wylib@@@container@wylib@@QEBA_JXZ 000000014001aec0 f i DBDataCache.obj
 0001:00019ec0       ?count@?$CBaseList@UPlayerZYDistribute@@@container@wylib@@QEBA_JXZ 000000014001aec0 f i JobZyCountMgr.obj
 0001:00019ec0       ?count@?$CBaseList@PEAVCCustomServerClientSocket@@@container@wylib@@QEBA_JXZ 000000014001aec0 f i srvlib_x64:CustomServerSocket.obj
 0001:00019ec0       ?count@?$CBaseList@PEAVCTimeProfMgr@@@container@wylib@@QEBA_JXZ 000000014001aec0 f i srvlib_x64:TimeStat.obj
 0001:00019ec0       ?count@?$CBaseList@PEAUtagAppInternalMessage@@@container@wylib@@QEBA_JXZ 000000014001aec0 f i srvlib_x64:CustomWorkSocket.obj
 0001:00019ec0       ?count@?$CBaseList@UPlayerJobDistribute@@@container@wylib@@QEBA_JXZ 000000014001aec0 f i JobZyCountMgr.obj
 0001:00019ec0       ?count@?$CBaseList@PEAUtagGameServerRoute@jxSrvDef@@@container@wylib@@QEBA_JXZ 000000014001aec0 f i DBServer.obj
 0001:00019ec0       ?count@?$CBaseList@PEAVCDBDataClient@@@container@wylib@@QEBA_JXZ 000000014001aec0 f i DBDataServer.obj
 0001:00019ec0       ?count@?$CBaseList@PEAVCDataPacket@@@container@wylib@@QEBA_JXZ 000000014001aec0 f i srvlib_x64:SendPackPool.obj
 0001:00019ec0       ?count@?$CBaseList@UtagDbEsql@@@container@wylib@@QEBA_JXZ 000000014001aec0 f i EsqlMgr.obj
 0001:00019ec0       ?count@?$CBaseList@PEBD@container@wylib@@QEBA_JXZ 000000014001aec0 f i srvlib_x64:NameAllocator.obj
 0001:00019ec0       ?count@?$CBaseList@V?$CBaseList@V?$Handle@I@@@container@wylib@@@container@wylib@@QEBA_JXZ 000000014001aec0 f i DBDataCache.obj
 0001:00019ec0       ?count@?$CBaseList@H@container@wylib@@QEBA_JXZ 000000014001aec0 f i DBCenterClient.obj
 0001:00019ec0       ?count@?$CBaseList@PEAVCTimeProfRecord@@@container@wylib@@QEBA_JXZ 000000014001aec0 f i srvlib_x64:TimeStat.obj
 0001:00019ec0       ?count@?$CBaseList@PEAUNameOperateData@CNameSyncClient@@@container@wylib@@QEBA_JXZ 000000014001aec0 f i DBNSClient.obj
 0001:00019ec0       ?count@?$CBaseList@PEATtagASyncNameOPData@CDBDataClient@@@container@wylib@@QEBA_JXZ 000000014001aec0 f i DBDataClient.obj
 0001:00019ec0       ?count@?$CBaseList@UPlayerNameDistribute@@@container@wylib@@QEBA_JXZ 000000014001aec0 f i JobZyCountMgr.obj
 0001:00019ec0       ?count@?$CBaseList@PEAV?$CRefObjectImpl@VCAnsiString@string@wylib@@@misc@wylib@@@container@wylib@@QEBA_JXZ 000000014001aec0 f i srvlib_x64:CustomLuaConfig.obj
 0001:00019ed0       ?insert@?$CBaseList@UtagDbEsql@@@container@wylib@@QEAAX_JAEBUtagDbEsql@@@Z 000000014001aed0 f i EsqlMgr.obj
 0001:0001a070       ?add@?$CBaseList@UtagDbEsql@@@container@wylib@@QEAA_JAEBUtagDbEsql@@@Z 000000014001b070 f i EsqlMgr.obj
 0001:0001a130       ??0tagDbEsql@@QEAA@XZ      000000014001b130 f i EsqlMgr.obj
 0001:0001a160       ??1?$CBaseList@UtagDbEsql@@@container@wylib@@UEAA@XZ 000000014001b160 f i EsqlMgr.obj
 0001:0001a190       ?reserve@?$CBaseList@UtagDbEsql@@@container@wylib@@UEAAX_J@Z 000000014001b190 f i EsqlMgr.obj
 0001:0001a200       ??_E?$CBaseList@UtagDbEsql@@@container@wylib@@UEAAPEAXI@Z 000000014001b200 f i EsqlMgr.obj
 0001:0001a200       ??_G?$CBaseList@UtagDbEsql@@@container@wylib@@UEAAPEAXI@Z 000000014001b200 f i EsqlMgr.obj
 0001:0001a240       ??0CGateDBReqestHandler@@QEAA@XZ 000000014001b240 f   GateDBRequestHandler.obj
 0001:0001a260       ??1CGateDBReqestHandler@@QEAA@XZ 000000014001b260 f   GateDBRequestHandler.obj
 0001:0001a270       ?Init@CGateDBReqestHandler@@QEAA_NPEAVCSQLConenction@@PEAVCDBDataServer@@@Z 000000014001b270 f   GateDBRequestHandler.obj
 0001:0001a2e0       ?OnDeleteActor@CGateDBReqestHandler@@AEAAXAEAVCDataPacketReader@@PEAVILogicDBRequestHost@@@Z 000000014001b2e0 f   GateDBRequestHandler.obj
 0001:0001a5e0       ?OnRecvLoginMsg@CGateDBReqestHandler@@QEAAXGAEAVCDataPacketReader@@PEAVILogicDBRequestHost@@@Z 000000014001b5e0 f   GateDBRequestHandler.obj
 0001:0001a790       ?OnCreateActor@CGateDBReqestHandler@@AEAAXAEAVCDataPacketReader@@PEAVILogicDBRequestHost@@@Z 000000014001b790 f   GateDBRequestHandler.obj
 0001:0001ae70       ?OnCreateActorResult@CGateDBReqestHandler@@QEAAX_JIPEAUtagCreateActorData@@PEAVILogicDBRequestHost@@@Z 000000014001be70 f   GateDBRequestHandler.obj
 0001:0001b250       ?OnRandName@CGateDBReqestHandler@@AEAAXAEAVCDataPacketReader@@PEAVILogicDBRequestHost@@@Z 000000014001c250 f   GateDBRequestHandler.obj
 0001:0001b520       ?GetActorList@CGateDBReqestHandler@@QEAAXIHAEAVCDataPacket@@@Z 000000014001c520 f   GateDBRequestHandler.obj
 0001:0001b980       ?StartEnterGame@CGateDBReqestHandler@@QEAAHHHIIPEBD_J@Z 000000014001c980 f   GateDBRequestHandler.obj
 0001:0001bba0       ?QueryLessJobReq@CGateDBReqestHandler@@AEAAHH@Z 000000014001cba0 f   GateDBRequestHandler.obj
 0001:0001bbf0       ?QueryZyList@CGateDBReqestHandler@@AEAAHH@Z 000000014001cbf0 f   GateDBRequestHandler.obj
 0001:0001bc40       ?QueryZYReq@CGateDBReqestHandler@@AEAA?AW4tagZhenying@@H@Z 000000014001cc40 f   GateDBRequestHandler.obj
 0001:0001bc90       ?OnChaneActorNameToDb@CGateDBReqestHandler@@AEAAXAEAVCDataPacketReader@@PEAVILogicDBRequestHost@@@Z 000000014001cc90 f   GateDBRequestHandler.obj
 0001:0001c040       ?GetEnableRandomCharName@CDBServer@@QEAA_NXZ 000000014001d040 f i GateDBRequestHandler.obj
 0001:0001c070       ?LoadGuildList@CLogicDBReqestHandler@@QEAAXAEAVCDataPacketReader@@@Z 000000014001d070 f   GuildData.obj
 0001:0001c870       ?LoadGuildEventDb@CLogicDBReqestHandler@@QEAAXAEAVCDataPacketReader@@@Z 000000014001d870 f   GuildData.obj
 0001:0001cc50       ?LoadGuildSkillDb@CLogicDBReqestHandler@@QEAAXAEAVCDataPacketReader@@@Z 000000014001dc50 f   GuildData.obj
 0001:0001cef0       ?LoadGuildDetail@CLogicDBReqestHandler@@QEAAXAEAVCDataPacketReader@@@Z 000000014001def0 f   GuildData.obj
 0001:0001d5a0       ?AddGuild@CLogicDBReqestHandler@@QEAAXAEAVCDataPacketReader@@@Z 000000014001e5a0 f   GuildData.obj
 0001:0001d850       ?SendAddGuildResult@CLogicDBReqestHandler@@AEAAXHHHH_KIPEBD1E_J@Z 000000014001e850 f   GuildData.obj
 0001:0001d920       ?DeleteMember@CLogicDBReqestHandler@@QEAAXAEAVCDataPacketReader@@@Z 000000014001e920 f   GuildData.obj
 0001:0001dac0       ?SaveActorGuild@CLogicDBReqestHandler@@QEAAXAEAVCDataPacketReader@@_N@Z 000000014001eac0 f   GuildData.obj
 0001:0001df20       ?LoadActorGuild@CLogicDBReqestHandler@@QEAAXI@Z 000000014001ef20 f   GuildData.obj
 0001:0001e150       ?AddGuildMember@CLogicDBReqestHandler@@QEAAXAEAVCDataPacketReader@@@Z 000000014001f150 f   GuildData.obj
 0001:0001e4f0       ?InitGuildSkillInfo@CLogicDBReqestHandler@@QEAAXAEAVCDataPacketReader@@@Z 000000014001f4f0 f   GuildData.obj
 0001:0001e6f0       ?SaveGuildSkill@CLogicDBReqestHandler@@QEAAXAEAVCDataPacketReader@@@Z 000000014001f6f0 f   GuildData.obj
 0001:0001e950       ?SaveGuildEventDb@CLogicDBReqestHandler@@QEAAXAEAVCDataPacketReader@@@Z 000000014001f950 f   GuildData.obj
 0001:0001eca0       ?SaveGuild@CLogicDBReqestHandler@@QEAAXAEAVCDataPacketReader@@@Z 000000014001fca0 f   GuildData.obj
 0001:0001f430       ?DeleteGuild@CLogicDBReqestHandler@@QEAAXAEAVCDataPacketReader@@@Z 0000000140020430 f   GuildData.obj
 0001:0001f600       ?AddMemberOffLine@CLogicDBReqestHandler@@QEAAXAEAVCDataPacketReader@@@Z 0000000140020600 f   GuildData.obj
 0001:0001f990       ?SaveGuildDepotDb@CLogicDBReqestHandler@@QEAAXAEAVCDataPacketReader@@@Z 0000000140020990 f   GuildData.obj
 0001:0001ffc0       ?SaveGuildDepotRecordDb@CLogicDBReqestHandler@@QEAAXAEAVCDataPacketReader@@@Z 0000000140020fc0 f   GuildData.obj
 0001:00020350       ?LoadGuildDepoyFromDb@CLogicDBReqestHandler@@QEAAXAEAVCDataPacketReader@@@Z 0000000140021350 f   GuildData.obj
 0001:000209a0       ?LoadGuildDepotRecordDb@CLogicDBReqestHandler@@QEAAXAEAVCDataPacketReader@@@Z 00000001400219a0 f   GuildData.obj
 0001:00020db0       ?LoadActorBuildingDb@CLogicDBReqestHandler@@QEAAXAEAVCDataPacketReader@@@Z 0000000140021db0 f   GuildData.obj
 0001:00021050       ??0tagGuildSkill@@QEAA@XZ  0000000140022050 f i GuildData.obj
 0001:00021080       ??0tagActorNode@@QEAA@XZ   0000000140022080 f i GuildData.obj
 0001:000210c0       ??1tagActorNode@@QEAA@XZ   00000001400220c0 f i GuildData.obj
 0001:000210e0       ??0tagActorNode@@QEAA@AEBU0@@Z 00000001400220e0 f i GuildData.obj
 0001:00021170       ??0tagWarRelationData@@QEAA@XZ 0000000140022170 f i GuildData.obj
 0001:000211a0       ??0tagWarDbData@@QEAA@XZ   00000001400221a0 f i GuildData.obj
 0001:000211d0       ??0EntityHandle@@QEAA@AEBV0@@Z 00000001400221d0 f i GuildData.obj
 0001:00021280       ??0CUserItem@@QEAA@XZ      0000000140022280 f i GuildData.obj
 0001:000212b0       ??0tagGuildDepotMsg@@QEAA@XZ 00000001400222b0 f i GuildData.obj
 0001:000212e0       ??0CUserItem@@QEAA@AEBU0@@Z 00000001400222e0 f i GuildData.obj
 0001:00021450       ??0?$Counter@VEntityHandle@@@@QEAA@AEBV0@@Z 0000000140022450 f i GuildData.obj
 0001:00021480       ??$?6UtagActorNode@@@CDataPacket@@QEAAAEAV0@UtagActorNode@@@Z 0000000140022480 f i GuildData.obj
 0001:00021530       ??$?5UCUserItem@@@CDataPacketReader@@QEAAAEAV0@AEAUCUserItem@@@Z 0000000140022530 f i GuildData.obj
 0001:000215c0       ??$?6UCUserItem@@@CDataPacket@@QEAAAEAV0@UCUserItem@@@Z 00000001400225c0 f i GuildData.obj
 0001:00021620       ??$writeAtom@UtagActorNode@@@CDataPacket@@QEAAXUtagActorNode@@@Z 0000000140022620 f i GuildData.obj
 0001:000216e0       ??$readAtom@UCUserItem@@@CDataPacketReader@@QEAA?AUCUserItem@@XZ 00000001400226e0 f i GuildData.obj
 0001:00021810       ??$writeAtom@UCUserItem@@@CDataPacket@@QEAAXUCUserItem@@@Z 0000000140022810 f i GuildData.obj
 0001:00021900       ??4tagActorNode@@QEAAAEAU0@AEBU0@@Z 0000000140022900 f i GuildData.obj
 0001:000219e0       ??4EntityHandle@@QEAAAEAV0@V0@@Z 00000001400229e0 f i GuildData.obj
 0001:00021a20       ??0CMiniDateTime@@QEAA@AEBU0@@Z 0000000140022a20 f i GuildData.obj
 0001:00021a40       ?SaveFriendsData@CLogicDBReqestHandler@@QEAAHHHHPEBDI@Z 0000000140022a40 f   InterAction.obj
 0001:00021ae0       ?SaveFriends@CLogicDBReqestHandler@@QEAAXAEAVCDataPacketReader@@_N@Z 0000000140022ae0 f   InterAction.obj
 0001:00021b70       ?CleanFriends@CLogicDBReqestHandler@@QEAAHH@Z 0000000140022b70 f   InterAction.obj
 0001:00021c10       ?LoadFriends@CLogicDBReqestHandler@@QEAAXAEAVCDataPacketReader@@@Z 0000000140022c10 f   InterAction.obj
 0001:00021c30       ?LoadFriends@CLogicDBReqestHandler@@AEAAXI@Z 0000000140022c30 f   InterAction.obj
 0001:00021cb0       ??0CJobZyCountMgr@@QEAA@XZ 0000000140022cb0 f   JobZyCountMgr.obj
 0001:00021dc0       ?LoadGuildNameInitData@CJobZyCountMgr@@QEAAXXZ 0000000140022dc0 f   JobZyCountMgr.obj
 0001:00021fa0       ?LoadActorNameInitData@CJobZyCountMgr@@QEAAXXZ 0000000140022fa0 f   JobZyCountMgr.obj
 0001:000221b0       ?LoadJobInitData@CJobZyCountMgr@@QEAAXXZ 00000001400231b0 f   JobZyCountMgr.obj
 0001:00022430       ?SaveJobData@CJobZyCountMgr@@QEAAXXZ 0000000140023430 f   JobZyCountMgr.obj
 0001:00022790       ?GetPriorityJob@CJobZyCountMgr@@QEAAHH@Z 0000000140023790 f   JobZyCountMgr.obj
 0001:00022940       ?OnNewPlayerCreated@CJobZyCountMgr@@QEAAXHW4tagZhenying@@W4tagActorVocation@@QEAD@Z 0000000140023940 f   JobZyCountMgr.obj
 0001:00022b80       ?OnNewGuildNameCreate@CJobZyCountMgr@@QEAAXHPEAD@Z 0000000140023b80 f   JobZyCountMgr.obj
 0001:00022cc0       ?IsGuildNameExist@CJobZyCountMgr@@QEAA_NPEADH@Z 0000000140023cc0 f   JobZyCountMgr.obj
 0001:00022d90       ?LoadZyInitData@CJobZyCountMgr@@QEAAXXZ 0000000140023d90 f   JobZyCountMgr.obj
 0001:00023000       ?SaveZyData@CJobZyCountMgr@@QEAAXXZ 0000000140024000 f   JobZyCountMgr.obj
 0001:00023340       ?GetPriorityZY@CJobZyCountMgr@@QEAA?AW4tagZhenying@@H@Z 0000000140024340 f   JobZyCountMgr.obj
 0001:000234a0       ?GetOptionalZy@CJobZyCountMgr@@QEAAHH@Z 00000001400244a0 f   JobZyCountMgr.obj
 0001:00023690       ?IsActorNameExist@CJobZyCountMgr@@QEAA_NPEADH@Z 0000000140024690 f   JobZyCountMgr.obj
 0001:00023760       ?ChangeNameToList@CJobZyCountMgr@@QEAAXPEAD0H@Z 0000000140024760 f   JobZyCountMgr.obj
 0001:000238c0       ??0?$CBaseList@UPlayerZYDistribute@@@container@wylib@@QEAA@XZ 00000001400248c0 f i JobZyCountMgr.obj
 0001:00023910       ?add@?$CBaseList@UPlayerZYDistribute@@@container@wylib@@QEAA_JAEBUPlayerZYDistribute@@@Z 0000000140024910 f i JobZyCountMgr.obj
 0001:00023910       ?add@?$CBaseList@UPlayerJobDistribute@@@container@wylib@@QEAA_JAEBUPlayerJobDistribute@@@Z 0000000140024910 f i JobZyCountMgr.obj
 0001:000239c0       ??0?$CBaseList@UPlayerJobDistribute@@@container@wylib@@QEAA@XZ 00000001400249c0 f i JobZyCountMgr.obj
 0001:00023a10       ??0?$CBaseList@UPlayerNameDistribute@@@container@wylib@@QEAA@XZ 0000000140024a10 f i JobZyCountMgr.obj
 0001:00023a60       ?add@?$CBaseList@UPlayerNameDistribute@@@container@wylib@@QEAA_JAEBUPlayerNameDistribute@@@Z 0000000140024a60 f i JobZyCountMgr.obj
 0001:00023b10       ??0PlayerZYDistribute@@QEAA@XZ 0000000140024b10 f i JobZyCountMgr.obj
 0001:00023b10       ??0PlayerJobDistribute@@QEAA@XZ 0000000140024b10 f i JobZyCountMgr.obj
 0001:00023b30       ?Reset@PlayerJobDistribute@@QEAAXXZ 0000000140024b30 f i JobZyCountMgr.obj
 0001:00023b30       ?Reset@PlayerZYDistribute@@QEAAXXZ 0000000140024b30 f i JobZyCountMgr.obj
 0001:00023b50       ??0PlayerNameDistribute@@QEAA@XZ 0000000140024b50 f i JobZyCountMgr.obj
 0001:00023b80       ?QueryActorAcupointData@CLogicDBReqestHandler@@QEAAXAEAVCDataPacketReader@@@Z 0000000140024b80 f   AcupointData.obj
 0001:00023be0       ?QueryActorAcupointData@CLogicDBReqestHandler@@QEAAXIHH@Z 0000000140024be0 f   AcupointData.obj
 0001:00023e60       ?SaveAcupointDataToDB@CLogicDBReqestHandler@@QEAAXAEAVCDataPacketReader@@_N@Z 0000000140024e60 f   AcupointData.obj
 0001:00024110       ?GetFieldsLength@CSQLConenction@@QEAAPEAKXZ 0000000140025110 f i AcupointData.obj
 0001:00024130       ?QueryActorFromDB@CLogicDBReqestHandler@@QEAAXAEAVCDataPacketReader@@@Z 0000000140025130 f   BasicData.obj
 0001:00025770       ?QueryActoSubSystemData@CLogicDBReqestHandler@@QEAAXAEAVCDataPacketReader@@@Z 0000000140026770 f   BasicData.obj
 0001:00025a10       ?QueryOfflineUserInfo@CLogicDBReqestHandler@@QEAAXAEAVCDataPacketReader@@@Z 0000000140026a10 f   BasicData.obj
 0001:00025b10       ?QueryOfflineUserBasicInfo@CLogicDBReqestHandler@@AEAAXIHH@Z 0000000140026b10 f   BasicData.obj
 0001:00025d80       ?QueryOfflineUserHeroInfo@CLogicDBReqestHandler@@QEAAXAEAVCDataPacketReader@@@Z 0000000140026d80 f   BasicData.obj
 0001:00025ea0       ?QueryOfflineHeroInfo@CLogicDBReqestHandler@@AEAAXIIHH@Z 0000000140026ea0 f   BasicData.obj
 0001:00026120       ?QueryOfflineHeroEquips@CLogicDBReqestHandler@@AEAAXIIHH@Z 0000000140027120 f   BasicData.obj
 0001:00026690       ?SaveActorToDB@CLogicDBReqestHandler@@QEAAXAEAVCDataPacketReader@@_N@Z 0000000140027690 f   BasicData.obj
 0001:000271e0       ?UpdateChallengeData@CLogicDBReqestHandler@@QEAAXAEAVCDataPacketReader@@@Z 00000001400281e0 f   BasicData.obj
 0001:00027330       ?QueryActorExists@CLogicDBReqestHandler@@QEAAXAEAVCDataPacketReader@@@Z 0000000140028330 f   BasicData.obj
 0001:00027570       ?UpdateCharStatus@CLogicDBReqestHandler@@QEAAXAEAVCDataPacketReader@@@Z 0000000140028570 f   BasicData.obj
 0001:000276b0       ?QueryOfflineMagicData@CLogicDBReqestHandler@@QEAAXAEAVCDataPacketReader@@@Z 00000001400286b0 f   BasicData.obj
 0001:000277a0       ??$?6UtagActorDbData@@@CDataPacket@@QEAAAEAV0@UtagActorDbData@@@Z 00000001400287a0 f i BasicData.obj
 0001:00027820       ??$?6UActorOfflineMsg@@@CDataPacket@@QEAAAEAV0@UActorOfflineMsg@@@Z 0000000140028820 f i BasicData.obj
 0001:000278a0       ??$?5UtagActorDbData@@@CDataPacketReader@@QEAAAEAV0@AEAUtagActorDbData@@@Z 00000001400288a0 f i BasicData.obj
 0001:00027920       ??$writeAtom@UtagActorDbData@@@CDataPacket@@QEAAXUtagActorDbData@@@Z 0000000140028920 f i BasicData.obj
 0001:000279e0       ??$writeAtom@UActorOfflineMsg@@@CDataPacket@@QEAAXUActorOfflineMsg@@@Z 00000001400289e0 f i BasicData.obj
 0001:00027ae0       ??$writeAtom@UHeroOfflineMsg@@@CDataPacket@@QEAAXUHeroOfflineMsg@@@Z 0000000140028ae0 f i BasicData.obj
 0001:00027ae0       ??$writeAtom@UtagOneSkillDbData@@@CDataPacket@@QEAAXUtagOneSkillDbData@@@Z 0000000140028ae0 f i SkillData.obj
 0001:00027bb0       ??$readAtom@UtagActorDbData@@@CDataPacketReader@@QEAA?AUtagActorDbData@@XZ 0000000140028bb0 f i BasicData.obj
 0001:00027cd0       ??0ActorOfflineMsg@@QEAA@XZ 0000000140028cd0 f i BasicData.obj
 0001:00027d00       ??0HeroOfflineMsg@@QEAA@XZ 0000000140028d00 f i BasicData.obj
 0001:00027d30       ??0tagActorDbData@@QEAA@XZ 0000000140028d30 f i BasicData.obj
 0001:00027d60       ?LoadActorCombatRank@CLogicDBReqestHandler@@QEAAXAEAVCDataPacketReader@@@Z 0000000140028d60 f   CombatData.obj
 0001:00028100       ?LoadActorCombatGameInfo@CLogicDBReqestHandler@@QEAAXAEAVCDataPacketReader@@@Z 0000000140029100 f   CombatData.obj
 0001:00028420       ?SaveActorCombatGameInfo@CLogicDBReqestHandler@@QEAAXAEAVCDataPacketReader@@@Z 0000000140029420 f   CombatData.obj
 0001:00028830       ?LoadCombatRecord@CLogicDBReqestHandler@@QEAAXAEAVCDataPacketReader@@@Z 0000000140029830 f   CombatData.obj
 0001:00028c60       ?SaveCombatRecordToDb@CLogicDBReqestHandler@@QEAAXAEAVCDataPacketReader@@@Z 0000000140029c60 f   CombatData.obj
 0001:00029050       ?UpdateActorCombatAward@CLogicDBReqestHandler@@QEAAXAEAVCDataPacketReader@@@Z 000000014002a050 f   CombatData.obj
 0001:000291f0       ?LoadPeriodRideDataFromDb@CLogicDBReqestHandler@@QEAAXAEAVCDataPacketReader@@@Z 000000014002a1f0 f   CombatData.obj
 0001:00029450       ?SavePeriodRideDataToDb@CLogicDBReqestHandler@@QEAAXAEAVCDataPacketReader@@@Z 000000014002a450 f   CombatData.obj
 0001:00029740       ?LoadCardsDataDb@CLogicDBReqestHandler@@QEAAXAEAVCDataPacketReader@@@Z 000000014002a740 f   CombatData.obj
 0001:00029c20       ?LoadCardItemDataDb@CLogicDBReqestHandler@@QEAAXAEAVCDataPacketReader@@@Z 000000014002ac20 f   CombatData.obj
 0001:00029e50       ?SaveCardsDataDb@CLogicDBReqestHandler@@QEAAXAEAVCDataPacketReader@@@Z 000000014002ae50 f   CombatData.obj
 0001:0002a3a0       ?SaveCardItemDataDb@CLogicDBReqestHandler@@QEAAXAEAVCDataPacketReader@@@Z 000000014002b3a0 f   CombatData.obj
 0001:0002a660       ?LoadTalentDataFromDb@CLogicDBReqestHandler@@QEAAXAEAVCDataPacketReader@@@Z 000000014002b660 f   CombatData.obj
 0001:0002a940       ?SaveTalentDataToDb@CLogicDBReqestHandler@@QEAAXAEAVCDataPacketReader@@@Z 000000014002b940 f   CombatData.obj
 0001:0002ac80       ?LoadArtifactFromDb@CLogicDBReqestHandler@@QEAAXAEAVCDataPacketReader@@@Z 000000014002bc80 f   CombatData.obj
 0001:0002b140       ?SaveArtifactToDb@CLogicDBReqestHandler@@QEAAXAEAVCDataPacketReader@@@Z 000000014002c140 f   CombatData.obj
 0001:0002b580       ?LoadRuneFromDb@CLogicDBReqestHandler@@QEAAXAEAVCDataPacketReader@@@Z 000000014002c580 f   CombatData.obj
 0001:0002b930       ?SaveRuneToDb@CLogicDBReqestHandler@@QEAAXAEAVCDataPacketReader@@@Z 000000014002c930 f   CombatData.obj
 0001:0002bc50       ?LoadArtifactScabbardFromDb@CLogicDBReqestHandler@@QEAAXAEAVCDataPacketReader@@@Z 000000014002cc50 f   CombatData.obj
 0001:0002bee0       ?SaveArtifactScabbardToDb@CLogicDBReqestHandler@@QEAAXAEAVCDataPacketReader@@@Z 000000014002cee0 f   CombatData.obj
 0001:0002c1f0       ?LoadBeastSoulDataDb@CLogicDBReqestHandler@@QEAAXAEAVCDataPacketReader@@@Z 000000014002d1f0 f   CombatData.obj
 0001:0002c480       ?SaveBeastSoulDataDb@CLogicDBReqestHandler@@QEAAXAEAVCDataPacketReader@@@Z 000000014002d480 f   CombatData.obj
 0001:0002c7b0       ?LoadMeltingFromDb@CLogicDBReqestHandler@@QEAAXAEAVCDataPacketReader@@@Z 000000014002d7b0 f   CombatData.obj
 0001:0002ca70       ?SaveMeltingToDb@CLogicDBReqestHandler@@QEAAXAEAVCDataPacketReader@@@Z 000000014002da70 f   CombatData.obj
 0001:0002cc80       ?LoadGodArmFromDb@CLogicDBReqestHandler@@QEAAXAEAVCDataPacketReader@@@Z 000000014002dc80 f   CombatData.obj
 0001:0002d0a0       ?SaveGodArmToDb@CLogicDBReqestHandler@@QEAAXAEAVCDataPacketReader@@@Z 000000014002e0a0 f   CombatData.obj
 0001:0002d460       ?LoadWordrobeFromDb@CLogicDBReqestHandler@@QEAAXAEAVCDataPacketReader@@@Z 000000014002e460 f   CombatData.obj
 0001:0002d870       ?SaveWordrobeToDb@CLogicDBReqestHandler@@QEAAXAEAVCDataPacketReader@@@Z 000000014002e870 f   CombatData.obj
 0001:0002dce0       ?LoadTopBattleActorDataFromDb@CLogicDBReqestHandler@@QEAAXAEAVCDataPacketReader@@@Z 000000014002ece0 f   CombatData.obj
 0001:0002df80       ?SaveConsignmentItem@CLogicDBReqestHandler@@QEAAXAEAVCDataPacketReader@@@Z 000000014002ef80 f   ConsignmentData.obj
 0001:0002e650       ?LoadConsiTimeoutItem@CLogicDBReqestHandler@@QEAAXAEAVCDataPacketReader@@@Z 000000014002f650 f   ConsignmentData.obj
 0001:0002e680       ?LoadAllConsignmentItem@CLogicDBReqestHandler@@QEAAXAEAVCDataPacketReader@@@Z 000000014002f680 f   ConsignmentData.obj
 0001:0002e6b0       ?LoadConsignmentItem@CLogicDBReqestHandler@@AEAAXGAEAVCDataPacketReader@@@Z 000000014002f6b0 f   ConsignmentData.obj
 0001:0002ede0       ?SaveDiamondData@CLogicDBReqestHandler@@QEAAXAEAVCDataPacketReader@@_N@Z 000000014002fde0 f   DiamondData.obj
 0001:0002f2a0       ?QueryDiamondData@CLogicDBReqestHandler@@QEAAXAEAVCDataPacketReader@@@Z 00000001400302a0 f   DiamondData.obj
 0001:0002f300       ?QueryDiamondData@CLogicDBReqestHandler@@QEAAXIHH@Z 0000000140030300 f   DiamondData.obj
 0001:0002f630       ?LoadActorFriendsData@CLogicDBReqestHandler@@QEAAXAEAVCDataPacketReader@@@Z 0000000140030630 f   FriendData.obj
 0001:0002fa70       ?SaveActorFriendsData@CLogicDBReqestHandler@@QEAAXAEAVCDataPacketReader@@@Z 0000000140030a70 f   FriendData.obj
 0001:0002fda0       ?DeleteActorFriendData@CLogicDBReqestHandler@@QEAAXAEAVCDataPacketReader@@@Z 0000000140030da0 f   FriendData.obj
 0001:0002ff50       ?AddFriendChatMsg@CLogicDBReqestHandler@@QEAAXAEAVCDataPacketReader@@@Z 0000000140030f50 f   FriendData.obj
 0001:00030190       ?LoadFriendChatMsgData@CLogicDBReqestHandler@@QEAAXAEAVCDataPacketReader@@@Z 0000000140031190 f   FriendData.obj
 0001:00030570       ?LoadTopLevelActorData@CLogicDBReqestHandler@@QEAAXAEAVCDataPacketReader@@@Z 0000000140031570 f   FriendData.obj
 0001:00030be0       ?LoadCombineLevelActorData@CLogicDBReqestHandler@@QEAAXAEAVCDataPacketReader@@@Z 0000000140031be0 f   FriendData.obj
 0001:00031180       ?LoadCombineBattleActorData@CLogicDBReqestHandler@@QEAAXAEAVCDataPacketReader@@@Z 0000000140032180 f   FriendData.obj
 0001:00031480       ?LoadActorConsumeRank@CLogicDBReqestHandler@@QEAAXAEAVCDataPacketReader@@@Z 0000000140032480 f   FriendData.obj
 0001:00031730       ?LoadActorTopicBattle@CLogicDBReqestHandler@@QEAAXAEAVCDataPacketReader@@@Z 0000000140032730 f   FriendData.obj
 0001:00031c70       ?LoadActorSwingLevelData@CLogicDBReqestHandler@@QEAAXAEAVCDataPacketReader@@@Z 0000000140032c70 f   FriendData.obj
 0001:00031f80       ?LoadActorRideRankData@CLogicDBReqestHandler@@QEAAXAEAVCDataPacketReader@@@Z 0000000140032f80 f   FriendData.obj
 0001:00032260       ?LoadActorHeroTopicRankData@CLogicDBReqestHandler@@QEAAXAEAVCDataPacketReader@@@Z 0000000140033260 f   FriendData.obj
 0001:000325d0       ?LoadActorStoneBattleRank@CLogicDBReqestHandler@@QEAAXAEAVCDataPacketReader@@@Z 00000001400335d0 f   FriendData.obj
 0001:000328b0       ?LoadAllActivityData@CLogicDBReqestHandler@@QEAAXAEAVCDataPacketReader@@@Z 00000001400338b0 f   FriendData.obj
 0001:00032b30       ?AddFilterWordsDbMsg@CLogicDBReqestHandler@@QEAAXAEAVCDataPacketReader@@@Z 0000000140033b30 f   FriendData.obj
 0001:00032e70       ?BackRemoveItem@CLogicDBReqestHandler@@QEAAXAEAVCDataPacketReader@@@Z 0000000140033e70 f   FriendData.obj
 0001:00033090       ?BackRemoveMoney@CLogicDBReqestHandler@@QEAAXAEAVCDataPacketReader@@@Z 0000000140034090 f   FriendData.obj
 0001:000332c0       ??$?5UtagGateUserInfo@@@CDataPacketReader@@QEAAAEAV0@AEAUtagGateUserInfo@@@Z 00000001400342c0 f i DBServer.obj
 0001:000332c0       ??$?5TItemSeries@CUserItem@@@CDataPacketReader@@QEAAAEAV0@AEATItemSeries@CUserItem@@@Z 00000001400342c0 f i FriendData.obj
 0001:00033310       ??$readAtom@TItemSeries@CUserItem@@@CDataPacketReader@@QEAA?ATItemSeries@CUserItem@@XZ 0000000140034310 f i FriendData.obj
 0001:00033310       ??$readAtom@UtagGateUserInfo@@@CDataPacketReader@@QEAA?AUtagGateUserInfo@@XZ 0000000140034310 f i DBServer.obj
 0001:000333e0       ?GetRowsAffected@CSQLConenction@@QEAAHXZ 00000001400343e0 f i FriendData.obj
 0001:00033400       ?LoadActorGameSetData@CLogicDBReqestHandler@@QEAAXAEAVCDataPacketReader@@@Z 0000000140034400 f   GameSetData.obj
 0001:000337c0       ?SaveActorGameSetData@CLogicDBReqestHandler@@QEAAXAEAVCDataPacketReader@@@Z 00000001400347c0 f   GameSetData.obj
 0001:00033a30       ?ClearActor@CLogicDBReqestHandler@@QEAAXAEAVCDataPacketReader@@@Z 0000000140034a30 f   GameSetData.obj
 0001:00033cf0       ?SaveActorGemSuitData@CLogicDBReqestHandler@@QEAAXAEAVCDataPacketReader@@_N@Z 0000000140034cf0 f   GemItemData.obj
 0001:00033fd0       ?SaveActorGemItemData@CLogicDBReqestHandler@@QEAAXAEAVCDataPacketReader@@_N@Z 0000000140034fd0 f   GemItemData.obj
 0001:00034400       ?QueryGemRankData@CLogicDBReqestHandler@@QEAAXHH@Z 0000000140035400 f   GemItemData.obj
 0001:00034950       ?SaveCampRankData@CLogicDBReqestHandler@@QEAAXAEAVCDataPacketReader@@@Z 0000000140035950 f   GemItemData.obj
 0001:00034bc0       ?SaveGemRankData@CLogicDBReqestHandler@@QEAAXAEAVCDataPacketReader@@@Z 0000000140035bc0 f   GemItemData.obj
 0001:00034ec0       ?QueryEquipedGemData@CLogicDBReqestHandler@@AEAAXIHH@Z 0000000140035ec0 f   GemItemData.obj
 0001:000352f0       ?QueryActorGemItemData@CLogicDBReqestHandler@@QEAAXIHH@Z 00000001400362f0 f   GemItemData.obj
 0001:00035800       ?QueryActorGemSuitData@CLogicDBReqestHandler@@QEAAXIHH@Z 0000000140036800 f   GemItemData.obj
 0001:00035bc0       ??$?5UtagGemSuitDBData@@@CDataPacketReader@@QEAAAEAV0@AEAUtagGemSuitDBData@@@Z 0000000140036bc0 f i GemItemData.obj
 0001:00035c50       ??$?5UtagGemPropData@@@CDataPacketReader@@QEAAAEAV0@AEAUtagGemPropData@@@Z 0000000140036c50 f i GemItemData.obj
 0001:00035ce0       ??$?6UtagGemPropData@@@CDataPacket@@QEAAAEAV0@UtagGemPropData@@@Z 0000000140036ce0 f i GemItemData.obj
 0001:00035d60       ??$?6UtagGemSuitDBData@@@CDataPacket@@QEAAAEAV0@UtagGemSuitDBData@@@Z 0000000140036d60 f i GemItemData.obj
 0001:00035dd0       ??$readAtom@UtagGemSuitDBData@@@CDataPacketReader@@QEAA?AUtagGemSuitDBData@@XZ 0000000140036dd0 f i GemItemData.obj
 0001:00035f00       ??$readAtom@UtagGemPropData@@@CDataPacketReader@@QEAA?AUtagGemPropData@@XZ 0000000140036f00 f i GemItemData.obj
 0001:00036030       ??$writeAtom@UtagGemPropData@@@CDataPacket@@QEAAXUtagGemPropData@@@Z 0000000140037030 f i GemItemData.obj
 0001:00036130       ??$writeAtom@UtagGemSuitDBData@@@CDataPacket@@QEAAXUtagGemSuitDBData@@@Z 0000000140037130 f i GemItemData.obj
 0001:00036220       ?LoadActorGodWealthData@CLogicDBReqestHandler@@QEAAXAEAVCDataPacketReader@@@Z 0000000140037220 f   GodWealthData.obj
 0001:000362b0       ?SaveActorGodWealthData@CLogicDBReqestHandler@@QEAAXAEAVCDataPacketReader@@@Z 00000001400372b0 f   GodWealthData.obj
 0001:00036330       ?SaveItems@CLogicDBReqestHandler@@QEAAXAEAVCDataPacketReader@@_N@Z 0000000140037330 f   ItemData.obj
 0001:00036aa0       ?QueryItems@CLogicDBReqestHandler@@QEAAXIIHH@Z 0000000140037aa0 f   ItemData.obj
 0001:00037230       ?LoadUserActiveItem@CLogicDBReqestHandler@@QEAAXAEAVCDataPacketReader@@@Z 0000000140038230 f   ItemData.obj
 0001:00037510       ?GetUserActiveItem@CLogicDBReqestHandler@@QEAAXAEAVCDataPacketReader@@@Z 0000000140038510 f   ItemData.obj
 0001:000379e0       ?RemoveUserActiveItem@CLogicDBReqestHandler@@QEAAXAEAVCDataPacketReader@@@Z 00000001400389e0 f   ItemData.obj
 0001:00037b70       ?QueryPetData@CLogicDBReqestHandler@@QEAAXIHH@Z 0000000140038b70 f   PetData.obj
 0001:00038090       ?QueryPetDetailData@CLogicDBReqestHandler@@QEAAXAEAVCDataPacketReader@@@Z 0000000140039090 f   PetData.obj
 0001:000380b0       ?SavePetToDB@CLogicDBReqestHandler@@QEAAXAEAVCDataPacketReader@@_N@Z 00000001400390b0 f   PetData.obj
 0001:00038540       ?QueryPetSkillData@CLogicDBReqestHandler@@QEAAXIHH@Z 0000000140039540 f   PetData.obj
 0001:000388b0       ?SavePetSkillData@CLogicDBReqestHandler@@QEAAXAEAVCDataPacketReader@@_N@Z 00000001400398b0 f   PetData.obj
 0001:00038c20       ??$?6UtagHeroDbData@@@CDataPacket@@QEAAAEAV0@UtagHeroDbData@@@Z 0000000140039c20 f i PetData.obj
 0001:00038c90       ??$?5UtagHeroDbData@@@CDataPacketReader@@QEAAAEAV0@AEAUtagHeroDbData@@@Z 0000000140039c90 f i PetData.obj
 0001:00038d20       ??$?6UtagHeroSkillData@@@CDataPacket@@QEAAAEAV0@UtagHeroSkillData@@@Z 0000000140039d20 f i PetData.obj
 0001:00038d80       ??$?5UtagHeroSkillData@@@CDataPacketReader@@QEAAAEAV0@AEAUtagHeroSkillData@@@Z 0000000140039d80 f i PetData.obj
 0001:00038e00       ??$writeAtom@UtagHeroDbData@@@CDataPacket@@QEAAXUtagHeroDbData@@@Z 0000000140039e00 f i PetData.obj
 0001:00038f00       ??$readAtom@UtagHeroDbData@@@CDataPacketReader@@QEAA?AUtagHeroDbData@@XZ 0000000140039f00 f i PetData.obj
 0001:00039030       ??$writeAtom@UtagHeroSkillData@@@CDataPacket@@QEAAXUtagHeroSkillData@@@Z 000000014003a030 f i PetData.obj
 0001:00039100       ??$readAtom@UtagHeroSkillData@@@CDataPacketReader@@QEAA?AUtagHeroSkillData@@XZ 000000014003a100 f i PetData.obj
 0001:00039220       ??0tagHeroDbData@@QEAA@XZ  000000014003a220 f i PetData.obj
 0001:00039250       ?SaveGoingQuest@CLogicDBReqestHandler@@AEAAHIHHH@Z 000000014003a250 f   QuestData.obj
 0001:000393a0       ?CleanQuestData@CLogicDBReqestHandler@@AEAAHI@Z 000000014003a3a0 f   QuestData.obj
 0001:000394f0       ?SaveRepeatQuest@CLogicDBReqestHandler@@AEAAHIHH@Z 000000014003a4f0 f   QuestData.obj
 0001:00039630       ?QueryQuestFromDB@CLogicDBReqestHandler@@AEAAXIHH@Z 000000014003a630 f   QuestData.obj
 0001:000397e0       ?QueryQuestFromDB@CLogicDBReqestHandler@@QEAAXAEAVCDataPacketReader@@@Z 000000014003a7e0 f   QuestData.obj
 0001:00039850       ?GetGoingQuest@CLogicDBReqestHandler@@AEAAHIAEAVCDataPacket@@@Z 000000014003a850 f   QuestData.obj
 0001:000399b0       ?GetRepeatQuest@CLogicDBReqestHandler@@AEAAHIAEAVCDataPacket@@@Z 000000014003a9b0 f   QuestData.obj
 0001:00039b50       ?SaveQuestToDB@CLogicDBReqestHandler@@QEAAXAEAVCDataPacketReader@@_N@Z 000000014003ab50 f   QuestData.obj
 0001:00039f00       ?QueryRelationData@CLogicDBReqestHandler@@QEAAXIHH@Z 000000014003af00 f   RelationData.obj
 0001:0003a170       ?SaveRelation@CLogicDBReqestHandler@@QEAAXAEAVCDataPacketReader@@@Z 000000014003b170 f   RelationData.obj
 0001:0003a3f0       ?QueryActorScriptData@CLogicDBReqestHandler@@QEAAXAEAVCDataPacketReader@@@Z 000000014003b3f0 f   ScriptData.obj
 0001:0003a450       ?QueryActorScriptData@CLogicDBReqestHandler@@QEAAXIHH@Z 000000014003b450 f   ScriptData.obj
 0001:0003a6c0       ?SaveScriptDataToDB@CLogicDBReqestHandler@@QEAAXAEAVCDataPacketReader@@_N@Z 000000014003b6c0 f   ScriptData.obj
 0001:0003a990       ?QuerySkillFromDB@CLogicDBReqestHandler@@QEAAXIHH@Z 000000014003b990 f   SkillData.obj
 0001:0003ad40       ?SaveSkillToDB@CLogicDBReqestHandler@@QEAAXAEAVCDataPacketReader@@_N@Z 000000014003bd40 f   SkillData.obj
 0001:0003b110       ??$?6UHeroOfflineMsg@@@CDataPacket@@QEAAAEAV0@UHeroOfflineMsg@@@Z 000000014003c110 f i BasicData.obj
 0001:0003b110       ??$?6UtagOneSkillDbData@@@CDataPacket@@QEAAAEAV0@UtagOneSkillDbData@@@Z 000000014003c110 f i SkillData.obj
 0001:0003b170       ??$?5UtagOneSkillDbData@@@CDataPacketReader@@QEAAAEAV0@AEAUtagOneSkillDbData@@@Z 000000014003c170 f i SkillData.obj
 0001:0003b1e0       ??$readAtom@UtagOneSkillDbData@@@CDataPacketReader@@QEAA?AUtagOneSkillDbData@@XZ 000000014003c1e0 f i SkillData.obj
 0001:0003b300       ??0CLogicDBReqestHandler@@QEAA@XZ 000000014003c300 f   LogicDBRequestHandler.obj
 0001:0003b360       ??1CLogicDBReqestHandler@@QEAA@XZ 000000014003c360 f   LogicDBRequestHandler.obj
 0001:0003b3b0       ?allocProtoPacket@CLogicDBReqestHandler@@AEAAAEAVCDataPacket@@G@Z 000000014003c3b0 f   LogicDBRequestHandler.obj
 0001:0003b3f0       ?flushProtoPacket@CLogicDBReqestHandler@@AEAAXAEAVCDataPacket@@@Z 000000014003c3f0 f   LogicDBRequestHandler.obj
 0001:0003b430       ?ExecuInitDb@CLogicDBReqestHandler@@QEAAXAEAVCDataPacketReader@@@Z 000000014003c430 f   LogicDBRequestHandler.obj
 0001:0003b540       ?Trace@CLogicDBReqestHandler@@QEAAXXZ 000000014003c540 f   LogicDBRequestHandler.obj
 0001:0003b600       ?OnResponseDbSessionData@CLogicDBReqestHandler@@QEAAXAEAVCDataPacketReader@@@Z 000000014003c600 f   LogicDBRequestHandler.obj
 0001:0003b650       ?UpdateLogicGateUserInfo@CLogicDBReqestHandler@@QEAAXAEAVCDataPacketReader@@@Z 000000014003c650 f   LogicDBRequestHandler.obj
 0001:0003b680       ?LogicSendStopDbServerCmd@CLogicDBReqestHandler@@QEAAXAEAVCDataPacketReader@@@Z 000000014003c680 f   LogicDBRequestHandler.obj
 0001:0003b6c0       ?OnReloadCrossConfig@CLogicDBReqestHandler@@QEAAXAEAVCDataPacketReader@@@Z 000000014003c6c0 f   LogicDBRequestHandler.obj
 0001:0003b910       ?LoadActorDevelopSystem@CLogicDBReqestHandler@@QEAAXAEAVCDataPacketReader@@@Z 000000014003c910 f   LogicDBRequestHandler.obj
 0001:0003b9c0       ?SaveActorDevelopSystem@CLogicDBReqestHandler@@QEAAXAEAVCDataPacketReader@@@Z 000000014003c9c0 f   LogicDBRequestHandler.obj
 0001:0003bb10       ?ReadLoadActorDevelopSystem@CLogicDBReqestHandler@@QEAAXIHH@Z 000000014003cb10 f   LogicDBRequestHandler.obj
 0001:0003bd10       ?QueryMailData@CLogicDBReqestHandler@@QEAAXIHH@Z 000000014003cd10 f   LogicDBRequestHandler.obj
 0001:0003c110       ?AddMailData@CLogicDBReqestHandler@@QEAAXAEAVCDataPacketReader@@@Z 000000014003d110 f   LogicDBRequestHandler.obj
 0001:0003c550       ?UpdateMailState@CLogicDBReqestHandler@@QEAAXAEAVCDataPacketReader@@@Z 000000014003d550 f   LogicDBRequestHandler.obj
 0001:0003c670       ?GetServerHost@CCustomClientSocket@@QEAAPEBDXZ 000000014003d670 f i LogicDBRequestHandler.obj
 0001:0003c690       ?GetServerPort@CCustomClientSocket@@QEAA_JXZ 000000014003d690 f i LogicDBRequestHandler.obj
 0001:0003c6b0       ?SetDbStartFlag@CDBServer@@QEAAX_N@Z 000000014003d6b0 f i LogicDBRequestHandler.obj
 0001:0003c6d0       ?SetSpid@CDBServer@@QEAAXH@Z 000000014003d6d0 f i LogicDBRequestHandler.obj
 0001:0003c6f0       ?GetGlobalDBEngine@@YAPEAVCDBServer@@XZ 000000014003d6f0 f i LogicDBRequestHandler.obj
 0001:0003c700       ?SetPlatformFlag@CDBCenterClient@@QEAAXH@Z 000000014003d700 f i LogicDBRequestHandler.obj
 0001:0003c720       ?initLocalePath@@YAHXZ     000000014003d720 f   main.obj
 0001:0003c750       ?TestMemory@@YAXXZ         000000014003d750 f   main.obj
 0001:0003c760       main                       000000014003d760 f   main.obj
 0001:0003c950       ?ServiceMain@@YAXHPEAPEAD@Z 000000014003d950 f   main.obj
 0001:0003c9e0       ?CustomConsoleCtrlHandler@@YAHK@Z 000000014003d9e0 f   main.obj
 0001:0003ca30       ?ServerMain@@YAXXZ         000000014003da30 f   main.obj
 0001:0003cfc0       ?SetupDBEngineConfig@@YAHPEAVCDBServer@@@Z 000000014003dfc0 f   main.obj
 0001:0003d160       ??0CDbService@@QEAA@PEBDK@Z 000000014003e160 f i main.obj
 0001:0003d1a0       ?AppMain@CDbService@@UEAAHXZ 000000014003e1a0 f i main.obj
 0001:0003d2d0       ??_GCDbService@@UEAAPEAXI@Z 000000014003e2d0 f i main.obj
 0001:0003d2d0       ??_ECDbService@@UEAAPEAXI@Z 000000014003e2d0 f i main.obj
 0001:0003d310       ??_GCDBServer@@QEAAPEAXI@Z 000000014003e310 f i main.obj
 0001:0003d350       ??1CDbService@@UEAA@XZ     000000014003e350 f i main.obj
 0001:0003d370       ??4?$basic_string@DU?$char_traits@D@std@@V?$allocator@D@2@@std@@QEAAAEAV01@$$QEAV01@@Z 000000014003e370 f i main.obj
 0001:0003d3a0       ?find_last_of@?$basic_string@DU?$char_traits@D@std@@V?$allocator@D@2@@std@@QEBA_KPEBD_K@Z 000000014003e3a0 f i main.obj
 0001:0003d3e0       ?substr@?$basic_string@DU?$char_traits@D@std@@V?$allocator@D@2@@std@@QEBA?AV12@_K0@Z 000000014003e3e0 f i main.obj
 0001:0003d450       ??0?$basic_string@DU?$char_traits@D@std@@V?$allocator@D@2@@std@@QEAA@AEBV01@_K1AEBV?$allocator@D@1@@Z 000000014003e450 f i main.obj
 0001:0003d4d0       ?find_last_of@?$basic_string@DU?$char_traits@D@std@@V?$allocator@D@2@@std@@QEBA_KPEBD_K1@Z 000000014003e4d0 f i main.obj
 0001:0003d5b0       _tcsncicmp                 000000014003e5b0 f i main.obj
 0001:0003d5e0       ?length@?$char_traits@D@std@@SA_KPEBD@Z 000000014003e5e0 f i main.obj
 0001:0003d600       ?find@?$char_traits@D@std@@SAPEBDPEBD_KAEBD@Z 000000014003e600 f i main.obj
 0001:0003d640       ?SetOpenFlag@CTimeProfDummy@@SAX_N@Z 000000014003e640 f i main.obj
 0001:0003d650       ?InitMgr@CTimeProfMgr@@QEAA_NXZ 000000014003e650 f i main.obj
 0001:0003d6a0       ?GetDbStartFlag@CDBServer@@QEAA_NXZ 000000014003e6a0 f i main.obj
 0001:0003d6c0       ??0?$basic_string@DU?$char_traits@D@std@@V?$allocator@D@2@@std@@QEAA@PEBD@Z 000000014003e6c0 f i main.obj
 0001:0003d730       ??1?$basic_string@DU?$char_traits@D@std@@V?$allocator@D@2@@std@@QEAA@XZ 000000014003e730 f i main.obj
 0001:0003d770       ?assign@?$basic_string@DU?$char_traits@D@std@@V?$allocator@D@2@@std@@QEAAAEAV12@$$QEAV12@@Z 000000014003e770 f i main.obj
 0001:0003d890       ?move@?$char_traits@D@std@@SAPEADPEADPEBD_K@Z 000000014003e890 f i main.obj
 0001:0003d8c0       ?assign@?$basic_string@DU?$char_traits@D@std@@V?$allocator@D@2@@std@@QEAAAEAV12@PEBD@Z 000000014003e8c0 f i main.obj
 0001:0003d8f0       ?_Tidy@?$basic_string@DU?$char_traits@D@std@@V?$allocator@D@2@@std@@QEAAX_N_K@Z 000000014003e8f0 f i main.obj
 0001:0003d990       ?copy@?$char_traits@D@std@@SAPEADPEADPEBD_K@Z 000000014003e990 f i main.obj
 0001:0003d9c0       ??0?$_String_val@DV?$allocator@D@std@@@std@@QEAA@V?$allocator@D@1@@Z 000000014003e9c0 f i main.obj
 0001:0003d9f0       ??4?$basic_string@DU?$char_traits@D@std@@V?$allocator@D@2@@std@@QEAAAEAV01@AEBV01@@Z 000000014003e9f0 f i main.obj
 0001:0003da20       ?assign@?$basic_string@DU?$char_traits@D@std@@V?$allocator@D@2@@std@@QEAAAEAV12@PEBD_K@Z 000000014003ea20 f i main.obj
 0001:0003dad0       ?get_allocator@?$basic_string@DU?$char_traits@D@std@@V?$allocator@D@2@@std@@QEBA?AV?$allocator@D@2@XZ 000000014003ead0 f i main.obj
 0001:0003db00       ?_Eos@?$basic_string@DU?$char_traits@D@std@@V?$allocator@D@2@@std@@QEAAX_K@Z 000000014003eb00 f i main.obj
 0001:0003db50       ?assign@?$char_traits@D@std@@SAXAEADAEBD@Z 000000014003eb50 f i main.obj
 0001:0003db70       ?_Myptr@?$basic_string@DU?$char_traits@D@std@@V?$allocator@D@2@@std@@QEAAPEADXZ 000000014003eb70 f i main.obj
 0001:0003db70       ?_Myptr@?$basic_string@DU?$char_traits@D@std@@V?$allocator@D@2@@std@@QEBAPEBDXZ 000000014003eb70 f i main.obj
 0001:0003dbb0       ?assign@?$basic_string@DU?$char_traits@D@std@@V?$allocator@D@2@@std@@QEAAAEAV12@AEBV12@@Z 000000014003ebb0 f i main.obj
 0001:0003dbe0       ?assign@?$basic_string@DU?$char_traits@D@std@@V?$allocator@D@2@@std@@QEAAAEAV12@AEBV12@_K1@Z 000000014003ebe0 f i main.obj
 0001:0003dcf0       ?getOffsetPtr@CDataPacketReader@@QEAAPEADXZ 000000014003ecf0 f i srvlib_x64:SendPackPool.obj
 0001:0003dcf0       ?size@?$basic_string@DU?$char_traits@D@std@@V?$allocator@D@2@@std@@QEBA_KXZ 000000014003ecf0 f i main.obj
 0001:0003dcf0       ?maxCount@?$CBaseList@PEAVCDataPacket@@@container@wylib@@QEBA_JXZ 000000014003ecf0 f i srvlib_x64:SendPackPool.obj
 0001:0003dd00       ?_Xran@?$basic_string@DU?$char_traits@D@std@@V?$allocator@D@2@@std@@QEBAXXZ 000000014003ed00 f i main.obj
 0001:0003dd20       ?_Grow@?$basic_string@DU?$char_traits@D@std@@V?$allocator@D@2@@std@@QEAA_N_K_N@Z 000000014003ed20 f i main.obj
 0001:0003de00       ?_Inside@?$basic_string@DU?$char_traits@D@std@@V?$allocator@D@2@@std@@QEAA_NPEBD@Z 000000014003ee00 f i main.obj
 0001:0003de50       ?_Xlen@?$basic_string@DU?$char_traits@D@std@@V?$allocator@D@2@@std@@QEBAXXZ 000000014003ee50 f i main.obj
 0001:0003de70       ?erase@?$basic_string@DU?$char_traits@D@std@@V?$allocator@D@2@@std@@QEAAAEAV12@_K0@Z 000000014003ee70 f i main.obj
 0001:0003df70       ?max_size@?$basic_string@DU?$char_traits@D@std@@V?$allocator@D@2@@std@@QEBA_KXZ 000000014003ef70 f i main.obj
 0001:0003dfc0       ?_Copy@?$basic_string@DU?$char_traits@D@std@@V?$allocator@D@2@@std@@QEAAX_K0@Z 000000014003efc0 f i main.obj
 0001:0003e140       ?allocate@?$allocator@D@std@@QEAAPEAD_K@Z 000000014003f140 f i main.obj
 0001:0003e160       ?max_size@?$allocator@D@std@@QEBA_KXZ 000000014003f160 f i main.obj
 0001:0003e1a0       ??$?9DD@std@@YA_NAEBV?$allocator@D@0@0@Z 000000014003f1a0 f i main.obj
 0001:0003e1e0       ??$_Allocate@D@std@@YAPEAD_KPEAD@Z 000000014003f1e0 f i main.obj
 0001:0003e250       ??$?8DD@std@@YA_NAEBV?$allocator@D@0@0@Z 000000014003f250 f i main.obj
 0001:0003e260       ?LoadMsgList@CLogicDBReqestHandler@@QEAAXAEAVCDataPacketReader@@@Z 000000014003f260 f   MsgData.obj
 0001:0003e300       ?LoadMsgListFromId@CLogicDBReqestHandler@@QEAAXI_JHH@Z 000000014003f300 f   MsgData.obj
 0001:0003e6a0       ?DeleteMsg@CLogicDBReqestHandler@@QEAAXAEAVCDataPacketReader@@@Z 000000014003f6a0 f   MsgData.obj
 0001:0003e870       ?AddMsg@CLogicDBReqestHandler@@QEAAXAEAVCDataPacketReader@@@Z 000000014003f870 f   MsgData.obj
 0001:0003eba0       ?AddMsgByName@CLogicDBReqestHandler@@QEAAXAEAVCDataPacketReader@@@Z 000000014003fba0 f   MsgData.obj
 0001:0003ef90       ?SaveTopTitleRank@CLogicDBReqestHandler@@QEAAXAEAVCDataPacketReader@@@Z 000000014003ff90 f   TopTitleData.obj
 0001:0003f0f0       ?LoadTopTitleRank@CLogicDBReqestHandler@@QEAAXAEAVCDataPacketReader@@@Z 00000001400400f0 f   TopTitleData.obj
 0001:0003f36a       inet_ntoa                  000000014004036a f   Ws2_32:WS2_32.dll
 0001:0003f370       ?setSize@CBaseStream@stream@wylib@@UEAA_N_J@Z 0000000140040370 f i wylib_x64:FileStream.obj
 0001:0003f380       ??_GCHandleStream@stream@wylib@@UEAAPEAXI@Z 0000000140040380 f i wylib_x64:HandleStream.obj
 0001:0003f380       ??_ECBaseStream@stream@wylib@@UEAAPEAXI@Z 0000000140040380 f i wylib_x64:FileStream.obj
 0001:0003f380       ??_ECHandleStream@stream@wylib@@UEAAPEAXI@Z 0000000140040380 f i wylib_x64:HandleStream.obj
 0001:0003f380       ??_GCBaseStream@stream@wylib@@UEAAPEAXI@Z 0000000140040380 f i wylib_x64:FileStream.obj
 0001:0003f3b0       ??1CHandleStream@stream@wylib@@UEAA@XZ 00000001400403b0 f i wylib_x64:FileStream.obj
 0001:0003f3c0       ??1CFileStream@stream@wylib@@UEAA@XZ 00000001400403c0 f   wylib_x64:FileStream.obj
 0001:0003f410       ?construct@CFileStream@stream@wylib@@IEAAXPEBDKK@Z 0000000140040410 f   wylib_x64:FileStream.obj
 0001:0003f4f0       ??0CFileStream@stream@wylib@@QEAA@PEBDK@Z 00000001400404f0 f   wylib_x64:FileStream.obj
 0001:0003f560       ??_GCFileStream@stream@wylib@@UEAAPEAXI@Z 0000000140040560 f i wylib_x64:FileStream.obj
 0001:0003f560       ??_ECFileStream@stream@wylib@@UEAAPEAXI@Z 0000000140040560 f i wylib_x64:FileStream.obj
 0001:0003f5d0       ??0CFileStream@stream@wylib@@QEAA@PEBDKW4OpenDisposition@012@@Z 00000001400405d0 f   wylib_x64:FileStream.obj
 0001:0003f640       ??1CCSLock@lock@sync@wylib@@UEAA@XZ 0000000140040640 f   wylib_x64:Lock.obj
 0001:0003f660       ?_Lock@CCSLock@lock@sync@wylib@@UEAAXPEADH@Z 0000000140040660 f   wylib_x64:Lock.obj
 0001:0003f680       ?TryLock@CCSLock@lock@sync@wylib@@UEAAHXZ 0000000140040680 f   wylib_x64:Lock.obj
 0001:0003f690       ?_Unlock@CCSLock@lock@sync@wylib@@UEAAXPEADH@Z 0000000140040690 f   wylib_x64:Lock.obj
 0001:0003f6b0       ??0CCSLock@lock@sync@wylib@@QEAA@XZ 00000001400406b0 f   wylib_x64:Lock.obj
 0001:0003f6e0       ??_ECCSLock@lock@sync@wylib@@UEAAPEAXI@Z 00000001400406e0 f i wylib_x64:Lock.obj
 0001:0003f6e0       ??_GCCSLock@lock@sync@wylib@@UEAAPEAXI@Z 00000001400406e0 f i wylib_x64:Lock.obj
 0001:0003f720       ??0CCustomSocket@socket@inet@wylib@@QEAA@XZ 0000000140040720 f   wylib_x64:CustomSocket.obj
 0001:0003f770       ?Connected@CCustomSocket@socket@inet@wylib@@MEAAXXZ 0000000140040770 f   wylib_x64:CustomSocket.obj
 0001:0003f780       ?Disconnected@CCustomSocket@socket@inet@wylib@@MEAAXXZ 0000000140040780 f   wylib_x64:CustomSocket.obj
 0001:0003f790       ?setBlockMode@CCustomSocket@socket@inet@wylib@@QEAAH_N@Z 0000000140040790 f   wylib_x64:CustomSocket.obj
 0001:0003f7f0       ?close@CCustomSocket@socket@inet@wylib@@QEAAXXZ 00000001400407f0 f   wylib_x64:CustomSocket.obj
 0001:0003f830       ?bind@CCustomSocket@socket@inet@wylib@@QEAAHKH@Z 0000000140040830 f   wylib_x64:CustomSocket.obj
 0001:0003f8b0       ?bind@CCustomSocket@socket@inet@wylib@@QEAAHPEBDH@Z 00000001400408b0 f   wylib_x64:CustomSocket.obj
 0001:0003f900       ?setRecvBufSize@CCustomSocket@socket@inet@wylib@@QEAAHK@Z 0000000140040900 f   wylib_x64:CustomSocket.obj
 0001:0003f940       ?setSendBufSize@CCustomSocket@socket@inet@wylib@@QEAAHK@Z 0000000140040940 f   wylib_x64:CustomSocket.obj
 0001:0003f980       ?listen@CCustomSocket@socket@inet@wylib@@QEAAHH@Z 0000000140040980 f   wylib_x64:CustomSocket.obj
 0001:0003f9b0       ?accept@CCustomSocket@socket@inet@wylib@@QEAAHPEA_KKPEAUsockaddr_in@@@Z 00000001400409b0 f   wylib_x64:CustomSocket.obj
 0001:0003fa70       ?connect@CCustomSocket@socket@inet@wylib@@QEAAHKH@Z 0000000140040a70 f   wylib_x64:CustomSocket.obj
 0001:0003fb00       ?createSocket@CCustomSocket@socket@inet@wylib@@SAHPEA_KHHH@Z 0000000140040b00 f   wylib_x64:CustomSocket.obj
 0001:0003fb40       ?recv@CCustomSocket@socket@inet@wylib@@UEAAHPEAXHH@Z 0000000140040b40 f   wylib_x64:CustomSocket.obj
 0001:0003fbe0       ?send@CCustomSocket@socket@inet@wylib@@UEAAHPEAXHH@Z 0000000140040be0 f   wylib_x64:CustomSocket.obj
 0001:0003fcc0       ??1CCustomSocket@socket@inet@wylib@@UEAA@XZ 0000000140040cc0 f   wylib_x64:CustomSocket.obj
 0001:0003fd10       ?SocketError@CCustomSocket@socket@inet@wylib@@MEAAXH@Z 0000000140040d10 f   wylib_x64:CustomSocket.obj
 0001:0003fd60       ?setSocket@CCustomSocket@socket@inet@wylib@@QEAAX_K@Z 0000000140040d60 f   wylib_x64:CustomSocket.obj
 0001:0003fde0       ?connect@CCustomSocket@socket@inet@wylib@@QEAAHPEBDH@Z 0000000140040de0 f   wylib_x64:CustomSocket.obj
 0001:0003fe30       ??_ECCustomSocket@socket@inet@wylib@@UEAAPEAXI@Z 0000000140040e30 f i wylib_x64:CustomSocket.obj
 0001:0003fe30       ??_GCCustomSocket@socket@inet@wylib@@UEAAPEAXI@Z 0000000140040e30 f i wylib_x64:CustomSocket.obj
 0001:0003fea0       ??0CMemoryStream@stream@wylib@@QEAA@XZ 0000000140040ea0 f   wylib_x64:MemoryStream.obj
 0001:0003fec0       ??1CMemoryStream@stream@wylib@@UEAA@XZ 0000000140040ec0 f   wylib_x64:MemoryStream.obj
 0001:0003ff00       ?Alloc@CMemoryStream@stream@wylib@@MEAAPEADPEAD_J@Z 0000000140040f00 f   wylib_x64:MemoryStream.obj
 0001:0003ff40       ?setSize@CMemoryStream@stream@wylib@@UEAA_N_J@Z 0000000140040f40 f   wylib_x64:MemoryStream.obj
 0001:0003ffb0       ?seek@CMemoryStream@stream@wylib@@UEAA_J_JH@Z 0000000140040fb0 f   wylib_x64:MemoryStream.obj
 0001:00040000       ?read@CMemoryStream@stream@wylib@@UEAA_JPEAX_J@Z 0000000140041000 f   wylib_x64:MemoryStream.obj
 0001:00040060       ?write@CMemoryStream@stream@wylib@@UEAA_JPEBX_J@Z 0000000140041060 f   wylib_x64:MemoryStream.obj
 0001:000400c0       ?loadFromFile@CMemoryStream@stream@wylib@@QEAA_JPEBD@Z 00000001400410c0 f   wylib_x64:MemoryStream.obj
 0001:00040140       ?saveToFile@CMemoryStream@stream@wylib@@QEAA_JPEBD@Z 0000000140041140 f   wylib_x64:MemoryStream.obj
 0001:000401a0       ??_ECMemoryStream@stream@wylib@@UEAAPEAXI@Z 00000001400411a0 f i wylib_x64:MemoryStream.obj
 0001:000401a0       ??_GCMemoryStream@stream@wylib@@UEAAPEAXI@Z 00000001400411a0 f i wylib_x64:MemoryStream.obj
 0001:00040200       ?GetTickCount64@tick64@time@wylib@@YA_JXZ 0000000140041200 f   wylib_x64:Tick.obj
 0001:000402a0       ?OnRountine@CBaseThread@thread@wylib@@MEAAXXZ 00000001400412a0 f   wylib_x64:Thread.obj
 0001:000402a0       ?OnResume@CBaseThread@thread@wylib@@MEAAXH@Z 00000001400412a0 f   wylib_x64:Thread.obj
 0001:000402a0       ?OnError@CCustomSocket@socket@inet@wylib@@MEAAXH@Z 00000001400412a0 f   wylib_x64:CustomSocket.obj
 0001:000402a0       ?OnTerminated@CBaseThread@thread@wylib@@MEAAXXZ 00000001400412a0 f   wylib_x64:Thread.obj
 0001:000402a0       ?OnDisconnected@CCustomSocket@socket@inet@wylib@@MEAAXXZ 00000001400412a0 f   wylib_x64:CustomSocket.obj
 0001:000402a0       ?OnConnected@CCustomSocket@socket@inet@wylib@@MEAAXXZ 00000001400412a0 f   wylib_x64:CustomSocket.obj
 0001:000402a0       ?OnSuspend@CBaseThread@thread@wylib@@MEAAXH@Z 00000001400412a0 f   wylib_x64:Thread.obj
 0001:000402a0       ?OnSuspend@CKBaseThread@thread@wylib@@MEAAXH@Z 00000001400412a0 f   wylib_x64:KThread.obj
 0001:000402a0       ?OnTerminated@CKBaseThread@thread@wylib@@MEAAXXZ 00000001400412a0 f   wylib_x64:KThread.obj
 0001:000402a0       ?OnRountine@CKBaseThread@thread@wylib@@MEAAXXZ 00000001400412a0 f   wylib_x64:KThread.obj
 0001:000402a0       ?OnResume@CKBaseThread@thread@wylib@@MEAAXH@Z 00000001400412a0 f   wylib_x64:KThread.obj
 0001:000402b0       ?StartWorkThread@CKBaseThread@thread@wylib@@QEAAXXZ 00000001400412b0 f   wylib_x64:KThread.obj
 0001:000402e0       ??1CKBaseThread@thread@wylib@@QEAA@XZ 00000001400412e0 f   wylib_x64:KThread.obj
 0001:00040330       ?ThreadRoutine@CKBaseThread@thread@wylib@@CAIPEAX@Z 0000000140041330 f   wylib_x64:KThread.obj
 0001:00040380       ?StopWorkThread@CKBaseThread@thread@wylib@@QEAAXXZ 0000000140041380 f   wylib_x64:KThread.obj
 0001:000403c0       ??0CKBaseThread@thread@wylib@@QEAA@PEADP6AXPEAX@Z1@Z 00000001400413c0 f   wylib_x64:KThread.obj
 0001:00040440       ?getSize@CBaseStream@stream@wylib@@UEAA_JXZ 0000000140041440 f   wylib_x64:BaseStream.obj
 0001:000404a0       ?setPosition@CBaseStream@stream@wylib@@QEAA_J_J@Z 00000001400414a0 f   wylib_x64:BaseStream.obj
 0001:000404b0       ?copyFrom@CBaseStream@stream@wylib@@UEAA_JAEAV123@_J@Z 00000001400414b0 f   wylib_x64:BaseStream.obj
 0001:000405c0       ??0CHandleStream@stream@wylib@@QEAA@PEAX@Z 00000001400415c0 f   wylib_x64:HandleStream.obj
 0001:000405e0       ?setHandle@CHandleStream@stream@wylib@@IEAAXPEAX@Z 00000001400415e0 f   wylib_x64:HandleStream.obj
 0001:000405f0       ?setSize@CHandleStream@stream@wylib@@UEAA_N_J@Z 00000001400415f0 f   wylib_x64:HandleStream.obj
 0001:00040620       ?seek@CHandleStream@stream@wylib@@UEAA_J_JH@Z 0000000140041620 f   wylib_x64:HandleStream.obj
 0001:00040650       ?read@CHandleStream@stream@wylib@@UEAA_JPEAX_J@Z 0000000140041650 f   wylib_x64:HandleStream.obj
 0001:00040690       ?write@CHandleStream@stream@wylib@@UEAA_JPEBX_J@Z 0000000140041690 f   wylib_x64:HandleStream.obj
 0001:00040780       lua_checkstack             0000000140041780 f   lua-5.1_x64:lapi.obj
 0001:00040820       lua_xmove                  0000000140041820 f   lua-5.1_x64:lapi.obj
 0001:00040880       lua_setlevel               0000000140041880 f   lua-5.1_x64:lapi.obj
 0001:00040890       lua_atpanic                0000000140041890 f   lua-5.1_x64:lapi.obj
 0001:000408b0       lua_newthread              00000001400418b0 f   lua-5.1_x64:lapi.obj
 0001:000408f0       lua_gettop                 00000001400418f0 f   lua-5.1_x64:lapi.obj
 0001:00040900       lua_settop                 0000000140041900 f   lua-5.1_x64:lapi.obj
 0001:00040960       lua_remove                 0000000140041960 f   lua-5.1_x64:lapi.obj
 0001:000409b0       lua_insert                 00000001400419b0 f   lua-5.1_x64:lapi.obj
 0001:00040a10       lua_replace                0000000140041a10 f   lua-5.1_x64:lapi.obj
 0001:00040ae0       lua_pushvalue              0000000140041ae0 f   lua-5.1_x64:lapi.obj
 0001:00040b10       lua_type                   0000000140041b10 f   lua-5.1_x64:lapi.obj
 0001:00040b40       lua_typename               0000000140041b40 f   lua-5.1_x64:lapi.obj
 0001:00040b60       lua_iscfunction            0000000140041b60 f   lua-5.1_x64:lapi.obj
 0001:00040b90       lua_isnumber               0000000140041b90 f   lua-5.1_x64:lapi.obj
 0001:00040bc0       lua_isstring               0000000140041bc0 f   lua-5.1_x64:lapi.obj
 0001:00040c00       lua_rawequal               0000000140041c00 f   lua-5.1_x64:lapi.obj
 0001:00040c50       lua_lessthan               0000000140041c50 f   lua-5.1_x64:lapi.obj
 0001:00040ca0       lua_tonumber               0000000140041ca0 f   lua-5.1_x64:lapi.obj
 0001:00040ce0       lua_tointeger              0000000140041ce0 f   lua-5.1_x64:lapi.obj
 0001:00040d10       lua_toboolean              0000000140041d10 f   lua-5.1_x64:lapi.obj
 0001:00040d40       lua_tolstring              0000000140041d40 f   lua-5.1_x64:lapi.obj
 0001:00040de0       lua_objlen                 0000000140041de0 f   lua-5.1_x64:lapi.obj
 0001:00040e60       lua_tothread               0000000140041e60 f   lua-5.1_x64:lapi.obj
 0001:00040e80       lua_topointer              0000000140041e80 f   lua-5.1_x64:lapi.obj
 0001:00040ef0       lua_pushnil                0000000140041ef0 f   lua-5.1_x64:lapi.obj
 0001:00040f10       lua_pushnumber             0000000140041f10 f   lua-5.1_x64:lapi.obj
 0001:00040f30       lua_pushinteger            0000000140041f30 f   lua-5.1_x64:lapi.obj
 0001:00040f50       lua_pushlstring            0000000140041f50 f   lua-5.1_x64:lapi.obj
 0001:00040fc0       lua_pushstring             0000000140041fc0 f   lua-5.1_x64:lapi.obj
 0001:00041010       lua_pushvfstring           0000000140042010 f   lua-5.1_x64:lapi.obj
 0001:00041060       lua_pushfstring            0000000140042060 f   lua-5.1_x64:lapi.obj
 0001:000410b0       lua_pushcclosure           00000001400420b0 f   lua-5.1_x64:lapi.obj
 0001:00041170       lua_pushboolean            0000000140042170 f   lua-5.1_x64:lapi.obj
 0001:00041190       lua_pushthread             0000000140042190 f   lua-5.1_x64:lapi.obj
 0001:000411c0       lua_gettable               00000001400421c0 f   lua-5.1_x64:lapi.obj
 0001:000411f0       lua_getfield               00000001400421f0 f   lua-5.1_x64:lapi.obj
 0001:00041260       lua_rawget                 0000000140042260 f   lua-5.1_x64:lapi.obj
 0001:000412a0       lua_rawgeti                00000001400422a0 f   lua-5.1_x64:lapi.obj
 0001:000412e0       lua_createtable            00000001400422e0 f   lua-5.1_x64:lapi.obj
 0001:00041350       lua_getmetatable           0000000140042350 f   lua-5.1_x64:lapi.obj
 0001:000413b0       lua_getfenv                00000001400423b0 f   lua-5.1_x64:lapi.obj
 0001:00041430       lua_settable               0000000140042430 f   lua-5.1_x64:lapi.obj
 0001:00041460       lua_setfield               0000000140042460 f   lua-5.1_x64:lapi.obj
 0001:000414e0       lua_rawset                 00000001400424e0 f   lua-5.1_x64:lapi.obj
 0001:00041560       lua_rawseti                0000000140042560 f   lua-5.1_x64:lapi.obj
 0001:000415e0       lua_setmetatable           00000001400425e0 f   lua-5.1_x64:lapi.obj
 0001:000416a0       lua_setfenv                00000001400426a0 f   lua-5.1_x64:lapi.obj
 0001:00041740       lua_call                   0000000140042740 f   lua-5.1_x64:lapi.obj
 0001:000417a0       lua_pcall                  00000001400427a0 f   lua-5.1_x64:lapi.obj
 0001:000418c0       lua_cpcall                 00000001400428c0 f   lua-5.1_x64:lapi.obj
 0001:00041900       lua_load                   0000000140042900 f   lua-5.1_x64:lapi.obj
 0001:00041950       lua_dump                   0000000140042950 f   lua-5.1_x64:lapi.obj
 0001:000419a0       lua_status                 00000001400429a0 f   lua-5.1_x64:lapi.obj
 0001:000419b0       lua_gc                     00000001400429b0 f   lua-5.1_x64:lapi.obj
 0001:00041b50       lua_error                  0000000140042b50 f   lua-5.1_x64:lapi.obj
 0001:00041b60       lua_next                   0000000140042b60 f   lua-5.1_x64:lapi.obj
 0001:00041ba0       lua_concat                 0000000140042ba0 f   lua-5.1_x64:lapi.obj
 0001:00041c30       lua_newuserdata            0000000140042c30 f   lua-5.1_x64:lapi.obj
 0001:00041ca0       luaL_where                 0000000140042ca0 f   lua-5.1_x64:lauxlib.obj
 0001:00041d10       luaL_error                 0000000140042d10 f   lua-5.1_x64:lauxlib.obj
 0001:00041dc0       luaL_checkstack            0000000140042dc0 f   lua-5.1_x64:lauxlib.obj
 0001:00041e00       luaL_getmetafield          0000000140042e00 f   lua-5.1_x64:lauxlib.obj
 0001:00041e80       luaL_callmeta              0000000140042e80 f   lua-5.1_x64:lauxlib.obj
 0001:00041f00       luaL_findtable             0000000140042f00 f   lua-5.1_x64:lauxlib.obj
 0001:000420e0       luaL_prepbuffer            00000001400430e0 f   lua-5.1_x64:lauxlib.obj
 0001:00042140       luaL_addlstring            0000000140043140 f   lua-5.1_x64:lauxlib.obj
 0001:000421e0       luaL_pushresult            00000001400431e0 f   lua-5.1_x64:lauxlib.obj
 0001:00042230       luaL_addvalue              0000000140043230 f   lua-5.1_x64:lauxlib.obj
 0001:000422f0       luaL_buffinit              00000001400432f0 f   lua-5.1_x64:lauxlib.obj
 0001:00042420       luaL_loadfile              0000000140043420 f   lua-5.1_x64:lauxlib.obj
 0001:00042660       luaL_loadbuffer            0000000140043660 f   lua-5.1_x64:lauxlib.obj
 0001:00042690       luaL_loadstring            0000000140043690 f   lua-5.1_x64:lauxlib.obj
 0001:00042750       luaL_newstate              0000000140043750 f   lua-5.1_x64:lauxlib.obj
 0001:00042790       luaL_argerror              0000000140043790 f   lua-5.1_x64:lauxlib.obj
 0001:000428f0       luaL_checktype             00000001400438f0 f   lua-5.1_x64:lauxlib.obj
 0001:00042930       luaL_checkany              0000000140043930 f   lua-5.1_x64:lauxlib.obj
 0001:00042970       luaL_checklstring          0000000140043970 f   lua-5.1_x64:lauxlib.obj
 0001:00042a00       luaL_optlstring            0000000140043a00 f   lua-5.1_x64:lauxlib.obj
 0001:00042a80       luaL_checknumber           0000000140043a80 f   lua-5.1_x64:lauxlib.obj
 0001:00042af0       luaL_checkinteger          0000000140043af0 f   lua-5.1_x64:lauxlib.obj
 0001:00042b40       luaL_optinteger            0000000140043b40 f   lua-5.1_x64:lauxlib.obj
 0001:00042bb0       luaL_openlib               0000000140043bb0 f   lua-5.1_x64:lauxlib.obj
 0001:00042d30       luaL_checkoption           0000000140043d30 f   lua-5.1_x64:lauxlib.obj
 0001:00042df0       luaL_register              0000000140043df0 f   lua-5.1_x64:lauxlib.obj
 0001:000433e0       luaU_dump                  00000001400443e0 f   lua-5.1_x64:ldump.obj
 0001:00043c90       luaopen_math               0000000140044c90 f   lua-5.1_x64:lmathlib.obj
 0001:00045e00       luaopen_string             0000000140046e00 f   lua-5.1_x64:lstrlib.obj
 0001:000474c0       luaopen_base               00000001400484c0 f   lua-5.1_x64:lbaselib.obj
 0001:00047700       luaE_newthread             0000000140048700 f   lua-5.1_x64:lstate.obj
 0001:000477d0       luaE_freethread            00000001400487d0 f   lua-5.1_x64:lstate.obj
 0001:00047840       lua_newstate               0000000140048840 f   lua-5.1_x64:lstate.obj
 0001:00047a00       lua_close                  0000000140048a00 f   lua-5.1_x64:lstate.obj
 0001:00048650       luaopen_table              0000000140049650 f   lua-5.1_x64:ltablib.obj
 0001:00048680       luaO_int2fb                0000000140049680 f   lua-5.1_x64:lobject.obj
 0001:000486b0       luaO_fb2int                00000001400496b0 f   lua-5.1_x64:lobject.obj
 0001:000486d0       luaO_log2                  00000001400496d0 f   lua-5.1_x64:lobject.obj
 0001:00048700       luaO_rawequalObj           0000000140049700 f   lua-5.1_x64:lobject.obj
 0001:00048770       luaO_str2d                 0000000140049770 f   lua-5.1_x64:lobject.obj
 0001:000488b0       luaO_pushvfstring          00000001400498b0 f   lua-5.1_x64:lobject.obj
 0001:00048c20       luaO_pushfstring           0000000140049c20 f   lua-5.1_x64:lobject.obj
 0001:00048c50       luaO_chunkid               0000000140049c50 f   lua-5.1_x64:lobject.obj
 0001:00048db0       luaD_seterrorobj           0000000140049db0 f   lua-5.1_x64:ldo.obj
 0001:00048e60       luaD_rawrunprotected       0000000140049e60 f   lua-5.1_x64:ldo.obj
 0001:00048fc0       luaD_reallocstack          0000000140049fc0 f   lua-5.1_x64:ldo.obj
 0001:00049050       luaD_reallocCI             000000014004a050 f   lua-5.1_x64:ldo.obj
 0001:00049100       luaD_growstack             000000014004a100 f   lua-5.1_x64:ldo.obj
 0001:00049120       luaD_callhook              000000014004a120 f   lua-5.1_x64:ldo.obj
 0001:00049620       luaD_poscall               000000014004a620 f   lua-5.1_x64:ldo.obj
 0001:00049740       lua_yield                  000000014004a740 f   lua-5.1_x64:ldo.obj
 0001:00049930       luaD_throw                 000000014004a930 f   lua-5.1_x64:ldo.obj
 0001:000499f0       luaD_precall               000000014004a9f0 f   lua-5.1_x64:ldo.obj
 0001:00049c40       luaD_call                  000000014004ac40 f   lua-5.1_x64:ldo.obj
 0001:00049d70       lua_resume                 000000014004ad70 f   lua-5.1_x64:ldo.obj
 0001:00049e30       luaD_pcall                 000000014004ae30 f   lua-5.1_x64:ldo.obj
 0001:00049f30       luaD_protectedparser       000000014004af30 f   lua-5.1_x64:ldo.obj
 0001:0004a1d0       luaC_separateudata         000000014004b1d0 f   lua-5.1_x64:lgc.obj
 0001:0004af20       luaC_callGCTM              000000014004bf20 f   lua-5.1_x64:lgc.obj
 0001:0004b060       luaC_freeall               000000014004c060 f   lua-5.1_x64:lgc.obj
 0001:0004b660       luaC_step                  000000014004c660 f   lua-5.1_x64:lgc.obj
 0001:0004b880       luaC_fullgc                000000014004c880 f   lua-5.1_x64:lgc.obj
 0001:0004b930       luaC_barrierf              000000014004c930 f   lua-5.1_x64:lgc.obj
 0001:0004b960       luaC_barrierback           000000014004c960 f   lua-5.1_x64:lgc.obj
 0001:0004b980       luaC_link                  000000014004c980 f   lua-5.1_x64:lgc.obj
 0001:0004b9a0       luaC_linkupval             000000014004c9a0 f   lua-5.1_x64:lgc.obj
 0001:0004ba80       lua_getstack               000000014004ca80 f   lua-5.1_x64:ldebug.obj
 0001:0004bc50       luaG_checkopenop           000000014004cc50 f   lua-5.1_x64:ldebug.obj
 0001:0004c270       luaG_checkcode             000000014004d270 f   lua-5.1_x64:ldebug.obj
 0001:0004c640       luaG_errormsg              000000014004d640 f   lua-5.1_x64:ldebug.obj
 0001:0004c6f0       luaG_runerror              000000014004d6f0 f   lua-5.1_x64:ldebug.obj
 0001:0004c8d0       lua_getinfo                000000014004d8d0 f   lua-5.1_x64:ldebug.obj
 0001:0004c9c0       luaG_typeerror             000000014004d9c0 f   lua-5.1_x64:ldebug.obj
 0001:0004ca90       luaG_concaterror           000000014004da90 f   lua-5.1_x64:ldebug.obj
 0001:0004cab0       luaG_aritherror            000000014004dab0 f   lua-5.1_x64:ldebug.obj
 0001:0004cb00       luaG_ordererror            000000014004db00 f   lua-5.1_x64:ldebug.obj
 0001:0004cb50       luaT_init                  000000014004db50 f   lua-5.1_x64:ltm.obj
 0001:0004cbe0       luaT_gettm                 000000014004dbe0 f   lua-5.1_x64:ltm.obj
 0001:0004cc20       luaT_gettmbyobj            000000014004dc20 f   lua-5.1_x64:ltm.obj
 0001:0004cc70       luaV_tonumber              000000014004dc70 f   lua-5.1_x64:lvm.obj
 0001:0004ccd0       luaV_tostring              000000014004dcd0 f   lua-5.1_x64:lvm.obj
 0001:0004cf70       luaV_gettable              000000014004df70 f   lua-5.1_x64:lvm.obj
 0001:0004d100       luaV_settable              000000014004e100 f   lua-5.1_x64:lvm.obj
 0001:0004d510       luaV_lessthan              000000014004e510 f   lua-5.1_x64:lvm.obj
 0001:0004d6c0       luaV_equalval              000000014004e6c0 f   lua-5.1_x64:lvm.obj
 0001:0004d810       luaV_concat                000000014004e810 f   lua-5.1_x64:lvm.obj
 0001:0004dcb0       luaV_execute               000000014004ecb0 f   lua-5.1_x64:lvm.obj
 0001:0004f580       luaH_next                  0000000140050580 f   lua-5.1_x64:ltable.obj
 0001:0004f810       luaH_new                   0000000140050810 f   lua-5.1_x64:ltable.obj
 0001:0004f8b0       luaH_free                  00000001400508b0 f   lua-5.1_x64:ltable.obj
 0001:0004f930       luaH_getnum                0000000140050930 f   lua-5.1_x64:ltable.obj
 0001:0004f9c0       luaH_getstr                00000001400509c0 f   lua-5.1_x64:ltable.obj
 0001:0004fa10       luaH_get                   0000000140050a10 f   lua-5.1_x64:ltable.obj
 0001:0004fae0       luaH_set                   0000000140050ae0 f   lua-5.1_x64:ltable.obj
 0001:0004fb70       luaH_setnum                0000000140050b70 f   lua-5.1_x64:ltable.obj
 0001:0004fe20       luaH_getn                  0000000140050e20 f   lua-5.1_x64:ltable.obj
 0001:000500e0       luaH_resizearray           00000001400510e0 f   lua-5.1_x64:ltable.obj
 0001:00050460       luaH_setstr                0000000140051460 f   lua-5.1_x64:ltable.obj
 0001:000504e0       luaS_resize                00000001400514e0 f   lua-5.1_x64:lstring.obj
 0001:000505d0       luaS_newlstr               00000001400515d0 f   lua-5.1_x64:lstring.obj
 0001:00050750       luaS_newudata              0000000140051750 f   lua-5.1_x64:lstring.obj
 0001:000507e0       luaF_newCclosure           00000001400517e0 f   lua-5.1_x64:lfunc.obj
 0001:00050850       luaF_newLclosure           0000000140051850 f   lua-5.1_x64:lfunc.obj
 0001:000508d0       luaF_newupval              00000001400518d0 f   lua-5.1_x64:lfunc.obj
 0001:00050920       luaF_findupval             0000000140051920 f   lua-5.1_x64:lfunc.obj
 0001:000509f0       luaF_freeupval             00000001400519f0 f   lua-5.1_x64:lfunc.obj
 0001:00050a20       luaF_close                 0000000140051a20 f   lua-5.1_x64:lfunc.obj
 0001:00050b10       luaF_newproto              0000000140051b10 f   lua-5.1_x64:lfunc.obj
 0001:00050b90       luaF_freeproto             0000000140051b90 f   lua-5.1_x64:lfunc.obj
 0001:00050c50       luaF_freeclosure           0000000140051c50 f   lua-5.1_x64:lfunc.obj
 0001:00050c80       luaF_getlocalname          0000000140051c80 f   lua-5.1_x64:lfunc.obj
 0001:00050cd0       luaZ_fill                  0000000140051cd0 f   lua-5.1_x64:lzio.obj
 0001:00050d20       luaZ_lookahead             0000000140051d20 f   lua-5.1_x64:lzio.obj
 0001:00050d90       luaZ_init                  0000000140051d90 f   lua-5.1_x64:lzio.obj
 0001:00050db0       luaZ_read                  0000000140051db0 f   lua-5.1_x64:lzio.obj
 0001:00050e70       luaZ_openspace             0000000140051e70 f   lua-5.1_x64:lzio.obj
 0001:000519a0       luaU_header                00000001400529a0 f   lua-5.1_x64:lundump.obj
 0001:00051a80       luaU_undump                0000000140052a80 f   lua-5.1_x64:lundump.obj
 0001:00051b00       luaM_toobig                0000000140052b00 f   lua-5.1_x64:lmem.obj
 0001:00051b20       luaM_realloc_              0000000140052b20 f   lua-5.1_x64:lmem.obj
 0001:00051b90       luaM_growaux_              0000000140052b90 f   lua-5.1_x64:lmem.obj
 0001:00051d30       luaX_init                  0000000140052d30 f   lua-5.1_x64:llex.obj
 0001:00051da0       luaX_token2str             0000000140052da0 f   lua-5.1_x64:llex.obj
 0001:00051eb0       luaX_lexerror              0000000140052eb0 f   lua-5.1_x64:llex.obj
 0001:00051f50       luaX_syntaxerror           0000000140052f50 f   lua-5.1_x64:llex.obj
 0001:00051f60       luaX_newstring             0000000140052f60 f   lua-5.1_x64:llex.obj
 0001:00052080       luaX_setinput              0000000140053080 f   lua-5.1_x64:llex.obj
 0001:00053470       luaX_mergestring           0000000140054470 f   lua-5.1_x64:llex.obj
 0001:00053530       luaX_next                  0000000140054530 f   lua-5.1_x64:llex.obj
 0001:00053630       luaX_lookahead             0000000140054630 f   lua-5.1_x64:llex.obj
 0001:00056ba0       luaY_parser                0000000140057ba0 f   lua-5.1_x64:lparser.obj
 0001:00056d70       luaK_getlabel              0000000140057d70 f   lua-5.1_x64:lcode.obj
 0001:00056fc0       luaK_concat                0000000140057fc0 f   lua-5.1_x64:lcode.obj
 0001:00057020       luaK_checkstack            0000000140058020 f   lua-5.1_x64:lcode.obj
 0001:00057070       luaK_reserveregs           0000000140058070 f   lua-5.1_x64:lcode.obj
 0001:00057200       luaK_stringK               0000000140058200 f   lua-5.1_x64:lcode.obj
 0001:00057230       luaK_numberK               0000000140058230 f   lua-5.1_x64:lcode.obj
 0001:00057260       luaK_setreturns            0000000140058260 f   lua-5.1_x64:lcode.obj
 0001:000572f0       luaK_setoneret             00000001400582f0 f   lua-5.1_x64:lcode.obj
 0001:00057500       luaK_fixline               0000000140058500 f   lua-5.1_x64:lcode.obj
 0001:00057610       luaK_codeABC               0000000140058610 f   lua-5.1_x64:lcode.obj
 0001:00057640       luaK_codeABx               0000000140058640 f   lua-5.1_x64:lcode.obj
 0001:00057660       luaK_setlist               0000000140058660 f   lua-5.1_x64:lcode.obj
 0001:00057700       luaK_nil                   0000000140058700 f   lua-5.1_x64:lcode.obj
 0001:000577a0       luaK_jump                  00000001400587a0 f   lua-5.1_x64:lcode.obj
 0001:00057840       luaK_ret                   0000000140058840 f   lua-5.1_x64:lcode.obj
 0001:00057860       luaK_patchtohere           0000000140058860 f   lua-5.1_x64:lcode.obj
 0001:000578c0       luaK_dischargevars         00000001400588c0 f   lua-5.1_x64:lcode.obj
 0001:00057d40       luaK_exp2nextreg           0000000140058d40 f   lua-5.1_x64:lcode.obj
 0001:00057dd0       luaK_exp2anyreg            0000000140058dd0 f   lua-5.1_x64:lcode.obj
 0001:00057e40       luaK_exp2val               0000000140058e40 f   lua-5.1_x64:lcode.obj
 0001:00057ec0       luaK_exp2RK                0000000140058ec0 f   lua-5.1_x64:lcode.obj
 0001:00058000       luaK_storevar              0000000140059000 f   lua-5.1_x64:lcode.obj
 0001:00058100       luaK_self                  0000000140059100 f   lua-5.1_x64:lcode.obj
 0001:00058300       luaK_goiftrue              0000000140059300 f   lua-5.1_x64:lcode.obj
 0001:00058620       luaK_indexed               0000000140059620 f   lua-5.1_x64:lcode.obj
 0001:00058830       luaK_prefix                0000000140059830 f   lua-5.1_x64:lcode.obj
 0001:00058940       luaK_infix                 0000000140059940 f   lua-5.1_x64:lcode.obj
 0001:000589b0       luaK_posfix                00000001400599b0 f   lua-5.1_x64:lcode.obj
 0001:00058c40       luaK_patchlist             0000000140059c40 f   lua-5.1_x64:lcode.obj
 0001:00058cc6       mysql_fetch_row            0000000140059cc6 f   libmysql:LIBMYSQL.dll
 0001:00058ccc       mysql_options              0000000140059ccc f   libmysql:LIBMYSQL.dll
 0001:00058cd2       mysql_escape_string        0000000140059cd2 f   libmysql:LIBMYSQL.dll
 0001:00058cd8       mysql_fetch_lengths        0000000140059cd8 f   libmysql:LIBMYSQL.dll
 0001:00058cde       __tcmalloc                 0000000140059cde f   memory_x64:memory_x64.dll
 0001:00058ce4       ??_U@YAPEAX_K@Z            0000000140059ce4 f   msvcprt:newaop_s.obj
 0001:00058cea       __CxxFrameHandler3         0000000140059cea f   MSVCRT:MSVCR100.dll
 0001:00058cf0       strlen                     0000000140059cf0 f   MSVCRT:MSVCR100.dll
 0001:00058cf6       memcpy                     0000000140059cf6 f   MSVCRT:MSVCR100.dll
 0001:00058cfc       memset                     0000000140059cfc f   MSVCRT:MSVCR100.dll
 0001:00058d04       _onexit                    0000000140059d04 f   MSVCRT:atonexit.obj
 0001:00058db4       atexit                     0000000140059db4 f   MSVCRT:atonexit.obj
 0001:00058dcc       ??_Etype_info@@UEAAPEAXI@Z 0000000140059dcc f i MSVCRT:ti_inst.obj
 0001:00058e36       ??3@YAXPEAX@Z              0000000140059e36 f   MSVCRT:MSVCR100.dll
 0001:00058e3c       ??2@YAPEAX_K@Z             0000000140059e3c f   MSVCRT:MSVCR100.dll
 0001:00058e42       _purecall                  0000000140059e42 f   MSVCRT:MSVCR100.dll
 0001:00058e48       _CxxThrowException         0000000140059e48 f   MSVCRT:MSVCR100.dll
 0001:00058e4e       ??0exception@std@@QEAA@AEBV01@@Z 0000000140059e4e f   MSVCRT:MSVCR100.dll
 0001:00058e54       ?what@exception@std@@UEBAPEBDXZ 0000000140059e54 f   MSVCRT:MSVCR100.dll
 0001:00058e5c       ??_L@YAXPEAX_KHP6AX0@Z2@Z  0000000140059e5c f   MSVCRT:ehvecctr.obj
 0001:00058ec0       ?__ArrayUnwind@@YAXPEAX_KHP6AX0@Z@Z 0000000140059ec0 f   MSVCRT:ehvecdtr.obj
 0001:00058f0c       ??_M@YAXPEAX_KHP6AX0@Z@Z   0000000140059f0c f   MSVCRT:ehvecdtr.obj
 0001:00058f80       __chkstk                   0000000140059f80 f   MSVCRT:chkstk.obj
 0001:00058f80       _alloca_probe              0000000140059f80     MSVCRT:chkstk.obj
 0001:00058fce       strcat                     0000000140059fce f   MSVCRT:MSVCR100.dll
 0001:00058fd4       strcmp                     0000000140059fd4 f   MSVCRT:MSVCR100.dll
 0001:00058fda       strcpy                     0000000140059fda f   MSVCRT:MSVCR100.dll
 0001:00059298       mainCRTStartup             000000014005a298 f   MSVCRT:crtexe.obj
 0001:000592aa       sin                        000000014005a2aa f   MSVCRT:MSVCR100.dll
 0001:000592b0       sinh                       000000014005a2b0 f   MSVCRT:MSVCR100.dll
 0001:000592b6       cos                        000000014005a2b6 f   MSVCRT:MSVCR100.dll
 0001:000592bc       cosh                       000000014005a2bc f   MSVCRT:MSVCR100.dll
 0001:000592c2       tan                        000000014005a2c2 f   MSVCRT:MSVCR100.dll
 0001:000592c8       tanh                       000000014005a2c8 f   MSVCRT:MSVCR100.dll
 0001:000592ce       asin                       000000014005a2ce f   MSVCRT:MSVCR100.dll
 0001:000592d4       acos                       000000014005a2d4 f   MSVCRT:MSVCR100.dll
 0001:000592da       atan                       000000014005a2da f   MSVCRT:MSVCR100.dll
 0001:000592e0       atan2                      000000014005a2e0 f   MSVCRT:MSVCR100.dll
 0001:000592e6       ceil                       000000014005a2e6 f   MSVCRT:MSVCR100.dll
 0001:000592ec       floor                      000000014005a2ec f   MSVCRT:MSVCR100.dll
 0001:000592f2       fmod                       000000014005a2f2 f   MSVCRT:MSVCR100.dll
 0001:000592f8       sqrt                       000000014005a2f8 f   MSVCRT:MSVCR100.dll
 0001:000592fe       pow                        000000014005a2fe f   MSVCRT:MSVCR100.dll
 0001:00059304       log                        000000014005a304 f   MSVCRT:MSVCR100.dll
 0001:0005930a       log10                      000000014005a30a f   MSVCRT:MSVCR100.dll
 0001:00059310       exp                        000000014005a310 f   MSVCRT:MSVCR100.dll
 0001:00059316       memcmp                     000000014005a316 f   MSVCRT:MSVCR100.dll
 0001:0005931c       _setjmp                    000000014005a31c f   MSVCRT:MSVCR100.dll
 0001:00059322       __C_specific_handler       000000014005a322 f   MSVCRT:MSVCR100.dll
 0001:00059328       _unlock                    000000014005a328 f   MSVCRT:MSVCR100.dll
 0001:0005932e       __dllonexit                000000014005a32e f   MSVCRT:MSVCR100.dll
 0001:00059334       _lock                      000000014005a334 f   MSVCRT:MSVCR100.dll
 0001:0005933a       ?terminate@@YAXXZ          000000014005a33a f   MSVCRT:MSVCR100.dll
 0001:00059340       ?__CxxUnhandledExceptionFilter@@YAJPEAU_EXCEPTION_POINTERS@@@Z 000000014005a340 f   MSVCRT:unhandld.obj
 0001:00059384       __CxxSetUnhandledExceptionFilter 000000014005a384 f   MSVCRT:unhandld.obj
 0001:0005939c       _amsg_exit                 000000014005a39c f   MSVCRT:MSVCR100.dll
 0001:000593a4       _RTC_Initialize            000000014005a3a4 f   MSVCRT:_initsect_.obj
 0001:000593dc       _RTC_Terminate             000000014005a3dc f   MSVCRT:_initsect_.obj
 0001:00059414       _XcptFilter                000000014005a414 f   MSVCRT:MSVCR100.dll
 0001:00059420       _ValidateImageBase         000000014005a420 f   MSVCRT:pesect.obj
 0001:00059450       _FindPESection             000000014005a450 f   MSVCRT:pesect.obj
 0001:000594a0       _IsNonwritableInCurrentImage 000000014005a4a0 f   MSVCRT:pesect.obj
 0001:000594e2       _initterm                  000000014005a4e2 f   MSVCRT:MSVCR100.dll
 0001:000594e8       _initterm_e                000000014005a4e8 f   MSVCRT:MSVCR100.dll
 0001:000594f0       _setargv                   000000014005a4f0 f   MSVCRT:dllargv.obj
 0001:000594f0       _matherr                   000000014005a4f0 f   MSVCRT:merr.obj
 0001:000594f4       __security_init_cookie     000000014005a4f4 f   MSVCRT:gs_support.obj
 0001:000595a8       ??1type_info@@UEAA@XZ      000000014005a5a8 f   MSVCRT:MSVCR100.dll
 0001:000595a8       ?_type_info_dtor_internal_method@type_info@@QEAAXXZ 000000014005a5a8 f   MSVCRT:MSVCR100.dll
 0001:000595ae       WSAGetLastError            000000014005a5ae f   Ws2_32:WS2_32.dll
 0001:000595b4       ioctlsocket                000000014005a5b4 f   Ws2_32:WS2_32.dll
 0001:000595ba       closesocket                000000014005a5ba f   Ws2_32:WS2_32.dll
 0001:000595c0       bind                       000000014005a5c0 f   Ws2_32:WS2_32.dll
 0001:000595c6       htons                      000000014005a5c6 f   Ws2_32:WS2_32.dll
 0001:000595cc       gethostbyname              000000014005a5cc f   Ws2_32:WS2_32.dll
 0001:000595d2       setsockopt                 000000014005a5d2 f   Ws2_32:WS2_32.dll
 0001:000595d8       listen                     000000014005a5d8 f   Ws2_32:WS2_32.dll
 0001:000595de       accept                     000000014005a5de f   Ws2_32:WS2_32.dll
 0001:000595e4       select                     000000014005a5e4 f   Ws2_32:WS2_32.dll
 0001:000595ea       connect                    000000014005a5ea f   Ws2_32:WS2_32.dll
 0001:000595f0       socket                     000000014005a5f0 f   Ws2_32:WS2_32.dll
 0001:000595f6       recv                       000000014005a5f6 f   Ws2_32:WS2_32.dll
 0001:000595fc       send                       000000014005a5fc f   Ws2_32:WS2_32.dll
 0001:00059610       gen_tabs                   000000014005a610 f   wylib_x64:aes.obj
 0001:00059930       aes_set_key                000000014005a930 f   wylib_x64:aes.obj
 0001:00059fc0       aes_decrypt                000000014005afc0 f   wylib_x64:aes.obj
 0001:0005afa0       _AESDecrypt                000000014005bfa0 f   wylib_x64:aes.obj
 0001:0005b020       base64_decode              000000014005c020 f   wylib_x64:base64.obj
 0001:0005b1d0       ?ThreadRoutine@CBaseThread@thread@wylib@@CAXPEAV123@@Z 000000014005c1d0 f   wylib_x64:Thread.obj
 0001:0005b200       ?resume@CBaseThread@thread@wylib@@QEAAHXZ 000000014005c200 f   wylib_x64:Thread.obj
 0001:0005b250       ?waitFor@CBaseThread@thread@wylib@@QEAAHK_N@Z 000000014005c250 f   wylib_x64:Thread.obj
 0001:0005b260       ?terminate@CBaseThread@thread@wylib@@QEAAXXZ 000000014005c260 f   wylib_x64:Thread.obj
 0001:0005b270       ??1CBaseThread@thread@wylib@@QEAA@XZ 000000014005c270 f   wylib_x64:Thread.obj
 0001:0005b2c0       ??0CBaseThread@thread@wylib@@QEAA@_N@Z 000000014005c2c0 f   wylib_x64:Thread.obj
 0001:0005b320       ?SetNeedOutput@CFileLogger@@QEAAX_N@Z 000000014005c320 f   servercommon_x64:FileLogger.obj
 0001:0005b380       ??1CFileLogger@@QEAA@XZ    000000014005c380 f   servercommon_x64:FileLogger.obj
 0001:0005b3d0       ?getCurrentTimeDesc@@YAPEBDXZ 000000014005c3d0 f   servercommon_x64:FileLogger.obj
 0001:0005b420       ?OutputMsgToFileFn@@YA_JW4tagShareOutputMsgType@@PEBD_J@Z 000000014005c420 f   servercommon_x64:FileLogger.obj
 0001:0005b460       ??0CFileLogger@@QEAA@PEBDZZ 000000014005c460 f   servercommon_x64:FileLogger.obj
 0001:0005b570       ?addHangleMgrStat@HandleMgrCollector@@QEAAXPEBVHandleMgrStat@@@Z 000000014005c570 f   servercommon_x64:HandleStat.obj
 0001:0005b5b0       ?removeHandleMgrStat@HandleMgrCollector@@QEAAXPEBVHandleMgrStat@@@Z 000000014005c5b0 f   servercommon_x64:HandleStat.obj
 0001:0005b660       ?SendRegisteClient@CCustomJXClientSocket@@MEAAXXZ 000000014005c660 f   servercommon_x64:CustomJXClientSocket.obj
 0001:0005b720       ?getLocalServerIndex@CCustomJXClientSocket@@MEAAHXZ 000000014005c720 f   servercommon_x64:CustomJXClientSocket.obj
 0001:0005b730       ?ProcessRecvBuffers@CCustomJXClientSocket@@MEAAXPEAUtagDataBuffer@@@Z 000000014005c730 f   servercommon_x64:CustomJXClientSocket.obj
 0001:0005ba10       ?flushProtoPacket@CCustomJXClientSocket@@QEAAXAEAVCDataPacket@@@Z 000000014005ca10 f   servercommon_x64:CustomJXClientSocket.obj
 0001:0005ba70       ?allocProtoPacket@CCustomJXClientSocket@@QEAAAEAVCDataPacket@@G@Z 000000014005ca70 f   servercommon_x64:CustomJXClientSocket.obj
 0001:0005baf0       ?SendKeepAlive@CCustomJXClientSocket@@MEAAXXZ 000000014005caf0 f   servercommon_x64:CustomJXClientSocket.obj
 0001:0005bb20       ?UninstallService@CWinService@@QEAAHXZ 000000014005cb20 f   srvlib_x64:WinService.obj
 0001:0005bbf0       ?StopService@CWinService@@QEAAHXZ 000000014005cbf0 f   srvlib_x64:WinService.obj
 0001:0005bca0       ?StartServiceA@CWinService@@QEAAHXZ 000000014005cca0 f   srvlib_x64:WinService.obj
 0001:0005bd60       ?ServiceInstalled@CWinService@@IEAAHXZ 000000014005cd60 f   srvlib_x64:WinService.obj
 0001:0005be40       ?SetStatus@CWinService@@IEAAHKKK@Z 000000014005ce40 f   srvlib_x64:WinService.obj
 0001:0005bef0       ??1CWinService@@UEAA@XZ    000000014005cef0 f   srvlib_x64:WinService.obj
 0001:0005bf10       ??0CWinService@@QEAA@PEBDK@Z 000000014005cf10 f   srvlib_x64:WinService.obj
 0001:0005c0c0       ?ServiceControl@CWinService@@SAXK@Z 000000014005d0c0 f   srvlib_x64:WinService.obj
 0001:0005c160       ?InstallService@CWinService@@QEAAHXZ 000000014005d160 f   srvlib_x64:WinService.obj
 0001:0005c2a0       ?ServiceMain@CWinService@@SAXKPEAPEAD@Z 000000014005d2a0 f   srvlib_x64:WinService.obj
 0001:0005c380       ?Run@CWinService@@QEAAXPEAD@Z 000000014005d380 f   srvlib_x64:WinService.obj
 0001:0005c750       ?InstallThreadLocalePath@@YAHPEBD@Z 000000014005d750 f   srvlib_x64:PathThreadLocale.obj
 0001:0005c7c0       ?Filter@CFilter@@QEAAPEADPEADPEAH@Z 000000014005d7c0 f   srvlib_x64:Filter.obj
 0001:0005d2c0       ?bloom_add@CFilter@@AEAAHPEAUBLOOM@@PEADI@Z 000000014005e2c0 f   srvlib_x64:Filter.obj
 0001:0005da90       ?bloom_create@CFilter@@AEAAPEAUBLOOM@@_K0@Z 000000014005ea90 f   srvlib_x64:Filter.obj
 0001:0005db60       ?bloom_destroy@CFilter@@AEAAHPEAUBLOOM@@@Z 000000014005eb60 f   srvlib_x64:Filter.obj
 0001:0005dba0       ?AddFilterWord@CFilter@@QEAA_NPEAD@Z 000000014005eba0 f   srvlib_x64:Filter.obj
 0001:0005dc00       ?Destroy@CFilter@@QEAAXXZ  000000014005ec00 f   srvlib_x64:Filter.obj
 0001:0005dc40       ?Init@CFilter@@QEAA_NHH@Z  000000014005ec40 f   srvlib_x64:Filter.obj
 0001:0005dcf0       ?allocName@CNameAllocator@@QEAA_N_J@Z 000000014005ecf0 f   srvlib_x64:NameAllocator.obj
 0001:0005dd70       ?getName@CNameAllocator@@QEAA_JAEAPEBD@Z 000000014005ed70 f   srvlib_x64:NameAllocator.obj
 0001:0005ded0       ?saveToFile@CNameAllocator@@QEAA_JPEBD@Z 000000014005eed0 f   srvlib_x64:NameAllocator.obj
 0001:0005e0e0       ??1CNameAllocator@@UEAA@XZ 000000014005f0e0 f   srvlib_x64:NameAllocator.obj
 0001:0005e140       ??0CNameAllocator@@QEAA@XZ 000000014005f140 f   srvlib_x64:NameAllocator.obj
 0001:0005e1b0       ?loadFromFile@CNameAllocator@@QEAA_JPEBD@Z 000000014005f1b0 f   srvlib_x64:NameAllocator.obj
 0001:0005e3c0       ?Stop@CCustomServerSocket@@QEAAXXZ 000000014005f3c0 f   srvlib_x64:CustomServerSocket.obj
 0001:0005e4c0       ?SetServicePort@CCustomServerSocket@@QEAAX_J@Z 000000014005f4c0 f   srvlib_x64:CustomServerSocket.obj
 0001:0005e4f0       ?DestroyClientSocket@CCustomServerSocket@@MEAAXPEAVCCustomServerClientSocket@@@Z 000000014005f4f0 f   srvlib_x64:CustomServerSocket.obj
 0001:0005e550       ?OnSocketDataThreadStop@CCustomServerSocket@@MEAAXXZ 000000014005f550 f   srvlib_x64:CustomServerSocket.obj
 0001:0005e560       ?OnSocketDataThreadStart@CCustomServerSocket@@MEAAXXZ 000000014005f560 f   srvlib_x64:CustomServerSocket.obj
 0001:0005e570       ?DoStop@CCustomServerSocket@@MEAAXXZ 000000014005f570 f   srvlib_x64:CustomServerSocket.obj
 0001:0005e580       ?DoStartup@CCustomServerSocket@@MEAAHXZ 000000014005f580 f   srvlib_x64:CustomServerSocket.obj
 0001:0005e5a0       ?OnClientConnect@CCustomServerSocket@@MEAAXPEAVCCustomServerClientSocket@@@Z 000000014005f5a0 f   srvlib_x64:CustomServerSocket.obj
 0001:0005e5c0       ?SetServiceHost@CCustomServerSocket@@QEAAXPEBD@Z 000000014005f5c0 f   srvlib_x64:CustomServerSocket.obj
 0001:0005e610       ?SetServiceName@CCustomServerSocket@@QEAAXPEBD@Z 000000014005f610 f   srvlib_x64:CustomServerSocket.obj
 0001:0005e660       ?CloseAllClients@CCustomServerSocket@@MEAAXXZ 000000014005f660 f   srvlib_x64:CustomServerSocket.obj
 0001:0005e740       ?ProcessClients@CCustomServerSocket@@MEAAXXZ 000000014005f740 f   srvlib_x64:CustomServerSocket.obj
 0001:0005e840       ?ServerSocketDataThreadRoutine@CCustomServerSocket@@CAXPEAV1@@Z 000000014005f840 f   srvlib_x64:CustomServerSocket.obj
 0001:0005eb50       ?ServerSocketAcceptThreadRoutine@CCustomServerSocket@@CAXPEAV1@@Z 000000014005fb50 f   srvlib_x64:CustomServerSocket.obj
 0001:0005ed80       ?Startup@CCustomServerSocket@@QEAAHXZ 000000014005fd80 f   srvlib_x64:CustomServerSocket.obj
 0001:0005f020       ?SingleRun@CCustomServerSocket@@MEAAXXZ 0000000140060020 f   srvlib_x64:CustomServerSocket.obj
 0001:0005f070       ??1CCustomServerSocket@@UEAA@XZ 0000000140060070 f   srvlib_x64:CustomServerSocket.obj
 0001:0005f0e0       ??0CCustomServerSocket@@QEAA@XZ 00000001400600e0 f   srvlib_x64:CustomServerSocket.obj
 0001:0005f200       ?SendKeepAlive@CCustomServerClientSocket@@MEAAXXZ 0000000140060200 f   srvlib_x64:CustomServerClientSocket.obj
 0001:0005f210       ?SetClientSocket@CCustomServerClientSocket@@IEAAX_KPEAUsockaddr_in@@@Z 0000000140060210 f   srvlib_x64:CustomServerClientSocket.obj
 0001:0005f380       ??1CCustomServerClientSocket@@UEAA@XZ 0000000140060380 f   srvlib_x64:CustomServerClientSocket.obj
 0001:0005f3c0       ??0CCustomServerClientSocket@@QEAA@XZ 00000001400603c0 f   srvlib_x64:CustomServerClientSocket.obj
 0001:0005f440       ?SingleRun@CCustomServerClientSocket@@MEAAXXZ 0000000140060440 f   srvlib_x64:CustomServerClientSocket.obj
 0001:0005f4a0       ?DecryptPassword@@YAPEBDPEADHPEBD1@Z 00000001400604a0 f   srvlib_x64:EDPass.obj
 0001:0005f5f0       ?showErrorFormat@CCustomLuaScript@@IEAAXPEBDZZ 00000001400605f0 f   srvlib_x64:CustomLuaScript.obj
 0001:0005f670       ?callFinal@CCustomLuaScript@@MEAA_NXZ 0000000140060670 f   srvlib_x64:CustomLuaScript.obj
 0001:0005f680       ?callInit@CCustomLuaScript@@MEAA_NXZ 0000000140060680 f   srvlib_x64:CustomLuaScript.obj
 0001:0005f690       ?registLocalLibs@CCustomLuaScript@@MEAA_NXZ 0000000140060690 f   srvlib_x64:CustomLuaScript.obj
 0001:0005f6a0       ?createLuaVM@CCustomLuaScript@@MEAAPEAUlua_State@@XZ 00000001400606a0 f   srvlib_x64:CustomLuaScript.obj
 0001:0005f6c0       ?openBaseLibs@CCustomLuaScript@@MEAA_NXZ 00000001400606c0 f   srvlib_x64:CustomLuaScript.obj
 0001:0005f7a0       ??0CCustomLuaScript@@QEAA@XZ 00000001400607a0 f   srvlib_x64:CustomLuaScript.obj
 0001:0005f800       ?pcall@CCustomLuaScript@@IEAA_NHHH@Z 0000000140060800 f   srvlib_x64:CustomLuaScript.obj
 0001:0005f8e0       ?StreamWriter@CCustomLuaScript@@KAHPEAUlua_State@@PEBX_KPEAX@Z 00000001400608e0 f   srvlib_x64:CustomLuaScript.obj
 0001:0005f940       ?setScript@CCustomLuaScript@@QEAA_NPEBD@Z 0000000140060940 f   srvlib_x64:CustomLuaScript.obj
 0001:0005fa90       ??1CCustomLuaScript@@UEAA@XZ 0000000140060a90 f   srvlib_x64:CustomLuaScript.obj
 0001:0005fae0       ?showError@CCustomLuaScript@@MEAAXPEBD@Z 0000000140060ae0 f   srvlib_x64:CustomLuaScript.obj
 0001:0005fb20       ?closeTable@CCustomLuaConfig@@IEAAXXZ 0000000140060b20 f   srvlib_x64:CustomLuaConfig.obj
 0001:0005fbc0       ?createTableName@CCustomLuaConfig@@KAPEAV?$CRefObjectImpl@VCAnsiString@string@wylib@@@misc@wylib@@PEBD@Z 0000000140060bc0 f   srvlib_x64:CustomLuaConfig.obj
 0001:0005fc40       ??1CCustomLuaConfig@@UEAA@XZ 0000000140060c40 f   srvlib_x64:CustomLuaConfig.obj
 0001:0005fd00       ??0CCustomLuaConfig@@QEAA@XZ 0000000140060d00 f   srvlib_x64:CustomLuaConfig.obj
 0001:0005fd50       ?getTablePath@CCustomLuaConfig@@IEAAAEAVCAnsiString@string@wylib@@AEAV234@@Z 0000000140060d50 f   srvlib_x64:CustomLuaConfig.obj
 0001:0005fe40       ?showFieldDoesNotContainValue@CCustomLuaConfig@@IEAAXPEBD0@Z 0000000140060e40 f   srvlib_x64:CustomLuaConfig.obj
 0001:0005ff10       ?showTableNotExists@CCustomLuaConfig@@IEAAXPEBD@Z 0000000140060f10 f   srvlib_x64:CustomLuaConfig.obj
 0001:0005ffc0       ?showError@CCustomLuaConfig@@MEAAXPEBD@Z 0000000140060fc0 f   srvlib_x64:CustomLuaConfig.obj
 0001:00060040       ?getFieldString@CCustomLuaConfig@@IEAAPEBDPEBD0PEAH@Z 0000000140061040 f   srvlib_x64:CustomLuaConfig.obj
 0001:00060130       ?getFieldNumber@CCustomLuaConfig@@IEAANPEBDPEBNPEAH@Z 0000000140061130 f   srvlib_x64:CustomLuaConfig.obj
 0001:00060220       ?openFieldTable@CCustomLuaConfig@@IEAA_NPEBD@Z 0000000140061220 f   srvlib_x64:CustomLuaConfig.obj
 0001:000602e0       ?openGlobalTable@CCustomLuaConfig@@IEAA_NPEBD@Z 00000001400612e0 f   srvlib_x64:CustomLuaConfig.obj
 0001:000603a0       ?getFieldStringBuffer@CCustomLuaConfig@@IEAA_JPEBDPEAD_K@Z 00000001400613a0 f   srvlib_x64:CustomLuaConfig.obj
 0001:00060480       ?getFieldInt@CCustomLuaConfig@@IEAAHPEBDQEAHPEAH@Z 0000000140061480 f   srvlib_x64:CustomLuaConfig.obj
 0001:00060500       ?StrToInt@@YAHPEBD@Z       0000000140061500 f   srvlib_x64:ShareUtil.obj
 0001:00060540       ?GetSysErrorMessage@@YAPEBD_JPEAD_KPEA_K@Z 0000000140061540 f   srvlib_x64:ShareUtil.obj
 0001:00060690       ?DefaultUnHandleExceptionFilter@@YAJPEAU_EXCEPTION_POINTERS@@@Z 0000000140061690 f   srvlib_x64:ShareUtil.obj
 0001:00060880       ?SetOutputMsgFn@@YAP6A_JW4tagShareOutputMsgType@@PEBD_J@ZP6A_J012@Z@Z 0000000140061880 f   srvlib_x64:ShareUtil.obj
 0001:000608d0       ?OutputError@@YA_J_JPEBDZZ 00000001400618d0 f   srvlib_x64:ShareUtil.obj
 0001:00060a70       ?OutputMsg@@YA_JW4tagShareOutputMsgType@@PEBDZZ 0000000140061a70 f   srvlib_x64:ShareUtil.obj
 0001:00060b20       ?StdDefOutputMsg@@YA_JW4tagShareOutputMsgType@@PEBD_J@Z 0000000140061b20 f   srvlib_x64:ShareUtil.obj
 0001:00060c60       ?InitDefMsgOut@@YAXXZ      0000000140061c60 f   srvlib_x64:ShareUtil.obj
 0001:00060cb0       ?OnRun@CCustomWorkSocket@@MEAAXXZ 0000000140061cb0 f   srvlib_x64:CustomWorkSocket.obj
 0001:00060cc0       ?SwapRecvProcessBuffers@CCustomWorkSocket@@IEAAXXZ 0000000140061cc0 f   srvlib_x64:CustomWorkSocket.obj
 0001:00061040       ?Disconnected@CCustomWorkSocket@@MEAAXXZ 0000000140062040 f   srvlib_x64:CustomWorkSocket.obj
 0001:000610d0       ?DispatchInternalMessage@CCustomWorkSocket@@MEAAXI_K000@Z 00000001400620d0 f   srvlib_x64:CustomWorkSocket.obj
 0001:000610f0       ?ProcessRecvBuffers@CCustomWorkSocket@@MEAAXPEAUtagDataBuffer@@@Z 00000001400620f0 f   srvlib_x64:CustomWorkSocket.obj
 0001:00061120       ?ReadSocket@CCustomWorkSocket@@IEAAXXZ 0000000140062120 f   srvlib_x64:CustomWorkSocket.obj
 0001:000612d0       ?PostInternalMessage@CCustomWorkSocket@@QEAAXI_K000@Z 00000001400622d0 f   srvlib_x64:CustomWorkSocket.obj
 0001:00061370       ?ProcessInternalMessages@CCustomWorkSocket@@IEAAXXZ 0000000140062370 f   srvlib_x64:CustomWorkSocket.obj
 0001:00061470       ?ClearSendBuffers@CCustomWorkSocket@@IEAAXXZ 0000000140062470 f   srvlib_x64:CustomWorkSocket.obj
 0001:000614a0       ??1CCustomWorkSocket@@UEAA@XZ 00000001400624a0 f   srvlib_x64:CustomWorkSocket.obj
 0001:000615f0       ??0CCustomWorkSocket@@QEAA@XZ 00000001400625f0 f   srvlib_x64:CustomWorkSocket.obj
 0001:00061710       ?SendSocketBuffers@CCustomWorkSocket@@IEAAXXZ 0000000140062710 f   srvlib_x64:CustomWorkSocket.obj
 0001:00061750       ?SingleRun@CCustomWorkSocket@@MEAAXXZ 0000000140062750 f   srvlib_x64:CustomWorkSocket.obj
 0001:00061800       ?AppendSendBuffer@CCustomWorkSocket@@IEAAXPEBX_K@Z 0000000140062800 f   srvlib_x64:CustomWorkSocket.obj
 0001:00061860       ?SetServerPort@CCustomClientSocket@@QEAAX_J@Z 0000000140062860 f   srvlib_x64:CustomClientSocket.obj
 0001:00061890       ?SendKeepAlive@CCustomClientSocket@@MEAAXXZ 0000000140062890 f   srvlib_x64:CustomClientSocket.obj
 0001:000618a0       ?SendRegisteClient@CCustomClientSocket@@MEAAXXZ 00000001400628a0 f   srvlib_x64:CustomClientSocket.obj
 0001:000618b0       ?OnWorkThreadStop@CCustomClientSocket@@MEAAXXZ 00000001400628b0 f   srvlib_x64:CustomClientSocket.obj
 0001:000618c0       ?OnWorkThreadStart@CCustomClientSocket@@MEAAXXZ 00000001400628c0 f   srvlib_x64:CustomClientSocket.obj
 0001:000618d0       ?SocketError@CCustomClientSocket@@MEAAXH@Z 00000001400628d0 f   srvlib_x64:CustomClientSocket.obj
 0001:00061920       ?Disconnected@CCustomClientSocket@@MEAAXXZ 0000000140062920 f   srvlib_x64:CustomClientSocket.obj
 0001:00061960       ?Connected@CCustomClientSocket@@MEAAXXZ 0000000140062960 f   srvlib_x64:CustomClientSocket.obj
 0001:000619b0       ?SetServerHost@CCustomClientSocket@@QEAAXPEBD@Z 00000001400629b0 f   srvlib_x64:CustomClientSocket.obj
 0001:00061a00       ?CustomClientSocketWorkRoutine@CCustomClientSocket@@CAXPEAV1@@Z 0000000140062a00 f   srvlib_x64:CustomClientSocket.obj
 0001:00061cd0       ?ConnectToServer@CCustomClientSocket@@IEAAHXZ 0000000140062cd0 f   srvlib_x64:CustomClientSocket.obj
 0001:00061ee0       ?SetClientName@CCustomClientSocket@@IEAAXPEBD@Z 0000000140062ee0 f   srvlib_x64:CustomClientSocket.obj
 0001:00061f30       ?Stop@CCustomClientSocket@@QEAAXXZ 0000000140062f30 f   srvlib_x64:CustomClientSocket.obj
 0001:00061fd0       ?Startup@CCustomClientSocket@@QEAAHXZ 0000000140062fd0 f   srvlib_x64:CustomClientSocket.obj
 0001:00062090       ??1CCustomClientSocket@@UEAA@XZ 0000000140063090 f   srvlib_x64:CustomClientSocket.obj
 0001:000620e0       ??0CCustomClientSocket@@QEAA@XZ 00000001400630e0 f   srvlib_x64:CustomClientSocket.obj
 0001:00062200       ?SingleRun@CCustomClientSocket@@MEAAXXZ 0000000140063200 f   srvlib_x64:CustomClientSocket.obj
 0001:000622e0       ?OnOutput@StackWalker@@MEAAXPEBD@Z 00000001400632e0 f   srvlib_x64:StackWalker.obj
 0001:00062310       ?OnSymInit@StackWalker@@MEAAXPEBDK0@Z 0000000140063310 f   srvlib_x64:StackWalker.obj
 0001:00062430       ?OnDbgHelpErr@StackWalker@@MEAAXPEBDK_K@Z 0000000140063430 f   srvlib_x64:StackWalker.obj
 0001:000624b0       ?OnCallstackEntry@StackWalker@@MEAAXW4CallstackEntryType@1@AEAUCallstackEntry@1@@Z 00000001400634b0 f   srvlib_x64:StackWalker.obj
 0001:000626b0       ?OnLoadModule@StackWalker@@MEAAXPEBD0_KKK001@Z 00000001400636b0 f   srvlib_x64:StackWalker.obj
 0001:00062860       ?myReadProcMem@StackWalker@@KAHPEAX_K0KPEAK@Z 0000000140063860 f   srvlib_x64:StackWalker.obj
 0001:00062900       ??1StackWalker@@UEAA@XZ    0000000140063900 f   srvlib_x64:StackWalker.obj
 0001:000629b0       ??0StackWalker@@QEAA@HPEBDKPEAX@Z 00000001400639b0 f   srvlib_x64:StackWalker.obj
 0001:00062ad0       ?LoadModules@StackWalker@@QEAAHXZ 0000000140063ad0 f   srvlib_x64:StackWalker.obj
 0001:00062fa0       ?ShowCallStackImpl@StackWalker@@IEAAHPEAXPEBU_CONTEXT@@P6AH0_K0KPEAK0@Z0@Z 0000000140063fa0 f   srvlib_x64:StackWalker.obj
 0001:000637e0       ?ShowCallStack@StackWalker@@QEAAHPEAXPEBU_CONTEXT@@P6AH0_K0KPEAK0@Z0@Z 00000001400647e0 f   srvlib_x64:StackWalker.obj
 0001:00063850       ?CheckFreeBuffers@CBufferAllocator@@QEAAX_N@Z 0000000140064850 f   srvlib_x64:BufferAllocator.obj
 0001:00063ba0       ?GetMemoryInfo@CBufferAllocator@@QEAAXPEAUtagAllocatorMemoryInfo@1@@Z 0000000140064ba0 f   srvlib_x64:BufferAllocator.obj
 0001:00063c50       ?FreeBuffer@CBufferAllocator@@QEAAXPEAX@Z 0000000140064c50 f   srvlib_x64:BufferAllocator.obj
 0001:00063e30       ?AllocBuffer@CBufferAllocator@@QEAAPEAX_K@Z 0000000140064e30 f   srvlib_x64:BufferAllocator.obj
 0001:00064200       ??1CBufferAllocator@@QEAA@XZ 0000000140065200 f   srvlib_x64:BufferAllocator.obj
 0001:00064310       ??0CBufferAllocator@@QEAA@XZ 0000000140065310 f   srvlib_x64:BufferAllocator.obj
 0001:000643d0       ?ResetQuery@CSQLConenction@@QEAAXXZ 00000001400653d0 f   srvlib_x64:SQL.obj
 0001:00064490       ?AfterExeced@CSQLConenction@@AEAAXH@Z 0000000140065490 f   srvlib_x64:SQL.obj
 0001:00064580       ?AfterQueryed@CSQLConenction@@AEAAXH@Z 0000000140065580 f   srvlib_x64:SQL.obj
 0001:00064770       ?Disconnect@CSQLConenction@@QEAAXXZ 0000000140065770 f   srvlib_x64:SQL.obj
 0001:000647c0       ?Connect@CSQLConenction@@QEAAHXZ 00000001400657c0 f   srvlib_x64:SQL.obj
 0001:00064900       ?SetMultiThread@CSQLConenction@@QEAAXH@Z 0000000140065900 f   srvlib_x64:SQL.obj
 0001:00064920       ?SetConnectionFlags@CSQLConenction@@QEAAX_K@Z 0000000140065920 f   srvlib_x64:SQL.obj
 0001:00064950       ?SetPassWord@CSQLConenction@@QEAAXPEBD@Z 0000000140065950 f   srvlib_x64:SQL.obj
 0001:000649b0       ?SetUserName@CSQLConenction@@QEAAXPEBD@Z 00000001400659b0 f   srvlib_x64:SQL.obj
 0001:00064a10       ?SetDataBaseName@CSQLConenction@@QEAAXPEBD@Z 0000000140065a10 f   srvlib_x64:SQL.obj
 0001:00064a70       ?SetServerPort@CSQLConenction@@QEAAX_J@Z 0000000140065a70 f   srvlib_x64:SQL.obj
 0001:00064aa0       ?SetServerHost@CSQLConenction@@QEAAXPEBD@Z 0000000140065aa0 f   srvlib_x64:SQL.obj
 0001:00064b00       ??1CSQLConenction@@QEAA@XZ 0000000140065b00 f   srvlib_x64:SQL.obj
 0001:00064b40       ??0CSQLConenction@@QEAA@XZ 0000000140065b40 f   srvlib_x64:SQL.obj
 0001:00064c50       ?RealExec@CSQLConenction@@QEAAHPEBD_K@Z 0000000140065c50 f   srvlib_x64:SQL.obj
 0001:00064cc0       ?Exec@CSQLConenction@@QEAAHPEBDZZ 0000000140065cc0 f   srvlib_x64:SQL.obj
 0001:00064d70       ?RealQuery@CSQLConenction@@QEAAHPEBD_K@Z 0000000140065d70 f   srvlib_x64:SQL.obj
 0001:00064de0       ?Query@CSQLConenction@@QEAAHPEBDZZ 0000000140065de0 f   srvlib_x64:SQL.obj
 0001:00064e90       ?formatTimeStr@CTimeProfMgr@@IEAAXPEAD_KPEAUtm@@@Z 0000000140065e90 f   srvlib_x64:TimeStat.obj
 0001:00064ee0       ?setName@CTimeProfRecord@@QEAAXPEBD@Z 0000000140065ee0 f   srvlib_x64:TimeStat.obj
 0001:00064f50       ?getCurrentTm@CTimeProfMgr@@IEAAXAEAUtm@@@Z 0000000140065f50 f   srvlib_x64:TimeStat.obj
 0001:00064fc0       ?dump@CTimeProfRecord@@QEAAXAEAVCBaseStream@stream@wylib@@H@Z 0000000140065fc0 f   srvlib_x64:TimeStat.obj
 0001:000652f0       ?dumpDateTimeHeader@CTimeProfMgr@@IEAAXAEAVCBaseStream@stream@wylib@@@Z 00000001400662f0 f   srvlib_x64:TimeStat.obj
 0001:00065550       ?dumpImpl@CTimeProfMgr@@IEAAXAEAVCBaseStream@stream@wylib@@@Z 0000000140066550 f   srvlib_x64:TimeStat.obj
 0001:000655d0       ?dump@CTimeProfMgr@@QEAAXXZ 00000001400665d0 f   srvlib_x64:TimeStat.obj
 0001:000657a0       ??0CTimeProfRecord@@QEAA@PEBDI@Z 00000001400667a0 f   srvlib_x64:TimeStat.obj
 0001:000657e0       ??0CTimeProfMgr@@QEAA@XZ   00000001400667e0 f   srvlib_x64:TimeStat.obj
 0001:00065920       ?clear@CTimeProfRecord@@QEAAXXZ 0000000140066920 f   srvlib_x64:TimeStat.obj
 0001:000659e0       ??1CTimeProfRecord@@QEAA@XZ 00000001400669e0 f   srvlib_x64:TimeStat.obj
 0001:00065a30       ??1CTimeProfDummy@@QEAA@XZ 0000000140066a30 f   srvlib_x64:TimeStat.obj
 0001:00065ac0       ??0CTimeProfDummy@@QEAA@PEBDI@Z 0000000140066ac0 f   srvlib_x64:TimeStat.obj
 0001:00065ba0       ??1CTimeProfMgr@@QEAA@XZ   0000000140066ba0 f   srvlib_x64:TimeStat.obj
 0001:00065c20       ?Disconnected@CCustomJXServerClientSocket@@MEAAXXZ 0000000140066c20 f   servercommon_x64:CustomJXServerClientSocket.obj
 0001:00065c80       ?ProcessRecvBuffers@CCustomJXServerClientSocket@@MEAAXPEAUtagDataBuffer@@@Z 0000000140066c80 f   servercommon_x64:CustomJXServerClientSocket.obj
 0001:00066110       ?flushProtoPacket@CCustomJXServerClientSocket@@QEAAXAEAVCDataPacket@@@Z 0000000140067110 f   servercommon_x64:CustomJXServerClientSocket.obj
 0001:000661b0       ??0CCustomJXServerClientSocket@@QEAA@XZ 00000001400671b0 f   servercommon_x64:CustomJXServerClientSocket.obj
 0001:00066220       ?allocProtoPacket@CCustomJXServerClientSocket@@QEAAAEAVCDataPacket@@G@Z 0000000140067220 f   servercommon_x64:CustomJXServerClientSocket.obj
 0001:000662a0       ?SendKeepAlive@CCustomJXServerClientSocket@@MEAAXXZ 00000001400672a0 f   servercommon_x64:CustomJXServerClientSocket.obj
 0001:000662d0       ??0CSendPacketPool@@QEAA@XZ 00000001400672d0 f   srvlib_x64:SendPackPool.obj
 0001:000663d0       ?clearSendList@CSendPacketPool@@QEAAXXZ 00000001400673d0 f   srvlib_x64:SendPackPool.obj
 0001:00066510       ?FreeAllPackets@CSendPacketPool@@AEAAXXZ 0000000140067510 f   srvlib_x64:SendPackPool.obj
 0001:00066690       ??1CSendPacketPool@@QEAA@XZ 0000000140067690 f   srvlib_x64:SendPackPool.obj
 0001:00066740       ?sendToSocket@CSendPacketPool@@QEAA_KAEAVCCustomSocket@socket@inet@wylib@@@Z 0000000140067740 f   srvlib_x64:SendPackPool.obj
 0001:00066950       ?allocSendPacketList@CSendPacketPool@@QEAAXAEAV?$CBaseList@PEAVCDataPacket@@@container@wylib@@_JPEAPEAVCDataPacket@@@Z 0000000140067950 f   srvlib_x64:SendPackPool.obj
 0001:00066dc0       ?DefaultExceptHandler@@YAKQEAU_EXCEPTION_POINTERS@@@Z 0000000140067dc0 f   srvlib_x64:DefExceptHander.obj
 0001:0006c1b0       ??__Fmgr@?1??getSingleton@CTimeProfMgr@@SAAEAV1@XZ@YAXXZ 000000014006d1b0 f i srvlib_x64:TimeStat.obj
 0001:0006c1f0       ??__Fcollector@?1??getSingleton@HandleMgrCollector@@SAAEAV1@XZ@YAXXZ 000000014006d1f0 f i DBDataCache.obj
 0002:00000000       __imp_StartServiceA        000000014006e000     advapi32:ADVAPI32.dll
 0002:00000008       __imp_OpenServiceA         000000014006e008     advapi32:ADVAPI32.dll
 0002:00000010       __imp_CloseServiceHandle   000000014006e010     advapi32:ADVAPI32.dll
 0002:00000018       __imp_ControlService       000000014006e018     advapi32:ADVAPI32.dll
 0002:00000020       __imp_OpenSCManagerA       000000014006e020     advapi32:ADVAPI32.dll
 0002:00000028       __imp_SetServiceStatus     000000014006e028     advapi32:ADVAPI32.dll
 0002:00000030       __imp_QueryServiceStatus   000000014006e030     advapi32:ADVAPI32.dll
 0002:00000038       __imp_GetUserNameA         000000014006e038     advapi32:ADVAPI32.dll
 0002:00000040       __imp_CreateServiceA       000000014006e040     advapi32:ADVAPI32.dll
 0002:00000048       __imp_RegisterServiceCtrlHandlerA 000000014006e048     advapi32:ADVAPI32.dll
 0002:00000050       __imp_DeleteService        000000014006e050     advapi32:ADVAPI32.dll
 0002:00000058       __imp_StartServiceCtrlDispatcherA 000000014006e058     advapi32:ADVAPI32.dll
 0002:00000060       \177ADVAPI32_NULL_THUNK_DATA 000000014006e060     advapi32:ADVAPI32.dll
 0002:00000068       __imp_GetSystemTimeAsFileTime 000000014006e068     kernel32:KERNEL32.dll
 0002:00000070       __imp_ResumeThread         000000014006e070     kernel32:KERNEL32.dll
 0002:00000078       __imp_DecodePointer        000000014006e078     kernel32:KERNEL32.dll
 0002:00000080       __imp_MultiByteToWideChar  000000014006e080     kernel32:KERNEL32.dll
 0002:00000088       __imp_WideCharToMultiByte  000000014006e088     kernel32:KERNEL32.dll
 0002:00000090       __imp_VirtualProtect       000000014006e090     kernel32:KERNEL32.dll
 0002:00000098       __imp_GetTickCount         000000014006e098     kernel32:KERNEL32.dll
 0002:000000a0       __imp_QueryPerformanceCounter 000000014006e0a0     kernel32:KERNEL32.dll
 0002:000000a8       __imp_GetCurrentThread     000000014006e0a8     kernel32:KERNEL32.dll
 0002:000000b0       __imp_GetCurrentProcessId  000000014006e0b0     kernel32:KERNEL32.dll
 0002:000000b8       __imp_GetCurrentProcess    000000014006e0b8     kernel32:KERNEL32.dll
 0002:000000c0       __imp_Sleep                000000014006e0c0     kernel32:KERNEL32.dll
 0002:000000c8       __imp_TlsFree              000000014006e0c8     kernel32:KERNEL32.dll
 0002:000000d0       __imp_GetFileAttributesA   000000014006e0d0     kernel32:KERNEL32.dll
 0002:000000d8       __imp_FindClose            000000014006e0d8     kernel32:KERNEL32.dll
 0002:000000e0       __imp_GetLastError         000000014006e0e0     kernel32:KERNEL32.dll
 0002:000000e8       __imp_FindNextFileA        000000014006e0e8     kernel32:KERNEL32.dll
 0002:000000f0       __imp_FindFirstFileA       000000014006e0f0     kernel32:KERNEL32.dll
 0002:000000f8       __imp_SetCurrentDirectoryA 000000014006e0f8     kernel32:KERNEL32.dll
 0002:00000100       __imp_GetCurrentDirectoryA 000000014006e100     kernel32:KERNEL32.dll
 0002:00000108       __imp_DeleteFileA          000000014006e108     kernel32:KERNEL32.dll
 0002:00000110       __imp_SetUnhandledExceptionFilter 000000014006e110     kernel32:KERNEL32.dll
 0002:00000118       __imp_Beep                 000000014006e118     kernel32:KERNEL32.dll
 0002:00000120       __imp_DebugBreak           000000014006e120     kernel32:KERNEL32.dll
 0002:00000128       __imp_SetConsoleTitleA     000000014006e128     kernel32:KERNEL32.dll
 0002:00000130       __imp_TlsAlloc             000000014006e130     kernel32:KERNEL32.dll
 0002:00000138       __imp_CloseHandle          000000014006e138     kernel32:KERNEL32.dll
 0002:00000140       __imp_CreateFileA          000000014006e140     kernel32:KERNEL32.dll
 0002:00000148       __imp_DeleteCriticalSection 000000014006e148     kernel32:KERNEL32.dll
 0002:00000150       __imp_EnterCriticalSection 000000014006e150     kernel32:KERNEL32.dll
 0002:00000158       __imp_TryEnterCriticalSection 000000014006e158     kernel32:KERNEL32.dll
 0002:00000160       __imp_LeaveCriticalSection 000000014006e160     kernel32:KERNEL32.dll
 0002:00000168       __imp_GetCurrentThreadId   000000014006e168     kernel32:KERNEL32.dll
 0002:00000170       __imp_InitializeCriticalSection 000000014006e170     kernel32:KERNEL32.dll
 0002:00000178       __imp_OutputDebugStringA   000000014006e178     kernel32:KERNEL32.dll
 0002:00000180       __imp_IsDebuggerPresent    000000014006e180     kernel32:KERNEL32.dll
 0002:00000188       __imp_SuspendThread        000000014006e188     kernel32:KERNEL32.dll
 0002:00000190       __imp_VirtualQuery         000000014006e190     kernel32:KERNEL32.dll
 0002:00000198       __imp_WaitForSingleObjectEx 000000014006e198     kernel32:KERNEL32.dll
 0002:000001a0       __imp_ExitThread           000000014006e1a0     kernel32:KERNEL32.dll
 0002:000001a8       __imp_CreateThread         000000014006e1a8     kernel32:KERNEL32.dll
 0002:000001b0       __imp_SetEndOfFile         000000014006e1b0     kernel32:KERNEL32.dll
 0002:000001b8       __imp_SetFilePointerEx     000000014006e1b8     kernel32:KERNEL32.dll
 0002:000001c0       __imp_ReadFile             000000014006e1c0     kernel32:KERNEL32.dll
 0002:000001c8       __imp_WriteFile            000000014006e1c8     kernel32:KERNEL32.dll
 0002:000001d0       __imp_TlsGetValue          000000014006e1d0     kernel32:KERNEL32.dll
 0002:000001d8       __imp_TlsSetValue          000000014006e1d8     kernel32:KERNEL32.dll
 0002:000001e0       __imp_GetThreadContext     000000014006e1e0     kernel32:KERNEL32.dll
 0002:000001e8       __imp_RtlCaptureContext    000000014006e1e8     kernel32:KERNEL32.dll
 0002:000001f0       __imp_FreeLibrary          000000014006e1f0     kernel32:KERNEL32.dll
 0002:000001f8       __imp_ReadProcessMemory    000000014006e1f8     kernel32:KERNEL32.dll
 0002:00000200       __imp_GetEnvironmentVariableA 000000014006e200     kernel32:KERNEL32.dll
 0002:00000208       __imp_SetLastError         000000014006e208     kernel32:KERNEL32.dll
 0002:00000210       __imp_GetProcAddress       000000014006e210     kernel32:KERNEL32.dll
 0002:00000218       __imp_LoadLibraryA         000000014006e218     kernel32:KERNEL32.dll
 0002:00000220       __imp_GetModuleFileNameA   000000014006e220     kernel32:KERNEL32.dll
 0002:00000228       __imp_GetVersionExA        000000014006e228     kernel32:KERNEL32.dll
 0002:00000230       __imp_WaitForSingleObject  000000014006e230     kernel32:KERNEL32.dll
 0002:00000238       __imp_ExitProcess          000000014006e238     kernel32:KERNEL32.dll
 0002:00000240       __imp_FormatMessageA       000000014006e240     kernel32:KERNEL32.dll
 0002:00000248       __imp_GetACP               000000014006e248     kernel32:KERNEL32.dll
 0002:00000250       __imp_GetLocalTime         000000014006e250     kernel32:KERNEL32.dll
 0002:00000258       __imp_EncodePointer        000000014006e258     kernel32:KERNEL32.dll
 0002:00000260       \177KERNEL32_NULL_THUNK_DATA 000000014006e260     kernel32:KERNEL32.dll
 0002:00000268       __imp_mysql_next_result    000000014006e268     libmysql:LIBMYSQL.dll
 0002:00000270       __imp_mysql_num_rows       000000014006e270     libmysql:LIBMYSQL.dll
 0002:00000278       __imp_mysql_affected_rows  000000014006e278     libmysql:LIBMYSQL.dll
 0002:00000280       __imp_mysql_field_seek     000000014006e280     libmysql:LIBMYSQL.dll
 0002:00000288       __imp_mysql_init           000000014006e288     libmysql:LIBMYSQL.dll
 0002:00000290       __imp_mysql_free_result    000000014006e290     libmysql:LIBMYSQL.dll
 0002:00000298       __imp_mysql_num_fields     000000014006e298     libmysql:LIBMYSQL.dll
 0002:000002a0       __imp_mysql_store_result   000000014006e2a0     libmysql:LIBMYSQL.dll
 0002:000002a8       __imp_mysql_real_connect   000000014006e2a8     libmysql:LIBMYSQL.dll
 0002:000002b0       __imp_mysql_data_seek      000000014006e2b0     libmysql:LIBMYSQL.dll
 0002:000002b8       __imp_mysql_real_query     000000014006e2b8     libmysql:LIBMYSQL.dll
 0002:000002c0       __imp_mysql_error          000000014006e2c0     libmysql:LIBMYSQL.dll
 0002:000002c8       __imp_mysql_close          000000014006e2c8     libmysql:LIBMYSQL.dll
 0002:000002d0       __imp_mysql_fetch_lengths  000000014006e2d0     libmysql:LIBMYSQL.dll
 0002:000002d8       __imp_mysql_escape_string  000000014006e2d8     libmysql:LIBMYSQL.dll
 0002:000002e0       __imp_mysql_options        000000014006e2e0     libmysql:LIBMYSQL.dll
 0002:000002e8       __imp_mysql_fetch_row      000000014006e2e8     libmysql:LIBMYSQL.dll
 0002:000002f0       \177LIBMYSQL_NULL_THUNK_DATA 000000014006e2f0     libmysql:LIBMYSQL.dll
 0002:000002f8       __imp_?_Xout_of_range@std@@YAXPEBD@Z 000000014006e2f8     msvcprt:MSVCP100.dll
 0002:00000300       __imp_?_Xlength_error@std@@YAXPEBD@Z 000000014006e300     msvcprt:MSVCP100.dll
 0002:00000308       \177MSVCP100_NULL_THUNK_DATA 000000014006e308     msvcprt:MSVCP100.dll
 0002:00000310       __imp_system               000000014006e310     MSVCRT:MSVCR100.dll
 0002:00000318       __imp_?_type_info_dtor_internal_method@type_info@@QEAAXXZ 000000014006e318     MSVCRT:MSVCR100.dll
 0002:00000320       __imp___CxxFrameHandler3   000000014006e320     MSVCRT:MSVCR100.dll
 0002:00000328       __imp_sscanf               000000014006e328     MSVCRT:MSVCR100.dll
 0002:00000330       __imp_strlen               000000014006e330     MSVCRT:MSVCR100.dll
 0002:00000338       __imp_memcpy               000000014006e338     MSVCRT:MSVCR100.dll
 0002:00000340       __imp_memset               000000014006e340     MSVCRT:MSVCR100.dll
 0002:00000348       __imp__mbsstr              000000014006e348     MSVCRT:MSVCR100.dll
 0002:00000350       __imp_??3@YAXPEAX@Z        000000014006e350     MSVCRT:MSVCR100.dll
 0002:00000358       __imp_??2@YAPEAX_K@Z       000000014006e358     MSVCRT:MSVCR100.dll
 0002:00000360       __imp_strftime             000000014006e360     MSVCRT:MSVCR100.dll
 0002:00000368       __imp__localtime64         000000014006e368     MSVCRT:MSVCR100.dll
 0002:00000370       __imp__time64              000000014006e370     MSVCRT:MSVCR100.dll
 0002:00000378       __imp_vsprintf_s           000000014006e378     MSVCRT:MSVCR100.dll
 0002:00000380       __imp__purecall            000000014006e380     MSVCRT:MSVCR100.dll
 0002:00000388       __imp__CxxThrowException   000000014006e388     MSVCRT:MSVCR100.dll
 0002:00000390       __imp_free                 000000014006e390     MSVCRT:MSVCR100.dll
 0002:00000398       __imp_realloc              000000014006e398     MSVCRT:MSVCR100.dll
 0002:000003a0       __imp_strncpy              000000014006e3a0     MSVCRT:MSVCR100.dll
 0002:000003a8       __imp_??0exception@std@@QEAA@AEBV01@@Z 000000014006e3a8     MSVCRT:MSVCR100.dll
 0002:000003b0       __imp_rand                 000000014006e3b0     MSVCRT:MSVCR100.dll
 0002:000003b8       __imp_??0exception@std@@QEAA@AEBQEBD@Z 000000014006e3b8     MSVCRT:MSVCR100.dll
 0002:000003c0       __imp_?what@exception@std@@UEBAPEBDXZ 000000014006e3c0     MSVCRT:MSVCR100.dll
 0002:000003c8       __imp_??1exception@std@@UEAA@XZ 000000014006e3c8     MSVCRT:MSVCR100.dll
 0002:000003d0       __imp_sprintf_s            000000014006e3d0     MSVCRT:MSVCR100.dll
 0002:000003d8       __imp_strchr               000000014006e3d8     MSVCRT:MSVCR100.dll
 0002:000003e0       __imp__mbsnbcpy            000000014006e3e0     MSVCRT:MSVCR100.dll
 0002:000003e8       __imp_strcat               000000014006e3e8     MSVCRT:MSVCR100.dll
 0002:000003f0       __imp_malloc               000000014006e3f0     MSVCRT:MSVCR100.dll
 0002:000003f8       __imp__stricmp             000000014006e3f8     MSVCRT:MSVCR100.dll
 0002:00000400       __imp_strncat              000000014006e400     MSVCRT:MSVCR100.dll
 0002:00000408       __imp_strcmp               000000014006e408     MSVCRT:MSVCR100.dll
 0002:00000410       __imp_atoi                 000000014006e410     MSVCRT:MSVCR100.dll
 0002:00000418       __imp_strcpy               000000014006e418     MSVCRT:MSVCR100.dll
 0002:00000420       __imp_memmove              000000014006e420     MSVCRT:MSVCR100.dll
 0002:00000428       __imp_sprintf              000000014006e428     MSVCRT:MSVCR100.dll
 0002:00000430       __imp_strtoul              000000014006e430     MSVCRT:MSVCR100.dll
 0002:00000438       __imp__setmbcp             000000014006e438     MSVCRT:MSVCR100.dll
 0002:00000440       __imp_getc                 000000014006e440     MSVCRT:MSVCR100.dll
 0002:00000448       __imp___iob_func           000000014006e448     MSVCRT:MSVCR100.dll
 0002:00000450       __imp_printf               000000014006e450     MSVCRT:MSVCR100.dll
 0002:00000458       __imp_gets                 000000014006e458     MSVCRT:MSVCR100.dll
 0002:00000460       __imp__kbhit               000000014006e460     MSVCRT:MSVCR100.dll
 0002:00000468       __imp__mbsnicmp            000000014006e468     MSVCRT:MSVCR100.dll
 0002:00000470       __imp_memchr               000000014006e470     MSVCRT:MSVCR100.dll
 0002:00000478       __imp_strcpy_s             000000014006e478     MSVCRT:MSVCR100.dll
 0002:00000480       __imp_vsprintf             000000014006e480     MSVCRT:MSVCR100.dll
 0002:00000488       __imp__snprintf            000000014006e488     MSVCRT:MSVCR100.dll
 0002:00000490       __imp__vsnprintf_s         000000014006e490     MSVCRT:MSVCR100.dll
 0002:00000498       __imp_strcat_s             000000014006e498     MSVCRT:MSVCR100.dll
 0002:000004a0       __imp__vsnprintf           000000014006e4a0     MSVCRT:MSVCR100.dll
 0002:000004a8       __imp_setlocale            000000014006e4a8     MSVCRT:MSVCR100.dll
 0002:000004b0       __imp__mbschr              000000014006e4b0     MSVCRT:MSVCR100.dll
 0002:000004b8       __imp_calloc               000000014006e4b8     MSVCRT:MSVCR100.dll
 0002:000004c0       __imp_fopen                000000014006e4c0     MSVCRT:MSVCR100.dll
 0002:000004c8       __imp_fread                000000014006e4c8     MSVCRT:MSVCR100.dll
 0002:000004d0       __imp_fclose               000000014006e4d0     MSVCRT:MSVCR100.dll
 0002:000004d8       __imp_feof                 000000014006e4d8     MSVCRT:MSVCR100.dll
 0002:000004e0       __imp_strerror             000000014006e4e0     MSVCRT:MSVCR100.dll
 0002:000004e8       __imp__errno               000000014006e4e8     MSVCRT:MSVCR100.dll
 0002:000004f0       __imp_ferror               000000014006e4f0     MSVCRT:MSVCR100.dll
 0002:000004f8       __imp_ungetc               000000014006e4f8     MSVCRT:MSVCR100.dll
 0002:00000500       __imp_freopen              000000014006e500     MSVCRT:MSVCR100.dll
 0002:00000508       __imp_fprintf              000000014006e508     MSVCRT:MSVCR100.dll
 0002:00000510       __imp_sin                  000000014006e510     MSVCRT:MSVCR100.dll
 0002:00000518       __imp_sinh                 000000014006e518     MSVCRT:MSVCR100.dll
 0002:00000520       __imp_cos                  000000014006e520     MSVCRT:MSVCR100.dll
 0002:00000528       __imp_cosh                 000000014006e528     MSVCRT:MSVCR100.dll
 0002:00000530       __imp_tan                  000000014006e530     MSVCRT:MSVCR100.dll
 0002:00000538       __imp_tanh                 000000014006e538     MSVCRT:MSVCR100.dll
 0002:00000540       __imp_asin                 000000014006e540     MSVCRT:MSVCR100.dll
 0002:00000548       __imp_acos                 000000014006e548     MSVCRT:MSVCR100.dll
 0002:00000550       __imp_atan                 000000014006e550     MSVCRT:MSVCR100.dll
 0002:00000558       __imp_atan2                000000014006e558     MSVCRT:MSVCR100.dll
 0002:00000560       __imp_ceil                 000000014006e560     MSVCRT:MSVCR100.dll
 0002:00000568       __imp_floor                000000014006e568     MSVCRT:MSVCR100.dll
 0002:00000570       __imp_fmod                 000000014006e570     MSVCRT:MSVCR100.dll
 0002:00000578       __imp_modf                 000000014006e578     MSVCRT:MSVCR100.dll
 0002:00000580       __imp_sqrt                 000000014006e580     MSVCRT:MSVCR100.dll
 0002:00000588       __imp_pow                  000000014006e588     MSVCRT:MSVCR100.dll
 0002:00000590       __imp_log                  000000014006e590     MSVCRT:MSVCR100.dll
 0002:00000598       __imp_log10                000000014006e598     MSVCRT:MSVCR100.dll
 0002:000005a0       __imp_exp                  000000014006e5a0     MSVCRT:MSVCR100.dll
 0002:000005a8       __imp_frexp                000000014006e5a8     MSVCRT:MSVCR100.dll
 0002:000005b0       __imp_ldexp                000000014006e5b0     MSVCRT:MSVCR100.dll
 0002:000005b8       __imp_srand                000000014006e5b8     MSVCRT:MSVCR100.dll
 0002:000005c0       __imp__HUGE                000000014006e5c0     MSVCRT:MSVCR100.dll
 0002:000005c8       __imp_tolower              000000014006e5c8     MSVCRT:MSVCR100.dll
 0002:000005d0       __imp_toupper              000000014006e5d0     MSVCRT:MSVCR100.dll
 0002:000005d8       __imp_isxdigit             000000014006e5d8     MSVCRT:MSVCR100.dll
 0002:000005e0       __imp_isalnum              000000014006e5e0     MSVCRT:MSVCR100.dll
 0002:000005e8       __imp_isupper              000000014006e5e8     MSVCRT:MSVCR100.dll
 0002:000005f0       __imp_isspace              000000014006e5f0     MSVCRT:MSVCR100.dll
 0002:000005f8       __imp_ispunct              000000014006e5f8     MSVCRT:MSVCR100.dll
 0002:00000600       __imp_islower              000000014006e600     MSVCRT:MSVCR100.dll
 0002:00000608       __imp_isdigit              000000014006e608     MSVCRT:MSVCR100.dll
 0002:00000610       __imp_iscntrl              000000014006e610     MSVCRT:MSVCR100.dll
 0002:00000618       __imp_isalpha              000000014006e618     MSVCRT:MSVCR100.dll
 0002:00000620       __imp_memcmp               000000014006e620     MSVCRT:MSVCR100.dll
 0002:00000628       __imp_strpbrk              000000014006e628     MSVCRT:MSVCR100.dll
 0002:00000630       __imp_fputs                000000014006e630     MSVCRT:MSVCR100.dll
 0002:00000638       __imp_strtod               000000014006e638     MSVCRT:MSVCR100.dll
 0002:00000640       __imp_strcspn              000000014006e640     MSVCRT:MSVCR100.dll
 0002:00000648       __imp__setjmp              000000014006e648     MSVCRT:MSVCR100.dll
 0002:00000650       __imp_exit                 000000014006e650     MSVCRT:MSVCR100.dll
 0002:00000658       __imp_longjmp              000000014006e658     MSVCRT:MSVCR100.dll
 0002:00000660       __imp_strcoll              000000014006e660     MSVCRT:MSVCR100.dll
 0002:00000668       __imp_localeconv           000000014006e668     MSVCRT:MSVCR100.dll
 0002:00000670       __imp_??_V@YAXPEAX@Z       000000014006e670     MSVCRT:MSVCR100.dll
 0002:00000678       __imp___C_specific_handler 000000014006e678     MSVCRT:MSVCR100.dll
 0002:00000680       __imp__unlock              000000014006e680     MSVCRT:MSVCR100.dll
 0002:00000688       __imp___dllonexit          000000014006e688     MSVCRT:MSVCR100.dll
 0002:00000690       __imp__lock                000000014006e690     MSVCRT:MSVCR100.dll
 0002:00000698       __imp__onexit              000000014006e698     MSVCRT:MSVCR100.dll
 0002:000006a0       __imp_?terminate@@YAXXZ    000000014006e6a0     MSVCRT:MSVCR100.dll
 0002:000006a8       __imp__amsg_exit           000000014006e6a8     MSVCRT:MSVCR100.dll
 0002:000006b0       __imp___getmainargs        000000014006e6b0     MSVCRT:MSVCR100.dll
 0002:000006b8       __imp__XcptFilter          000000014006e6b8     MSVCRT:MSVCR100.dll
 0002:000006c0       __imp__exit                000000014006e6c0     MSVCRT:MSVCR100.dll
 0002:000006c8       __imp__cexit               000000014006e6c8     MSVCRT:MSVCR100.dll
 0002:000006d0       __imp___initenv            000000014006e6d0     MSVCRT:MSVCR100.dll
 0002:000006d8       __imp__initterm            000000014006e6d8     MSVCRT:MSVCR100.dll
 0002:000006e0       __imp__initterm_e          000000014006e6e0     MSVCRT:MSVCR100.dll
 0002:000006e8       __imp__configthreadlocale  000000014006e6e8     MSVCRT:MSVCR100.dll
 0002:000006f0       __imp___setusermatherr     000000014006e6f0     MSVCRT:MSVCR100.dll
 0002:000006f8       __imp__commode             000000014006e6f8     MSVCRT:MSVCR100.dll
 0002:00000700       __imp__fmode               000000014006e700     MSVCRT:MSVCR100.dll
 0002:00000708       __imp___set_app_type       000000014006e708     MSVCRT:MSVCR100.dll
 0002:00000710       \177MSVCR100_NULL_THUNK_DATA 000000014006e710     MSVCRT:MSVCR100.dll
 0002:00000718       __imp_VerQueryValueA       000000014006e718     version:VERSION.dll
 0002:00000720       __imp_GetFileVersionInfoSizeA 000000014006e720     version:VERSION.dll
 0002:00000728       __imp_GetFileVersionInfoA  000000014006e728     version:VERSION.dll
 0002:00000730       \177VERSION_NULL_THUNK_DATA 000000014006e730     version:VERSION.dll
 0002:00000738       __imp_timeGetTime          000000014006e738     winmm:WINMM.dll
 0002:00000740       __imp_timeBeginPeriod      000000014006e740     winmm:WINMM.dll
 0002:00000748       \177WINMM_NULL_THUNK_DATA  000000014006e748     winmm:WINMM.dll
 0002:00000750       __imp_WSAGetLastError      000000014006e750     Ws2_32:WS2_32.dll
 0002:00000758       __imp_ioctlsocket          000000014006e758     Ws2_32:WS2_32.dll
 0002:00000760       __imp_closesocket          000000014006e760     Ws2_32:WS2_32.dll
 0002:00000768       __imp_bind                 000000014006e768     Ws2_32:WS2_32.dll
 0002:00000770       __imp_htons                000000014006e770     Ws2_32:WS2_32.dll
 0002:00000778       __imp_gethostbyname        000000014006e778     Ws2_32:WS2_32.dll
 0002:00000780       __imp_inet_ntoa            000000014006e780     Ws2_32:WS2_32.dll
 0002:00000788       __imp_setsockopt           000000014006e788     Ws2_32:WS2_32.dll
 0002:00000790       __imp_listen               000000014006e790     Ws2_32:WS2_32.dll
 0002:00000798       __imp_accept               000000014006e798     Ws2_32:WS2_32.dll
 0002:000007a0       __imp_select               000000014006e7a0     Ws2_32:WS2_32.dll
 0002:000007a8       __imp_connect              000000014006e7a8     Ws2_32:WS2_32.dll
 0002:000007b0       __imp_socket               000000014006e7b0     Ws2_32:WS2_32.dll
 0002:000007b8       __imp_recv                 000000014006e7b8     Ws2_32:WS2_32.dll
 0002:000007c0       __imp_send                 000000014006e7c0     Ws2_32:WS2_32.dll
 0002:000007c8       \177WS2_32_NULL_THUNK_DATA 000000014006e7c8     Ws2_32:WS2_32.dll
 0002:000007d0       __imp_MiniDumpWriteDump    000000014006e7d0     Dbghelp:dbghelp.dll
 0002:000007d8       \177dbghelp_NULL_THUNK_DATA 000000014006e7d8     Dbghelp:dbghelp.dll
 0002:000007e0       __imp___tcmalloc           000000014006e7e0     memory_x64:memory_x64.dll
 0002:000007e8       \177memory_x64_NULL_THUNK_DATA 000000014006e7e8     memory_x64:memory_x64.dll
 0002:000007f0       __imp_CoUninitialize       000000014006e7f0     ole32:ole32.dll
 0002:000007f8       __imp_CoInitialize         000000014006e7f8     ole32:ole32.dll
 0002:00000800       \177ole32_NULL_THUNK_DATA  000000014006e800     ole32:ole32.dll
 0002:00000808       __xc_a                     000000014006e808     MSVCRT:cinitexe.obj
 0002:00000850       __xc_z                     000000014006e850     MSVCRT:cinitexe.obj
 0002:00000858       __xi_a                     000000014006e858     MSVCRT:cinitexe.obj
 0002:00000870       __xi_z                     000000014006e870     MSVCRT:cinitexe.obj
 0002:000008a0       ??_C@_0BN@MPJEGLPL@call?5querymybrothergroup?$CI?$CFu?$CJ?$AA@ 000000014006e8a0     BrotherData.obj
 0002:000008c0       ??_C@_0CG@HMGLCFAN@call?5updatebrothergroup?$CI?$CFlld?0?$CC?$CFs@ 000000014006e8c0     BrotherData.obj
 0002:000008e8       ??_C@_0BL@PLDGOKLH@delete?5from?5brothgrouplist?$AA@ 000000014006e8e8     BrotherData.obj
 0002:00000908       ??_C@_0BN@FALNMJOK@call?5savebrother?$CI?$CFlld?0?$CFu?0?$CFd?$CJ?$AA@ 000000014006e908     BrotherData.obj
 0002:00000928       ??_C@_0CJ@GPMBJEMO@call?5addbrothergroup?$CI?$CC?$CFs?$CC?0?$CFu?0?$CFd?0@ 000000014006e928     BrotherData.obj
 0002:00000958       ??_C@_0CC@KEKIIFOD@call?5loadbrothergroupdetail?$CI?$CFlld@ 000000014006e958     BrotherData.obj
 0002:00000980       ??_C@_0BO@NDDFIAIE@call?5loadbrothergrouplist?$CI?$CFd?$CJ?$AA@ 000000014006e980     BrotherData.obj
 0002:00000ab8       ??_C@_02DPKJAMEF@?$CFd?$AA@ 000000014006eab8     BrotherData.obj
 0002:00000abc       ??_C@_04BFAHMMK@?$CFlld?$AA@ 000000014006eabc     BrotherData.obj
 0002:00000ac8       ??_C@_0CM@DLJDEECC@CLogicDBReqestHandler?3?3LoadBroth@ 000000014006eac8     BrotherData.obj
 0002:00000af4       ??_C@_02GMHACPFF@?$CFu?$AA@ 000000014006eaf4     BrotherData.obj
 0002:00000af8       ??_C@_0CM@MIKJFELG@CLogicDBReqestHandler?3?3LoadBroth@ 000000014006eaf8     BrotherData.obj
 0002:00000b28       ??_C@_0CF@KMFAOCJP@CLogicDBReqestHandler?3?3AddBrothG@ 000000014006eb28     BrotherData.obj
 0002:00000b50       ??_C@_0CD@FNGMKJLF@CLogicDBReqestHandler?3?3SaveBroth@ 000000014006eb50     BrotherData.obj
 0002:00000b78       ??_C@_0CK@BMFFMEJB@CLogicDBReqestHandler?3?3DeleteBro@ 000000014006eb78     BrotherData.obj
 0002:00000ba8       ??_C@_0CK@CAINEBCF@CLogicDBReqestHandler?3?3UpdateBro@ 000000014006eba8     BrotherData.obj
 0002:00000bd8       ??_C@_0CG@BALIHGAN@CLogicDBReqestHandler?3?3QueryMyBr@ 000000014006ebd8     BrotherData.obj
 0002:00000c00       ??_C@_0CH@MIGIDBNC@Counter?$DMclass?5EntityHandle?$DO?3?3add@ 000000014006ec00     BrotherData.obj
 0002:00000c58       ??_7CustomStackWalker@@6B@ 000000014006ec58     CustomExceptHander.obj
 0002:00000cc0       ??_C@_0BE@BCKLPHDJ@LogicSvrDump_?$CFs?4txt?$AA@ 000000014006ecc0     CustomExceptHander.obj
 0002:00000cd8       ??_C@_0BC@CMLJIOCB@?$CFY?9?$CFm?9?$CFd?9?$CFH?9?$CFM?9?$CFS?$AA@ 000000014006ecd8     CustomExceptHander.obj
 0002:00000d40       ??_C@_0P@BBCBEOEK@DBCenter?$LH?$PO?N?q?F?w?$AA@ 000000014006ed40     DBCenterClient.obj
 0002:00000d58       ??_7CDBCenterClient@@6BILogicDBRequestHost@@@ 000000014006ed58     DBCenterClient.obj
 0002:00000d78       ??_7CDBCenterClient@@6BCCustomJXClientSocket@@@ 000000014006ed78     DBCenterClient.obj
 0002:00000e28       ??_7CCustomJXClientSocket@@6B@ 000000014006ee28     DBCenterClient.obj
 0002:00000ed8       ??_7ILogicDBRequestHost@@6B@ 000000014006eed8     DBCenterClient.obj
 0002:00000ef8       ??_7?$CQueueList@PEAVCDataPacket@@@container@wylib@@6B@ 000000014006eef8     DBCenterClient.obj
 0002:00000f10       ??_C@_0BL@POJODAP@?$CFs?5recv?5unknown?5msg?$FLid?$DN?$CFd?$FN?$AA@ 000000014006ef10     DBCenterClient.obj
 0002:00000f30       ??_C@_0CG@MCOKAHB@CDBCenterClient?3?3OnDispatchRecvP@ 000000014006ef30     DBCenterClient.obj
 0002:00000f58       ??_C@_0BK@ENGJHBFM@?$CFs?5recv?5dbgate?5msg?$CIid?$DN?$CFd?$CJ?$AA@ 000000014006ef58     DBCenterClient.obj
 0002:00000f78       ??_C@_0CF@MBHJFPMJ@CDBCenterClient?3?3HandleDBGateReq@ 000000014006ef78     DBCenterClient.obj
 0002:00000fa0       ??_C@_0CC@CFCMMEFO@?$CFs?5?N?$NO?F?$KF?E?d?$LF?D?B?$LH?S?I?J?$PN?$LO?$NN?0?5ServerId?$DN?$CFd@ 000000014006efa0     DBCenterClient.obj
 0002:00000fc8       ??_C@_0BF@LCCDGNFI@?$CFs?5?J?$PN?$LO?$NN?$LP?b?A?$KM?$LN?S?C?$LL?$LO?M?P?w?$CB?$AA@ 000000014006efc8     DBCenterClient.obj
 0002:00000fe0       ??_C@_0CB@KJIFBLLN@CDBCenterClient?3?3OnRecvEnterGame@ 000000014006efe0     DBCenterClient.obj
 0002:00001010       ??_7?$CLockList@PEAVCDataPacket@@@container@wylib@@6B@ 000000014006f010     DBCenterClient.obj
 0002:00001030       ??_7?$CBaseList@PEAVCDataPacket@@@container@wylib@@6B@ 000000014006f030     DBCenterClient.obj
 0002:00001058       ??_7CDBConfig@@6B@         000000014006f058     DBConfig.obj
 0002:000010e0       ??_C@_0CA@KDBDOHGA@unexpected?5error?5on?5load?5config?$AA@ 000000014006f0e0     DBConfig.obj
 0002:00001100       ??_C@_0BB@GKJJKEIH@123456abc123456a?$AA@ 000000014006f100     DBConfig.obj
 0002:00001114       ??_C@_06HJGLHJBN@DBPass?$AA@ 000000014006f114     DBConfig.obj
 0002:0000111c       ??_C@_06EKCLIHPK@DBUser?$AA@ 000000014006f11c     DBConfig.obj
 0002:00001124       ??_C@_06KMJLGLFD@DBName?$AA@ 000000014006f124     DBConfig.obj
 0002:0000112c       ??_C@_04CPPPJGME@Host?$AA@ 000000014006f12c     DBConfig.obj
 0002:00001134       ??_C@_03DGLBMECB@SQL?$AA@  000000014006f134     DBConfig.obj
 0002:00001138       ??_C@_0L@MPBDOIAL@NameServer?$AA@ 000000014006f138     DBConfig.obj
 0002:00001148       ??_C@_09BFFAKEOD@LogServer?$AA@ 000000014006f148     DBConfig.obj
 0002:00001158       ??_C@_09FNCKGHAC@DBService?$AA@ 000000014006f158     DBConfig.obj
 0002:00001164       ??_C@_04HOKNCALA@Port?$AA@ 000000014006f164     DBConfig.obj
 0002:00001170       ??_C@_07EODJIPPN@Address?$AA@ 000000014006f170     DBConfig.obj
 0002:00001178       ??_C@_0M@JOLHLDMO@GateService?$AA@ 000000014006f178     DBConfig.obj
 0002:00001188       ??_C@_0N@JGGCIOMC@EsqlToolPath?$AA@ 000000014006f188     DBConfig.obj
 0002:00001198       ??_C@_0BN@MGHKHPII@D?3?2cqAdmin?2ESQL?2ESQLTool?4exe?$AA@ 000000014006f198     DBConfig.obj
 0002:000011b8       ??_C@_0N@JIIIAEGB@GirlNameFile?$AA@ 000000014006f1b8     DBConfig.obj
 0002:000011c8       ??_C@_0M@OBJBKPOJ@BoyNameFile?$AA@ 000000014006f1c8     DBConfig.obj
 0002:000011d8       ??_C@_0M@GPFOADNI@ServerIndex?$AA@ 000000014006f1d8     DBConfig.obj
 0002:000011e8       ??_C@_0L@FFDIDHBB@ServerName?$AA@ 000000014006f1e8     DBConfig.obj
 0002:000011f8       ??_C@_08CFGHEPFJ@DBServer?$AA@ 000000014006f1f8     DBConfig.obj
 0002:00001208       ??_C@_0BL@MHMBPHHF@parse?5config?5script?5failed?$AA@ 000000014006f208     DBConfig.obj
 0002:00001228       ??_C@_0CN@PAEKKMAP@unable?5to?5load?5config?5from?5file?5@ 000000014006f228     DBConfig.obj
 0002:00001258       ??_C@_0N@KLFJPJM@dbserver?4txt?$AA@ 000000014006f258     DBConfig.obj
 0002:00001268       ??_C@_0BG@OMCCOFNP@?$FLConfiguration?5Error?$FN?$AA@ 000000014006f268     DBConfig.obj
 0002:00001288       ??_7?$CTRefString@VCAnsiString@string@wylib@@D@string@wylib@@6B@ 000000014006f288     DBConfig.obj
 0002:000012e8       ??_7?$CRefObject@VCAnsiString@string@wylib@@@misc@wylib@@6B@ 000000014006f2e8     DBConfig.obj
 0002:000012f8       ??_7?$CRefObjectImpl@VCAnsiString@string@wylib@@@misc@wylib@@6B@ 000000014006f2f8     DBConfig.obj
 0002:00001318       ??_7CAnsiString@string@wylib@@6B@ 000000014006f318     DBConfig.obj
 0002:00001330       ?s_nExpireTime@CActorCacheData@@2_JB 000000014006f330     DBDataCache.obj
 0002:00001338       ?s_nCheckInterval@CDBDataCache@@0_JB 000000014006f338     DBDataCache.obj
 0002:00001340       ?s_aActorCacheHandler@CDBDataCache@@0QBQ81@EAA_NAEAVCDataPacketReader@@_N@ZB 000000014006f340     DBDataCache.obj
 0002:00001420       ?s_aCDT2RespSrvCmdID@CDBDataCache@@0QBGB 000000014006f420     DBDataCache.obj
 0002:000014a8       ??_C@_0BI@LMGJCEJH@ActorCacheDataHandleMgr?$AA@ 000000014006f4a8     DBDataCache.obj
 0002:000014c8       ??_7CDBDataCache@@6B@      000000014006f4c8     DBDataCache.obj
 0002:000014d0       ??_C@_0BK@FAGEEIOP@CacheData?$FLtype?$DN?$CFd?$FN?5failed?$AA@ 000000014006f4d0     DBDataCache.obj
 0002:000014f0       ??_C@_0CG@EHHEAEKN@?$FL?$CFu?$FN?5OnActorLogout?5to?5Save?5Cache@ 000000014006f4f0     DBDataCache.obj
 0002:00001518       ??_C@_0BM@KEHNAOMI@CDBDataCache?3?3OnActorLogout?$AA@ 000000014006f518     DBDataCache.obj
 0002:00001538       ??_C@_0BI@DKDDAFFI@Save?5all?5Actor?5Data?5End?$AA@ 000000014006f538     DBDataCache.obj
 0002:00001550       ??_C@_0BP@MGIBLFHP@Prepare?5to?5Save?5all?5Actor?5Data?$AA@ 000000014006f550     DBDataCache.obj
 0002:00001570       ??_C@_0BN@IKIPCFNI@?S?P?$LC?i?Q?$KP?J?$PN?$LO?$NN?$LF?$LN?$MA?$LE?$KD?$KM?T?$NN?M?$KD?$LE?f?E?L?$LC?Y?W?w?$AA@ 000000014006f570     DBDataCache.obj
 0002:00001590       ??_C@_0CE@OFEDMFL@SaveActorDataImmediately?5actorid@ 000000014006f590     DBDataCache.obj
 0002:000015b8       ??_C@_0BM@LHCPPAI@Remove?5actor?$FL?$CFd?$FN?5cache?5data?$AA@ 000000014006f5b8     DBDataCache.obj
 0002:000015d8       ??_C@_0CJ@CBMBFGEE@SaveData?5Failed?$CIActorid?$DN?$CFu?0?5cach@ 000000014006f5d8     DBDataCache.obj
 0002:00001608       ??_C@_0CL@JCNOPKFM@Save?5Actor?$FLactorid?$DN?$CFu?$FN?5Data?0dirt@ 000000014006f608     DBDataCache.obj
 0002:00001638       ??_C@_0DA@DBHEKIGM@SaveActorDataImpl?5set?5Actor?$FLacto@ 000000014006f638     DBDataCache.obj
 0002:00001668       ??_C@_0CM@LDOLLENL@AllocActorCacheData?5Acquire?5fail@ 000000014006f668     DBDataCache.obj
 0002:00001698       ??_C@_0CC@NBBKGLIF@?$CFs?5can?8t?5find?5item?5in?5index?5tabl@ 000000014006f698     DBDataCache.obj
 0002:000016c0       ??_C@_0CB@PPDGJPPF@CDBDataCache?3?3FreeActorCacheData@ 000000014006f6c0     DBDataCache.obj
 0002:000016e8       ??_C@_0BA@CCALGJDC@?9?9?9cache?5end?9?9?9?$AA@ 000000014006f6e8     DBDataCache.obj
 0002:000016f8       ??_C@_0BH@HOPGDDK@small?5alloc?$DN?$CFd?0free?$DN?$CFd?$AA@ 000000014006f6f8     DBDataCache.obj
 0002:00001710       ??_C@_0BI@CFPMAAOM@middle?5alloc?$DN?$CFd?0free?$DN?$CFd?$AA@ 000000014006f710     DBDataCache.obj
 0002:00001728       ??_C@_0BH@EJLEBNFE@large?5alloc?$DN?$CFd?0free?$DN?$CFd?$AA@ 000000014006f728     DBDataCache.obj
 0002:00001740       ??_C@_0BH@LMOGFOGB@super?5alloc?$DN?$CFd?0free?$DN?$CFd?$AA@ 000000014006f740     DBDataCache.obj
 0002:00001758       ??_C@_0BO@JEPKBPF@CDBDataCache?5CBufferAllocator?$AA@ 000000014006f758     DBDataCache.obj
 0002:00001778       ??_C@_0BL@JGHAPEAL@?5actor?5cache?5total?5size?$DN?$CFd?$AA@ 000000014006f778     DBDataCache.obj
 0002:00001798       ??_C@_0BC@GBODAOPN@?9?9?9cache?5start?9?9?9?$AA@ 000000014006f798     DBDataCache.obj
 0002:000017b8       ??_7?$CBaseLinkedList@PEAVCActorCacheData@@@container@wylib@@6B@ 000000014006f7b8     DBDataCache.obj
 0002:00001840       ??_7?$CBaseList@I@container@wylib@@6B@ 000000014006f840     DBDataCache.obj
 0002:00001860       ??_7?$CBaseList@V?$CBaseList@VCActorCacheData@@@container@wylib@@@container@wylib@@6B@ 000000014006f860     DBDataCache.obj
 0002:00001880       ??_7?$CBaseList@V?$CBaseList@V?$Handle@I@@@container@wylib@@@container@wylib@@6B@ 000000014006f880     DBDataCache.obj
 0002:000018a0       ??_7?$CBaseList@VCActorCacheData@@@container@wylib@@6B@ 000000014006f8a0     DBDataCache.obj
 0002:000018c0       ??_7?$CBaseList@V?$Handle@I@@@container@wylib@@6B@ 000000014006f8c0     DBDataCache.obj
 0002:000018d8       ??_C@_0BE@JONHPENG@map?1set?$DMT?$DO?5too?5long?$AA@ 000000014006f8d8     DBDataCache.obj
 0002:000018f8       ??_7bad_alloc@std@@6B@     000000014006f8f8     DBDataCache.obj
 0002:000019d0       ??_7?$CBaseLinkedList@PEBVHandleMgrStat@@@container@wylib@@6B@ 000000014006f9d0     DBDataCache.obj
 0002:00001ab0       ??_C@_0FG@DPAACOPB@Counter?$DMclass?5wylib?3?3container?3?3@ 000000014006fab0     DBDataCache.obj
 0002:00001b10       ??_C@_0FC@JGAKCNNK@Counter?$DMclass?5wylib?3?3container?3?3@ 000000014006fb10     DBDataCache.obj
 0002:00001b68       ??_C@_0BM@PAPJHAGI@invalid?5map?1set?$DMT?$DO?5iterator?$AA@ 000000014006fb68     DBDataCache.obj
 0002:00001b88       ??_C@_0BO@PEBALAJC@call?5renamecharactor?$CI?$CFd?0?$CC?$CFs?$CC?$CJ?$AA@ 000000014006fb88     DBDataClient.obj
 0002:00001ba8       ??_C@_0CF@OHDKDCNN@call?5createguild?$CI?$CFu?0?$CFu?0?$CC?$CFs?$CC?0?$CC?$CFs?$CC@ 000000014006fba8     DBDataClient.obj
 0002:00001bd0       ??_C@_0CD@MIABEELH@call?5getcharactoridbyname?$CI?$CC?$CFs?$CC?0?$CF@ 000000014006fbd0     DBDataClient.obj
 0002:00001cc8       ??_7CDBDataClient@@6BILogicDBRequestHost@@@ 000000014006fcc8     DBDataClient.obj
 0002:00001ce8       ??_7CDBDataClient@@6BCCustomJXServerClientSocket@@@ 000000014006fce8     DBDataClient.obj
 0002:00001d70       ??_C@_0BM@OHGGDFDC@?J?$PN?$LO?$NN?$LP?M?$LL?$KH?$LG?K?$CI?$CFs?3?$CFd?$CJ?A?$KM?$LN?S?R?Q?$LG?O?$LP?$KK?$AA@ 000000014006fd70     DBDataClient.obj
 0002:00001d90       ??_C@_0CI@LJCECMDG@?J?$PN?$LO?$NN?$LP?M?$LL?$KH?$LG?K?$CI?$CFs?3?$CFd?$CJ?L?W?$LN?S?W?V?$LH?$KC?I?z?$LE?m?N?s?0@ 000000014006fd90     DBDataClient.obj
 0002:00001db8       ??_C@_0DP@LHNKIEGM@actorid?$DN?$CFlld?0CDBDataClient?5send?5@ 000000014006fdb8     DBDataClient.obj
 0002:00001df8       ??_C@_0BF@MCCOMLMK@recv?5query?5actor?5msg?$AA@ 000000014006fdf8     DBDataClient.obj
 0002:00001e10       ??_C@_0BD@HHMGMMBD@?$CFs?5recv?5InitDB?5Msg?$AA@ 000000014006fe10     DBDataClient.obj
 0002:00001e28       ??_C@_0CE@DHOCPNEP@CDBDataClient?3?3OnDispatchRecvPac@ 000000014006fe28     DBDataClient.obj
 0002:00001e50       ??_C@_0FP@OHOIIENN@?J?$PN?$LO?$NN?$LP?M?$LL?$KH?$LG?K?$CI?$CFs?0?$CFd?0?5?$CFs?3?$CFd?$CJ?I?j?G?k?$LG?T?$LN?G@ 000000014006fe50     DBDataClient.obj
 0002:00001eb0       ??_C@_0FP@EOCILMNH@?J?$PN?$LO?$NN?$LP?M?$LL?$KH?$LG?K?$CI?$CFs?3?$CFd?0?5?$CFs?3?$CFd?$CJ?I?j?G?k?$LE?$LE?$LN?$KI@ 000000014006feb0     DBDataClient.obj
 0002:00001f10       ??_C@_0CH@GNHBNNPK@CDBDataClient?3?3ProcessAllocGuild@ 000000014006ff10     DBDataClient.obj
 0002:00001f38       ??_C@_02DKCKIIND@?$CFs?$AA@ 000000014006ff38     DBDataClient.obj
 0002:00001f40       ??_C@_0DN@IOMKLIAP@?J?$PN?$LO?$NN?$LP?M?$LL?$KH?$LG?K?$CI?$CFs?3?$CFd?0?5?$CFs?3?$CFd?$CJ?G?k?G?s?V?X?C?$PM@ 000000014006ff40     DBDataClient.obj
 0002:00001f80       ??_C@_0BO@LEOKHLBD@guild?5name?5is?5invalid?$CBname?$DN?$CFs?$AA@ 000000014006ff80     DBDataClient.obj
 0002:00001fa0       ??_C@_0DL@NLIPFNPB@?J?$PN?$LO?$NN?$LP?M?$LL?$KH?$LG?K?$CI?$CFs?3?$CFd?0?5?$CFs?3?$CFd?$CJ?G?k?G?s?$LE?$LE?$LN?$KI@ 000000014006ffa0     DBDataClient.obj
 0002:00001fe0       ??_C@_0CA@GALMAOEM@CDBDataClient?3?3CatchCreateGuild?$AA@ 000000014006ffe0     DBDataClient.obj
 0002:00002008       ??_7?$CLockList@PEATtagASyncNameOPData@CDBDataClient@@@container@wylib@@6B@ 0000000140070008     DBDataClient.obj
 0002:00002028       ??_7?$CBaseList@PEATtagASyncNameOPData@CDBDataClient@@@container@wylib@@6B@ 0000000140070028     DBDataClient.obj
 0002:00002098       ??_7CDBDataClientHandler@@6B@ 0000000140070098     DBDataClientHandler.obj
 0002:000020c0       ??_C@_0BF@DCMBAOJC@CDBDataClientHandler?$AA@ 00000001400700c0     DBDataClientHandler.obj
 0002:000020d8       ??_C@_0CE@ELHMKEMH@DBDataCacheError?5allocPacket?5fai@ 00000001400700d8     DBDataClientHandler.obj
 0002:00002100       ??_C@_0DB@FBHLHLJ@?9?9?9?9?9?9?9?9?9?9?9?9?9?9CDBDataClientHandl@ 0000000140070100     DBDataClientHandler.obj
 0002:00002138       ??_C@_0O@KEHJDAOD@?9?9?9msg?5end?9?9?9?$AA@ 0000000140070138     DBDataClientHandler.obj
 0002:00002148       ??_C@_0BP@DMFJCMIB@free?5list?5Size?$DN?$CFd?0packCount?$DN?$CFd?$AA@ 0000000140070148     DBDataClientHandler.obj
 0002:00002168       ??_C@_0BO@BNDPHEON@msg?5List?5Size?$DN?$CFd?0packCount?$DN?$CFd?$AA@ 0000000140070168     DBDataClientHandler.obj
 0002:00002188       ??_C@_0BA@OLHHJFIB@?9?9?9msg?5start?9?9?9?$AA@ 0000000140070188     DBDataClientHandler.obj
 0002:00002198       ??_C@_0DD@ONONOAAC@?9?9?9?9?9?9?9?9?9?9?9?9?9?9CDBDataClientHandl@ 0000000140070198     DBDataClientHandler.obj
 0002:000021d0       ??_C@_0CF@COOKGCEN@?$CFs?5recv?5unknown?5dbrequest?5cmd?$FLid@ 00000001400701d0     DBDataClientHandler.obj
 0002:000021f8       ??_C@_0CG@IOPCDIOP@CDBDataClientHandler?3?3HandleDBMe@ 00000001400701f8     DBDataClientHandler.obj
 0002:00002220       ??_C@_0BM@DPPLOMHE@SaveAllActorDataImmediately?$AA@ 0000000140070220     DBDataClientHandler.obj
 0002:000022e8       ??_7CDBDataServer@@6B@     00000001400702e8     DBDataServer.obj
 0002:000023c0       ??_C@_0BP@IJCKGHLL@Call?5datahandler?4stop?$CI?$CJ?5return?$AA@ 00000001400703c0     DBDataServer.obj
 0002:000023e0       ??_C@_0CB@LOJIEHKN@Start?5to?5call?5datahandler?4stop?$CI?$CJ@ 00000001400703e0     DBDataServer.obj
 0002:00002408       ??_C@_0CO@OCGHANEI@DestroyClientSocket?5alway?5exist?5@ 0000000140070408     DBDataServer.obj
 0002:00002438       ??_C@_0BB@PIFPMJCH@DBDataServer?4cpp?$AA@ 0000000140070438     DBDataServer.obj
 0002:00002450       ??_C@_0DE@HOMGOMMG@actorid?$DN?$CFlld?0to?5DispatchInternal@ 0000000140070450     DBDataServer.obj
 0002:00002488       ??_C@_0CB@KCPOABAD@?K?y?S?P?J?$PN?$LO?$NN?$LP?M?$LL?$KH?$LG?K?$LF?D?J?$PN?$LO?$NN?R?Q?$LE?$KG?$MA?m?M?j?$LB?O?$KD?$KB@ 0000000140070488     DBDataServer.obj
 0002:000024b0       ??_C@_0CJ@DDGJEDDD@?U?$PN?T?Z?$LF?H?$LE?$PN?K?y?S?P?J?$PN?$LO?$NN?$LP?M?$LL?$KH?$LG?K?$LF?D?J?$PN?$LO?$NN?$LE?$KG?$MA?m@ 00000001400704b0     DBDataServer.obj
 0002:000024e0       ??_C@_0CL@GHKAKBM@delete?5from?5actorrelation?5where?5@ 00000001400704e0     DBDataServer.obj
 0002:00002510       ??_C@_0CH@CLNEBIA@delete?5from?5petskills?5where?5acto@ 0000000140070510     DBDataServer.obj
 0002:00002538       ??_C@_0CK@PNBHPOIB@delete?5from?5actorpetitem?5where?5a@ 0000000140070538     DBDataServer.obj
 0002:00002568       ??_C@_0CH@JDOKCBLJ@delete?5from?5actorpets?5where?5acto@ 0000000140070568     DBDataServer.obj
 0002:00002590       ??_C@_0CF@ENEHFDDJ@delete?5from?5gemsuit?5where?5actori@ 0000000140070590     DBDataServer.obj
 0002:000025b8       ??_C@_0CK@PBOIAKPJ@delete?5from?5actorgemitem?5where?5a@ 00000001400705b8     DBDataServer.obj
 0002:000025e8       ??_C@_0CM@MCEHPCNK@delete?5from?5actorfriends?5where?5a@ 00000001400705e8     DBDataServer.obj
 0002:00002618       ??_C@_0CL@ICAAJKLG@delete?5from?5repeatquest?5where?5ac@ 0000000140070618     DBDataServer.obj
 0002:00002648       ??_C@_0CK@GNMHFOJO@delete?5from?5goingquest?5where?5act@ 0000000140070648     DBDataServer.obj
 0002:00002678       ??_C@_0CF@JAPHILPP@delete?5from?5skill?5where?5actorid?5@ 0000000140070678     DBDataServer.obj
 0002:000026a0       ??_C@_0CO@HENLNGCK@delete?5from?5actormagicitem?5where@ 00000001400706a0     DBDataServer.obj
 0002:000026d0       ??_C@_0CN@PAFDLBJI@delete?5from?5actordmkjitem?5where?5@ 00000001400706d0     DBDataServer.obj
 0002:00002700       ??_C@_0CO@JKOPNFHM@delete?5from?5actordepotitem?5where@ 0000000140070700     DBDataServer.obj
 0002:00002730       ??_C@_0CO@CPMOMOLC@delete?5from?5actorequipitem?5where@ 0000000140070730     DBDataServer.obj
 0002:00002760       ??_C@_0CM@GEIGBOPA@delete?5from?5actorbagitem?5where?5a@ 0000000140070760     DBDataServer.obj
 0002:00002790       ??_C@_0BL@BCPPJPII@CDBDataServer?5Trace?5end?4?4?4?$AA@ 0000000140070790     DBDataServer.obj
 0002:000027b0       ??_C@_0BN@MDEIMKPG@CDBDataServer?5Trace?5start?4?4?4?$AA@ 00000001400707b0     DBDataServer.obj
 0002:000027d0       ??_C@_04LHHHFLPP@utf8?$AA@ 00000001400707d0     DBDataServer.obj
 0002:000027e0       ??_7?$CBaseList@PEAVCDBDataClient@@@container@wylib@@6B@ 00000001400707e0     DBDataServer.obj
 0002:00002800       ??_7?$CBaseList@H@container@wylib@@6B@ 0000000140070800     DBDataServer.obj
 0002:00002818       ??_C@_0BK@LLCJJOJJ@?9?9?9BufferAllocator?5end?9?9?9?$AA@ 0000000140070818     DBDataServer.obj
 0002:00002838       ??_C@_0BM@PMJJFEC@?9?9?9BufferAllocator?5start?9?9?9?$AA@ 0000000140070838     DBDataServer.obj
 0002:00002858       ??_C@_0BH@NBLDOGEG@CDBDataClient?5Trace?5?$CFs?$AA@ 0000000140070858     DBDataServer.obj
 0002:00002878       ??_7?$CBaseList@UPlayerZYDistribute@@@container@wylib@@6B@ 0000000140070878     DBDataServer.obj
 0002:00002898       ??_7?$CBaseList@UPlayerJobDistribute@@@container@wylib@@6B@ 0000000140070898     DBDataServer.obj
 0002:000028b8       ??_7?$CBaseList@UPlayerNameDistribute@@@container@wylib@@6B@ 00000001400708b8     DBDataServer.obj
 0002:000028d0       ??_C@_0CA@HCCKOCPN@select?5?$CK?5from?5gameserveraddress?$AA@ 00000001400708d0     DBServer.obj
 0002:000028f0       ??_C@_0BH@HEFBECOL@CALL?5loadFilterNames?$CI?$CJ?$AA@ 00000001400708f0     DBServer.obj
 0002:00002a70       ??_C@_07LEIELNEF@End?4?4?4?4?$AA@ 0000000140070a70     DBServer.obj
 0002:00002a78       ??_C@_0BG@PEAPDBCN@Wait?5Del?5NameList?4?4?4?4?$AA@ 0000000140070a78     DBServer.obj
 0002:00002a90       ??_C@_0BI@FAJHAMPF@Wait?5Del?5DataServer?4?4?4?4?$AA@ 0000000140070a90     DBServer.obj
 0002:00002aa8       ??_C@_0BL@JKLGPNNA@Wait?5Del?5NameSynClient?4?4?4?4?$AA@ 0000000140070aa8     DBServer.obj
 0002:00002ac8       ??_C@_0BH@IJCKAGPC@End?5GateUnitialize?4?4?4?4?$AA@ 0000000140070ac8     DBServer.obj
 0002:00002ae0       ??_C@_0BG@IPFLEOH@ShutDown?5DBServer?5End?$AA@ 0000000140070ae0     DBServer.obj
 0002:00002af8       ??_C@_0BI@PHKFHOFH@Start?5ShutDown?5DBServer?$AA@ 0000000140070af8     DBServer.obj
 0002:00002b10       ??_C@_0BD@BJLENNP@Save?5Name?5File?5End?$AA@ 0000000140070b10     DBServer.obj
 0002:00002b28       ??_C@_0BF@LPKJDOCL@Start?5Save?5Name?5File?$AA@ 0000000140070b28     DBServer.obj
 0002:00002b40       ??_C@_0BH@BGGCMGJB@?$CFs?5serverindex?5is?5NULL?$AA@ 0000000140070b40     DBServer.obj
 0002:00002b58       ??_C@_0BJ@OENHMEJE@?B?$LH?S?I?$FL?$CFs?3?$CF6d?$FN?5?S?C?$LL?$KH?H?K?J?$PN?3?$CFd?$AA@ 0000000140070b58     DBServer.obj
 0002:00002b78       ??_C@_0CD@PEEKKPCK@?$LI?$PM?P?B?B?$NP?$LM?$KN?M?x?$LJ?X?$FLport?3?$CFd?$FN?S?C?$LL?$KH?J?$PN?D?$LP?$KD?$LK?5@ 0000000140070b78     DBServer.obj
 0002:00002ba0       ??_C@_0DA@GICKOLNL@?U?R?$LC?$LL?$LF?$LN?$LG?T?S?$KG?$LH?$PO?N?q?F?w?$FLserver_index?$DN?$CFd@ 0000000140070ba0     DBServer.obj
 0002:00002bd0       ??_C@_0CD@DGNOPIOA@CDBServer?3?3UpdateLogicGateUserIn@ 0000000140070bd0     DBServer.obj
 0002:00002bf8       ??_C@_0BK@LBOKDKOF@Prepare?5to?5Stop?5LogClient?$AA@ 0000000140070bf8     DBServer.obj
 0002:00002c18       ??_C@_0BP@IOBJMPNM@Prepare?5to?5Stop?5NameSyncClient?$AA@ 0000000140070c18     DBServer.obj
 0002:00002c38       ??_C@_0BL@DEKMMFLF@Prepare?5to?5Stop?5DataServer?$AA@ 0000000140070c38     DBServer.obj
 0002:00002c58       ??_C@_0BG@EDJFIMOP@?$CFd?5filter?5name?5loaded?$AA@ 0000000140070c58     DBServer.obj
 0002:00002c70       ??_C@_0BF@KINJKGKD@m_filter?4Init?$CI?$CJ?5fail?$AA@ 0000000140070c70     DBServer.obj
 0002:00002c88       ??_C@_0CP@PPJMMCJA@can?5not?5load?5filter?5names?0?5datab@ 0000000140070c88     DBServer.obj
 0002:00002cb8       ??_C@_0BK@LOOBAAGG@can?5not?5load?5filter?5names?$AA@ 0000000140070cb8     DBServer.obj
 0002:00002cd8       ??_C@_0BI@ENBAFMCA@CDBServer?3?3CheckNameStr?$AA@ 0000000140070cd8     DBServer.obj
 0002:00002cf0       ??_C@_0CB@JGJJMFAD@load?5girl?5name?5fail?0return?5false@ 0000000140070cf0     DBServer.obj
 0002:00002d18       ??_C@_0CA@KDBGJAOK@load?5boy?5name?5fail?0return?5false?$AA@ 0000000140070d18     DBServer.obj
 0002:00002d38       ??_C@_05CIGOOKJF@Temp_?$AA@ 0000000140070d38     DBServer.obj
 0002:00002d40       ??_C@_0N@IANHHLNM@DBServer?4cpp?$AA@ 0000000140070d40     DBServer.obj
 0002:00002d50       ??_C@_0BJ@ENECOKMF@CDBServer?3?3GetRandomName?$AA@ 0000000140070d50     DBServer.obj
 0002:00002d70       ??_C@_0BL@KJNHMAIG@CDBServer?3?3AllocRandomName?$AA@ 0000000140070d70     DBServer.obj
 0002:00002d90       ??_C@_0BB@PCHMDIKD@SaveGirlNameList?$AA@ 0000000140070d90     DBServer.obj
 0002:00002da8       ??_C@_0BA@GDMJIOAM@SaveBoyNameList?$AA@ 0000000140070da8     DBServer.obj
 0002:00002dc0       ??_7?$CLockList@PEAUtagGameServerRoute@jxSrvDef@@@container@wylib@@6B@ 0000000140070dc0     DBServer.obj
 0002:00002de0       ??_7?$CBaseList@PEAUtagGameServerRoute@jxSrvDef@@@container@wylib@@6B@ 0000000140070de0     DBServer.obj
 0002:00002df8       ??_C@_0CO@LJGIFINJ@?9?9?9?9?9?9?9?9?9?9?9?9?9?9?9CDBCenterClient?5T@ 0000000140070df8     DBServer.obj
 0002:00002e28       ??_C@_0CO@DGIAHPH@?9?9?9?9?9?9?9?9?9?9?9?9?9?9?9CDBCenterClient?5T@ 0000000140070e28     DBServer.obj
 0002:00002eb8       ??_7CNameSyncClient@@6B@   0000000140070eb8     DBNSClient.obj
 0002:00002f60       ??_C@_0DB@LPINOGIO@PostAllocateCharId?5fail?0?5name?5se@ 0000000140070f60     DBNSClient.obj
 0002:00002fa0       ??_7?$CBaseList@PEAUNameOperateData@CNameSyncClient@@@container@wylib@@6B@ 0000000140070fa0     DBNSClient.obj
 0002:00002fc0       ??_7?$CLockList@PEAUNameOperateData@CNameSyncClient@@@container@wylib@@6B@ 0000000140070fc0     DBNSClient.obj
 0002:00003028       ??_C@_0BG@CLCCNBNH@load?5Esql?5file?5finish?$AA@ 0000000140071028     EsqlMgr.obj
 0002:00003040       ??_C@_0BD@DFADGFDJ@EsqlTool?5not?5exist?$AA@ 0000000140071040     EsqlMgr.obj
 0002:00003058       ??_C@_0BF@ICBGEOID@FindNextFile?5error?4?5?$AA@ 0000000140071058     EsqlMgr.obj
 0002:00003070       ??_C@_0BF@DODMGKCD@Next?5file?5name?5is?5?$CFs?$AA@ 0000000140071070     EsqlMgr.obj
 0002:00003088       ??_C@_0N@EHPAGHC@no?5esql?5file?$AA@ 0000000140071088     EsqlMgr.obj
 0002:00003098       ??_C@_01NBENCBCI@?$CK?$AA@ 0000000140071098     EsqlMgr.obj
 0002:0000309c       ??_C@_05MHLIOLJJ@?4esql?$AA@ 000000014007109c     EsqlMgr.obj
 0002:000030a8       ??_C@_0BC@IJDIPALN@OnRunEsqlTool?3?5?$CFs?$AA@ 00000001400710a8     EsqlMgr.obj
 0002:000030c0       ??_C@_0M@HKJEMFMD@?$CFs?5?$CFs?5?$CFs?5?$CFs?$AA@ 00000001400710c0     EsqlMgr.obj
 0002:000030cc       ??_C@_01GBGANLPD@0?$AA@    00000001400710cc     EsqlMgr.obj
 0002:000030d0       ??_C@_0CF@DNFLOAMN@GetCurrentDirectory?5?$CFs?0serveinde@ 00000001400710d0     EsqlMgr.obj
 0002:00003100       ??_7?$CBaseList@UtagDbEsql@@@container@wylib@@6B@ 0000000140071100     EsqlMgr.obj
 0002:00003118       ??_C@_0CF@FBLHIBID@call?5loadactorlistbyaccountid?$CI?$CFu@ 0000000140071118     GateDBRequestHandler.obj
 0002:00003140       ??_C@_0EF@EIIBPPJI@update?5actors?5set?5actorname?$DN?$CC?$CFs?$CC@ 0000000140071140     GateDBRequestHandler.obj
 0002:00003190       ??_C@_0EE@BEFJOJAD@select?5count?$CI?$CK?$CJ?5from?5actors?5wher@ 0000000140071190     GateDBRequestHandler.obj
 0002:000031e0       ??_C@_0EC@OAJMJFCF@select?5count?$CI?$CK?$CJ?5from?5actorguild?5@ 00000001400711e0     GateDBRequestHandler.obj
 0002:00003228       ??_C@_0CL@GMAJCNKM@call?5getactorlastloginserverid?$CI?$CF@ 0000000140071228     GateDBRequestHandler.obj
 0002:00003258       ??_C@_0CJ@FJBNMDFL@call?5clientstartplay?$CI?$CFd?0?$CFu?0?$CC?$CFs?$CC?0@ 0000000140071258     GateDBRequestHandler.obj
 0002:00003288       ??_C@_0CE@IOMCEOFG@call?5clientdeletecharactor?$CI?$CFu?0?$CC?$CF@ 0000000140071288     GateDBRequestHandler.obj
 0002:000032b0       ??_C@_0EL@BBCDKJOK@call?5clientcreatenewcharactor?$CI?$CFu@ 00000001400712b0     GateDBRequestHandler.obj
 0002:00003300       ??_C@_0P@COJBCIFP@?$CFs?5Init?5Failed?$AA@ 0000000140071300     GateDBRequestHandler.obj
 0002:00003310       ??_C@_0BL@JLILFAEB@CGateDBReqestHandler?3?3Init?$AA@ 0000000140071310     GateDBRequestHandler.obj
 0002:000033f8       ??_C@_0CE@PMKJJOGK@CGateDBReqestHandler?3?3OnDeleteAc@ 00000001400713f8     GateDBRequestHandler.obj
 0002:00003420       ??_C@_0CD@JJNAANNI@alloc?5CREATEACTORDATA?5memery?5fai@ 0000000140071420     GateDBRequestHandler.obj
 0002:00003448       ??_C@_0CF@FMGLMMLG@Create?5Actor?5Failed?0?5code?$DN?$CFd?0nam@ 0000000140071448     GateDBRequestHandler.obj
 0002:00003470       ??_C@_0CE@KOAFNMGL@CGateDBReqestHandler?3?3OnCreateAc@ 0000000140071470     GateDBRequestHandler.obj
 0002:000034a0       ??_C@_0EG@NGKELNBB@OnCreateActorResult?3?3Create?5Acto@ 00000001400714a0     GateDBRequestHandler.obj
 0002:000034e8       ??_C@_0N@CNACOHAA@?$CFs?5call?5fail?$AA@ 00000001400714e8     GateDBRequestHandler.obj
 0002:000034f8       ??_C@_0DP@PFMOKECP@OnCreateActorResult?3?3?5NameServer@ 00000001400714f8     GateDBRequestHandler.obj
 0002:00003538       ??_C@_0BI@EDDIHGPM@name?5?$DN?$CFs?5has?5filtername?$AA@ 0000000140071538     GateDBRequestHandler.obj
 0002:00003550       ??_C@_0CB@DDLDBAAB@CGateDBReqestHandler?3?3OnRandName@ 0000000140071550     GateDBRequestHandler.obj
 0002:00003578       ??_C@_0CD@MEKGGECH@CGateDBReqestHandler?3?3GetActorLi@ 0000000140071578     GateDBRequestHandler.obj
 0002:000035a0       ??_C@_0IA@OFFBPMJC@?$CFs?5?$LN?G?I?$KL?$FLactorid?$DN?$CFd?0?5accountid?$DN?$CFd@ 00000001400715a0     GateDBRequestHandler.obj
 0002:00003620       ??_C@_0CF@OGBJNAGO@CGateDBReqestHandler?3?3StartEnter@ 0000000140071620     GateDBRequestHandler.obj
 0002:00003650       ??_C@_0FB@JNHFMNIO@?$LC?i?Q?$KP?$LN?G?I?$KL?$FLactorid?$DN?$CFd?5accountid?$DN?$CFd@ 0000000140071650     GateDBRequestHandler.obj
 0002:000036a8       ??_C@_0CL@HNDLHOFJ@CGateDBReqestHandler?3?3OnChaneAct@ 00000001400716a8     GateDBRequestHandler.obj
 0002:000036e0       ??_C@_0GF@HBCJBLCO@insert?5into?5guildstorerecord?$CIgui@ 00000001400716e0     GuildData.obj
 0002:00003748       ??_C@_0CA@JOFPPCMA@call?5deleteguilddepotrecord?$CI?$CFu?$CJ?$AA@ 0000000140071748     GuildData.obj
 0002:00003768       ??_C@_0BO@DLJOHBEL@call?5loadguilddepotrecord?$CI?$CFu?$CJ?$AA@ 0000000140071768     GuildData.obj
 0002:00003788       ??_C@_0BM@JNCKPFIC@call?5loadguildstoredata?$CI?$CFu?$CJ?$AA@ 0000000140071788     GuildData.obj
 0002:000037a8       ??_C@_0CI@DHCAEHNL@delete?5from?5guildstore?5where?5gui@ 00000001400717a8     GuildData.obj
 0002:000037d0       ??_C@_0ML@DINOBLAD@insert?5into?5guildstore?$CIguildid?0a@ 00000001400717d0     GuildData.obj
 0002:000038a0       ??_C@_0CI@MDBEHEKK@delete?5from?5actorguild?5where?5act@ 00000001400718a0     GuildData.obj
 0002:000038c8       ??_C@_0DB@PIJOGENP@call?5addguildenvent?$CI?$CFu?0?$CFd?0?$CFd?0?$CFd?0@ 00000001400718c8     GuildData.obj
 0002:00003900       ??_C@_0CI@MDKOFPPK@delete?5from?5guildevent?5where?5gui@ 0000000140071900     GuildData.obj
 0002:00003928       ??_C@_0BN@HKCMKKIK@call?5deleteguildskill?$CI?$CFd?0?$CFd?$CJ?$AA@ 0000000140071928     GuildData.obj
 0002:00003948       ??_C@_0BO@NJKLPPJ@call?5initguildskill?$CI?$CFd?0?$CFd?0?$CFd?$CJ?$AA@ 0000000140071948     GuildData.obj
 0002:00003968       ??_C@_0CH@JPIEBMKM@call?5addguildwar?$CI?$CFu?0?$CFd?0?$CFd?0?$CFu?0?$CFd?0@ 0000000140071968     GuildData.obj
 0002:00003990       ??_C@_0BI@JKMOJCAB@call?5deleteguildwar?$CI?$CFu?$CJ?$AA@ 0000000140071990     GuildData.obj
 0002:000039b0       ??_C@_0GD@FLHCPKDB@call?5updateguildbasicdata?$CI?$CFu?0?$CFd?0@ 00000001400719b0     GuildData.obj
 0002:00003a18       ??_C@_0BF@HEHAJIIJ@call?5deleteguild?$CI?$CFu?$CJ?$AA@ 0000000140071a18     GuildData.obj
 0002:00003a30       ??_C@_0EF@FEGIDLLA@call?5updateguildmember?$CI?$CFu?0?$CFu?0?$CFd?0@ 0000000140071a30     GuildData.obj
 0002:00003a78       ??_C@_0BI@NOGPBGNI@call?5delguildmember?$CI?$CFu?$CJ?$AA@ 0000000140071a78     GuildData.obj
 0002:00003a90       ??_C@_0DD@NAOBDELJ@call?5addguildmember?$CI?$CFu?0?$CFu?0?$CFd?0?$CFd?0@ 0000000140071a90     GuildData.obj
 0002:00003ac8       ??_C@_0CA@HNDPKBFK@call?5loadactorguildbuilding?$CI?$CFu?$CJ?$AA@ 0000000140071ac8     GuildData.obj
 0002:00003ae8       ??_C@_0BI@MOPOMDJH@call?5loadguildevent?$CI?$CFu?$CJ?$AA@ 0000000140071ae8     GuildData.obj
 0002:00003b00       ??_C@_0BI@JGHEBDIO@call?5loadguildskill?$CI?$CFu?$CJ?$AA@ 0000000140071b00     GuildData.obj
 0002:00003b18       ??_C@_0BG@FGGEMGCI@call?5loadguildwar?$CI?$CFu?$CJ?$AA@ 0000000140071b18     GuildData.obj
 0002:00003b30       ??_C@_0BO@HINOBNFI@call?5loadguildmemberbasic?$CI?$CFu?$CJ?$AA@ 0000000140071b30     GuildData.obj
 0002:00003b50       ??_C@_0CF@JKLGDHMD@call?5addofflineguildmember?$CI?$CFu?0?$CFu@ 0000000140071b50     GuildData.obj
 0002:00003b78       ??_C@_0BK@IJNMMLMJ@call?5loadguildmembers?$CI?$CFu?$CJ?$AA@ 0000000140071b78     GuildData.obj
 0002:00003b98       ??_C@_0BM@FLIAGHKD@call?5loadguildbasicdata?$CI?$CFd?$CJ?$AA@ 0000000140071b98     GuildData.obj
 0002:00003ed8       ??_C@_0CF@HEIPAJIM@CLogicDBReqestHandler?3?3LoadGuild@ 0000000140071ed8     GuildData.obj
 0002:00003f00       ??_C@_0CI@PBOJEFDD@CLogicDBReqestHandler?3?3LoadGuild@ 0000000140071f00     GuildData.obj
 0002:00003f28       ??_C@_0CI@NFJLGMPK@CLogicDBReqestHandler?3?3LoadGuild@ 0000000140071f28     GuildData.obj
 0002:00003f50       ??_C@_0CH@PBGODKMJ@CLogicDBReqestHandler?3?3LoadGuild@ 0000000140071f50     GuildData.obj
 0002:00003f78       ??_C@_0CA@HICKLGNF@CLogicDBReqestHandler?3?3AddGuild?$AA@ 0000000140071f78     GuildData.obj
 0002:00003f98       ??_C@_0CE@NHNHENLB@CLogicDBReqestHandler?3?3DeleteMem@ 0000000140071f98     GuildData.obj
 0002:00003fc0       ??_C@_0CG@JLAGPELA@CLogicDBReqestHandler?3?3SaveActor@ 0000000140071fc0     GuildData.obj
 0002:00003fe8       ??_C@_0CG@BCKGBBAP@CLogicDBReqestHandler?3?3LoadActor@ 0000000140071fe8     GuildData.obj
 0002:00004010       ??_C@_0CG@JGGEBCAB@CLogicDBReqestHandler?3?3AddGuildM@ 0000000140072010     GuildData.obj
 0002:00004038       ??_C@_0CK@GHMBAAHH@CLogicDBReqestHandler?3?3InitGuild@ 0000000140072038     GuildData.obj
 0002:00004068       ??_C@_0CG@BEDCHAL@CLogicDBReqestHandler?3?3SaveGuild@ 0000000140072068     GuildData.obj
 0002:00004090       ??_C@_0CI@ECNEGIBD@CLogicDBReqestHandler?3?3SaveGuild@ 0000000140072090     GuildData.obj
 0002:000040b8       ??_C@_0CB@CNEPNFJI@CLogicDBReqestHandler?3?3SaveGuild@ 00000001400720b8     GuildData.obj
 0002:000040e0       ??_C@_0BJ@DOMJNCO@delete?5Guild?5error?$CBid?$DN?$CFu?$AA@ 00000001400720e0     GuildData.obj
 0002:00004100       ??_C@_0CD@DJAIHAAJ@CLogicDBReqestHandler?3?3DeleteGui@ 0000000140072100     GuildData.obj
 0002:00004128       ??_C@_0CI@CDICFCDJ@CLogicDBReqestHandler?3?3AddMember@ 0000000140072128     GuildData.obj
 0002:00004150       ??_C@_01IHBHIGKO@?0?$AA@   0000000140072150     GuildData.obj
 0002:00004154       ??_C@_02HMLFPPOG@?5?$CJ?$AA@ 0000000140072154     GuildData.obj
 0002:00004158       ??_C@_05KABNCBHK@?$CFd?0?$CFd?$AA@ 0000000140072158     GuildData.obj
 0002:00004160       ??_C@_0BA@LFICMIDM@?$CFd?0?$CFd?0?$CFd?0?$CFd?0?$CFd?0?$AA@ 0000000140072160     GuildData.obj
 0002:00004170       ??_C@_09NJOIPACM@?5?$CFd?0?5?$CFd?0?5?$AA@ 0000000140072170     GuildData.obj
 0002:0000417c       ??_C@_06IJEBOOKN@?$CFd?0?$CFd?0?$AA@ 000000014007217c     GuildData.obj
 0002:00004188       ??_C@_08DBIBKOIB@?$CFu?0?$CFlld?0?$AA@ 0000000140072188     GuildData.obj
 0002:00004194       ??_C@_03CCFMLOPK@?$CFu?0?$AA@ 0000000140072194     GuildData.obj
 0002:00004198       ??_C@_02GFKOMOKH@?5?$CI?$AA@ 0000000140072198     GuildData.obj
 0002:000041a0       ??_C@_0CI@LGDDFEEG@CLogicDBReqestHandler?3?3SaveGuild@ 00000001400721a0     GuildData.obj
 0002:000041c8       ??_C@_0BM@IHIEDEAA@?$CFu?0?$CFd?0?$CFd?0?$CFd?0?$CFd?0?$CFd?0?$CC?$CFs?$CC?0?$CC?$CFs?$CC?$AA@ 00000001400721c8     GuildData.obj
 0002:000041e8       ??_C@_0CO@LGDCHDEA@CLogicDBReqestHandler?3?3SaveGuild@ 00000001400721e8     GuildData.obj
 0002:00004218       ??_C@_0CM@FGLOMHBJ@CLogicDBReqestHandler?3?3LoadGuild@ 0000000140072218     GuildData.obj
 0002:00004248       ??_C@_0CO@ENJGPNPG@CLogicDBReqestHandler?3?3LoadGuild@ 0000000140072248     GuildData.obj
 0002:00004278       ??_C@_0CL@DBPDCOFF@CLogicDBReqestHandler?3?3LoadActor@ 0000000140072278     GuildData.obj
 0002:00004398       ??_C@_0CH@DPIHOJLM@CLogicDBReqestHandler?3?3SaveFrien@ 0000000140072398     InterAction.obj
 0002:000043c0       ??_C@_0CD@GPENPOMK@CLogicDBReqestHandler?3?3SaveFrien@ 00000001400723c0     InterAction.obj
 0002:000043e8       ??_C@_0CE@EACKPIBC@CLogicDBReqestHandler?3?3CleanFrie@ 00000001400723e8     InterAction.obj
 0002:00004410       ??_C@_0CD@JBLOCJJD@CLogicDBReqestHandler?3?3LoadFrien@ 0000000140072410     InterAction.obj
 0002:00004438       ??_C@_0CJ@GANJLENM@select?5actorname?0serverindex?5fro@ 0000000140072438     JobZyCountMgr.obj
 0002:00004468       ??_C@_0BM@PCCEIIGA@insert?5into?5jobcount?5values?$AA@ 0000000140072468     JobZyCountMgr.obj
 0002:00004488       ??_C@_0BL@HNHGIFGK@insert?5into?5zycount?5values?$AA@ 0000000140072488     JobZyCountMgr.obj
 0002:000044a8       ??_C@_0BG@KPAAPKCD@call?5cleanjobdata?$CI?$CFd?$CJ?$AA@ 00000001400724a8     JobZyCountMgr.obj
 0002:000044c0       ??_C@_0BF@CBEKBFE@call?5cleanzydata?$CI?$CFd?$CJ?$AA@ 00000001400724c0     JobZyCountMgr.obj
 0002:000044d8       ??_C@_0BD@FPOOEIFB@call?5loadjobdata?$CI?$CJ?$AA@ 00000001400724d8     JobZyCountMgr.obj
 0002:000044f0       ??_C@_0BC@CFOMCHFA@call?5loadzydata?$CI?$CJ?$AA@ 00000001400724f0     JobZyCountMgr.obj
 0002:00004530       ??_C@_0CM@MPMIFDAC@select?5guildname?0serverindex?5fro@ 0000000140072530     JobZyCountMgr.obj
 0002:00004560       ??_C@_0BC@LHJPBLEH@JobZyCountMgr?4cpp?$AA@ 0000000140072560     JobZyCountMgr.obj
 0002:00004578       ??_C@_0BK@JDEMOKAO@?5load?5charInfo?5count?5?3?5?$CFd?$AA@ 0000000140072578     JobZyCountMgr.obj
 0002:00004598       ??_C@_0CJ@PMBGJEMA@?$CFs?5add?5job?5count?5record?5failed?$CIs@ 0000000140072598     JobZyCountMgr.obj
 0002:000045c8       ??_C@_0BM@ONNLBGLC@CJobZyCountMgr?3?3SaveJobData?$AA@ 00000001400725c8     JobZyCountMgr.obj
 0002:000045e8       ??_C@_0L@DIKAHFMN@?$CI?$CFd?0?$CFd?0?$CFd?$CJ?$AA@ 00000001400725e8     JobZyCountMgr.obj
 0002:000045f8       ??_C@_0BA@HECAOCFP@create?5guild?5?$CFs?$AA@ 00000001400725f8     JobZyCountMgr.obj
 0002:00004608       ??_C@_0BD@NNFNEMLD@Guild?5is?5exist?5?$DN?$CFs?$AA@ 0000000140072608     JobZyCountMgr.obj
 0002:00004620       ??_C@_0CI@ENEGBPAJ@?$CFs?5add?5zy?5count?5record?5failed?$CIsr@ 0000000140072620     JobZyCountMgr.obj
 0002:00004648       ??_C@_0BL@BPEELMCB@CJobZyCountMgr?3?3SaveZyData?$AA@ 0000000140072648     JobZyCountMgr.obj
 0002:00004668       __real@3fd6666666666666    0000000140072668     JobZyCountMgr.obj
 0002:00004670       ??_C@_0DE@EIAIELMO@select?5acupoint?5from?5actorvariab@ 0000000140072670     AcupointData.obj
 0002:000046a8       ??_C@_0CF@DHJBPNEA@update?5actorvariable?5set?5?$GAacupoi@ 00000001400726a8     AcupointData.obj
 0002:00004720       ??_C@_0CO@LHJJNDMM@CLogicDBReqestHandler?3?3QueryActo@ 0000000140072720     AcupointData.obj
 0002:00004750       ??_C@_0BC@ODLMKHNL@?5where?5actorid?$DN?$CFu?$AA@ 0000000140072750     AcupointData.obj
 0002:00004768       ??_C@_0CM@BGGOLJBP@CLogicDBReqestHandler?3?3SaveAcupo@ 0000000140072768     AcupointData.obj
 0002:00004798       ??_C@_0BN@HEEPJDEF@call?5updatechallengedata?$CI?$CFd?$CJ?$AA@ 0000000140072798     BasicData.obj
 0002:000047c0       ??_C@_0BEL@KDOAAMNM@call?5updatecharbasicdata?$CI?$CFu?0?$CFd?0?$CF@ 00000001400727c0     BasicData.obj
 0002:00004910       ??_C@_0CC@MBFMNBNN@call?5loadheroofflineequips?$CI?$CFu?0?$CFd@ 0000000140072910     BasicData.obj
 0002:00004938       ??_C@_0CF@ELEAGGOA@call?5loadherocharofflinedata?$CI?$CFu?0@ 0000000140072938     BasicData.obj
 0002:00004960       ??_C@_0BN@PPMKGNGN@call?5loadcharofflinedata?$CI?$CFu?$CJ?$AA@ 0000000140072960     BasicData.obj
 0002:00004980       ??_C@_0DJ@GLACNECE@update?5actors?5set?5status?5?$DN?5?$CFd?5wh@ 0000000140072980     BasicData.obj
 0002:000049c0       ??_C@_0BL@PCPADFKD@call?5loadcharbasicdata?$CI?$CFu?$CJ?$AA@ 00000001400729c0     BasicData.obj
 0002:000049e0       ??_C@_0CF@EFDMEBKE@call?5getvalidactoridbyname?$CI?$CC?$CFs?$CC?0@ 00000001400729e0     BasicData.obj
 0002:00004b98       ??_C@_0BH@IPFOBJHA@?$CFs?W?$LA?T?X?M?f?$LM?R?$LF?D?J?$PN?$LO?$NN?J?$KH?$LA?$NM?$CFd?$AA@ 0000000140072b98     BasicData.obj
 0002:00004bb0       ??_C@_0N@BJLIGMP@?$LE?f?$LE?$KC?$LJ?$PN?$LD?L?$LC?$LL?$LG?T?$AA@ 0000000140072bb0     BasicData.obj
 0002:00004bc0       ??_C@_0BF@DCFNIFB@query?5actor?$FL?$CFu?$FN?5data?$AA@ 0000000140072bc0     BasicData.obj
 0002:00004bd8       ??_C@_0CI@PAOANKOE@CLogicDBReqestHandler?3?3QueryActo@ 0000000140072bd8     BasicData.obj
 0002:00004c00       ??_C@_0BK@GFLOHBJO@query?5actor?$FL?$CFu?$FN?5subsystem?$AA@ 0000000140072c00     BasicData.obj
 0002:00004c20       ??_C@_0CO@KCDPHNNM@CLogicDBReqestHandler?3?3QueryActo@ 0000000140072c20     BasicData.obj
 0002:00004c50       ??_C@_0CM@IMPCAIF@CLogicDBReqestHandler?3?3QueryOffl@ 0000000140072c50     BasicData.obj
 0002:00004c80       ??_C@_0DA@FJNGIJGA@CLogicDBReqestHandler?3?3QueryOffl@ 0000000140072c80     BasicData.obj
 0002:00004cb0       ??_C@_0DF@KDMCNJCB@?$CFs?W?$LA?T?X?S?$KC?P?$NL?$MA?k?O?$NP?$LF?Dequips?J?$PN?$LO?$NN?J?$KH?$LA?$NMnA@ 0000000140072cb0     BasicData.obj
 0002:00004ce8       ??_C@_0CO@HKLPBNPJ@CLogicDBReqestHandler?3?3QueryOffl@ 0000000140072ce8     BasicData.obj
 0002:00004d20       ??_C@_0GE@CJBKHAOL@save?5actor?5data?5error?$CBid?$DN?$CFd?0x?$DN?$CFd@ 0000000140072d20     BasicData.obj
 0002:00004d88       ??_C@_0CH@PLCMHOJM@?$CFs?5?J?U?$LF?$LN?$LF?D?J?$LF?$LM?J?$LE?s?P?$KB?$LK?MActorDBData?J?$PN@ 0000000140072d88     BasicData.obj
 0002:00004db0       ??_C@_0CF@LJPCDLH@CLogicDBReqestHandler?3?3SaveActor@ 0000000140072db0     BasicData.obj
 0002:00004dd8       ??_C@_0CL@EEGDCNFK@CLogicDBReqestHandler?3?3UpdateCha@ 0000000140072dd8     BasicData.obj
 0002:00004e08       ??_C@_0CI@LNCDNEDB@CLogicDBReqestHandler?3?3QueryActo@ 0000000140072e08     BasicData.obj
 0002:00004e30       ??_C@_0CI@OHCECJKN@CLogicDBReqestHandler?3?3UpdateCha@ 0000000140072e30     BasicData.obj
 0002:00004e58       ??_C@_0CN@NAGNODBG@CLogicDBReqestHandler?3?3QueryOffl@ 0000000140072e58     BasicData.obj
 0002:00004e90       ??_C@_0IH@KLEAJHLK@select?5actorid?0actorname?0job?0bat@ 0000000140072e90     CombatData.obj
 0002:00004f20       ??_C@_0FD@LIAIIDPC@select?5beastindex?0beastlevel?0ned@ 0000000140072f20     CombatData.obj
 0002:00004f80       ??_C@_0FC@HIELKMOI@insert?5into?5actorbeastsouls?$CIacto@ 0000000140072f80     CombatData.obj
 0002:00004fd8       ??_C@_0CN@OBBEBHHI@delete?5from?5actorbeastsouls?5wher@ 0000000140072fd8     CombatData.obj
 0002:00005008       ??_C@_0DP@MCLFJJPL@insert?5into?5periodride?$CInactorid?0@ 0000000140073008     CombatData.obj
 0002:00005048       ??_C@_0CJ@HAJAAHFF@delete?5from?5periodride?5where?5nac@ 0000000140073048     CombatData.obj
 0002:00005080       ??_C@_0ID@MIOEPKJC@insert?5into?5combatgame?$CIactorid?0w@ 0000000140073080     CombatData.obj
 0002:00005110       ??_C@_0KO@GMLEGGCB@insert?5into?5actorwordrobe?$CIactori@ 0000000140073110     CombatData.obj
 0002:000051c0       ??_C@_0CL@BNJHBEPM@delete?5from?5actorwordrobe?5where?5@ 00000001400731c0     CombatData.obj
 0002:000051f0       ??_C@_0KP@MACJAAMD@select?5wordrobeindex?0wearindex?0e@ 00000001400731f0     CombatData.obj
 0002:000052a0       ??_C@_0ML@PEDNFEEP@insert?5into?5actorgodarm?$CIactorid?0@ 00000001400732a0     CombatData.obj
 0002:00005370       ??_C@_0CJ@PHIJDNGD@delete?5from?5actorgodarm?5where?5ac@ 0000000140073370     CombatData.obj
 0002:000053a0       ??_C@_0KE@MDBNNDMH@select?5godarmitemid?0godarmtime?0s@ 00000001400733a0     CombatData.obj
 0002:00005450       ??_C@_0GK@MEBFOAGD@insert?5into?5actormelting?$CIactorid@ 0000000140073450     CombatData.obj
 0002:000054c0       ??_C@_0CK@FFIONBOF@delete?5from?5actormelting?5where?5a@ 00000001400734c0     CombatData.obj
 0002:000054f0       ??_C@_0FI@KDLLPFG@select?5meltinglev?0meltingval?0npa@ 00000001400734f0     CombatData.obj
 0002:00005550       ??_C@_0LM@HHMOIOKD@insert?5into?5actorrune?$CIactorid?0nb@ 0000000140073550     CombatData.obj
 0002:00005610       ??_C@_0CH@LLAEMCMH@delete?5from?5actorrune?5where?5acto@ 0000000140073610     CombatData.obj
 0002:00005640       ??_C@_0JL@BMGGCHNP@select?5nbattle?0holeitemid1?0holei@ 0000000140073640     CombatData.obj
 0002:000056e0       ??_C@_0EH@FKFEHNCB@insert?5into?5artifactscabbard?$CIact@ 00000001400736e0     CombatData.obj
 0002:00005728       ??_C@_0CO@IAIECCLC@delete?5from?5artifactscabbard?5whe@ 0000000140073728     CombatData.obj
 0002:00005760       ??_C@_0EI@FCGGDPLG@select?5nindex?0holeindex?0exp?0time@ 0000000140073760     CombatData.obj
 0002:000057b0       ??_C@_0NG@FGCELJBI@insert?5into?5actorartfact?$CIactorid@ 00000001400737b0     CombatData.obj
 0002:00005888       ??_C@_0CK@GJJALEDA@delete?5from?5actorartfact?5where?5a@ 0000000140073888     CombatData.obj
 0002:000058c0       ??_C@_0KG@PFFGMDBC@select?5artifactitemid?0artifactti@ 00000001400738c0     CombatData.obj
 0002:00005968       ??_C@_0DD@EOAIMJEN@insert?5into?5carditem?$CIactorid?0ite@ 0000000140073968     CombatData.obj
 0002:000059a0       ??_C@_0CG@EBHMJBJD@delete?5from?5carditem?5where?5actor@ 00000001400739a0     CombatData.obj
 0002:000059c8       ??_C@_0DG@PKICLPHO@select?5itemid?0ncount?5from?5cardit@ 00000001400739c8     CombatData.obj
 0002:00005a00       ??_C@_0KD@MICKEBMB@insert?5into?5actorcards?$CIactorid?0c@ 0000000140073a00     CombatData.obj
 0002:00005aa8       ??_C@_0CI@OHLBPDPC@delete?5from?5actorcards?5where?5act@ 0000000140073aa8     CombatData.obj
 0002:00005ad0       ??_C@_0KG@MMHAKOEE@select?5cardindex?0cardexp?0cardval@ 0000000140073ad0     CombatData.obj
 0002:00005b80       ??_C@_0FB@NEHNGIJ@insert?5into?5actortalent?$CIactorid?0@ 0000000140073b80     CombatData.obj
 0002:00005bd8       ??_C@_0CJ@GIMEMIII@delete?5from?5actortalent?5where?5ac@ 0000000140073bd8     CombatData.obj
 0002:00005c10       ??_C@_0FE@MGFDAFCN@select?5position?0level?0itemid?0exp@ 0000000140073c10     CombatData.obj
 0002:00005c70       ??_C@_0EE@NPFPCBNI@select?5nrideid?5?0?5ntime?0reserver?5@ 0000000140073c70     CombatData.obj
 0002:00005cb8       ??_C@_0BN@GPOAFCFK@call?5updatecombatgame?$CI?$CFu?0?$CFd?$CJ?$AA@ 0000000140073cb8     CombatData.obj
 0002:00005cd8       ??_C@_0DM@ICEILEAL@call?5addcombatrecord?$CI?$CFu?0?$CFd?0?$CC?$CFs?$CC?0@ 0000000140073cd8     CombatData.obj
 0002:00005d18       ??_C@_0BM@FJPOCLBN@call?5deletecombatrecord?$CI?$CFu?$CJ?$AA@ 0000000140073d18     CombatData.obj
 0002:00005d38       ??_C@_0BK@CJELJHDN@call?5loadcombatrecord?$CI?$CFu?$CJ?$AA@ 0000000140073d38     CombatData.obj
 0002:00005d58       ??_C@_0BK@IOGHOKNI@call?5deletecombatgame?$CI?$CFu?$CJ?$AA@ 0000000140073d58     CombatData.obj
 0002:00005d78       ??_C@_0BM@HCHCJELD@call?5loadcombatgameinfo?$CI?$CFu?$CJ?$AA@ 0000000140073d78     CombatData.obj
 0002:00005d98       ??_C@_0CA@LJKIDFCP@call?5loadbattlepowerrank?$CI?$CFd?0?$CFd?$CJ?$AA@ 0000000140073d98     CombatData.obj
 0002:00006240       ??_C@_0CL@MAEFOPEM@CLogicDBReqestHandler?3?3LoadActor@ 0000000140074240     CombatData.obj
 0002:00006270       ??_C@_0CP@KIIGAPMJ@CLogicDBReqestHandler?3?3LoadActor@ 0000000140074270     CombatData.obj
 0002:000062a0       ??_C@_0BI@EGDEIMJC@?$CFu?0?$CFd?0?$CFd?0?$CFd?0?$CFd?0?$CFd?0?$CFd?0?$CFd?$AA@ 00000001400742a0     CombatData.obj
 0002:000062b8       ??_C@_0CP@IKHPLNPO@CLogicDBReqestHandler?3?3SaveActor@ 00000001400742b8     CombatData.obj
 0002:000062e8       ??_C@_0CI@EIFJEIKB@CLogicDBReqestHandler?3?3LoadComba@ 00000001400742e8     CombatData.obj
 0002:00006310       ??_C@_0CM@LOIJPPMF@CLogicDBReqestHandler?3?3SaveComba@ 0000000140074310     CombatData.obj
 0002:00006340       ??_C@_0CO@PBOACBGE@CLogicDBReqestHandler?3?3UpdateAct@ 0000000140074340     CombatData.obj
 0002:00006370       ??_C@_0DA@IGOJLGCJ@CLogicDBReqestHandler?3?3LoadPerio@ 0000000140074370     CombatData.obj
 0002:000063a0       ??_C@_0M@KEFGMNPE@?$CFu?0?$CFd?0?$CFd?0?$CFd?$AA@ 00000001400743a0     CombatData.obj
 0002:000063b0       ??_C@_0CO@FAGKOLFC@CLogicDBReqestHandler?3?3SavePerio@ 00000001400743b0     CombatData.obj
 0002:000063e0       ??_C@_0CH@MLCIOMOB@CLogicDBReqestHandler?3?3LoadCards@ 00000001400743e0     CombatData.obj
 0002:00006408       ??_C@_0CK@HFPGBICJ@CLogicDBReqestHandler?3?3LoadCardI@ 0000000140074408     CombatData.obj
 0002:00006438       ??_C@_0DA@HIBONHHN@?$CFu?0?$CFd?0?$CFd?0?$CFd?0?$CFd?0?$CFd?0?$CFd?0?$CFd?0?$CFd?0?$CFd?0?$CFd@ 0000000140074438     CombatData.obj
 0002:00006468       ??_C@_0CH@JAHPOCBJ@CLogicDBReqestHandler?3?3SaveCards@ 0000000140074468     CombatData.obj
 0002:00006490       ??_C@_08NDBNJPIH@?$CFu?0?$CFd?0?$CFd?$AA@ 0000000140074490     CombatData.obj
 0002:000064a0       ??_C@_0CK@KFKNNDMD@CLogicDBReqestHandler?3?3SaveCardI@ 00000001400744a0     CombatData.obj
 0002:000064d0       ??_C@_0CM@JNHBCKOD@CLogicDBReqestHandler?3?3LoadTalen@ 00000001400744d0     CombatData.obj
 0002:00006500       ??_C@_0BC@EJKMPOGJ@?$CFu?0?$CFd?0?$CFd?0?$CFd?0?$CFd?0?$CFd?$AA@ 0000000140074500     CombatData.obj
 0002:00006518       ??_C@_0CK@ELHFEBAN@CLogicDBReqestHandler?3?3SaveTalen@ 0000000140074518     CombatData.obj
 0002:00006548       ??_C@_0CK@HCNPHEDM@CLogicDBReqestHandler?3?3LoadArtif@ 0000000140074548     CombatData.obj
 0002:00006578       ??_C@_0CI@NHMNEKAN@CLogicDBReqestHandler?3?3SaveArtif@ 0000000140074578     CombatData.obj
 0002:000065a0       ??_C@_0CG@GKIBCJLI@CLogicDBReqestHandler?3?3LoadRuneF@ 00000001400745a0     CombatData.obj
 0002:000065c8       ??_C@_0CE@POPJPKM@CLogicDBReqestHandler?3?3SaveRuneT@ 00000001400745c8     CombatData.obj
 0002:000065f0       ??_C@_0DC@DCLIHEDH@CLogicDBReqestHandler?3?3LoadArtif@ 00000001400745f0     CombatData.obj
 0002:00006628       ??_C@_0P@JLGCLMEE@?$CFu?0?$CFd?0?$CFd?0?$CFd?0?$CFd?$AA@ 0000000140074628     CombatData.obj
 0002:00006638       ??_C@_0DA@GKKHNOKH@CLogicDBReqestHandler?3?3SaveArtif@ 0000000140074638     CombatData.obj
 0002:00006668       ??_C@_0CL@CAIFHGNE@CLogicDBReqestHandler?3?3LoadBeast@ 0000000140074668     CombatData.obj
 0002:00006698       ??_C@_0CL@GAIKCGHJ@CLogicDBReqestHandler?3?3SaveBeast@ 0000000140074698     CombatData.obj
 0002:000066c8       ??_C@_0CJ@DLIMJEEG@CLogicDBReqestHandler?3?3LoadMelti@ 00000001400746c8     CombatData.obj
 0002:000066f8       ??_C@_0CH@CNMBEBLE@CLogicDBReqestHandler?3?3SaveMelti@ 00000001400746f8     CombatData.obj
 0002:00006720       ??_C@_0CI@DFHJGBAF@CLogicDBReqestHandler?3?3LoadGodAr@ 0000000140074720     CombatData.obj
 0002:00006748       ??_C@_0CG@DGEKCDIO@CLogicDBReqestHandler?3?3SaveGodAr@ 0000000140074748     CombatData.obj
 0002:00006770       ??_C@_0CK@FMMJAPIJ@CLogicDBReqestHandler?3?3LoadWordr@ 0000000140074770     CombatData.obj
 0002:000067a0       ??_C@_0CE@LPNKMHNJ@?$CFu?0?$CFd?0?$CFd?0?$CFu?0?$CFu?0?$CFu?0?$CFu?0?$CFu?0?$CFu?0?$CFu?0?$CFu@ 00000001400747a0     CombatData.obj
 0002:000067c8       ??_C@_0CI@MGIIEFCO@CLogicDBReqestHandler?3?3SaveWordr@ 00000001400747c8     CombatData.obj
 0002:000067f0       ??_C@_0DE@PIFJMELK@CLogicDBReqestHandler?3?3LoadTopBa@ 00000001400747f0     CombatData.obj
 0002:00006830       ??_C@_0OD@NCFAPGJP@insert?5into?5actorconsignment?$CIact@ 0000000140074830     ConsignmentData.obj
 0002:00006918       ??_C@_0CA@DOFOKDOA@call?5deleteconsignment?$CI?$CFlld?0?$CFd?$CJ?$AA@ 0000000140074918     ConsignmentData.obj
 0002:00006938       ??_C@_0BP@OKEDKJDN@call?5loadconsignmentext?$CI?$CFu?0?$CFd?$CJ?$AA@ 0000000140074938     ConsignmentData.obj
 0002:000069a8       ??_C@_09IDPPAAAB@?0?$CFu?0?$CFd?0?$CFd?$AA@ 00000001400749a8     ConsignmentData.obj
 0002:000069b8       ??_C@_0BC@CCPIJJMD@?$CFd?0?5?$CFd?0?5?$CFd?0?5?$CFd?0?$CFd?$AA@ 00000001400749b8     ConsignmentData.obj
 0002:000069d0       ??_C@_07EBOJJEF@?$CFd?0?5?$CFd?0?$AA@ 00000001400749d0     ConsignmentData.obj
 0002:000069d8       ??_C@_08FMENACB@?5?$CFd?0?5?$CFd?0?$AA@ 00000001400749d8     ConsignmentData.obj
 0002:000069e8       ??_C@_0O@PDDLJBLF@?$CFu?0?5?$CFd?0?$CFlld?0?5?$AA@ 00000001400749e8     ConsignmentData.obj
 0002:000069f8       ??_C@_0CL@KKFPCEIA@CLogicDBReqestHandler?3?3SaveConsi@ 00000001400749f8     ConsignmentData.obj
 0002:00006a28       ??_C@_0CL@OKFAHECN@CLogicDBReqestHandler?3?3LoadConsi@ 0000000140074a28     ConsignmentData.obj
 0002:00006a58       ??_C@_0BJ@CNKMBBDG@call?5loaddiamonddata?$CI?$CFu?$CJ?$AA@ 0000000140074a58     DiamondData.obj
 0002:00006a80       ??_C@_0FD@BCJEIHLI@insert?5into?5diamond?$CIactorid?0type@ 0000000140074a80     DiamondData.obj
 0002:00006ad8       ??_C@_0BL@PCOELODD@call?5deletediamonddata?$CI?$CFu?$CJ?$AA@ 0000000140074ad8     DiamondData.obj
 0002:00006b48       ??_C@_0CD@MLJBIAIP@?$CFs?$LB?$KD?$LE?f?M?f?$LM?R?$LF?D?$LB?$KG?J?$KP?J?$PN?$LO?$NN?J?$KH?$LA?$NMactorid?$DN@ 0000000140074b48     DiamondData.obj
 0002:00006b70       ??_C@_0BL@LOBBKHAL@?$CFu?0?5?$CFd?0?5?$CFd?0?5?$CFd?0?5?$CFd?0?5?$CFd?0?5?$CFd?$AA@ 0000000140074b70     DiamondData.obj
 0002:00006b90       ??_C@_0CH@IAGNLLLD@CLogicDBReqestHandler?3?3SaveDiamo@ 0000000140074b90     DiamondData.obj
 0002:00006bb8       ??_C@_0CD@DIEFLDAI@?$CFs?W?$LA?T?X?M?f?$LM?R?$LF?D?$LB?$KG?J?$KP?J?$PN?$LO?$NN?J?$KH?$LA?$NMactorid?$DN@ 0000000140074bb8     DiamondData.obj
 0002:00006be0       ??_C@_0CI@MNPLBGIB@CLogicDBReqestHandler?3?3QueryDiam@ 0000000140074be0     DiamondData.obj
 0002:00006c08       ??_C@_0CE@ICFCHOFN@call?5deleteactormoney?$CI?$CC?$CFs?$CC?0?5?$CFd?0?5@ 0000000140074c08     FriendData.obj
 0002:00006c30       ??_C@_0CA@OPAGOEL@call?5deleteitembyguid?$CI?$CFd?0?5?$CFlld?$CJ?$AA@ 0000000140074c30     FriendData.obj
 0002:00006c50       ??_C@_0CL@MFIBCJOF@delete?5from?5filternames?5where?5na@ 0000000140074c50     FriendData.obj
 0002:00006c80       ??_C@_0CO@PIMGCIAJ@insert?5into?5filternames?$CInamestr?$CJ@ 0000000140074c80     FriendData.obj
 0002:00006cb0       ??_C@_0CN@PECGEIAA@select?5?$CK?5from?5filternames?5where?5@ 0000000140074cb0     FriendData.obj
 0002:00006ce0       ??_C@_0CF@BLJNPMJE@call?5loadwholeactivitydata?$CI?$CFd?0?$CFd@ 0000000140074ce0     FriendData.obj
 0002:00006d10       ??_C@_0II@PHNNPIJI@select?5actorid?0actorname?0job?0bat@ 0000000140074d10     FriendData.obj
 0002:00006da0       ??_C@_0LN@BOMLFEF@select?5actorid?0actorname?0job?0cir@ 0000000140074da0     FriendData.obj
 0002:00006e60       ??_C@_0MH@GMCDAOEP@select?5actorid?0actorname?0diamond@ 0000000140074e60     FriendData.obj
 0002:00006f30       ??_C@_0BCG@CHHIOHAA@select?5actors?4actorid?0actors?4act@ 0000000140074f30     FriendData.obj
 0002:00007060       ??_C@_0JI@LNHPDCHK@select?5actorid?0actorname?0nridele@ 0000000140075060     FriendData.obj
 0002:00007100       ??_C@_0LG@MEIIBHJD@select?5actorid?0actorname?0battlep@ 0000000140075100     FriendData.obj
 0002:000071c0       ??_C@_0JC@CCJDIJNE@select?5actorid?0actorname?0job?0bat@ 00000001400751c0     FriendData.obj
 0002:00007260       ??_C@_0IP@JGICOKNB@select?5actorid?0actorname?0consume@ 0000000140075260     FriendData.obj
 0002:000072f0       ??_C@_0KG@BNBALHHM@select?5actorid?0actorname?0job?0cir@ 00000001400752f0     FriendData.obj
 0002:00007398       ??_C@_0DF@KBBCHCPE@select?5count?$CI?$CK?$CJ?5from?5friendchatm@ 0000000140075398     FriendData.obj
 0002:000073d0       ??_C@_0CM@DDEFEPKC@delete?5from?5friendchatmsg?5where?5@ 00000001400753d0     FriendData.obj
 0002:00007400       ??_C@_0BL@PKDFCOGC@call?5loadfriendcharmsg?$CI?$CFu?$CJ?$AA@ 0000000140075400     FriendData.obj
 0002:00007420       ??_C@_0FC@HDICLLFC@insert?5into?5friendchatmsg?$CInactor@ 0000000140075420     FriendData.obj
 0002:00007480       ??_C@_0FK@PDIFEPCP@update?5friends?5set?5ntype?$DN?$CFd?0nint@ 0000000140075480     FriendData.obj
 0002:000074e0       ??_C@_0EI@GDDIPND@insert?5into?5friends?$CInactorid?0fri@ 00000001400754e0     FriendData.obj
 0002:00007528       ??_C@_0BH@FODNMKAO@call?5deletefriends?$CI?$CFu?$CJ?$AA@ 0000000140075528     FriendData.obj
 0002:00007540       ??_C@_0BJ@OFLIEOMF@call?5loadfriendsdata?$CI?$CFu?$CJ?$AA@ 0000000140075540     FriendData.obj
 0002:00007830       ??_C@_0CM@KHDBCNED@CLogicDBReqestHandler?3?3LoadActor@ 0000000140075830     FriendData.obj
 0002:00007860       ??_C@_0BB@LKLLCFJD@?$CFu?0?$CFu?0?$CFd?0?$CFd?0?$CFlld?$AA@ 0000000140075860     FriendData.obj
 0002:00007878       ??_C@_0CM@PBGPNEG@CLogicDBReqestHandler?3?3SaveActor@ 0000000140075878     FriendData.obj
 0002:000078a8       ??_C@_0CN@LFJHMIMP@CLogicDBReqestHandler?3?3DeleteAct@ 00000001400758a8     FriendData.obj
 0002:000078d8       ??_C@_0CI@CKJFOAID@CLogicDBReqestHandler?3?3AddFriend@ 00000001400758d8     FriendData.obj
 0002:00007900       ??_C@_0CN@JIEHNEAM@CLogicDBReqestHandler?3?3LoadFrien@ 0000000140075900     FriendData.obj
 0002:00007930       ??_C@_0CN@EBJJOEAD@CLogicDBReqestHandler?3?3LoadTopLe@ 0000000140075930     FriendData.obj
 0002:00007960       ??_C@_0DB@JDOHDPLJ@CLogicDBReqestHandler?3?3LoadCombi@ 0000000140075960     FriendData.obj
 0002:00007998       ??_C@_0DC@NIHFMMEK@CLogicDBReqestHandler?3?3LoadCombi@ 0000000140075998     FriendData.obj
 0002:000079d0       ??_C@_0CM@CMONGDL@CLogicDBReqestHandler?3?3LoadActor@ 00000001400759d0     FriendData.obj
 0002:00007a00       ??_C@_0CM@NGDGBMNK@CLogicDBReqestHandler?3?3LoadActor@ 0000000140075a00     FriendData.obj
 0002:00007a30       ??_C@_0CP@GGJOIL@CLogicDBReqestHandler?3?3LoadActor@ 0000000140075a30     FriendData.obj
 0002:00007a60       ??_C@_0CN@FFCJKCFF@CLogicDBReqestHandler?3?3LoadActor@ 0000000140075a60     FriendData.obj
 0002:00007a90       ??_C@_0DC@DIMNPOMA@CLogicDBReqestHandler?3?3LoadActor@ 0000000140075a90     FriendData.obj
 0002:00007ac8       ??_C@_0DA@HKHHFHBA@CLogicDBReqestHandler?3?3LoadActor@ 0000000140075ac8     FriendData.obj
 0002:00007af8       ??_C@_0CL@ONDFAKMG@CLogicDBReqestHandler?3?3LoadAllAc@ 0000000140075af8     FriendData.obj
 0002:00007b28       ??_C@_0CL@GEPBJOJF@CLogicDBReqestHandler?3?3AddFilter@ 0000000140075b28     FriendData.obj
 0002:00007b58       ??_C@_0CG@LKHFIKEK@CLogicDBReqestHandler?3?3BackRemov@ 0000000140075b58     FriendData.obj
 0002:00007b80       ??_C@_0CH@DNPNCNIH@CLogicDBReqestHandler?3?3BackRemov@ 0000000140075b80     FriendData.obj
 0002:00007ba8       ??_C@_0BN@DNDMDEPM@call?5clearactor?$CI?$CFd?0?$CFd?0?$CFd?0?$CFd?$CJ?$AA@ 0000000140075ba8     GameSetData.obj
 0002:00007bd0       ??_C@_0EL@FFIFAMJA@call?5updategamesetdata?$CI?$CFu?0?$CFd?0?$CFd?0@ 0000000140075bd0     GameSetData.obj
 0002:00007c20       ??_C@_0EJ@OMHGOAJ@call?5savegamesetdata?$CI?$CFu?0?$CFd?0?$CFd?0?$CFd@ 0000000140075c20     GameSetData.obj
 0002:00007c70       ??_C@_0BJ@LGIGINNC@call?5loadgamesetdata?$CI?$CFu?$CJ?$AA@ 0000000140075c70     GameSetData.obj
 0002:00007d08       ??_C@_0CM@KHNBBODM@CLogicDBReqestHandler?3?3LoadActor@ 0000000140075d08     GameSetData.obj
 0002:00007d38       ??_C@_0CM@PPGMODJ@CLogicDBReqestHandler?3?3SaveActor@ 0000000140075d38     GameSetData.obj
 0002:00007d68       ??_C@_0CC@BPAHDHJM@CLogicDBReqestHandler?3?3ClearActo@ 0000000140075d68     GameSetData.obj
 0002:00007d90       ??_C@_0CI@PJBCDDMG@call?5updatecamprankdata?$CI?$CFd?0?5?$CFd?0?5@ 0000000140075d90     GemItemData.obj
 0002:00007db8       ??_C@_0BK@EOBBCBAD@call?5cleancamptoprank?$CI?$CFd?$CJ?$AA@ 0000000140075db8     GemItemData.obj
 0002:00007dd8       ??_C@_0BJ@HOEALJNK@call?5cleargemtoprank?$CI?$CFd?$CJ?$AA@ 0000000140075dd8     GemItemData.obj
 0002:00007df8       ??_C@_0DH@EANJDDLO@call?5updategemrankdata?$CI?$CFd?0?5?$CFu?0?5?$CF@ 0000000140075df8     GemItemData.obj
 0002:00007e30       ??_C@_0BJ@PNMNKPDG@call?5loadgemrankdata?$CI?$CFd?$CJ?$AA@ 0000000140075e30     GemItemData.obj
 0002:00007e50       ??_C@_0BJ@MNDPKGJB@call?5loadgemsuitdata?$CI?$CFu?$CJ?$AA@ 0000000140075e50     GemItemData.obj
 0002:00007e70       ??_C@_0MH@PPLBICMA@insert?5into?5gemsuit?$CIactorid?0?5sui@ 0000000140075e70     GemItemData.obj
 0002:00007f38       ??_C@_0BG@FKKNEPMM@call?5cleangemsuit?$CI?$CFu?$CJ?$AA@ 0000000140075f38     GemItemData.obj
 0002:00007f50       ??_C@_0NG@HJLKNFNL@insert?5into?5actorgemitem?$CIactorid@ 0000000140075f50     GemItemData.obj
 0002:00008028       ??_C@_0BH@GEKCJBPM@call?5cleangemitems?$CI?$CFu?$CJ?$AA@ 0000000140076028     GemItemData.obj
 0002:00008040       ??_C@_0BI@DBCIEIEG@call?5loadequipedgem?$CI?$CFu?$CJ?$AA@ 0000000140076040     GemItemData.obj
 0002:00008058       ??_C@_0BJ@JGDBCOH@call?5loadgemitemdata?$CI?$CFu?$CJ?$AA@ 0000000140076058     GemItemData.obj
 0002:000081b8       ??_C@_0CM@BKLNAFEG@CLogicDBReqestHandler?3?3SaveActor@ 00000001400761b8     GemItemData.obj
 0002:000081f0       ??_C@_0FN@EKOODHME@?$CI?$CFu?0?5?$CFlld?0?5?$CFd?0?5?$CFd?0?5?$CFlld?0?5?$CFd?0?5?$CFd?0@ 00000001400761f0     GemItemData.obj
 0002:00008250       ??_C@_0CM@MIAPEBA@CLogicDBReqestHandler?3?3SaveActor@ 0000000140076250     GemItemData.obj
 0002:00008280       ??_C@_0CI@LPBHBJNM@CLogicDBReqestHandler?3?3QueryGemR@ 0000000140076280     GemItemData.obj
 0002:000082a8       ??_C@_0CI@KNOEIGJE@CLogicDBReqestHandler?3?3SaveCampR@ 00000001400762a8     GemItemData.obj
 0002:000082d0       ??_C@_0CH@PCIBLEOO@CLogicDBReqestHandler?3?3SaveGemRa@ 00000001400762d0     GemItemData.obj
 0002:000082f8       ??_C@_0CL@HDPKPAJJ@CLogicDBReqestHandler?3?3QueryEqui@ 00000001400762f8     GemItemData.obj
 0002:00008328       ??_C@_0CN@NECJCLCE@CLogicDBReqestHandler?3?3QueryActo@ 0000000140076328     GemItemData.obj
 0002:00008358       ??_C@_0CN@MCBENKHC@CLogicDBReqestHandler?3?3QueryActo@ 0000000140076358     GemItemData.obj
 0002:000083d8       ??_C@_0CO@ILJHICK@CLogicDBReqestHandler?3?3LoadActor@ 00000001400763d8     GodWealthData.obj
 0002:00008408       ??_C@_0CO@PDBNPGJM@CLogicDBReqestHandler?3?3SaveActor@ 0000000140076408     GodWealthData.obj
 0002:00008438       ??_C@_0BK@HONJJOPC@call?5deleteuseritem?$CI?$CFlld?$CJ?$AA@ 0000000140076438     ItemData.obj
 0002:00008458       ??_C@_0CA@MPGFKPPM@call?5getuseritem?$CI?$CFu?0?$CFu?0?$CFlld?0?$CFd?$CJ?$AA@ 0000000140076458     ItemData.obj
 0002:00008478       ??_C@_0BM@EDHNCDJD@call?5loaduseritem?$CI?$CFu?0?$CFu?0?$CFd?$CJ?$AA@ 0000000140076478     ItemData.obj
 0002:000084a0       ??_C@_0LK@EGKFDPOL@insert?5into?5?$CFs?$CIactorid?0itemguid?0@ 00000001400764a0     ItemData.obj
 0002:00008560       ??_C@_0BL@LMFOHGHH@call?5cleancharitems?$CI?$CFu?0?$CFd?$CJ?$AA@ 0000000140076560     ItemData.obj
 0002:00008580       ??_C@_0BK@HAOIFIBE@call?5loadcharitems?$CI?$CFu?0?$CFd?$CJ?$AA@ 0000000140076580     ItemData.obj
 0002:00008668       ??_C@_0BC@NJFLKMFH@?$CFd?0?$CFd?0?$CFd?0?$CFd?0?$CFd?0?$CFd?$AA@ 0000000140076668     ItemData.obj
 0002:00008680       ??_C@_0P@GOMBDPCJ@actormagicitem?$AA@ 0000000140076680     ItemData.obj
 0002:00008690       ??_C@_0O@BOPMLMBA@actordmkjitem?$AA@ 0000000140076690     ItemData.obj
 0002:000086a0       ??_C@_0N@MHDNBCFC@actorpetitem?$AA@ 00000001400766a0     ItemData.obj
 0002:000086b0       ??_C@_0P@MEEFHKME@actordepotitem?$AA@ 00000001400766b0     ItemData.obj
 0002:000086c0       ??_C@_0BB@BDPALILE@actorconsignment?$AA@ 00000001400766c0     ItemData.obj
 0002:000086d8       ??_C@_0P@GKAKHLMP@actorequipitem?$AA@ 00000001400766d8     ItemData.obj
 0002:000086e8       ??_C@_0N@IIKOHACC@actorbagitem?$AA@ 00000001400766e8     ItemData.obj
 0002:000086f8       ??_C@_0CB@GELCMMEB@CLogicDBReqestHandler?3?3SaveItems@ 00000001400766f8     ItemData.obj
 0002:00008720       ??_C@_0CN@JFBALBCM@?$CFs?W?$LA?T?X?M?f?$LM?R?$LF?Ditem?J?$PN?$LO?$NN?J?$KH?$LA?$NM?$CFd?0nItem@ 0000000140076720     ItemData.obj
 0002:00008750       ??_C@_0N@JNHDOBON@OfflineEquip?$AA@ 0000000140076750     ItemData.obj
 0002:00008760       ??_C@_0CC@OLMJOKM@CLogicDBReqestHandler?3?3QueryItem@ 0000000140076760     ItemData.obj
 0002:00008788       ??_C@_0CK@NKKPHNDI@CLogicDBReqestHandler?3?3LoadUserA@ 0000000140076788     ItemData.obj
 0002:000087b8       ??_C@_0CJ@JBHNEGIE@CLogicDBReqestHandler?3?3GetUserAc@ 00000001400767b8     ItemData.obj
 0002:000087e8       ??_C@_0CM@IANOMAAH@CLogicDBReqestHandler?3?3RemoveUse@ 00000001400767e8     ItemData.obj
 0002:00008820       ??_C@_0FB@FOAHNDFE@insert?5into?5petskills?$CIactorid?0pe@ 0000000140076820     PetData.obj
 0002:00008878       ??_C@_0BI@HDGBHPPI@call?5cleanpetskills?$CI?$CFu?$CJ?$AA@ 0000000140076878     PetData.obj
 0002:00008890       ??_C@_0BH@GAPLGLGB@call?5loadpetskills?$CI?$CFu?$CJ?$AA@ 0000000140076890     PetData.obj
 0002:000088a8       ??_C@_0BH@POJKICA@call?5loadactorpets?$CI?$CFu?$CJ?$AA@ 00000001400768a8     PetData.obj
 0002:000088c0       ??_C@_0IO@OBPJHPDC@insert?5into?5actorpets?$CIactorid?0ex@ 00000001400768c0     PetData.obj
 0002:00008950       ??_C@_0BI@BMHDLMLJ@call?5cleanactorpets?$CI?$CFu?$CJ?$AA@ 0000000140076950     PetData.obj
 0002:00008a08       ??_C@_0BL@PCMIABLJ@?$CFs?W?$LA?T?X?M?f?$LM?R?$LF?D?S?$KC?P?$NL?J?$PN?$LO?$NN?J?$KH?$LA?$NM?$CFd?$AA@ 0000000140076a08     PetData.obj
 0002:00008a28       ??_C@_0CE@GGANGHFF@CLogicDBReqestHandler?3?3QueryPetD@ 0000000140076a28     PetData.obj
 0002:00008a50       ??_C@_0BP@DOCCEIFA@save?5pet?5data?5error?0actorid?$DN?$CFu?$AA@ 0000000140076a50     PetData.obj
 0002:00008a70       ??_C@_0DG@OEGAMLKF@?$CFlld?0?$CFlld?0?$CFd?0?$CFd?0?$CC?$CFs?$CC?0?$CFd?0?$CFd?0?$CFd?0?$CFd@ 0000000140076a70     PetData.obj
 0002:00008aa8       ??_C@_0BL@BEMDOOO@clean?5pet?5error?0actorID?$DN?$CFu?$AA@ 0000000140076aa8     PetData.obj
 0002:00008ac8       ??_C@_0CD@BCEFMCGC@CLogicDBReqestHandler?3?3SavePetTo@ 0000000140076ac8     PetData.obj
 0002:00008af0       ??_C@_0BP@OJHGPPON@?$CFs?W?$LA?T?X?M?f?$LM?R?$LF?D?$LD?h?N?o?$LM?$LM?D?$NM?J?$PN?$LO?$NN?J?$KH?$LA?$NM?$CFd?$AA@ 0000000140076af0     PetData.obj
 0002:00008b10       ??_C@_0CJ@MFIJLOOC@CLogicDBReqestHandler?3?3QueryPetS@ 0000000140076b10     PetData.obj
 0002:00008b40       ??_C@_0BL@FCJFBNPO@clean?5pet?5error?0actorID?$DN?$CFd?$AA@ 0000000140076b40     PetData.obj
 0002:00008b60       ??_C@_0BE@EJCIJKFF@?$CFlld?0?$CFd?0?$CFd?0?$CFd?0?$CFd?0?$CFd?$AA@ 0000000140076b60     PetData.obj
 0002:00008b78       ??_C@_0CI@NBDHJMP@CLogicDBReqestHandler?3?3SavePetSk@ 0000000140076b78     PetData.obj
 0002:00008ba0       ??_C@_0CE@MICBIHEC@call?5addcharnewfinishrole?$CI?$CFu?0?$CFd?0@ 0000000140076ba0     QuestData.obj
 0002:00008bc8       ??_C@_0BO@GGNEINIC@call?5cleancharfinishroles?$CI?$CFu?$CJ?$AA@ 0000000140076bc8     QuestData.obj
 0002:00008be8       ??_C@_0CF@FAJKDOFB@call?5addcharnewroleitem?$CI?$CFu?0?$CFd?0?$CFd@ 0000000140076be8     QuestData.obj
 0002:00008c10       ??_C@_0BM@ENLFMFDG@call?5cleancharroleitems?$CI?$CFu?$CJ?$AA@ 0000000140076c10     QuestData.obj
 0002:00008c30       ??_C@_0BN@FEAOHKC@call?5loadcharfinishroles?$CI?$CFu?$CJ?$AA@ 0000000140076c30     QuestData.obj
 0002:00008c50       ??_C@_0BL@JJMCEDPK@call?5loadcharroleitems?$CI?$CFu?$CJ?$AA@ 0000000140076c50     QuestData.obj
 0002:00008d60       ??_C@_0CP@BOGOBFFL@save?5quest?5data?5error?$CBid?$DN?$CFd?0task@ 0000000140076d60     QuestData.obj
 0002:00008d90       ??_C@_0CG@PKNGAIO@CLogicDBReqestHandler?3?3SaveGoing@ 0000000140076d90     QuestData.obj
 0002:00008db8       ??_C@_0BL@ODHNLHGP@CleanQuestData?5error?$CBid?$DN?$CFd?$AA@ 0000000140076db8     QuestData.obj
 0002:00008dd8       ??_C@_0CG@IPKCAKLD@CLogicDBReqestHandler?3?3CleanQues@ 0000000140076dd8     QuestData.obj
 0002:00008e00       ??_C@_0CP@PDOJOIIM@save?5quest?5data?5error?$CBid?$DN?$CFd?0task@ 0000000140076e00     QuestData.obj
 0002:00008e30       ??_C@_0CH@LJKMJIPK@CLogicDBReqestHandler?3?3SaveRepea@ 0000000140076e30     QuestData.obj
 0002:00008e58       ??_C@_0CI@POEMGLKE@CLogicDBReqestHandler?3?3QueryQues@ 0000000140076e58     QuestData.obj
 0002:00008e80       ??_C@_0CG@LJIFPEOB@CLogicDBReqestHandler?3?3GetRepeat@ 0000000140076e80     QuestData.obj
 0002:00008ea8       ??_C@_0CF@DFNNLNLG@CLogicDBReqestHandler?3?3SaveQuest@ 0000000140076ea8     QuestData.obj
 0002:00008ed0       ??_C@_0BH@GAKLAOCC@call?5cleanrelation?$CI?$CFu?$CJ?$AA@ 0000000140076ed0     RelationData.obj
 0002:00008ef0       ??_C@_0EI@OCDIJIC@insert?5into?5actorrelation?$CIactori@ 0000000140076ef0     RelationData.obj
 0002:00008f38       ??_C@_0BG@JGCHMBDK@call?5loadrelation?$CI?$CFu?$CJ?$AA@ 0000000140076f38     RelationData.obj
 0002:00008fa0       ??_C@_0CJ@NCLPEKBE@CLogicDBReqestHandler?3?3QueryRela@ 0000000140076fa0     RelationData.obj
 0002:00008fd0       ??_C@_0BP@HCMDDBLO@save?5relation?5data?5error?3id?$DN?$CFd?$AA@ 0000000140076fd0     RelationData.obj
 0002:00008ff0       ??_C@_0O@EJHNAHBL@?$CI?$CFd?0?$CFd?0?$CFd?0?$CFd?$CJ?$AA@ 0000000140076ff0     RelationData.obj
 0002:00009000       ??_C@_0CE@DFNGLGN@CLogicDBReqestHandler?3?3SaveRelat@ 0000000140077000     RelationData.obj
 0002:00009028       ??_C@_0DE@IJHHIPBG@select?5variable?5from?5actorvariab@ 0000000140077028     ScriptData.obj
 0002:00009060       ??_C@_0CF@BLKBFDPI@update?5actorvariable?5set?5?$GAvariab@ 0000000140077060     ScriptData.obj
 0002:000090d8       ??_C@_0CM@HLDANPIO@CLogicDBReqestHandler?3?3QueryActo@ 00000001400770d8     ScriptData.obj
 0002:00009108       ??_C@_0CK@BDPFKGDO@CLogicDBReqestHandler?3?3SaveScrip@ 0000000140077108     ScriptData.obj
 0002:00009140       ??_C@_0EP@OKNEDOFL@insert?5into?5skill?$CIactorid?0skilli@ 0000000140077140     SkillData.obj
 0002:00009190       ??_C@_0BJ@NMIIOAFJ@call?5cleancharskills?$CI?$CFu?$CJ?$AA@ 0000000140077190     SkillData.obj
 0002:000091b0       ??_C@_0BI@FFEIFBKN@call?5loadcharskills?$CI?$CFu?$CJ?$AA@ 00000001400771b0     SkillData.obj
 0002:00009218       ??_C@_0BL@EJHBMLOI@?$CFs?W?$LA?T?X?M?f?$LM?R?$LF?D?$LM?$LM?D?$NM?J?$PN?$LO?$NN?J?$KH?$LA?$NM?$CFd?$AA@ 0000000140077218     SkillData.obj
 0002:00009238       ??_C@_08HIGNFBGK@?$CFs?5error?$AA@ 0000000140077238     SkillData.obj
 0002:00009248       ??_C@_0CI@CIOMFNEG@CLogicDBReqestHandler?3?3QuerySkil@ 0000000140077248     SkillData.obj
 0002:00009270       ??_C@_0BN@EPLOLEHG@clean?5skill?5error?0actorID?$DN?$CFd?$AA@ 0000000140077270     SkillData.obj
 0002:00009290       ??_C@_0CF@HMJGINPG@CLogicDBReqestHandler?3?3SaveSkill@ 0000000140077290     SkillData.obj
 0002:000092b8       ??_C@_0BA@LJDFIABP@call?5initdb?$CI?$CFd?$CJ?$AA@ 00000001400772b8     LogicDBRequestHandler.obj
 0002:000092c8       ??_C@_0DM@PFBJDOLG@update?5maillist?5set?5mailstate?5?$DN?5@ 00000001400772c8     LogicDBRequestHandler.obj
 0002:00009310       ??_C@_0LM@DNCHIBMO@insert?5into?5maillist?5?$CImailid?0act@ 0000000140077310     LogicDBRequestHandler.obj
 0002:000093d0       ??_C@_0DD@DCGEJKGH@select?5actorid?5from?5actors?5where@ 00000001400773d0     LogicDBRequestHandler.obj
 0002:00009408       ??_C@_0CK@MJGCFBHM@select?5?$CK?5from?5maillist?5where?5act@ 0000000140077408     LogicDBRequestHandler.obj
 0002:00009438       ??_C@_0CG@KMHFCGDF@call?5updateDevelopSystem?$CI?$CFd?0?$CFd?0?$CF@ 0000000140077438     LogicDBRequestHandler.obj
 0002:00009460       ??_C@_0DE@KOBJCNDB@select?5?$CK?5from?5actordevelopsystem@ 0000000140077460     LogicDBRequestHandler.obj
 0002:000095b0       ??_C@_0CD@MLLDKFHN@CLogicDBReqestHandler?3?3ExecuInit@ 00000001400775b0     LogicDBRequestHandler.obj
 0002:000095d8       ??_C@_0CH@BFHMOOKK@?9?9?9CLogicDBReqestHandler?5memory?5@ 00000001400775d8     LogicDBRequestHandler.obj
 0002:00009600       ??_C@_0CJ@KLKHCPBL@?9?9?9CLogicDBReqestHandler?5memory?5@ 0000000140077600     LogicDBRequestHandler.obj
 0002:00009630       ??_C@_0BO@LCMGDNC@No?5need?5change?0port?$DN?$CFd?0add?$DN?$CFs?$AA@ 0000000140077630     LogicDBRequestHandler.obj
 0002:00009650       ??_C@_0CO@FNKCNNEL@serverindex?$DN?$CFd?0dbcenter?$DN?$CFs?0port?$DN@ 0000000140077650     LogicDBRequestHandler.obj
 0002:00009680       ??_C@_0BI@LKKFPOHO@CDBCenterClient?5is?5NULL?$AA@ 0000000140077680     LogicDBRequestHandler.obj
 0002:00009698       ??_C@_0CO@MGGGPNAJ@CLogicDBReqestHandler?3?3LoadActor@ 0000000140077698     LogicDBRequestHandler.obj
 0002:000096c8       ??_C@_0CO@DNMCHDLP@CLogicDBReqestHandler?3?3SaveActor@ 00000001400776c8     LogicDBRequestHandler.obj
 0002:000096f8       ??_C@_0DC@EGKEMKCK@CLogicDBReqestHandler?3?3ReadLoadA@ 00000001400776f8     LogicDBRequestHandler.obj
 0002:00009730       ??_C@_0CF@CHLJEFDB@CLogicDBReqestHandler?3?3QueryMail@ 0000000140077730     LogicDBRequestHandler.obj
 0002:00009760       ??_C@_0EL@CACHCJLD@save?5actor?5mail?5error?$CBmailid?$DN?$CFll@ 0000000140077760     LogicDBRequestHandler.obj
 0002:000097b0       ??_C@_08OHNCIMGA@?$LB?$KD?$LE?f?S?J?$LM?$PO?$AA@ 00000001400777b0     LogicDBRequestHandler.obj
 0002:000097c0       ??_C@_0BH@HKHGNBPG@UpdateMailState?5Error?5?$AA@ 00000001400777c0     LogicDBRequestHandler.obj
 0002:000097d8       ??_C@_0BH@MOHKEEBD@?$LI?$PM?P?B?S?J?$LM?$PO?W?$LE?L?$KM?5?0?5?J?$PN?A?$LP?3?$CFd?$AA@ 00000001400777d8     LogicDBRequestHandler.obj
 0002:000097f0       ?szExceptionDumpFile@@3QBDB 00000001400777f0     main.obj
 0002:000098a0       ??_C@_01GFHCPBMG@C?$AA@    00000001400778a0     main.obj
 0002:000098a4       ??_C@_03LOJJKLGJ@?4?4?1?$AA@ 00000001400778a4     main.obj
 0002:000098a8       ??_C@_02CFKBDFGI@?1?2?$AA@ 00000001400778a8     main.obj
 0002:000098b0       ??_C@_0BI@CJLFCJOF@can?5not?5set?5locale?5path?$AA@ 00000001400778b0     main.obj
 0002:000098c8       ??_C@_0BH@GFPKONIH@?4?4?1DBServer_?$CFs?4log?4txt?$AA@ 00000001400778c8     main.obj
 0002:000098e0       ??_C@_09NPNLOFKB@DbService?$AA@ 00000001400778e0     main.obj
 0002:000098f8       ??_7CDbService@@6B@        00000001400778f8     main.obj
 0002:00009930       ??_C@_0BN@EPOLJOLI@?$LG?A?H?k?E?d?V?C?N?D?$LM?$PO?J?$KH?$LA?$NM?$KD?$KM?$LH?$PO?N?q?M?$KD?V?$LJ?$KD?$KB?$AA@ 0000000140077930     main.obj
 0002:00009950       ??_C@_0BF@IDHALNHJ@DBServer_?$CFs?4log?4html?$AA@ 0000000140077950     main.obj
 0002:00009968       ??_C@_0BD@IEMCODJ@Ctrl?9Close?5event?6?6?$AA@ 0000000140077968     main.obj
 0002:00009980       ??_C@_0BK@LOEFIOOE@DBServer?5Stop?5Success?4?4?4?6?$AA@ 0000000140077980     main.obj
 0002:000099a0       ??_C@_0BG@MKAEDGDB@DBServer?5start?5fail?5?6?$AA@ 00000001400779a0     main.obj
 0002:000099b8       ??_C@_09KBPAAOB@closetips?$AA@ 00000001400779b8     main.obj
 0002:000099c8       ??_C@_08MHJDIFDP@opentips?$AA@ 00000001400779c8     main.obj
 0002:000099d4       ??_C@_06HLKELJGF@memory?$AA@ 00000001400779d4     main.obj
 0002:000099e0       ??_C@_0L@CMDOGHBF@closetrace?$AA@ 00000001400779e0     main.obj
 0002:000099f0       ??_C@_09ENJIBEED@opentrace?$AA@ 00000001400779f0     main.obj
 0002:000099fc       ??_C@_03FMPGBDC@dmp?$AA@   00000001400779fc     main.obj
 0002:00009a00       ??_C@_03LPKJLGGC@asi?$AA@  0000000140077a00     main.obj
 0002:00009a04       ??_C@_03MAGHILOA@spf?$AA@  0000000140077a04     main.obj
 0002:00009a08       ??_C@_0BG@GNLMGMCC@?U?$PN?T?Z?M?$KD?V?$LJ?M?x?$LJ?X?$LJ?$NM?$MA?m?F?w?4?4?4?$AA@ 0000000140077a08     main.obj
 0002:00009a20       ??_C@_04KNNLNNGO@quit?$AA@ 0000000140077a20     main.obj
 0002:00009a28       ??_C@_04MKNBDEPB@exit?$AA@ 0000000140077a28     main.obj
 0002:00009a30       ??_C@_02FDDMLJIO@?2q?$AA@  0000000140077a30     main.obj
 0002:00009a38       ??_C@_0BJ@EOGPFGGD@?$LM?S?T?X?S?N?O?$LH?M?x?$LJ?X?B?$LH?S?I?J?$PN?$LO?$NN?J?$KH?$LA?$NM?$AA@ 0000000140077a38     main.obj
 0002:00009a58       ??_C@_0BL@KHBCMDND@?R?Q?$LM?S?T?X?$CFd?$LI?v?S?N?O?$LH?M?x?$LJ?X?B?$LH?S?I?J?$PN?$LO?$NN?$AA@ 0000000140077a58     main.obj
 0002:00009a74       ??_C@_03PPNKKOIJ@lgr?$AA@  0000000140077a74     main.obj
 0002:00009a78       ??_C@_0BL@BLHOFMDA@DBServer?5Start?5Success?4?4?4?6?$AA@ 0000000140077a78     main.obj
 0002:00009a98       ??_C@_0CD@KKMLNEMI@lgr?5?C?$PM?A?n?$LP?I?R?T?V?X?P?B?$LM?S?T?X?S?N?O?$LH?M?x?$LJ?X?B?$LH?S?I@ 0000000140077a98     main.obj
 0002:00009ac0       ??_C@_0BP@FBBPEINA@quit?C?$PM?A?n?$LP?I?R?T?M?$KD?V?$LJ?$LH?$PO?N?q?$LC?$KC?M?K?$LD?v?$LD?L?P?r?$AA@ 0000000140077ac0     main.obj
 0002:00009ae0       ??_C@_0BL@BMPNIHIA@?$LN?G?I?$KL?$LL?y?$LE?$KB?J?$PN?$LO?$NN?$LN?a?$LJ?$LJ?$LE?s?P?$KB?J?G?$KD?$LK?$CFd?$AA@ 0000000140077ae0     main.obj
 0002:00009b00       ??_C@_0CD@HBNIJEBC@?J?$PN?$LO?$NN?$LH?$PO?N?q?F?w?F?t?$LG?$KP?$LD?I?$LJ?$KG?$KD?$KM?$LK?K?P?D?$LA?f?$LB?$LO?$LK?E?J?G@ 0000000140077b00     main.obj
 0002:00009b28       ??_C@_0CM@JHDGHFGP@?9?9?9?9?9?9?9?9?9?9?9?9?9?9?9?9?9?9?9?9?9?9?9?9?9?9?9?9?9?9?9?9@ 0000000140077b28     main.obj
 0002:00009b54       ??_C@_02NMMKAJIM@?9V?$AA@  0000000140077b54     main.obj
 0002:00009b58       ??_C@_05IBLJJDII@xhwr?9?$AA@ 0000000140077b58     main.obj
 0002:00009bd8       ?npos@?$basic_string@DU?$char_traits@D@std@@V?$allocator@D@2@@std@@2_KB 0000000140077bd8     main.obj
 0002:00009be0       ??_C@_0BI@CFPLBAOH@invalid?5string?5position?$AA@ 0000000140077be0     main.obj
 0002:00009bf8       ??_C@_0BA@JFNIOLAK@string?5too?5long?$AA@ 0000000140077bf8     main.obj
 0002:00009c30       ??_C@_0CH@LFNHEJAB@call?5addcharmsgbyactorname?$CI?$CFd?0?$CC?$CF@ 0000000140077c30     MsgData.obj
 0002:00009c58       ??_C@_0BH@ICNIPOJB@call?5addcharmsg?$CI?$CFu?0?$CFd?0?$AA@ 0000000140077c58     MsgData.obj
 0002:00009c70       ??_C@_0BM@HMBBMODJ@call?5deletecharmsg?$CI?$CFu?0?$CFlld?$CJ?$AA@ 0000000140077c70     MsgData.obj
 0002:00009c90       ??_C@_0BO@CJGMJJLP@call?5loadcharmsglist?$CI?$CFu?0?$CFlld?$CJ?$AA@ 0000000140077c90     MsgData.obj
 0002:00009d50       ??_C@_0CJ@DNGMEECN@CLogicDBReqestHandler?3?3LoadMsgLi@ 0000000140077d50     MsgData.obj
 0002:00009d80       ??_C@_0CB@KJKDFOIA@CLogicDBReqestHandler?3?3DeleteMsg@ 0000000140077d80     MsgData.obj
 0002:00009da8       ??_C@_0BO@MMCPFJLA@CLogicDBReqestHandler?3?3AddMsg?$AA@ 0000000140077da8     MsgData.obj
 0002:00009dc8       ??_C@_0CE@IMEIOHAF@CLogicDBReqestHandler?3?3AddMsgByN@ 0000000140077dc8     MsgData.obj
 0002:00009df0       ??_C@_0BG@FNDIMLJG@call?5loadrank?$CI?$CFd?0?5?$CFd?$CJ?$AA@ 0000000140077df0     StdAfx.obj
 0002:00009e08       ??_C@_0BC@LGNNFAHN@call?5saverank?$CI?$CFd?$CJ?$AA@ 0000000140077e08     StdAfx.obj
 0002:00009e20       ??_C@_0ED@DCBBJKOH@insert?5into?5godwealthevent?$CInacto@ 0000000140077e20     StdAfx.obj
 0002:00009e68       ??_C@_0BO@DCMAAPFF@call?5deletegodwealthevent?$CI?$CFd?$CJ?$AA@ 0000000140077e68     StdAfx.obj
 0002:00009e88       ??_C@_0BL@LDDJOEC@call?5loadgodwealthdata?$CI?$CFd?$CJ?$AA@ 0000000140077e88     StdAfx.obj
 0002:00009ea8       ??_C@_0BL@GJMOCCNH@call?5deletegamesetdata?$CI?$CFu?$CJ?$AA@ 0000000140077ea8     StdAfx.obj
 0002:00009ed0       ??_C@_0JO@ICGBGJGM@insert?5into?5combatrecord?$CIactorid@ 0000000140077ed0     StdAfx.obj
 0002:00009f70       ??_C@_0CM@GCKCDIFI@insert?5into?5actorbrother?$CIid?0acto@ 0000000140077f70     StdAfx.obj
 0002:00009fa0       ??_C@_0CE@BEINHJIE@delete?5from?5charnotify?5where?5idx@ 0000000140077fa0     StdAfx.obj
 0002:00009fc8       ??_C@_0CB@HMCPLLHG@call?5addcharnotify?$CI?$CFd?0?$CC?$CFs?$CC?0?$CC?$CFs?$CC?$CJ@ 0000000140077fc8     StdAfx.obj
 0002:00009ff0       ??_C@_0BI@DEKBGGDG@call?5loadcharnotify?$CI?$CFd?$CJ?$AA@ 0000000140077ff0     StdAfx.obj
 0002:0000a008       ??_C@_0BM@NNCCCINM@call?5cleanchartalismans?$CI?$CFd?$CJ?$AA@ 0000000140078008     StdAfx.obj
 0002:0000a028       ??_C@_0CA@OKFNLPKB@call?5updatecharbinarydata?$CI?$CFlld?0?$AA@ 0000000140078028     StdAfx.obj
 0002:0000a048       ??_C@_0BL@JFFKOBA@call?5loadchartalismans?$CI?$CFd?$CJ?$AA@ 0000000140078048     StdAfx.obj
 0002:0000a068       ??_C@_0CF@HCIHMCFK@call?5loadcharquickitemdistribute@ 0000000140078068     StdAfx.obj
 0002:0000a090       ??_C@_0CA@MMCIFMAK@call?5updateguildskill?$CI?$CFd?0?$CFd?0?$CFd?$CJ?$AA@ 0000000140078090     StdAfx.obj
 0002:0000a0b0       ??_C@_0BO@ILANGGF@call?5delguildobject?$CI?$CFd?0?$CFd?0?$CFd?$CJ?$AA@ 00000001400780b0     StdAfx.obj
 0002:0000a0d0       ??_C@_0BO@NHBKCKJB@call?5addguildobject?$CI?$CFd?0?$CFd?0?$CFd?$CJ?$AA@ 00000001400780d0     StdAfx.obj
 0002:0000a0f0       ??_C@_0MF@HJEDGPK@select?5a?4objectid?0b?4charname?0c?4c@ 00000001400780f0     StdAfx.obj
 0002:0000a1c0       ??_C@_0MD@BGGLFILC@select?5a?4objectid?0b?4charname?0c?4c@ 00000001400781c0     StdAfx.obj
 0002:0000a290       ??_C@_0IM@CKLKCDMH@select?5a?4objectid?0b?4guildname?5fr@ 0000000140078290     StdAfx.obj
 0002:0000a320       ??_C@_0IM@PJCBDPDM@select?5a?4objectid?0b?4guildname?5fr@ 0000000140078320     StdAfx.obj
 0002:0000a3b0       ??_C@_0CF@BDJJAGFO@call?5addguildwarhistory?$CI?$CFd?0?$CFd?0?$CFd@ 00000001400783b0     StdAfx.obj
 0002:0000a3d8       ??_C@_0BN@OINBAJNN@call?5loadguildwarhistory?$CI?$CFd?$CJ?$AA@ 00000001400783d8     StdAfx.obj
 0002:0000a3f8       ??_C@_0BN@JLDMCFFL@call?5getserverguildcount?$CI?$CFd?$CJ?$AA@ 00000001400783f8     StdAfx.obj
 0002:0000a418       ??_C@_0DC@KJBHFDLB@call?5getavailablecharactorcounti@ 0000000140078418     StdAfx.obj
 0002:0000a450       ??_C@_0CE@EOFBPFPC@call?5clientquerycharactors?$CI?$CFd?0?$CC?$CF@ 0000000140078450     StdAfx.obj
 0002:0000a478       ??_C@_0CE@KMLPEAGH@call?5checkcreatecharcountryflag?$CI@ 0000000140078478     StdAfx.obj
 0002:0000a4a0       ??_C@_0DA@JOOMLKMK@call?5addcombatgameinfo?$CI?$CFu?0?$CFd?0?$CFd?0@ 00000001400784a0     StdAfx.obj
 0002:0000a4d0       ??_C@_0BF@NOEPOIOF@call?5queryzylist?$CI?$CFd?$CJ?$AA@ 00000001400784d0     StdAfx.obj
 0002:0000a4f0       ??_C@_0EC@NJJCHHMI@select?5count?$CI?$CK?$CJ?5from?5actors?5wher@ 00000001400784f0     StdAfx.obj
 0002:0000a540       ??_C@_0EL@IHFPIBNB@select?5zy?5from?5zycount?5where?5ser@ 0000000140078540     StdAfx.obj
 0002:0000a590       ??_C@_0BE@KBLCLIJO@call?5getlessjob?$CI?$CFd?$CJ?$AA@ 0000000140078590     StdAfx.obj
 0002:0000a5a8       ??_C@_0BI@CJGLEKEG@call?5getdenycharnames?$CI?$CJ?$AA@ 00000001400785a8     StdAfx.obj
 0002:0000a610       ??_C@_0CI@JPCBGCHJ@CLogicDBReqestHandler?3?3SaveTopTi@ 0000000140078610     TopTitleData.obj
 0002:0000a638       ??_C@_0BF@FLNIEJID@?$CFs?W?$LA?T?X?E?E?P?P?$LA?q?J?$PN?$LO?$NN?J?$KH?$LA?$NM?$AA@ 0000000140078638     TopTitleData.obj
 0002:0000a650       ??_C@_0CI@CMBMEPFJ@CLogicDBReqestHandler?3?3LoadTopTi@ 0000000140078650     TopTitleData.obj
 0002:0000a688       ??_7CBaseStream@stream@wylib@@6B@ 0000000140078688     wylib_x64:FileStream.obj
 0002:0000a6c8       ??_7CFileStream@stream@wylib@@6B@ 00000001400786c8     wylib_x64:FileStream.obj
 0002:0000a758       ??_7CCSLock@lock@sync@wylib@@6B@ 0000000140078758     wylib_x64:Lock.obj
 0002:0000a788       ??_7CCustomSocket@socket@inet@wylib@@6B@ 0000000140078788     wylib_x64:CustomSocket.obj
 0002:0000a7d8       ??_7CMemoryStream@stream@wylib@@6B@ 00000001400787d8     wylib_x64:MemoryStream.obj
 0002:0000a868       ??_C@_0DM@NCEEEACA@?G?k?J?V?$LG?$KP?H?$LH?H?O?$LE?K?$LE?$KG?J?G?$LH?q?N?$LE?$LH?$KC?I?zBUG?$KD?$KM?$LG?x?J@ 0000000140078868     wylib_x64:Tick.obj
 0002:0000a8b0       ??_7CKBaseThread@thread@wylib@@6B@ 00000001400788b0     wylib_x64:KThread.obj
 0002:0000a8e8       ??_7CHandleStream@stream@wylib@@6B@ 00000001400788e8     wylib_x64:HandleStream.obj
 0002:0000a920       lua_ident                  0000000140078920     lua-5.1_x64:lapi.obj
 0002:0000a9b0       ??_C@_0BH@CCGEKEGO@no?5calling?5environment?$AA@ 00000001400789b0     lua-5.1_x64:lapi.obj
 0002:0000a9c8       ??_C@_08JEIPHCP@no?5value?$AA@ 00000001400789c8     lua-5.1_x64:lapi.obj
 0002:0000a9d4       ??_C@_01OGPIMHDM@?$DP?$AA@ 00000001400789d4     lua-5.1_x64:lapi.obj
 0002:0000a9d8       ??_C@_07FCDHCGBN@?$CFs?3?$CFd?3?5?$AA@ 00000001400789d8     lua-5.1_x64:lauxlib.obj
 0002:0000a9e0       ??_C@_02KHAMJCKP@Sl?$AA@   00000001400789e0     lua-5.1_x64:lauxlib.obj
 0002:0000a9e8       ??_C@_0BE@CBBDHBEP@stack?5overflow?5?$CI?$CFs?$CJ?$AA@ 00000001400789e8     lua-5.1_x64:lauxlib.obj
 0002:0000aa00       ??_C@_0BB@BJDGDOHH@cannot?5?$CFs?5?$CFs?3?5?$CFs?$AA@ 0000000140078a00     lua-5.1_x64:lauxlib.obj
 0002:0000aa14       ??_C@_04PMOCAHAA@open?$AA@ 0000000140078a14     lua-5.1_x64:lauxlib.obj
 0002:0000aa1c       ??_C@_01KDCPPGHE@r?$AA@    0000000140078a1c     lua-5.1_x64:lauxlib.obj
 0002:0000aa20       ??_C@_03HPDLNGOA@?$EA?$CFs?$AA@ 0000000140078a20     lua-5.1_x64:lauxlib.obj
 0002:0000aa24       ??_C@_06IEGCHAII@reopen?$AA@ 0000000140078a24     lua-5.1_x64:lauxlib.obj
 0002:0000aa2c       ??_C@_02JDPG@rb?$AA@       0000000140078a2c     lua-5.1_x64:lauxlib.obj
 0002:0000aa30       ??_C@_06CCPPALKB@?$DNstdin?$AA@ 0000000140078a30     lua-5.1_x64:lauxlib.obj
 0002:0000aa38       ??_C@_0DC@EFOPIIKP@PANIC?3?5unprotected?5error?5in?5call@ 0000000140078a38     lua-5.1_x64:lauxlib.obj
 0002:0000aa70       ??_C@_0BO@GOMKJOAH@bad?5argument?5?$CD?$CFd?5to?5?8?$CFs?8?5?$CI?$CFs?$CJ?$AA@ 0000000140078a70     lua-5.1_x64:lauxlib.obj
 0002:0000aa90       ??_C@_0BO@LENGMNDF@calling?5?8?$CFs?8?5on?5bad?5self?5?$CI?$CFs?$CJ?$AA@ 0000000140078a90     lua-5.1_x64:lauxlib.obj
 0002:0000aab0       ??_C@_06GABBCIBA@method?$AA@ 0000000140078ab0     lua-5.1_x64:lauxlib.obj
 0002:0000aab8       ??_C@_01EFFIKLCJ@n?$AA@    0000000140078ab8     lua-5.1_x64:lauxlib.obj
 0002:0000aac0       ??_C@_0BG@CHJGEHJL@bad?5argument?5?$CD?$CFd?5?$CI?$CFs?$CJ?$AA@ 0000000140078ac0     lua-5.1_x64:lauxlib.obj
 0002:0000aad8       ??_C@_0BE@LDJANOJE@?$CFs?5expected?0?5got?5?$CFs?$AA@ 0000000140078ad8     lua-5.1_x64:lauxlib.obj
 0002:0000aaf0       ??_C@_0P@PDHEKNMA@value?5expected?$AA@ 0000000140078af0     lua-5.1_x64:lauxlib.obj
 0002:0000ab00       __real@0000000000000000    0000000140078b00     lua-5.1_x64:lauxlib.obj
 0002:0000ab08       ??_C@_0BO@CBJIAGLF@name?5conflict?5for?5module?5?8?$CFs?8?$AA@ 0000000140078b08     lua-5.1_x64:lauxlib.obj
 0002:0000ab28       ??_C@_07PINPBNPB@_LOADED?$AA@ 0000000140078b28     lua-5.1_x64:lauxlib.obj
 0002:0000ab30       ??_C@_0BE@HBADPNMP@invalid?5option?5?8?$CFs?8?$AA@ 0000000140078b30     lua-5.1_x64:lauxlib.obj
 0002:0000ab44       ??_C@_03IIINPABG@tan?$AA@  0000000140078b44     lua-5.1_x64:lmathlib.obj
 0002:0000ab48       ??_C@_04FJHINJAO@tanh?$AA@ 0000000140078b48     lua-5.1_x64:lmathlib.obj
 0002:0000ab50       ??_C@_04EIAKFFMI@sqrt?$AA@ 0000000140078b50     lua-5.1_x64:lmathlib.obj
 0002:0000ab58       ??_C@_03BLEJJJBH@sin?$AA@  0000000140078b58     lua-5.1_x64:lmathlib.obj
 0002:0000ab5c       ??_C@_04COOMCNPB@sinh?$AA@ 0000000140078b5c     lua-5.1_x64:lmathlib.obj
 0002:0000ab68       ??_C@_0L@PIIACENG@randomseed?$AA@ 0000000140078b68     lua-5.1_x64:lmathlib.obj
 0002:0000ab74       ??_C@_06NLFCANPD@random?$AA@ 0000000140078b74     lua-5.1_x64:lmathlib.obj
 0002:0000ab7c       ??_C@_03FHAJEHEA@rad?$AA@  0000000140078b7c     lua-5.1_x64:lmathlib.obj
 0002:0000ab80       ??_C@_03JGHBODFD@pow?$AA@  0000000140078b80     lua-5.1_x64:lmathlib.obj
 0002:0000ab84       ??_C@_04EHEDPDJG@modf?$AA@ 0000000140078b84     lua-5.1_x64:lmathlib.obj
 0002:0000ab8c       ??_C@_03KLIPLJLL@min?$AA@  0000000140078b8c     lua-5.1_x64:lmathlib.obj
 0002:0000ab90       ??_C@_03LJAEFNNE@max?$AA@  0000000140078b90     lua-5.1_x64:lmathlib.obj
 0002:0000ab94       ??_C@_03MGHMBJCF@log?$AA@  0000000140078b94     lua-5.1_x64:lmathlib.obj
 0002:0000ab98       ??_C@_05HGHHAHAP@log10?$AA@ 0000000140078b98     lua-5.1_x64:lmathlib.obj
 0002:0000aba0       ??_C@_05CEJMAHNP@ldexp?$AA@ 0000000140078ba0     lua-5.1_x64:lmathlib.obj
 0002:0000aba8       ??_C@_05GKKHEGJL@frexp?$AA@ 0000000140078ba8     lua-5.1_x64:lmathlib.obj
 0002:0000abb0       ??_C@_04KEPJIHGP@fmod?$AA@ 0000000140078bb0     lua-5.1_x64:lmathlib.obj
 0002:0000abb8       ??_C@_05PBJFFIGL@floor?$AA@ 0000000140078bb8     lua-5.1_x64:lmathlib.obj
 0002:0000abc0       ??_C@_03KHJOGHMM@exp?$AA@  0000000140078bc0     lua-5.1_x64:lmathlib.obj
 0002:0000abc4       ??_C@_03OFPLEBM@deg?$AA@   0000000140078bc4     lua-5.1_x64:lmathlib.obj
 0002:0000abc8       ??_C@_03LALBNOCG@cos?$AA@  0000000140078bc8     lua-5.1_x64:lmathlib.obj
 0002:0000abcc       ??_C@_04HPJJNFIM@cosh?$AA@ 0000000140078bcc     lua-5.1_x64:lmathlib.obj
 0002:0000abd4       ??_C@_04GFPJNGEK@ceil?$AA@ 0000000140078bd4     lua-5.1_x64:lmathlib.obj
 0002:0000abdc       ??_C@_04MLLJIGOK@atan?$AA@ 0000000140078bdc     lua-5.1_x64:lmathlib.obj
 0002:0000abe4       ??_C@_05KNGEOGJB@atan2?$AA@ 0000000140078be4     lua-5.1_x64:lmathlib.obj
 0002:0000abec       ??_C@_04FIHNOPOL@asin?$AA@ 0000000140078bec     lua-5.1_x64:lmathlib.obj
 0002:0000abf4       ??_C@_04PDIFKINK@acos?$AA@ 0000000140078bf4     lua-5.1_x64:lmathlib.obj
 0002:0000abfc       ??_C@_03BCGAIFPO@abs?$AA@  0000000140078bfc     lua-5.1_x64:lmathlib.obj
 0002:0000add0       __mask@@AbsDouble@         0000000140078dd0     lua-5.1_x64:lmathlib.obj
 0002:0000ade0       __real@3f91df46a2529d39    0000000140078de0     lua-5.1_x64:lmathlib.obj
 0002:0000ade8       __real@3ff0000000000000    0000000140078de8     lua-5.1_x64:lmathlib.obj
 0002:0000adf0       ??_C@_0BC@JKHEKPDC@interval?5is?5empty?$AA@ 0000000140078df0     lua-5.1_x64:lmathlib.obj
 0002:0000ae08       ??_C@_0BK@KNAOOCNO@wrong?5number?5of?5arguments?$AA@ 0000000140078e08     lua-5.1_x64:lmathlib.obj
 0002:0000ae28       __real@40dfffc000000000    0000000140078e28     lua-5.1_x64:lmathlib.obj
 0002:0000ae30       ??_C@_03FFONCNID@mod?$AA@  0000000140078e30     lua-5.1_x64:lmathlib.obj
 0002:0000ae34       ??_C@_04JJGMCGIH@huge?$AA@ 0000000140078e34     lua-5.1_x64:lmathlib.obj
 0002:0000ae3c       ??_C@_02OAHAJOFD@pi?$AA@   0000000140078e3c     lua-5.1_x64:lmathlib.obj
 0002:0000ae40       __real@400921fb54442d18    0000000140078e40     lua-5.1_x64:lmathlib.obj
 0002:0000ae48       ??_C@_04CFDJAKFL@math?$AA@ 0000000140078e48     lua-5.1_x64:lmathlib.obj
 0002:0000ae50       ??_C@_05NECKJAMC@upper?$AA@ 0000000140078e50     lua-5.1_x64:lstrlib.obj
 0002:0000ae58       ??_C@_03KCMAIMAP@sub?$AA@  0000000140078e58     lua-5.1_x64:lstrlib.obj
 0002:0000ae60       ??_C@_07KOIEOCCE@reverse?$AA@ 0000000140078e60     lua-5.1_x64:lstrlib.obj
 0002:0000ae68       ??_C@_03HOKODIMJ@rep?$AA@  0000000140078e68     lua-5.1_x64:lstrlib.obj
 0002:0000ae6c       ??_C@_05FNONLPDI@match?$AA@ 0000000140078e6c     lua-5.1_x64:lstrlib.obj
 0002:0000ae74       ??_C@_05IPJEPLHL@lower?$AA@ 0000000140078e74     lua-5.1_x64:lstrlib.obj
 0002:0000ae7c       ??_C@_03BKCJCHLK@len?$AA@  0000000140078e7c     lua-5.1_x64:lstrlib.obj
 0002:0000ae80       ??_C@_04GOLEAPFD@gsub?$AA@ 0000000140078e80     lua-5.1_x64:lstrlib.obj
 0002:0000ae88       ??_C@_06DPFCLDIO@gmatch?$AA@ 0000000140078e88     lua-5.1_x64:lstrlib.obj
 0002:0000ae90       ??_C@_05EIEIBDFD@gfind?$AA@ 0000000140078e90     lua-5.1_x64:lstrlib.obj
 0002:0000ae98       ??_C@_06DLEPGFEF@format?$AA@ 0000000140078e98     lua-5.1_x64:lstrlib.obj
 0002:0000aea0       ??_C@_04CKFJHKAP@find?$AA@ 0000000140078ea0     lua-5.1_x64:lstrlib.obj
 0002:0000aea8       ??_C@_04GGLOKIEE@dump?$AA@ 0000000140078ea8     lua-5.1_x64:lstrlib.obj
 0002:0000aeb0       ??_C@_04ENMBGAPA@char?$AA@ 0000000140078eb0     lua-5.1_x64:lstrlib.obj
 0002:0000aeb8       ??_C@_04IHGKJMLH@byte?$AA@ 0000000140078eb8     lua-5.1_x64:lstrlib.obj
 0002:0000afc0       ??_C@_0BG@DFAIEAEC@string?5slice?5too?5long?$AA@ 0000000140078fc0     lua-5.1_x64:lstrlib.obj
 0002:0000afd8       ??_C@_0O@EAJJMEEM@invalid?5value?$AA@ 0000000140078fd8     lua-5.1_x64:lstrlib.obj
 0002:0000afe8       ??_C@_0BO@BNLBHKJN@unable?5to?5dump?5given?5function?$AA@ 0000000140078fe8     lua-5.1_x64:lstrlib.obj
 0002:0000b008       ??_C@_0BG@LEHNKOGD@invalid?5capture?5index?$AA@ 0000000140079008     lua-5.1_x64:lstrlib.obj
 0002:0000b020       ??_C@_0BI@ECNPHIBF@invalid?5pattern?5capture?$AA@ 0000000140079020     lua-5.1_x64:lstrlib.obj
 0002:0000b038       ??_C@_0CD@PLJBIEHA@malformed?5pattern?5?$CIends?5with?5?8?$CF?$CF@ 0000000140079038     lua-5.1_x64:lstrlib.obj
 0002:0000b060       ??_C@_0CA@CFGACOGB@malformed?5pattern?5?$CImissing?5?8?$FN?8?$CJ?$AA@ 0000000140079060     lua-5.1_x64:lstrlib.obj
 0002:0000b080       ??_C@_0BD@NGJIMPLI@unbalanced?5pattern?$AA@ 0000000140079080     lua-5.1_x64:lstrlib.obj
 0002:0000b098       ??_C@_0BC@IMEAEJPD@too?5many?5captures?$AA@ 0000000140079098     lua-5.1_x64:lstrlib.obj
 0002:0000b0b0       ??_C@_0CD@LOJJMDBH@missing?5?8?$FL?8?5after?5?8?$CF?$CFf?8?5in?5patte@ 00000001400790b0     lua-5.1_x64:lstrlib.obj
 0002:0000b0d8       ??_C@_0BD@BFKNEALP@unfinished?5capture?$AA@ 00000001400790d8     lua-5.1_x64:lstrlib.obj
 0002:0000b0f0       ??_C@_0L@NLFJOONJ@?$FO$?$CK?$CL?$DP?4?$CI?$FL?$CF?9?$AA@ 00000001400790f0     lua-5.1_x64:lstrlib.obj
 0002:0000b100       ??_C@_0CO@MAGJPEI@?8string?4gfind?8?5was?5renamed?5to?5?8s@ 0000000140079100     lua-5.1_x64:lstrlib.obj
 0002:0000b130       ??_C@_0CB@LPDIHGGA@invalid?5replacement?5value?5?$CIa?5?$CFs?$CJ@ 0000000140079130     lua-5.1_x64:lstrlib.obj
 0002:0000b158       ??_C@_0BP@PPPOBACA@string?1function?1table?5expected?$AA@ 0000000140079158     lua-5.1_x64:lstrlib.obj
 0002:0000b178       ??_C@_04MPDIABOK@?2000?$AA@ 0000000140079178     lua-5.1_x64:lstrlib.obj
 0002:0000b180       ??_C@_02HIBBOKEN@?2r?$AA@  0000000140079180     lua-5.1_x64:lstrlib.obj
 0002:0000b188       ??_C@_0CN@KALFEKPN@invalid?5format?5?$CIwidth?5or?5precisi@ 0000000140079188     lua-5.1_x64:lstrlib.obj
 0002:0000b1b8       ??_C@_0CA@COOMGCAO@invalid?5format?5?$CIrepeated?5flags?$CJ?$AA@ 00000001400791b8     lua-5.1_x64:lstrlib.obj
 0002:0000b1d8       ??_C@_05GGBDHNF@?9?$CL?5?$CD0?$AA@ 00000001400791d8     lua-5.1_x64:lstrlib.obj
 0002:0000b1e0       ??_C@_0CC@KIPBEOBI@invalid?5option?5?8?$CF?$CF?$CFc?8?5to?5?8format@ 00000001400791e0     lua-5.1_x64:lstrlib.obj
 0002:0000b208       ??_C@_07NHABFFHN@__index?$AA@ 0000000140079208     lua-5.1_x64:lstrlib.obj
 0002:0000b210       ??_C@_06ICGJLFIM@string?$AA@ 0000000140079210     lua-5.1_x64:lstrlib.obj
 0002:0000b218       ??_C@_05LKJGIMLP@yield?$AA@ 0000000140079218     lua-5.1_x64:lbaselib.obj
 0002:0000b220       ??_C@_04NFDDIEML@wrap?$AA@ 0000000140079220     lua-5.1_x64:lbaselib.obj
 0002:0000b228       ??_C@_06DJIHEMFI@status?$AA@ 0000000140079228     lua-5.1_x64:lbaselib.obj
 0002:0000b230       ??_C@_06PLELHCEK@resume?$AA@ 0000000140079230     lua-5.1_x64:lbaselib.obj
 0002:0000b238       ??_C@_06HBNONAG@create?$AA@ 0000000140079238     lua-5.1_x64:lbaselib.obj
 0002:0000b240       ??_C@_04BBBDNBOK@dead?$AA@ 0000000140079240     lua-5.1_x64:lbaselib.obj
 0002:0000b248       ??_C@_06IKLLLDHL@normal?$AA@ 0000000140079248     lua-5.1_x64:lbaselib.obj
 0002:0000b250       ??_C@_09PAHKPJCJ@suspended?$AA@ 0000000140079250     lua-5.1_x64:lbaselib.obj
 0002:0000b260       ??_C@_07PANPENDC@running?$AA@ 0000000140079260     lua-5.1_x64:lbaselib.obj
 0002:0000b268       ??_C@_06GDLLDIBI@xpcall?$AA@ 0000000140079268     lua-5.1_x64:lbaselib.obj
 0002:0000b270       ??_C@_06FIONAGJL@unpack?$AA@ 0000000140079270     lua-5.1_x64:lbaselib.obj
 0002:0000b278       ??_C@_04GPMDFGEJ@type?$AA@ 0000000140079278     lua-5.1_x64:lbaselib.obj
 0002:0000b280       ??_C@_08FNIIFOJC@tostring?$AA@ 0000000140079280     lua-5.1_x64:lbaselib.obj
 0002:0000b290       ??_C@_08JOIMPOJO@tonumber?$AA@ 0000000140079290     lua-5.1_x64:lbaselib.obj
 0002:0000b2a0       ??_C@_0N@MCAAIDEK@setmetatable?$AA@ 00000001400792a0     lua-5.1_x64:lbaselib.obj
 0002:0000b2b0       ??_C@_07NAJJCHPG@setfenv?$AA@ 00000001400792b0     lua-5.1_x64:lbaselib.obj
 0002:0000b2b8       ??_C@_06LGNCCACI@select?$AA@ 00000001400792b8     lua-5.1_x64:lbaselib.obj
 0002:0000b2c0       ??_C@_06ONPLLLOI@rawset?$AA@ 00000001400792c0     lua-5.1_x64:lbaselib.obj
 0002:0000b2c8       ??_C@_06DCIAHLCA@rawget?$AA@ 00000001400792c8     lua-5.1_x64:lbaselib.obj
 0002:0000b2d0       ??_C@_08LCBKMMAG@rawequal?$AA@ 00000001400792d0     lua-5.1_x64:lbaselib.obj
 0002:0000b2dc       ??_C@_05IJDJACGD@print?$AA@ 00000001400792dc     lua-5.1_x64:lbaselib.obj
 0002:0000b2e4       ??_C@_05JAJCNIIJ@pcall?$AA@ 00000001400792e4     lua-5.1_x64:lbaselib.obj
 0002:0000b2ec       ??_C@_04CJGEDOF@next?$AA@  00000001400792ec     lua-5.1_x64:lbaselib.obj
 0002:0000b2f8       ??_C@_0L@BBBJLLLK@loadstring?$AA@ 00000001400792f8     lua-5.1_x64:lbaselib.obj
 0002:0000b304       ??_C@_04EONOHKEP@load?$AA@ 0000000140079304     lua-5.1_x64:lbaselib.obj
 0002:0000b310       ??_C@_08BNNFLGCJ@loadfile?$AA@ 0000000140079310     lua-5.1_x64:lbaselib.obj
 0002:0000b320       ??_C@_0N@LGLOEPAG@getmetatable?$AA@ 0000000140079320     lua-5.1_x64:lbaselib.obj
 0002:0000b330       ??_C@_07CIGIBICH@getfenv?$AA@ 0000000140079330     lua-5.1_x64:lbaselib.obj
 0002:0000b338       ??_C@_06EDAGHKOI@gcinfo?$AA@ 0000000140079338     lua-5.1_x64:lbaselib.obj
 0002:0000b340       ??_C@_05KKCIMGE@error?$AA@ 0000000140079340     lua-5.1_x64:lbaselib.obj
 0002:0000b348       ??_C@_06ONNDGCDK@dofile?$AA@ 0000000140079348     lua-5.1_x64:lbaselib.obj
 0002:0000b350       ??_C@_0P@CKFEAJJE@collectgarbage?$AA@ 0000000140079350     lua-5.1_x64:lbaselib.obj
 0002:0000b360       ??_C@_06GMEIIFFN@assert?$AA@ 0000000140079360     lua-5.1_x64:lbaselib.obj
 0002:0000b368       ??_C@_0L@KABEJKKP@setstepmul?$AA@ 0000000140079368     lua-5.1_x64:lbaselib.obj
 0002:0000b378       ??_C@_08ONFIAENP@setpause?$AA@ 0000000140079378     lua-5.1_x64:lbaselib.obj
 0002:0000b384       ??_C@_04CNBNFAL@step?$AA@  0000000140079384     lua-5.1_x64:lbaselib.obj
 0002:0000b38c       ??_C@_05IOMEMJEC@count?$AA@ 000000014007938c     lua-5.1_x64:lbaselib.obj
 0002:0000b398       ??_C@_07JHIJCABF@collect?$AA@ 0000000140079398     lua-5.1_x64:lbaselib.obj
 0002:0000b3a0       ??_C@_07LDHOHMPD@restart?$AA@ 00000001400793a0     lua-5.1_x64:lbaselib.obj
 0002:0000b3a8       ??_C@_04PEGFANN@stop?$AA@  00000001400793a8     lua-5.1_x64:lbaselib.obj
 0002:0000b630       ??_C@_0CL@KMHHCBJA@?8tostring?8?5must?5return?5a?5string?5@ 0000000140079630     lua-5.1_x64:lbaselib.obj
 0002:0000b65c       ??_C@_01GPOEFGEJ@?7?$AA@   000000014007965c     lua-5.1_x64:lbaselib.obj
 0002:0000b660       ??_C@_0BC@GGLHLOMM@base?5out?5of?5range?$AA@ 0000000140079660     lua-5.1_x64:lbaselib.obj
 0002:0000b678       ??_C@_0M@OKDMMFBL@__metatable?$AA@ 0000000140079678     lua-5.1_x64:lbaselib.obj
 0002:0000b688       ??_C@_0CE@LJKICCEL@cannot?5change?5a?5protected?5metata@ 0000000140079688     lua-5.1_x64:lbaselib.obj
 0002:0000b6b0       ??_C@_0BG@HDIIKINN@nil?5or?5table?5expected?$AA@ 00000001400796b0     lua-5.1_x64:lbaselib.obj
 0002:0000b6c8       ??_C@_0DC@LPPOGBD@no?5function?5environment?5for?5tail@ 00000001400796c8     lua-5.1_x64:lbaselib.obj
 0002:0000b6fc       ??_C@_01INIBCBCB@f?$AA@    00000001400796fc     lua-5.1_x64:lbaselib.obj
 0002:0000b700       ??_C@_0O@OFBEOMLD@invalid?5level?$AA@ 0000000140079700     lua-5.1_x64:lbaselib.obj
 0002:0000b710       ??_C@_0BL@NGAFCBHD@level?5must?5be?5non?9negative?$AA@ 0000000140079710     lua-5.1_x64:lbaselib.obj
 0002:0000b730       ??_C@_0DE@PIGGMBA@?8setfenv?8?5cannot?5change?5environm@ 0000000140079730     lua-5.1_x64:lbaselib.obj
 0002:0000b768       __real@3f50000000000000    0000000140079768     lua-5.1_x64:lbaselib.obj
 0002:0000b770       ??_C@_0CF@IPNALDCD@reader?5function?5must?5return?5a?5st@ 0000000140079770     lua-5.1_x64:lbaselib.obj
 0002:0000b798       ??_C@_0BK@NJPFPDBN@too?5many?5nested?5functions?$AA@ 0000000140079798     lua-5.1_x64:lbaselib.obj
 0002:0000b7b8       ??_C@_07JEBBFCAN@?$DN?$CIload?$CJ?$AA@ 00000001400797b8     lua-5.1_x64:lbaselib.obj
 0002:0000b7c0       ??_C@_0BC@ONMFJPBH@assertion?5failed?$CB?$AA@ 00000001400797c0     lua-5.1_x64:lbaselib.obj
 0002:0000b7d8       ??_C@_0BL@EDBCOFHM@too?5many?5results?5to?5unpack?$AA@ 00000001400797d8     lua-5.1_x64:lbaselib.obj
 0002:0000b7f8       ??_C@_0BD@ILOGJALA@index?5out?5of?5range?$AA@ 00000001400797f8     lua-5.1_x64:lbaselib.obj
 0002:0000b80c       ??_C@_03ILAMHENH@nil?$AA@  000000014007980c     lua-5.1_x64:lbaselib.obj
 0002:0000b810       ??_C@_05LAPONLG@false?$AA@ 0000000140079810     lua-5.1_x64:lbaselib.obj
 0002:0000b818       ??_C@_04LOAJBDKD@true?$AA@ 0000000140079818     lua-5.1_x64:lbaselib.obj
 0002:0000b820       ??_C@_06CILKLLDB@?$CFs?3?5?$CFp?$AA@ 0000000140079820     lua-5.1_x64:lbaselib.obj
 0002:0000b828       ??_C@_0L@HDFPAPPH@__tostring?$AA@ 0000000140079828     lua-5.1_x64:lbaselib.obj
 0002:0000b838       ??_C@_0BK@OMPDBBEM@boolean?5or?5proxy?5expected?$AA@ 0000000140079838     lua-5.1_x64:lbaselib.obj
 0002:0000b858       ??_C@_0BD@LDCLGBHF@coroutine?5expected?$AA@ 0000000140079858     lua-5.1_x64:lbaselib.obj
 0002:0000b870       ??_C@_0BL@OALEJBKN@too?5many?5results?5to?5resume?$AA@ 0000000140079870     lua-5.1_x64:lbaselib.obj
 0002:0000b890       ??_C@_0BL@DGCALGPK@cannot?5resume?5?$CFs?5coroutine?$AA@ 0000000140079890     lua-5.1_x64:lbaselib.obj
 0002:0000b8b0       ??_C@_0BN@CLPLGDGN@too?5many?5arguments?5to?5resume?$AA@ 00000001400798b0     lua-5.1_x64:lbaselib.obj
 0002:0000b8d0       ??_C@_0BG@EHJAKGKG@Lua?5function?5expected?$AA@ 00000001400798d0     lua-5.1_x64:lbaselib.obj
 0002:0000b8e8       ??_C@_08HDPJFDHB@newproxy?$AA@ 00000001400798e8     lua-5.1_x64:lbaselib.obj
 0002:0000b8f4       ??_C@_06BPGFKLEK@__mode?$AA@ 00000001400798f4     lua-5.1_x64:lbaselib.obj
 0002:0000b8fc       ??_C@_02DNFJNMFM@kv?$AA@   00000001400798fc     lua-5.1_x64:lbaselib.obj
 0002:0000b900       ??_C@_05PEAECDOC@pairs?$AA@ 0000000140079900     lua-5.1_x64:lbaselib.obj
 0002:0000b908       ??_C@_06MGIEFEAJ@ipairs?$AA@ 0000000140079908     lua-5.1_x64:lbaselib.obj
 0002:0000b910       ??_C@_08PMLCGGEP@_VERSION?$AA@ 0000000140079910     lua-5.1_x64:lbaselib.obj
 0002:0000b920       ??_C@_07GLKNJPII@Lua?55?41?$AA@ 0000000140079920     lua-5.1_x64:lbaselib.obj
 0002:0000b928       ??_C@_02NIGGJGKC@_G?$AA@   0000000140079928     lua-5.1_x64:lbaselib.obj
 0002:0000b930       ??_C@_09HNKENHFC@coroutine?$AA@ 0000000140079930     lua-5.1_x64:lbaselib.obj
 0002:0000b940       ??_C@_0BC@ENOOLCNF@not?5enough?5memory?$AA@ 0000000140079940     lua-5.1_x64:lstate.obj
 0002:0000b954       ??_C@_04PIMMHFGE@sort?$AA@ 0000000140079954     lua-5.1_x64:ltablib.obj
 0002:0000b95c       ??_C@_04CDNBBDGJ@setn?$AA@ 000000014007995c     lua-5.1_x64:ltablib.obj
 0002:0000b964       ??_C@_06LEMKAMD@remove?$AA@ 0000000140079964     lua-5.1_x64:ltablib.obj
 0002:0000b96c       ??_C@_06OAOPNKHP@insert?$AA@ 000000014007996c     lua-5.1_x64:ltablib.obj
 0002:0000b974       ??_C@_04HKHJFELJ@maxn?$AA@ 0000000140079974     lua-5.1_x64:ltablib.obj
 0002:0000b97c       ??_C@_04LGLBCCCL@getn?$AA@ 000000014007997c     lua-5.1_x64:ltablib.obj
 0002:0000b988       ??_C@_08GDLALCOF@foreachi?$AA@ 0000000140079988     lua-5.1_x64:ltablib.obj
 0002:0000b998       ??_C@_07ICLAOFOB@foreach?$AA@ 0000000140079998     lua-5.1_x64:ltablib.obj
 0002:0000b9a0       ??_C@_06CMLIEHFC@concat?$AA@ 00000001400799a0     lua-5.1_x64:ltablib.obj
 0002:0000ba50       ??_C@_0BD@OBDNDPKA@?8setn?8?5is?5obsolete?$AA@ 0000000140079a50     lua-5.1_x64:ltablib.obj
 0002:0000ba68       ??_C@_0CG@LPGHMHCC@wrong?5number?5of?5arguments?5to?5?8in@ 0000000140079a68     lua-5.1_x64:ltablib.obj
 0002:0000ba90       ??_C@_0DF@OJJECDJJ@invalid?5value?5?$CI?$CFs?$CJ?5at?5index?5?$CFd?5i@ 0000000140079a90     lua-5.1_x64:ltablib.obj
 0002:0000bac8       ??_C@_0CD@OFHMGIPD@invalid?5order?5function?5for?5sorti@ 0000000140079ac8     lua-5.1_x64:ltablib.obj
 0002:0000baec       ??_C@_05LCLENNFI@table?$AA@ 0000000140079aec     lua-5.1_x64:ltablib.obj
 0002:0000bb00       luaO_nilobject_            0000000140079b00     lua-5.1_x64:lobject.obj
 0002:0000bc10       ??_C@_01FGNFDNOH@?$CF?$AA@ 0000000140079c10     lua-5.1_x64:lobject.obj
 0002:0000bc14       ??_C@_02BBAHNLBA@?$CFp?$AA@ 0000000140079c14     lua-5.1_x64:lobject.obj
 0002:0000bc18       ??_C@_06OJHGLDPL@?$CInull?$CJ?$AA@ 0000000140079c18     lua-5.1_x64:lobject.obj
 0002:0000bc20       ??_C@_02DEGCJHHK@?$CC?$FN?$AA@ 0000000140079c20     lua-5.1_x64:lobject.obj
 0002:0000bc28       ??_C@_09PHLFBDIK@?$FLstring?5?$CC?$AA@ 0000000140079c28     lua-5.1_x64:lobject.obj
 0002:0000bc34       ??_C@_02LIIHNNHG@?6?$AN?$AA@ 0000000140079c34     lua-5.1_x64:lobject.obj
 0002:0000bc38       ??_C@_03KHICJKCI@?4?4?4?$AA@ 0000000140079c38     lua-5.1_x64:lobject.obj
 0002:0000bc40       ??_C@_0BI@KGOCJOGJ@error?5in?5error?5handling?$AA@ 0000000140079c40     lua-5.1_x64:ldo.obj
 0002:0000bc58       ??_C@_04OMFAIDPG@call?$AA@ 0000000140079c58     lua-5.1_x64:ldo.obj
 0002:0000bc60       ??_C@_0DD@CPKEKIFA@attempt?5to?5yield?5across?5metameth@ 0000000140079c60     lua-5.1_x64:ldo.obj
 0002:0000bc98       ??_C@_0P@EODJGPIM@stack?5overflow?$AA@ 0000000140079c98     lua-5.1_x64:ldo.obj
 0002:0000bca8       ??_C@_0BB@EJOGNINL@C?5stack?5overflow?$AA@ 0000000140079ca8     lua-5.1_x64:ldo.obj
 0002:0000bcc0       ??_C@_0CG@NAAHDPPN@cannot?5resume?5non?9suspended?5coro@ 0000000140079cc0     lua-5.1_x64:ldo.obj
 0002:0000bce8       ??_C@_04GHJNJNPO@main?$AA@ 0000000140079ce8     lua-5.1_x64:ldebug.obj
 0002:0000bcf0       ??_C@_03CBKFDHDL@Lua?$AA@  0000000140079cf0     lua-5.1_x64:ldebug.obj
 0002:0000bcf4       ??_C@_04BKJOMPG@?$DN?$FLC?$FN?$AA@ 0000000140079cf4     lua-5.1_x64:ldebug.obj
 0002:0000bcfc       ??_C@_04DIFLAKIP@tail?$AA@ 0000000140079cfc     lua-5.1_x64:ldebug.obj
 0002:0000bd08       ??_C@_0N@DIENKKJP@?$DN?$CItail?5call?$CJ?$AA@ 0000000140079d08     lua-5.1_x64:ldebug.obj
 0002:0000bd18       ??_C@_05IDKHKMLA@local?$AA@ 0000000140079d18     lua-5.1_x64:ldebug.obj
 0002:0000bd20       ??_C@_07NAGMKCIK@upvalue?$AA@ 0000000140079d20     lua-5.1_x64:ldebug.obj
 0002:0000bd28       ??_C@_06FJKEMHGD@global?$AA@ 0000000140079d28     lua-5.1_x64:ldebug.obj
 0002:0000bd30       ??_C@_05EIBGDMPB@field?$AA@ 0000000140079d30     lua-5.1_x64:ldebug.obj
 0002:0000bd38       ??_C@_09BHPFBFOI@?$CFs?3?$CFd?3?5?$CFs?$AA@ 0000000140079d38     lua-5.1_x64:ldebug.obj
 0002:0000bd48       ??_C@_0CD@HAGFMPIP@attempt?5to?5?$CFs?5?$CFs?5?8?$CFs?8?5?$CIa?5?$CFs?5valu@ 0000000140079d48     lua-5.1_x64:ldebug.obj
 0002:0000bd70       ??_C@_0BJ@HGCMIDJD@attempt?5to?5?$CFs?5a?5?$CFs?5value?$AA@ 0000000140079d70     lua-5.1_x64:ldebug.obj
 0002:0000bd90       ??_C@_0M@LPKAOE@concatenate?$AA@ 0000000140079d90     lua-5.1_x64:ldebug.obj
 0002:0000bda0       ??_C@_0BG@IOLALLOM@perform?5arithmetic?5on?$AA@ 0000000140079da0     lua-5.1_x64:ldebug.obj
 0002:0000bdb8       ??_C@_0BO@DNBGDDFP@attempt?5to?5compare?5?$CFs?5with?5?$CFs?$AA@ 0000000140079db8     lua-5.1_x64:ldebug.obj
 0002:0000bdd8       ??_C@_0CB@DEJMKNMB@attempt?5to?5compare?5two?5?$CFs?5values@ 0000000140079dd8     lua-5.1_x64:ldebug.obj
 0002:0000bdfc       ??_C@_06JPFLIIOJ@__call?$AA@ 0000000140079dfc     lua-5.1_x64:ltm.obj
 0002:0000be08       ??_C@_08HGDAODEP@__concat?$AA@ 0000000140079e08     lua-5.1_x64:ltm.obj
 0002:0000be14       ??_C@_04EJLHOCKK@__le?$AA@ 0000000140079e14     lua-5.1_x64:ltm.obj
 0002:0000be1c       ??_C@_04BKGOMBLK@__lt?$AA@ 0000000140079e1c     lua-5.1_x64:ltm.obj
 0002:0000be24       ??_C@_05MNDELLDN@__len?$AA@ 0000000140079e24     lua-5.1_x64:ltm.obj
 0002:0000be2c       ??_C@_05MHFNBPAK@__unm?$AA@ 0000000140079e2c     lua-5.1_x64:ltm.obj
 0002:0000be34       ??_C@_05EBGMHPNE@__pow?$AA@ 0000000140079e34     lua-5.1_x64:ltm.obj
 0002:0000be3c       ??_C@_05ICPALBAE@__mod?$AA@ 0000000140079e3c     lua-5.1_x64:ltm.obj
 0002:0000be44       ??_C@_05IDIBPCOP@__div?$AA@ 0000000140079e44     lua-5.1_x64:ltm.obj
 0002:0000be4c       ??_C@_05FLJIBNKK@__mul?$AA@ 0000000140079e4c     lua-5.1_x64:ltm.obj
 0002:0000be54       ??_C@_05HFNNBAII@__sub?$AA@ 0000000140079e54     lua-5.1_x64:ltm.obj
 0002:0000be5c       ??_C@_05MEHDOBFN@__add?$AA@ 0000000140079e5c     lua-5.1_x64:ltm.obj
 0002:0000be64       ??_C@_04GIMIAOHA@__eq?$AA@ 0000000140079e64     lua-5.1_x64:ltm.obj
 0002:0000be6c       ??_C@_04BDLIKKMN@__gc?$AA@ 0000000140079e6c     lua-5.1_x64:ltm.obj
 0002:0000be78       ??_C@_0L@GADKNKH@__newindex?$AA@ 0000000140079e78     lua-5.1_x64:ltm.obj
 0002:0000be84       ??_C@_05CCAJFIBN@upval?$AA@ 0000000140079e84     lua-5.1_x64:ltm.obj
 0002:0000be8c       ??_C@_05BENFLAID@proto?$AA@ 0000000140079e8c     lua-5.1_x64:ltm.obj
 0002:0000be94       ??_C@_06FJHNOCKE@thread?$AA@ 0000000140079e94     lua-5.1_x64:ltm.obj
 0002:0000bea0       ??_C@_08HFFPPCHF@function?$AA@ 0000000140079ea0     lua-5.1_x64:ltm.obj
 0002:0000beac       ??_C@_06EBGNBFIA@number?$AA@ 0000000140079eac     lua-5.1_x64:ltm.obj
 0002:0000beb8       ??_C@_08NOEPOPLB@userdata?$AA@ 0000000140079eb8     lua-5.1_x64:ltm.obj
 0002:0000bec8       ??_C@_07GOBOHMJA@boolean?$AA@ 0000000140079ec8     lua-5.1_x64:ltm.obj
 0002:0000bed0       luaT_typenames             0000000140079ed0     lua-5.1_x64:ltm.obj
 0002:0000bfb8       ??_C@_05CGOEHEFE@?$CF?414g?$AA@ 0000000140079fb8     lua-5.1_x64:lvm.obj
 0002:0000bfc0       ??_C@_0BB@JEECHIJH@loop?5in?5gettable?$AA@ 0000000140079fc0     lua-5.1_x64:lvm.obj
 0002:0000bfd4       ??_C@_05FKHKFDID@index?$AA@ 0000000140079fd4     lua-5.1_x64:lvm.obj
 0002:0000bfe0       ??_C@_0BB@GFGOGLOK@loop?5in?5settable?$AA@ 0000000140079fe0     lua-5.1_x64:lvm.obj
 0002:0000bff8       ??_C@_0BH@ONIKNOCM@string?5length?5overflow?$AA@ 0000000140079ff8     lua-5.1_x64:lvm.obj
 0002:0000c010       __mask@@NegDouble@         000000014007a010     lua-5.1_x64:lvm.obj
 0002:0000c020       ??_C@_0BM@EGCFKNIJ@?8for?8?5step?5must?5be?5a?5number?$AA@ 000000014007a020     lua-5.1_x64:lvm.obj
 0002:0000c040       ??_C@_0CF@JJFDEONC@?8for?8?5initial?5value?5must?5be?5a?5nu@ 000000014007a040     lua-5.1_x64:lvm.obj
 0002:0000c068       ??_C@_0BN@GHPMJMPH@?8for?8?5limit?5must?5be?5a?5number?$AA@ 000000014007a068     lua-5.1_x64:lvm.obj
 0002:0000c088       ??_C@_0O@MKOIIDGO@get?5length?5of?$AA@ 000000014007a088     lua-5.1_x64:lvm.obj
 0002:0000c098       __real@43f0000000000000    000000014007a098     lua-5.1_x64:lvm.obj
 0002:0000c0c8       ??_C@_0BG@FEBJBDLJ@invalid?5key?5to?5?8next?8?$AA@ 000000014007a0c8     lua-5.1_x64:ltable.obj
 0002:0000c0e0       ??_C@_0P@KKABOKCO@table?5overflow?$AA@ 000000014007a0e0     lua-5.1_x64:ltable.obj
 0002:0000c0f0       ??_C@_0BD@BKBJANLJ@table?5index?5is?5NaN?$AA@ 000000014007a0f0     lua-5.1_x64:ltable.obj
 0002:0000c108       ??_C@_0BD@BDIKLFBP@table?5index?5is?5nil?$AA@ 000000014007a108     lua-5.1_x64:ltable.obj
 0002:0000c120       ??_C@_0BM@EDNHGHJO@?$CFs?3?5?$CFs?5in?5precompiled?5chunk?$AA@ 000000014007a120     lua-5.1_x64:lundump.obj
 0002:0000c140       ??_C@_0P@CLDJCNKP@unexpected?5end?$AA@ 000000014007a140     lua-5.1_x64:lundump.obj
 0002:0000c150       ??_C@_0M@KLEMECJB@bad?5integer?$AA@ 000000014007a150     lua-5.1_x64:lundump.obj
 0002:0000c160       ??_C@_0N@DOELNLHF@bad?5constant?$AA@ 000000014007a160     lua-5.1_x64:lundump.obj
 0002:0000c170       ??_C@_08OFPEJJEA@bad?5code?$AA@ 000000014007a170     lua-5.1_x64:lundump.obj
 0002:0000c180       ??_C@_0O@GNEOPCAJ@code?5too?5deep?$AA@ 000000014007a180     lua-5.1_x64:lundump.obj
 0002:0000c190       ??_C@_0L@PJHPAMCH@bad?5header?$AA@ 000000014007a190     lua-5.1_x64:lundump.obj
 0002:0000c19c       ??_C@_02HENDHKBC@?$DN?$DP?$AA@ 000000014007a19c     lua-5.1_x64:lundump.obj
 0002:0000c1a0       ??_C@_0O@CNJIDMJE@binary?5string?$AA@ 000000014007a1a0     lua-5.1_x64:lundump.obj
 0002:0000c1b0       ??_C@_0CH@LBFPMMCP@memory?5allocation?5error?3?5block?5t@ 000000014007a1b0     lua-5.1_x64:lmem.obj
 0002:0000c1d8       ??_C@_05CINCKAN@?$DMeof?$DO?$AA@ 000000014007a1d8     lua-5.1_x64:llex.obj
 0002:0000c1e0       ??_C@_08OOGHEFMC@?$DMstring?$DO?$AA@ 000000014007a1e0     lua-5.1_x64:llex.obj
 0002:0000c1ec       ??_C@_06FNGJOCBI@?$DMname?$DO?$AA@ 000000014007a1ec     lua-5.1_x64:llex.obj
 0002:0000c1f8       ??_C@_08OHBCANEJ@?$DMnumber?$DO?$AA@ 000000014007a1f8     lua-5.1_x64:llex.obj
 0002:0000c204       ??_C@_02DEDJCLAJ@?$HO?$DN?$AA@ 000000014007a204     lua-5.1_x64:llex.obj
 0002:0000c208       ??_C@_02EHCHHCKH@?$DM?$DN?$AA@ 000000014007a208     lua-5.1_x64:llex.obj
 0002:0000c20c       ??_C@_02EEKDKGMJ@?$DO?$DN?$AA@ 000000014007a20c     lua-5.1_x64:llex.obj
 0002:0000c210       ??_C@_02EGOFBIJA@?$DN?$DN?$AA@ 000000014007a210     lua-5.1_x64:llex.obj
 0002:0000c214       ??_C@_02DJGKEECL@?4?4?$AA@ 000000014007a214     lua-5.1_x64:llex.obj
 0002:0000c218       ??_C@_05OODBEKIG@while?$AA@ 000000014007a218     lua-5.1_x64:llex.obj
 0002:0000c220       ??_C@_05FJMDOIMN@until?$AA@ 000000014007a220     lua-5.1_x64:llex.obj
 0002:0000c228       ??_C@_04HOHPNOOD@then?$AA@ 000000014007a228     lua-5.1_x64:llex.obj
 0002:0000c230       ??_C@_06LNOFJDNM@return?$AA@ 000000014007a230     lua-5.1_x64:llex.obj
 0002:0000c238       ??_C@_06LGDBIFHB@repeat?$AA@ 000000014007a238     lua-5.1_x64:llex.obj
 0002:0000c240       ??_C@_02FODMLBIE@or?$AA@   000000014007a240     lua-5.1_x64:llex.obj
 0002:0000c244       ??_C@_03NJKJADM@not?$AA@   000000014007a244     lua-5.1_x64:llex.obj
 0002:0000c248       ??_C@_02LMMGJAGL@in?$AA@   000000014007a248     lua-5.1_x64:llex.obj
 0002:0000c24c       ??_C@_02HEBPBKGD@if?$AA@   000000014007a24c     lua-5.1_x64:llex.obj
 0002:0000c250       ??_C@_03JOHEBPFF@for?$AA@  000000014007a250     lua-5.1_x64:llex.obj
 0002:0000c254       ??_C@_03JBJLGPFL@end?$AA@  000000014007a254     lua-5.1_x64:llex.obj
 0002:0000c258       ??_C@_06CAACNEC@elseif?$AA@ 000000014007a258     lua-5.1_x64:llex.obj
 0002:0000c260       ??_C@_04FHMCPBIP@else?$AA@ 000000014007a260     lua-5.1_x64:llex.obj
 0002:0000c268       ??_C@_02KNAFDCHJ@do?$AA@   000000014007a268     lua-5.1_x64:llex.obj
 0002:0000c26c       ??_C@_05ELPHFHOI@break?$AA@ 000000014007a26c     lua-5.1_x64:llex.obj
 0002:0000c274       ??_C@_03BOPJPIAM@and?$AA@  000000014007a274     lua-5.1_x64:llex.obj
 0002:0000c280       luaX_tokens                000000014007a280     lua-5.1_x64:llex.obj
 0002:0000c380       ??_C@_0BJ@JNKOFINI@lexical?5element?5too?5long?$AA@ 000000014007a380     lua-5.1_x64:llex.obj
 0002:0000c39c       ??_C@_02HAOIJKIC@?$CFc?$AA@ 000000014007a39c     lua-5.1_x64:llex.obj
 0002:0000c3a0       ??_C@_08HJPIMBHL@char?$CI?$CFd?$CJ?$AA@ 000000014007a3a0     lua-5.1_x64:llex.obj
 0002:0000c3b0       ??_C@_0N@FKCNMBAF@?$CFs?5near?5?8?$CFs?8?$AA@ 000000014007a3b0     lua-5.1_x64:llex.obj
 0002:0000c3c0       ??_C@_0BJ@LAKGPFF@chunk?5has?5too?5many?5lines?$AA@ 000000014007a3c0     lua-5.1_x64:llex.obj
 0002:0000c3e0       ??_C@_0BB@CFMNENCE@malformed?5number?$AA@ 000000014007a3e0     lua-5.1_x64:llex.obj
 0002:0000c3f4       ??_C@_02BEIMNFAD@?$CL?9?$AA@ 000000014007a3f4     lua-5.1_x64:llex.obj
 0002:0000c3f8       ??_C@_02GOGFPGCE@Ee?$AA@   000000014007a3f8     lua-5.1_x64:llex.obj
 0002:0000c400       ??_C@_0BI@ONEAKEIB@unfinished?5long?5comment?$AA@ 000000014007a400     lua-5.1_x64:llex.obj
 0002:0000c418       ??_C@_0BH@BBMFLJJP@unfinished?5long?5string?$AA@ 000000014007a418     lua-5.1_x64:llex.obj
 0002:0000c430       ??_C@_0CB@BALFDNPK@nesting?5of?5?$FL?$FL?4?4?4?$FN?$FN?5is?5deprecated@ 000000014007a430     lua-5.1_x64:llex.obj
 0002:0000c458       ??_C@_0BK@GLJFEJMO@escape?5sequence?5too?5large?$AA@ 000000014007a458     lua-5.1_x64:llex.obj
 0002:0000c478       ??_C@_0BC@IBAFBKML@unfinished?5string?$AA@ 000000014007a478     lua-5.1_x64:llex.obj
 0002:0000c48c       ??_C@_01LFCBOECM@?4?$AA@   000000014007a48c     lua-5.1_x64:llex.obj
 0002:0000c490       ??_C@_0BO@DBNLNIBP@invalid?5long?5string?5delimiter?$AA@ 000000014007a490     lua-5.1_x64:llex.obj
 0002:0000c4d0       ??_C@_0O@DDMAPLHE@?8?$CFs?8?5expected?$AA@ 000000014007a4d0     lua-5.1_x64:lparser.obj
 0002:0000c4e0       ??_C@_0CI@FLAOKACM@function?5at?5line?5?$CFd?5has?5more?5tha@ 000000014007a4e0     lua-5.1_x64:lparser.obj
 0002:0000c508       ??_C@_0CC@OKOPEFGK@main?5function?5has?5more?5than?5?$CFd?5?$CF@ 000000014007a508     lua-5.1_x64:lparser.obj
 0002:0000c530       ??_C@_0CJ@IJEGBPEP@?8?$CFs?8?5expected?5?$CIto?5close?5?8?$CFs?8?5at?5@ 000000014007a530     lua-5.1_x64:lparser.obj
 0002:0000c560       ??_C@_0BJ@EGOMLGMD@too?5many?5local?5variables?$AA@ 000000014007a560     lua-5.1_x64:lparser.obj
 0002:0000c580       ??_C@_0BA@EIDMAHJI@local?5variables?$AA@ 000000014007a580     lua-5.1_x64:lparser.obj
 0002:0000c590       ??_C@_08JKPCMKJ@upvalues?$AA@ 000000014007a590     lua-5.1_x64:lparser.obj
 0002:0000c5a0       ??_C@_0CB@OHOGAGIL@chunk?5has?5too?5many?5syntax?5levels@ 000000014007a5a0     lua-5.1_x64:lparser.obj
 0002:0000c5c8       ??_C@_0BI@DGLMJHJB@constant?5table?5overflow?$AA@ 000000014007a5c8     lua-5.1_x64:lparser.obj
 0002:0000c5e0       ??_C@_0BH@IAOKECIM@items?5in?5a?5constructor?$AA@ 000000014007a5e0     lua-5.1_x64:lparser.obj
 0002:0000c5f8       ??_C@_03CAOIPBNL@arg?$AA@  000000014007a5f8     lua-5.1_x64:lparser.obj
 0002:0000c600       ??_C@_0BJ@MHIGIDHO@?$DMname?$DO?5or?5?8?4?4?4?8?5expected?$AA@ 000000014007a600     lua-5.1_x64:lparser.obj
 0002:0000c61c       ??_C@_04PJDNGLKJ@self?$AA@ 000000014007a61c     lua-5.1_x64:lparser.obj
 0002:0000c628       ??_C@_0DB@LGGKFLCP@ambiguous?5syntax?5?$CIfunction?5call?5@ 000000014007a628     lua-5.1_x64:lparser.obj
 0002:0000c660       ??_C@_0BM@HEIHHEKF@function?5arguments?5expected?$AA@ 000000014007a660     lua-5.1_x64:lparser.obj
 0002:0000c680       ??_C@_0BC@KBCKKGAJ@unexpected?5symbol?$AA@ 000000014007a680     lua-5.1_x64:lparser.obj
 0002:0000c698       ??_C@_0CL@EJFFCAJP@cannot?5use?5?8?4?4?4?8?5outside?5a?5varar@ 000000014007a698     lua-5.1_x64:lparser.obj
 0002:0000c6c8       ??_C@_0BI@MAKOOLPG@variables?5in?5assignment?$AA@ 000000014007a6c8     lua-5.1_x64:lparser.obj
 0002:0000c6e0       ??_C@_0N@MNJHOOI@syntax?5error?$AA@ 000000014007a6e0     lua-5.1_x64:lparser.obj
 0002:0000c6f0       ??_C@_0BB@DBFONGCK@no?5loop?5to?5break?$AA@ 000000014007a6f0     lua-5.1_x64:lparser.obj
 0002:0000c708       ??_C@_0L@ELGHHMFI@?$CIfor?5step?$CJ?$AA@ 000000014007a708     lua-5.1_x64:lparser.obj
 0002:0000c718       ??_C@_0M@HGGGDCAE@?$CIfor?5limit?$CJ?$AA@ 000000014007a718     lua-5.1_x64:lparser.obj
 0002:0000c728       ??_C@_0M@HHIHAJLG@?$CIfor?5index?$CJ?$AA@ 000000014007a728     lua-5.1_x64:lparser.obj
 0002:0000c738       ??_C@_0O@PHJHAIC@?$CIfor?5control?$CJ?$AA@ 000000014007a738     lua-5.1_x64:lparser.obj
 0002:0000c748       ??_C@_0M@CCNPGEGC@?$CIfor?5state?$CJ?$AA@ 000000014007a748     lua-5.1_x64:lparser.obj
 0002:0000c758       ??_C@_0BA@IJIMMPHF@?$CIfor?5generator?$CJ?$AA@ 000000014007a758     lua-5.1_x64:lparser.obj
 0002:0000c768       ??_C@_0BF@PACDFECJ@?8?$DN?8?5or?5?8in?8?5expected?$AA@ 000000014007a768     lua-5.1_x64:lparser.obj
 0002:0000c780       ??_C@_06FHOJKFCK@VARARG?$AA@ 000000014007a780     lua-5.1_x64:lopcodes.obj
 0002:0000c788       ??_C@_07CBDMEJDJ@CLOSURE?$AA@ 000000014007a788     lua-5.1_x64:lopcodes.obj
 0002:0000c790       ??_C@_05HKHBPABE@CLOSE?$AA@ 000000014007a790     lua-5.1_x64:lopcodes.obj
 0002:0000c798       ??_C@_07LGKGOMK@SETLIST?$AA@ 000000014007a798     lua-5.1_x64:lopcodes.obj
 0002:0000c7a0       ??_C@_08LFLGPGKH@TFORLOOP?$AA@ 000000014007a7a0     lua-5.1_x64:lopcodes.obj
 0002:0000c7b0       ??_C@_07BDNHFNAN@FORPREP?$AA@ 000000014007a7b0     lua-5.1_x64:lopcodes.obj
 0002:0000c7b8       ??_C@_07BJCDCNBK@FORLOOP?$AA@ 000000014007a7b8     lua-5.1_x64:lopcodes.obj
 0002:0000c7c0       ??_C@_06LJMOENAO@RETURN?$AA@ 000000014007a7c0     lua-5.1_x64:lopcodes.obj
 0002:0000c7c8       ??_C@_08GDMBKKIJ@TAILCALL?$AA@ 000000014007a7c8     lua-5.1_x64:lopcodes.obj
 0002:0000c7d4       ??_C@_04CAGKGBIO@CALL?$AA@ 000000014007a7d4     lua-5.1_x64:lopcodes.obj
 0002:0000c7e0       ??_C@_07GLDFODBB@TESTSET?$AA@ 000000014007a7e0     lua-5.1_x64:lopcodes.obj
 0002:0000c7e8       ??_C@_04OIKJMBFP@TEST?$AA@ 000000014007a7e8     lua-5.1_x64:lopcodes.obj
 0002:0000c7f0       ??_C@_02PEDAOJAJ@LE?$AA@   000000014007a7f0     lua-5.1_x64:lopcodes.obj
 0002:0000c7f4       ??_C@_02KHOJMKBJ@LT?$AA@   000000014007a7f4     lua-5.1_x64:lopcodes.obj
 0002:0000c7f8       ??_C@_02NFEPAFND@EQ?$AA@   000000014007a7f8     lua-5.1_x64:lopcodes.obj
 0002:0000c7fc       ??_C@_03OIOLNLHN@JMP?$AA@  000000014007a7fc     lua-5.1_x64:lopcodes.obj
 0002:0000c800       ??_C@_06CIJDJJIA@CONCAT?$AA@ 000000014007a800     lua-5.1_x64:lopcodes.obj
 0002:0000c808       ??_C@_03BHNCOKMG@LEN?$AA@  000000014007a808     lua-5.1_x64:lopcodes.obj
 0002:0000c80c       ??_C@_03GBFNEA@NOT?$AA@    000000014007a80c     lua-5.1_x64:lopcodes.obj
 0002:0000c810       ??_C@_03BNLLEOPB@UNM?$AA@  000000014007a810     lua-5.1_x64:lopcodes.obj
 0002:0000c814       ??_C@_03JLIKCOCP@POW?$AA@  000000014007a814     lua-5.1_x64:lopcodes.obj
 0002:0000c818       ??_C@_03FIBGOAPP@MOD?$AA@  000000014007a818     lua-5.1_x64:lopcodes.obj
 0002:0000c81c       ??_C@_03FJGHKDBE@DIV?$AA@  000000014007a81c     lua-5.1_x64:lopcodes.obj
 0002:0000c820       ??_C@_03IBHOEMFB@MUL?$AA@  000000014007a820     lua-5.1_x64:lopcodes.obj
 0002:0000c824       ??_C@_03KPDLEBHD@SUB?$AA@  000000014007a824     lua-5.1_x64:lopcodes.obj
 0002:0000c828       ??_C@_03BOJFLAKG@ADD?$AA@  000000014007a828     lua-5.1_x64:lopcodes.obj
 0002:0000c82c       ??_C@_04DFAHIJNB@SELF?$AA@ 000000014007a82c     lua-5.1_x64:lopcodes.obj
 0002:0000c838       ??_C@_08LPLGEMDO@NEWTABLE?$AA@ 000000014007a838     lua-5.1_x64:lopcodes.obj
 0002:0000c848       ??_C@_08NDNBPDIF@SETTABLE?$AA@ 000000014007a848     lua-5.1_x64:lopcodes.obj
 0002:0000c858       ??_C@_08EDGMHGMA@SETUPVAL?$AA@ 000000014007a858     lua-5.1_x64:lopcodes.obj
 0002:0000c868       ??_C@_09DECDCIIG@SETGLOBAL?$AA@ 000000014007a868     lua-5.1_x64:lopcodes.obj
 0002:0000c878       ??_C@_08CCPNOAPI@GETTABLE?$AA@ 000000014007a878     lua-5.1_x64:lopcodes.obj
 0002:0000c888       ??_C@_09BKGGAJBE@GETGLOBAL?$AA@ 000000014007a888     lua-5.1_x64:lopcodes.obj
 0002:0000c898       ??_C@_08LCEAGFLN@GETUPVAL?$AA@ 000000014007a898     lua-5.1_x64:lopcodes.obj
 0002:0000c8a8       ??_C@_07GHJHEMKM@LOADNIL?$AA@ 000000014007a8a8     lua-5.1_x64:lopcodes.obj
 0002:0000c8b0       ??_C@_08GBBGHEAC@LOADBOOL?$AA@ 000000014007a8b0     lua-5.1_x64:lopcodes.obj
 0002:0000c8bc       ??_C@_05KLLCNHFJ@LOADK?$AA@ 000000014007a8bc     lua-5.1_x64:lopcodes.obj
 0002:0000c8c4       ??_C@_04LPPGDFDD@MOVE?$AA@ 000000014007a8c4     lua-5.1_x64:lopcodes.obj
 0002:0000c8d0       luaP_opnames               000000014007a8d0     lua-5.1_x64:lopcodes.obj
 0002:0000ca08       luaP_opmodes               000000014007aa08     lua-5.1_x64:lopcodes.obj
 0002:0000ca30       ??_C@_0BL@BDOLDOFI@control?5structure?5too?5long?$AA@ 000000014007aa30     lua-5.1_x64:lcode.obj
 0002:0000ca50       ??_C@_0CD@HGHHKJGL@function?5or?5expression?5too?5compl@ 000000014007aa50     lua-5.1_x64:lcode.obj
 0002:0000ca78       ??_C@_0BD@LKJEPOHE@code?5size?5overflow?$AA@ 000000014007aa78     lua-5.1_x64:lcode.obj
 0002:0000ca98       ??_7type_info@@6B@         000000014007aa98     MSVCRT:ti_inst.obj
 0002:0000caa0       ??_C@_01LOCGONAA@?$AA?$AA@ 000000014007aaa0     wylib_x64:wyString.obj
 0002:0000caa4       ??_C@_13NOLLCAOD@?$AA?$AA?$AA?$AA@ 000000014007aaa4     wylib_x64:wyString.obj
 0002:0000cab0       ??_7CBaseThread@thread@wylib@@6B@ 000000014007aab0     wylib_x64:Thread.obj
 0002:0000e298       ??_C@_06LJBABKPM@class?5?$AA@ 000000014007c298     srvlib_x64:TimeStat.obj
 0002:0000e2a0       ??_C@_07DIBCDNGL@struct?5?$AA@ 000000014007c2a0     srvlib_x64:TimeStat.obj
 0002:0000e2a8       ??_C@_0M@GMGKAKNE@?3?3addToStat?$AA@ 000000014007c2a8     srvlib_x64:TimeStat.obj
 0002:0000e2c0       ??_C@_0ED@LOEMEBHL@f?3?2dragonwork?2code?2server?2gameco@ 000000014007c2c0     srvlib_x64:TimeStat.obj
 0002:0000e308       ??_C@_0BA@FJDDLIMD@stack?5was?5empty?$AA@ 000000014007c308     srvlib_x64:TimeStat.obj
 0002:0000e318       ??_C@_0CJ@HEICLDDK@Counter?$DMclass?5CTimeProfDummy?$DO?3?3a@ 000000014007c318     srvlib_x64:TimeStat.obj
 0002:0000e348       ??_C@_0CK@OPIPEKGM@Counter?$DMclass?5CTimeProfRecord?$DO?3?3@ 000000014007c348     srvlib_x64:TimeStat.obj
 0002:0000e380       ??_7?$CBaseList@PEAVCTimeProfRecord@@@container@wylib@@6B@ 000000014007c380     srvlib_x64:TimeStat.obj
 0002:0000e3a0       ??_7?$CBaseList@PEAVCTimeProfMgr@@@container@wylib@@6B@ 000000014007c3a0     srvlib_x64:TimeStat.obj
 0002:0000e3b8       ??_C@_04POLDLDMI@read?$AA@ 000000014007c3b8     srvlib_x64:DefExceptHander.obj
 0002:0000e3c0       ??_C@_05NGFEDHGN@write?$AA@ 000000014007c3c0     srvlib_x64:DefExceptHander.obj
 0002:0000e3c8       ??_C@_07EMGJIMLB@execute?$AA@ 000000014007c3c8     srvlib_x64:DefExceptHander.obj
 0002:0000e3d0       ??_C@_0BC@BDMDPLFD@unknown?5operation?$AA@ 000000014007c3d0     srvlib_x64:DefExceptHander.obj
 0002:0000e3e4       ??_C@_06DAILJAKM@?4local?$AA@ 000000014007c3e4     srvlib_x64:StackWalker.obj
 0002:0000e3f0       ??_C@_0N@JPMPBNML@ProgramFiles?$AA@ 000000014007c3f0     srvlib_x64:StackWalker.obj
 0002:0000e400       ??_C@_0CJ@OAOJNLPC@?2Debugging?5Tools?5for?5Windows?2dbg@ 000000014007c400     srvlib_x64:StackWalker.obj
 0002:0000e430       ??_C@_0DA@GLCFFLED@?2Debugging?5Tools?5for?5Windows?564?9@ 000000014007c430     srvlib_x64:StackWalker.obj
 0002:0000e460       ??_C@_0M@OOEJBPPK@dbghelp?4dll?$AA@ 000000014007c460     srvlib_x64:StackWalker.obj
 0002:0000e470       ??_C@_0O@MCMFENKA@SymInitialize?$AA@ 000000014007c470     srvlib_x64:StackWalker.obj
 0002:0000e480       ??_C@_0L@GDMHENGB@SymCleanup?$AA@ 000000014007c480     srvlib_x64:StackWalker.obj
 0002:0000e490       ??_C@_0M@FJINHFIC@StackWalk64?$AA@ 000000014007c490     srvlib_x64:StackWalker.obj
 0002:0000e4a0       ??_C@_0O@KGBKFDLO@SymGetOptions?$AA@ 000000014007c4a0     srvlib_x64:StackWalker.obj
 0002:0000e4b0       ??_C@_0O@LIDFOEPH@SymSetOptions?$AA@ 000000014007c4b0     srvlib_x64:StackWalker.obj
 0002:0000e4c0       ??_C@_0BJ@OOGADJNM@SymFunctionTableAccess64?$AA@ 000000014007c4c0     srvlib_x64:StackWalker.obj
 0002:0000e4e0       ??_C@_0BF@GMMDJHID@SymGetLineFromAddr64?$AA@ 000000014007c4e0     srvlib_x64:StackWalker.obj
 0002:0000e4f8       ??_C@_0BD@JCAKOMOK@SymGetModuleBase64?$AA@ 000000014007c4f8     srvlib_x64:StackWalker.obj
 0002:0000e510       ??_C@_0BD@KGOGPCFD@SymGetModuleInfo64?$AA@ 000000014007c510     srvlib_x64:StackWalker.obj
 0002:0000e528       ??_C@_0BE@BJGOIHCO@SymGetSymFromAddr64?$AA@ 000000014007c528     srvlib_x64:StackWalker.obj
 0002:0000e540       ??_C@_0BF@BFOGGJKE@UnDecorateSymbolName?$AA@ 000000014007c540     srvlib_x64:StackWalker.obj
 0002:0000e558       ??_C@_0BA@EEINJJDN@SymLoadModule64?$AA@ 000000014007c558     srvlib_x64:StackWalker.obj
 0002:0000e568       ??_C@_0BB@OLAHHPEK@SymGetSearchPath?$AA@ 000000014007c568     srvlib_x64:StackWalker.obj
 0002:0000e580       ??_C@_0N@MDJJJHMB@kernel32?4dll?$AA@ 000000014007c580     srvlib_x64:StackWalker.obj
 0002:0000e590       ??_C@_0N@POEJCLDI@tlhelp32?4dll?$AA@ 000000014007c590     srvlib_x64:StackWalker.obj
 0002:0000e5a0       ??_C@_0BJ@JEFKDHMD@CreateToolhelp32Snapshot?$AA@ 000000014007c5a0     srvlib_x64:StackWalker.obj
 0002:0000e5c0       ??_C@_0O@CNMFJJGO@Module32First?$AA@ 000000014007c5c0     srvlib_x64:StackWalker.obj
 0002:0000e5d0       ??_C@_0N@KIGOLBLC@Module32Next?$AA@ 000000014007c5d0     srvlib_x64:StackWalker.obj
 0002:0000e5e0       ??_C@_09LOPACEED@psapi?4dll?$AA@ 000000014007c5e0     srvlib_x64:StackWalker.obj
 0002:0000e5f0       ??_C@_0BD@FIEJBLME@EnumProcessModules?$AA@ 000000014007c5f0     srvlib_x64:StackWalker.obj
 0002:0000e608       ??_C@_0BF@OFAHHCBJ@GetModuleFileNameExA?$AA@ 000000014007c608     srvlib_x64:StackWalker.obj
 0002:0000e620       ??_C@_0BD@OMILCNII@GetModuleBaseNameA?$AA@ 000000014007c620     srvlib_x64:StackWalker.obj
 0002:0000e638       ??_C@_0BF@OCLFCNKN@GetModuleInformation?$AA@ 000000014007c638     srvlib_x64:StackWalker.obj
 0002:0000e650       ??_C@_0L@MCBFCEND@LoadModule?$AA@ 000000014007c650     srvlib_x64:StackWalker.obj
 0002:0000e65b       ??_C@_00CNPNBAHC@?$AA@     000000014007c65b     srvlib_x64:StackWalker.obj
 0002:0000e65c       ??_C@_01KICIPPFI@?2?$AA@   000000014007c65c     srvlib_x64:StackWalker.obj
 0002:0000e660       ??_C@_09ONCFJJLD@?9unknown?9?$AA@ 000000014007c660     srvlib_x64:StackWalker.obj
 0002:0000e670       ??_C@_0M@OJJJNDFL@?9nosymbols?9?$AA@ 000000014007c670     srvlib_x64:StackWalker.obj
 0002:0000e67c       ??_C@_04DHMNHLOB@COFF?$AA@ 000000014007c67c     srvlib_x64:StackWalker.obj
 0002:0000e684       ??_C@_02JOIDOPKG@CV?$AA@   000000014007c684     srvlib_x64:StackWalker.obj
 0002:0000e688       ??_C@_03KAGKCHNK@PDB?$AA@  000000014007c688     srvlib_x64:StackWalker.obj
 0002:0000e690       ??_C@_0L@FNNPFLEB@?9exported?9?$AA@ 000000014007c690     srvlib_x64:StackWalker.obj
 0002:0000e6a0       ??_C@_0L@HOHGAHBL@?9deferred?9?$AA@ 000000014007c6a0     srvlib_x64:StackWalker.obj
 0002:0000e6ac       ??_C@_03CBLJKENI@SYM?$AA@  000000014007c6ac     srvlib_x64:StackWalker.obj
 0002:0000e6b0       ??_C@_07IBLOOMDG@Virtual?$AA@ 000000014007c6b0     srvlib_x64:StackWalker.obj
 0002:0000e6b8       ??_C@_03FMOECHIC@DIA?$AA@  000000014007c6b8     srvlib_x64:StackWalker.obj
 0002:0000e6c8       ??_7StackWalker@@6B@       000000014007c6c8     srvlib_x64:StackWalker.obj
 0002:0000e718       ??_7CCustomClientSocket@@6B@ 000000014007c718     srvlib_x64:CustomClientSocket.obj
 0002:0000e7a0       ??_C@_0EH@MLHAKMFD@f?3?2dragonwork?2code?2server?2common@ 000000014007c7a0     srvlib_x64:CustomWorkSocket.obj
 0002:0000e7f8       ??_7CCustomWorkSocket@@6B@ 000000014007c7f8     srvlib_x64:CustomWorkSocket.obj
 0002:0000e868       ??_7?$CQueueList@PEAUtagAppInternalMessage@@@container@wylib@@6B@ 000000014007c868     srvlib_x64:CustomWorkSocket.obj
 0002:0000e888       ??_7?$CLockList@PEAUtagAppInternalMessage@@@container@wylib@@6B@ 000000014007c888     srvlib_x64:CustomWorkSocket.obj
 0002:0000e8a8       ??_7?$CBaseList@PEAUtagAppInternalMessage@@@container@wylib@@6B@ 000000014007c8a8     srvlib_x64:CustomWorkSocket.obj
 0002:0000e8c0       ??_C@_0CG@DGJLBAIN@Counter?$DMclass?5CDataPacket?$DO?3?3addT@ 000000014007c8c0     srvlib_x64:SendPackPool.obj
 0002:0000e8f8       ??_7CCustomLuaConfig@@6B@  000000014007c8f8     srvlib_x64:CustomLuaConfig.obj
 0002:0000e938       ??_7?$CBaseList@PEAV?$CRefObjectImpl@VCAnsiString@string@wylib@@@misc@wylib@@@container@wylib@@6B@ 000000014007c938     srvlib_x64:CustomLuaConfig.obj
 0002:0000e950       ??_C@_0CD@ILLPNHEH@falt?5system?5error?3?5lua_gettop?5?$DM?$DN@ 000000014007c950     srvlib_x64:CustomLuaScript.obj
 0002:0000e978       ??_C@_0BA@HFDEDKNE@undefined?5error?$AA@ 000000014007c978     srvlib_x64:CustomLuaScript.obj
 0002:0000e988       ??_C@_0BF@EMLMKIIE@function?3?$CFs?0error?3?$CFs?$AA@ 000000014007c988     srvlib_x64:CustomLuaScript.obj
 0002:0000e9a8       ??_7CCustomLuaScript@@6B@  000000014007c9a8     srvlib_x64:CustomLuaScript.obj
 0002:0000e9e0       ??_C@_0DE@IHHKFPHO@Counter?$DMclass?5CCustomServerClien@ 000000014007c9e0     srvlib_x64:CustomServerClientSocket.obj
 0002:0000ea28       ??_7CCustomServerClientSocket@@6B@ 000000014007ca28     srvlib_x64:CustomServerClientSocket.obj
 0002:0000eaa8       ??_7CCustomServerSocket@@6B@ 000000014007caa8     srvlib_x64:CustomServerSocket.obj
 0002:0000eb60       ??_7?$CQueueList@PEAVCCustomServerClientSocket@@@container@wylib@@6B@ 000000014007cb60     srvlib_x64:CustomServerSocket.obj
 0002:0000eb80       ??_7?$CLockList@PEAVCCustomServerClientSocket@@@container@wylib@@6B@ 000000014007cb80     srvlib_x64:CustomServerSocket.obj
 0002:0000eba0       ??_7?$CBaseList@PEAVCCustomServerClientSocket@@@container@wylib@@6B@ 000000014007cba0     srvlib_x64:CustomServerSocket.obj
 0002:0000ebc0       ??_7CNameAllocator@@6B@    000000014007cbc0     srvlib_x64:NameAllocator.obj
 0002:0000ebe0       ??_7?$CBaseList@PEBD@container@wylib@@6B@ 000000014007cbe0     srvlib_x64:NameAllocator.obj
 0002:0000ec00       ??_7?$CBaseList@_N@container@wylib@@6B@ 000000014007cc00     srvlib_x64:NameAllocator.obj
 0002:0000ec20       ??_7CWinService@@6B@       000000014007cc20     srvlib_x64:WinService.obj
 0002:0000ec30       ??_C@_04OIOEJAEI@?M?x?$LJ?X?$AA@ 000000014007cc30     servercommon_x64:CustomJXServerClientSocket.obj
 0002:0000ec38       ??_C@_04CHACIOH@?H?U?V?$LO?$AA@ 000000014007cc38     servercommon_x64:CustomJXServerClientSocket.obj
 0002:0000ec40       ??_C@_04JMLHDLMO@?C?$PL?$LD?F?$AA@ 000000014007cc40     servercommon_x64:CustomJXServerClientSocket.obj
 0002:0000ec48       ??_C@_04BNMHKIPD@?$LL?a?$LL?$LA?$AA@ 000000014007cc48     servercommon_x64:CustomJXServerClientSocket.obj
 0002:0000ec50       ??_C@_04BFCCFOKK@?J?$PN?$LO?$NN?$AA@ 000000014007cc50     servercommon_x64:CustomJXServerClientSocket.obj
 0002:0000ec58       ??_C@_04DNCNPEG@?B?$NP?$LM?$KN?$AA@ 000000014007cc58     servercommon_x64:CustomJXServerClientSocket.obj
 0002:0000ec60       ??_C@_04CAAEJKHE@?N?$LE?V?$KK?$AA@ 000000014007cc60     servercommon_x64:CustomJXServerClientSocket.obj
 0002:0000ec78       ??_7CCustomJXServerClientSocket@@6B@ 000000014007cc78     servercommon_x64:CustomJXServerClientSocket.obj
 0002:0000ed00       ??_C@_01EEMJAFIK@?6?$AA@   000000014007cd00     servercommon_x64:FileLogger.obj
 0002:0000ed10       ??_C@_0FO@IKJPAOOE@?9?9?9?9?9?9?9?9?9?9?9?9?9?9?9?9?9?9?9?9?9?9?9?9?9?9?9?9?9?9?9?9@ 000000014007cd10     servercommon_x64:FileLogger.obj
 0002:0000ed70       ??_C@_0BE@DMHFPANB@?$CFY?9?$CFm?9?$CFd?5?$CFH?3?$CFM?3?$CFS?$AN?6?$AA@ 000000014007cd70     servercommon_x64:FileLogger.obj
 0002:0000ed88       ??_C@_0CA@KBPLFHHM@?$FL?$CF02d?9?$CF02d?9?$CF02d?5?$CF02d?3?$CF02d?3?$CF02d?$FN?$AA@ 000000014007cd88     servercommon_x64:FileLogger.obj
 0002:0000eda8       ??_C@_05LJEOGPLP@?$FLERR?$FN?$AA@ 000000014007cda8     servercommon_x64:FileLogger.obj
 0002:0000edb0       ??_C@_05GAFCNFHN@?$FLTIP?$FN?$AA@ 000000014007cdb0     servercommon_x64:FileLogger.obj
 0002:0000edb8       ??_C@_05LGFCPBEJ@?$FLWRN?$FN?$AA@ 000000014007cdb8     servercommon_x64:FileLogger.obj
 0002:0000edc0       ??_C@_0BD@FOLNPDDM@FileLoggerStat?4log?$AA@ 000000014007cdc0     servercommon_x64:FileLogger.obj
 0002:0000edd8       ??_C@_0BK@IONKBFPL@?W?$NM?$LH?V?E?d?$LF?D?J?$PN?$LO?$NN?$LA?$PM?J?$PN?D?$LP?5?$DN?5?$CFd?$AN?6?$AA@ 000000014007cdd8     servercommon_x64:FileLogger.obj
 0002:0000edf8       ??_C@_0CO@KACPIOKD@?P?$KB?$LP?i?D?Z?$LE?f?W?$NM?$LH?V?E?d?W?V?$LN?Z?J?$PN?5?$DN?5?$CF?920d?0?5?$LP?U@ 000000014007cdf8     servercommon_x64:FileLogger.obj
 0002:0000ee28       ??_C@_0CO@HFBKJBCO@?V?P?$LP?i?D?Z?$LE?f?W?$NM?$LH?V?E?d?W?V?$LN?Z?J?$PN?5?$DN?5?$CF?920d?0?5?$LP?U@ 000000014007ce28     servercommon_x64:FileLogger.obj
 0002:0000ee58       ??_C@_0CO@BHPEFCDL@?$LE?s?$LP?i?D?Z?$LE?f?W?$NM?$LH?V?E?d?W?V?$LN?Z?J?$PN?5?$DN?5?$CF?920d?0?5?$LP?U@ 000000014007ce58     servercommon_x64:FileLogger.obj
 0002:0000ee88       ??_C@_0DA@NMHIPJMJ@?$LD?$KM?$LE?s?$LP?i?D?Z?$LE?f?W?$NM?$LH?V?E?d?W?V?$LN?Z?J?$PN?5?$DN?5?$CF?920d?0?5@ 000000014007ce88     servercommon_x64:FileLogger.obj
 0002:0000eeb8       ??_C@_0CO@GJBFEKE@?$LP?U?O?P?H?U?V?$LO?O?$PL?O?$KC?J?$PN?A?$LP?5?$DN?5?$CF?920d?0?5?$LE?$PN?P?$LE?H?k@ 000000014007ceb8     servercommon_x64:FileLogger.obj
 0002:0000eef0       ??_7COPMToFile@@6BCBaseThread@thread@wylib@@@ 000000014007cef0     servercommon_x64:FileLogger.obj
 0002:0000ef18       ??_7COPMToFile@@6BCFileStream@stream@wylib@@@ 000000014007cf18     servercommon_x64:FileLogger.obj
 0002:0000efd8       __real@5f800000            000000014007cfd8      CIL library: CIL module
 0002:0000f180       ??_R4CustomStackWalker@@6B@ 000000014007d180     CustomExceptHander.obj
 0002:0000f1a8       ??_R3CustomStackWalker@@8  000000014007d1a8     CustomExceptHander.obj
 0002:0000f1c0       ??_R2CustomStackWalker@@8  000000014007d1c0     CustomExceptHander.obj
 0002:0000f1d8       ??_R1A@?0A@EA@CustomStackWalker@@8 000000014007d1d8     CustomExceptHander.obj
 0002:0000f200       ??_R4CDBCenterClient@@6BCCustomJXClientSocket@@@ 000000014007d200     DBCenterClient.obj
 0002:0000f228       ??_R3CDBCenterClient@@8    000000014007d228     DBCenterClient.obj
 0002:0000f240       ??_R2CDBCenterClient@@8    000000014007d240     DBCenterClient.obj
 0002:0000f280       ??_R1A@?0A@EA@CDBCenterClient@@8 000000014007d280     DBCenterClient.obj
 0002:0000f2a8       ??_R1A@?0A@EA@CCustomJXClientSocket@@8 000000014007d2a8     DBCenterClient.obj
 0002:0000f2d0       ??_R3CCustomJXClientSocket@@8 000000014007d2d0     DBCenterClient.obj
 0002:0000f2e8       ??_R2CCustomJXClientSocket@@8 000000014007d2e8     DBCenterClient.obj
 0002:0000f318       ??_R1GAI@?0A@EA@ILogicDBRequestHost@@8 000000014007d318     DBCenterClient.obj
 0002:0000f340       ??_R3ILogicDBRequestHost@@8 000000014007d340     DBCenterClient.obj
 0002:0000f358       ??_R2ILogicDBRequestHost@@8 000000014007d358     DBCenterClient.obj
 0002:0000f368       ??_R1A@?0A@EA@ILogicDBRequestHost@@8 000000014007d368     DBCenterClient.obj
 0002:0000f390       ??_R4CDBCenterClient@@6BILogicDBRequestHost@@@ 000000014007d390     DBCenterClient.obj
 0002:0000f3b8       ??_R4CCustomJXClientSocket@@6B@ 000000014007d3b8     DBCenterClient.obj
 0002:0000f3e0       ??_R4ILogicDBRequestHost@@6B@ 000000014007d3e0     DBCenterClient.obj
 0002:0000f408       ??_R4CDBConfig@@6B@        000000014007d408     DBConfig.obj
 0002:0000f430       ??_R3CDBConfig@@8          000000014007d430     DBConfig.obj
 0002:0000f448       ??_R2CDBConfig@@8          000000014007d448     DBConfig.obj
 0002:0000f468       ??_R1A@?0A@EA@CDBConfig@@8 000000014007d468     DBConfig.obj
 0002:0000f490       ??_R4CDBDataCache@@6B@     000000014007d490     DBDataCache.obj
 0002:0000f4b8       ??_R3CDBDataCache@@8       000000014007d4b8     DBDataCache.obj
 0002:0000f4d0       ??_R2CDBDataCache@@8       000000014007d4d0     DBDataCache.obj
 0002:0000f4e0       ??_R1A@?0A@EA@CDBDataCache@@8 000000014007d4e0     DBDataCache.obj
 0002:0000f508       ??_R4?$CBaseLinkedList@PEAVCActorCacheData@@@container@wylib@@6B@ 000000014007d508     DBDataCache.obj
 0002:0000f530       ??_R3?$CBaseLinkedList@PEAVCActorCacheData@@@container@wylib@@8 000000014007d530     DBDataCache.obj
 0002:0000f548       ??_R2?$CBaseLinkedList@PEAVCActorCacheData@@@container@wylib@@8 000000014007d548     DBDataCache.obj
 0002:0000f558       ??_R1A@?0A@EA@?$CBaseLinkedList@PEAVCActorCacheData@@@container@wylib@@8 000000014007d558     DBDataCache.obj
 0002:0000f580       ??_R4?$CBaseList@I@container@wylib@@6B@ 000000014007d580     DBDataCache.obj
 0002:0000f5a8       ??_R3?$CBaseList@I@container@wylib@@8 000000014007d5a8     DBDataCache.obj
 0002:0000f5c0       ??_R2?$CBaseList@I@container@wylib@@8 000000014007d5c0     DBDataCache.obj
 0002:0000f5d0       ??_R1A@?0A@EA@?$CBaseList@I@container@wylib@@8 000000014007d5d0     DBDataCache.obj
 0002:0000f5f8       ??_R4?$CBaseList@V?$CBaseList@VCActorCacheData@@@container@wylib@@@container@wylib@@6B@ 000000014007d5f8     DBDataCache.obj
 0002:0000f620       ??_R3?$CBaseList@V?$CBaseList@VCActorCacheData@@@container@wylib@@@container@wylib@@8 000000014007d620     DBDataCache.obj
 0002:0000f638       ??_R2?$CBaseList@V?$CBaseList@VCActorCacheData@@@container@wylib@@@container@wylib@@8 000000014007d638     DBDataCache.obj
 0002:0000f648       ??_R1A@?0A@EA@?$CBaseList@V?$CBaseList@VCActorCacheData@@@container@wylib@@@container@wylib@@8 000000014007d648     DBDataCache.obj
 0002:0000f670       ??_R4?$CBaseList@V?$CBaseList@V?$Handle@I@@@container@wylib@@@container@wylib@@6B@ 000000014007d670     DBDataCache.obj
 0002:0000f698       ??_R3?$CBaseList@V?$CBaseList@V?$Handle@I@@@container@wylib@@@container@wylib@@8 000000014007d698     DBDataCache.obj
 0002:0000f6b0       ??_R2?$CBaseList@V?$CBaseList@V?$Handle@I@@@container@wylib@@@container@wylib@@8 000000014007d6b0     DBDataCache.obj
 0002:0000f6c0       ??_R1A@?0A@EA@?$CBaseList@V?$CBaseList@V?$Handle@I@@@container@wylib@@@container@wylib@@8 000000014007d6c0     DBDataCache.obj
 0002:0000f6e8       ??_R4?$CBaseList@VCActorCacheData@@@container@wylib@@6B@ 000000014007d6e8     DBDataCache.obj
 0002:0000f710       ??_R3?$CBaseList@VCActorCacheData@@@container@wylib@@8 000000014007d710     DBDataCache.obj
 0002:0000f728       ??_R2?$CBaseList@VCActorCacheData@@@container@wylib@@8 000000014007d728     DBDataCache.obj
 0002:0000f738       ??_R1A@?0A@EA@?$CBaseList@VCActorCacheData@@@container@wylib@@8 000000014007d738     DBDataCache.obj
 0002:0000f760       ??_R4?$CBaseList@V?$Handle@I@@@container@wylib@@6B@ 000000014007d760     DBDataCache.obj
 0002:0000f788       ??_R3?$CBaseList@V?$Handle@I@@@container@wylib@@8 000000014007d788     DBDataCache.obj
 0002:0000f7a0       ??_R2?$CBaseList@V?$Handle@I@@@container@wylib@@8 000000014007d7a0     DBDataCache.obj
 0002:0000f7b0       ??_R1A@?0A@EA@?$CBaseList@V?$Handle@I@@@container@wylib@@8 000000014007d7b0     DBDataCache.obj
 0002:0000f7d8       ??_R4bad_alloc@std@@6B@    000000014007d7d8     DBDataCache.obj
 0002:0000f800       ??_R3bad_alloc@std@@8      000000014007d800     DBDataCache.obj
 0002:0000f818       ??_R2bad_alloc@std@@8      000000014007d818     DBDataCache.obj
 0002:0000f830       ??_R1A@?0A@EA@bad_alloc@std@@8 000000014007d830     DBDataCache.obj
 0002:0000f858       ??_R1A@?0A@EA@exception@std@@8 000000014007d858     DBDataCache.obj
 0002:0000f880       ??_R3exception@std@@8      000000014007d880     DBDataCache.obj
 0002:0000f898       ??_R2exception@std@@8      000000014007d898     DBDataCache.obj
 0002:0000f8a8       ??_R4?$CBaseLinkedList@PEBVHandleMgrStat@@@container@wylib@@6B@ 000000014007d8a8     DBDataCache.obj
 0002:0000f8d0       ??_R3?$CBaseLinkedList@PEBVHandleMgrStat@@@container@wylib@@8 000000014007d8d0     DBDataCache.obj
 0002:0000f8e8       ??_R2?$CBaseLinkedList@PEBVHandleMgrStat@@@container@wylib@@8 000000014007d8e8     DBDataCache.obj
 0002:0000f8f8       ??_R1A@?0A@EA@?$CBaseLinkedList@PEBVHandleMgrStat@@@container@wylib@@8 000000014007d8f8     DBDataCache.obj
 0002:0000f920       ??_R4CDBDataClient@@6BCCustomJXServerClientSocket@@@ 000000014007d920     DBDataClient.obj
 0002:0000f948       ??_R3CDBDataClient@@8      000000014007d948     DBDataClient.obj
 0002:0000f960       ??_R2CDBDataClient@@8      000000014007d960     DBDataClient.obj
 0002:0000f9a8       ??_R1A@?0A@EA@CDBDataClient@@8 000000014007d9a8     DBDataClient.obj
 0002:0000f9d0       ??_R1EEI@?0A@EA@ILogicDBRequestHost@@8 000000014007d9d0     DBDataClient.obj
 0002:0000f9f8       ??_R4CDBDataClient@@6BILogicDBRequestHost@@@ 000000014007d9f8     DBDataClient.obj
 0002:0000fa20       ??_R4?$CLockList@PEATtagASyncNameOPData@CDBDataClient@@@container@wylib@@6B@ 000000014007da20     DBDataClient.obj
 0002:0000fa48       ??_R3?$CLockList@PEATtagASyncNameOPData@CDBDataClient@@@container@wylib@@8 000000014007da48     DBDataClient.obj
 0002:0000fa60       ??_R2?$CLockList@PEATtagASyncNameOPData@CDBDataClient@@@container@wylib@@8 000000014007da60     DBDataClient.obj
 0002:0000fa78       ??_R1A@?0A@EA@?$CLockList@PEATtagASyncNameOPData@CDBDataClient@@@container@wylib@@8 000000014007da78     DBDataClient.obj
 0002:0000faa0       ??_R1A@?0A@EA@?$CBaseList@PEATtagASyncNameOPData@CDBDataClient@@@container@wylib@@8 000000014007daa0     DBDataClient.obj
 0002:0000fac8       ??_R3?$CBaseList@PEATtagASyncNameOPData@CDBDataClient@@@container@wylib@@8 000000014007dac8     DBDataClient.obj
 0002:0000fae0       ??_R2?$CBaseList@PEATtagASyncNameOPData@CDBDataClient@@@container@wylib@@8 000000014007dae0     DBDataClient.obj
 0002:0000faf0       ??_R4?$CBaseList@PEATtagASyncNameOPData@CDBDataClient@@@container@wylib@@6B@ 000000014007daf0     DBDataClient.obj
 0002:0000fb18       ??_R4CDBDataClientHandler@@6B@ 000000014007db18     DBDataClientHandler.obj
 0002:0000fb40       ??_R3CDBDataClientHandler@@8 000000014007db40     DBDataClientHandler.obj
 0002:0000fb58       ??_R2CDBDataClientHandler@@8 000000014007db58     DBDataClientHandler.obj
 0002:0000fb78       ??_R1A@?0A@EA@CDBDataClientHandler@@8 000000014007db78     DBDataClientHandler.obj
 0002:0000fba0       ??_R1A@?0A@EA@CKBaseThread@thread@wylib@@8 000000014007dba0     DBDataClientHandler.obj
 0002:0000fbc8       ??_R3CKBaseThread@thread@wylib@@8 000000014007dbc8     DBDataClientHandler.obj
 0002:0000fbe0       ??_R2CKBaseThread@thread@wylib@@8 000000014007dbe0     DBDataClientHandler.obj
 0002:0000fbf0       ??_R1HA@?0A@EA@CSendPacketPool@@8 000000014007dbf0     DBDataClientHandler.obj
 0002:0000fc18       ??_R4CDBDataServer@@6B@    000000014007dc18     DBDataServer.obj
 0002:0000fc40       ??_R3CDBDataServer@@8      000000014007dc40     DBDataServer.obj
 0002:0000fc58       ??_R2CDBDataServer@@8      000000014007dc58     DBDataServer.obj
 0002:0000fc88       ??_R1A@?0A@EA@CDBDataServer@@8 000000014007dc88     DBDataServer.obj
 0002:0000fcb0       ??_R4?$CBaseList@PEAVCDBDataClient@@@container@wylib@@6B@ 000000014007dcb0     DBDataServer.obj
 0002:0000fcd8       ??_R3?$CBaseList@PEAVCDBDataClient@@@container@wylib@@8 000000014007dcd8     DBDataServer.obj
 0002:0000fcf0       ??_R2?$CBaseList@PEAVCDBDataClient@@@container@wylib@@8 000000014007dcf0     DBDataServer.obj
 0002:0000fd00       ??_R1A@?0A@EA@?$CBaseList@PEAVCDBDataClient@@@container@wylib@@8 000000014007dd00     DBDataServer.obj
 0002:0000fd28       ??_R4?$CBaseList@H@container@wylib@@6B@ 000000014007dd28     DBDataServer.obj
 0002:0000fd50       ??_R3?$CBaseList@H@container@wylib@@8 000000014007dd50     DBDataServer.obj
 0002:0000fd68       ??_R2?$CBaseList@H@container@wylib@@8 000000014007dd68     DBDataServer.obj
 0002:0000fd78       ??_R1A@?0A@EA@?$CBaseList@H@container@wylib@@8 000000014007dd78     DBDataServer.obj
 0002:0000fda0       ??_R4?$CBaseList@UPlayerZYDistribute@@@container@wylib@@6B@ 000000014007dda0     DBDataServer.obj
 0002:0000fdc8       ??_R3?$CBaseList@UPlayerZYDistribute@@@container@wylib@@8 000000014007ddc8     DBDataServer.obj
 0002:0000fde0       ??_R2?$CBaseList@UPlayerZYDistribute@@@container@wylib@@8 000000014007dde0     DBDataServer.obj
 0002:0000fdf0       ??_R1A@?0A@EA@?$CBaseList@UPlayerZYDistribute@@@container@wylib@@8 000000014007ddf0     DBDataServer.obj
 0002:0000fe18       ??_R4?$CBaseList@UPlayerJobDistribute@@@container@wylib@@6B@ 000000014007de18     DBDataServer.obj
 0002:0000fe40       ??_R3?$CBaseList@UPlayerJobDistribute@@@container@wylib@@8 000000014007de40     DBDataServer.obj
 0002:0000fe58       ??_R2?$CBaseList@UPlayerJobDistribute@@@container@wylib@@8 000000014007de58     DBDataServer.obj
 0002:0000fe68       ??_R1A@?0A@EA@?$CBaseList@UPlayerJobDistribute@@@container@wylib@@8 000000014007de68     DBDataServer.obj
 0002:0000fe90       ??_R4?$CBaseList@UPlayerNameDistribute@@@container@wylib@@6B@ 000000014007de90     DBDataServer.obj
 0002:0000feb8       ??_R3?$CBaseList@UPlayerNameDistribute@@@container@wylib@@8 000000014007deb8     DBDataServer.obj
 0002:0000fed0       ??_R2?$CBaseList@UPlayerNameDistribute@@@container@wylib@@8 000000014007ded0     DBDataServer.obj
 0002:0000fee0       ??_R1A@?0A@EA@?$CBaseList@UPlayerNameDistribute@@@container@wylib@@8 000000014007dee0     DBDataServer.obj
 0002:0000ff08       ??_R4?$CLockList@PEAUtagGameServerRoute@jxSrvDef@@@container@wylib@@6B@ 000000014007df08     DBServer.obj
 0002:0000ff30       ??_R3?$CLockList@PEAUtagGameServerRoute@jxSrvDef@@@container@wylib@@8 000000014007df30     DBServer.obj
 0002:0000ff48       ??_R2?$CLockList@PEAUtagGameServerRoute@jxSrvDef@@@container@wylib@@8 000000014007df48     DBServer.obj
 0002:0000ff60       ??_R1A@?0A@EA@?$CLockList@PEAUtagGameServerRoute@jxSrvDef@@@container@wylib@@8 000000014007df60     DBServer.obj
 0002:0000ff88       ??_R1A@?0A@EA@?$CBaseList@PEAUtagGameServerRoute@jxSrvDef@@@container@wylib@@8 000000014007df88     DBServer.obj
 0002:0000ffb0       ??_R3?$CBaseList@PEAUtagGameServerRoute@jxSrvDef@@@container@wylib@@8 000000014007dfb0     DBServer.obj
 0002:0000ffc8       ??_R2?$CBaseList@PEAUtagGameServerRoute@jxSrvDef@@@container@wylib@@8 000000014007dfc8     DBServer.obj
 0002:0000ffd8       ??_R4?$CBaseList@PEAUtagGameServerRoute@jxSrvDef@@@container@wylib@@6B@ 000000014007dfd8     DBServer.obj
 0002:00010000       ??_R4CNameSyncClient@@6B@  000000014007e000     DBNSClient.obj
 0002:00010028       ??_R3CNameSyncClient@@8    000000014007e028     DBNSClient.obj
 0002:00010040       ??_R2CNameSyncClient@@8    000000014007e040     DBNSClient.obj
 0002:00010078       ??_R1A@?0A@EA@CNameSyncClient@@8 000000014007e078     DBNSClient.obj
 0002:000100a0       ??_R4?$CBaseList@PEAUNameOperateData@CNameSyncClient@@@container@wylib@@6B@ 000000014007e0a0     DBNSClient.obj
 0002:000100c8       ??_R3?$CBaseList@PEAUNameOperateData@CNameSyncClient@@@container@wylib@@8 000000014007e0c8     DBNSClient.obj
 0002:000100e0       ??_R2?$CBaseList@PEAUNameOperateData@CNameSyncClient@@@container@wylib@@8 000000014007e0e0     DBNSClient.obj
 0002:000100f0       ??_R1A@?0A@EA@?$CBaseList@PEAUNameOperateData@CNameSyncClient@@@container@wylib@@8 000000014007e0f0     DBNSClient.obj
 0002:00010118       ??_R4?$CLockList@PEAUNameOperateData@CNameSyncClient@@@container@wylib@@6B@ 000000014007e118     DBNSClient.obj
 0002:00010140       ??_R3?$CLockList@PEAUNameOperateData@CNameSyncClient@@@container@wylib@@8 000000014007e140     DBNSClient.obj
 0002:00010158       ??_R2?$CLockList@PEAUNameOperateData@CNameSyncClient@@@container@wylib@@8 000000014007e158     DBNSClient.obj
 0002:00010170       ??_R1A@?0A@EA@?$CLockList@PEAUNameOperateData@CNameSyncClient@@@container@wylib@@8 000000014007e170     DBNSClient.obj
 0002:00010198       ??_R4?$CBaseList@UtagDbEsql@@@container@wylib@@6B@ 000000014007e198     EsqlMgr.obj
 0002:000101c0       ??_R3?$CBaseList@UtagDbEsql@@@container@wylib@@8 000000014007e1c0     EsqlMgr.obj
 0002:000101d8       ??_R2?$CBaseList@UtagDbEsql@@@container@wylib@@8 000000014007e1d8     EsqlMgr.obj
 0002:000101e8       ??_R1A@?0A@EA@?$CBaseList@UtagDbEsql@@@container@wylib@@8 000000014007e1e8     EsqlMgr.obj
 0002:00010210       ??_R4CDbService@@6B@       000000014007e210     main.obj
 0002:00010238       ??_R3CDbService@@8         000000014007e238     main.obj
 0002:00010250       ??_R2CDbService@@8         000000014007e250     main.obj
 0002:00010268       ??_R1A@?0A@EA@CDbService@@8 000000014007e268     main.obj
 0002:00010290       ??_R4CBaseStream@stream@wylib@@6B@ 000000014007e290     wylib_x64:FileStream.obj
 0002:000102b8       ??_R4CFileStream@stream@wylib@@6B@ 000000014007e2b8     wylib_x64:FileStream.obj
 0002:000102e0       ??_R3CBaseLock@lock@sync@wylib@@8 000000014007e2e0     wylib_x64:Lock.obj
 0002:000102f8       ??_R2CBaseLock@lock@sync@wylib@@8 000000014007e2f8     wylib_x64:Lock.obj
 0002:00010308       ??_R1A@?0A@EA@CBaseLock@lock@sync@wylib@@8 000000014007e308     wylib_x64:Lock.obj
 0002:00010330       ??_R4CCSLock@lock@sync@wylib@@6B@ 000000014007e330     wylib_x64:Lock.obj
 0002:00010358       ??_R3CCSLock@lock@sync@wylib@@8 000000014007e358     wylib_x64:Lock.obj
 0002:00010370       ??_R2CCSLock@lock@sync@wylib@@8 000000014007e370     wylib_x64:Lock.obj
 0002:00010388       ??_R1A@?0A@EA@CCSLock@lock@sync@wylib@@8 000000014007e388     wylib_x64:Lock.obj
 0002:000103b0       ??_R4CCustomSocket@socket@inet@wylib@@6B@ 000000014007e3b0     wylib_x64:CustomSocket.obj
 0002:000103d8       ??_R4CMemoryStream@stream@wylib@@6B@ 000000014007e3d8     wylib_x64:MemoryStream.obj
 0002:00010400       ??_R3CMemoryStream@stream@wylib@@8 000000014007e400     wylib_x64:MemoryStream.obj
 0002:00010418       ??_R2CMemoryStream@stream@wylib@@8 000000014007e418     wylib_x64:MemoryStream.obj
 0002:00010430       ??_R1A@?0A@EA@CMemoryStream@stream@wylib@@8 000000014007e430     wylib_x64:MemoryStream.obj
 0002:00010458       ??_R4CKBaseThread@thread@wylib@@6B@ 000000014007e458     wylib_x64:KThread.obj
 0002:00010480       ??_R4CHandleStream@stream@wylib@@6B@ 000000014007e480     wylib_x64:HandleStream.obj
 0002:000104a8       ??_R4type_info@@6B@        000000014007e4a8     MSVCRT:ti_inst.obj
 0002:000104d0       ??_R3type_info@@8          000000014007e4d0     MSVCRT:ti_inst.obj
 0002:000104e8       ??_R2type_info@@8          000000014007e4e8     MSVCRT:ti_inst.obj
 0002:000104f8       ??_R1A@?0A@EA@type_info@@8 000000014007e4f8     MSVCRT:ti_inst.obj
 0002:00010520       ??_R4CBaseThread@thread@wylib@@6B@ 000000014007e520     wylib_x64:Thread.obj
 0002:00010548       ??_R4?$CBaseList@PEAVCTimeProfMgr@@@container@wylib@@6B@ 000000014007e548     srvlib_x64:TimeStat.obj
 0002:00010570       ??_R3?$CBaseList@PEAVCTimeProfMgr@@@container@wylib@@8 000000014007e570     srvlib_x64:TimeStat.obj
 0002:00010588       ??_R2?$CBaseList@PEAVCTimeProfMgr@@@container@wylib@@8 000000014007e588     srvlib_x64:TimeStat.obj
 0002:00010598       ??_R1A@?0A@EA@?$CBaseList@PEAVCTimeProfMgr@@@container@wylib@@8 000000014007e598     srvlib_x64:TimeStat.obj
 0002:000105c0       ??_R4?$CBaseList@PEAVCTimeProfRecord@@@container@wylib@@6B@ 000000014007e5c0     srvlib_x64:TimeStat.obj
 0002:000105e8       ??_R3?$CBaseList@PEAVCTimeProfRecord@@@container@wylib@@8 000000014007e5e8     srvlib_x64:TimeStat.obj
 0002:00010600       ??_R2?$CBaseList@PEAVCTimeProfRecord@@@container@wylib@@8 000000014007e600     srvlib_x64:TimeStat.obj
 0002:00010610       ??_R1A@?0A@EA@?$CBaseList@PEAVCTimeProfRecord@@@container@wylib@@8 000000014007e610     srvlib_x64:TimeStat.obj
 0002:00010638       ??_R4StackWalker@@6B@      000000014007e638     srvlib_x64:StackWalker.obj
 0002:00010660       ??_R3StackWalker@@8        000000014007e660     srvlib_x64:StackWalker.obj
 0002:00010678       ??_R2StackWalker@@8        000000014007e678     srvlib_x64:StackWalker.obj
 0002:00010688       ??_R1A@?0A@EA@StackWalker@@8 000000014007e688     srvlib_x64:StackWalker.obj
 0002:000106b0       ??_R4CCustomClientSocket@@6B@ 000000014007e6b0     srvlib_x64:CustomClientSocket.obj
 0002:000106d8       ??_R3CCustomClientSocket@@8 000000014007e6d8     srvlib_x64:CustomClientSocket.obj
 0002:000106f0       ??_R2CCustomClientSocket@@8 000000014007e6f0     srvlib_x64:CustomClientSocket.obj
 0002:00010718       ??_R1A@?0A@EA@CCustomWorkSocket@@8 000000014007e718     srvlib_x64:CustomClientSocket.obj
 0002:00010740       ??_R3CCustomWorkSocket@@8  000000014007e740     srvlib_x64:CustomClientSocket.obj
 0002:00010758       ??_R2CCustomWorkSocket@@8  000000014007e758     srvlib_x64:CustomClientSocket.obj
 0002:00010778       ??_R1DI@?0A@EA@CSendPacketPool@@8 000000014007e778     srvlib_x64:CustomClientSocket.obj
 0002:000107a0       ??_R3CSendPacketPool@@8    000000014007e7a0     srvlib_x64:CustomClientSocket.obj
 0002:000107b8       ??_R2CSendPacketPool@@8    000000014007e7b8     srvlib_x64:CustomClientSocket.obj
 0002:000107c8       ??_R1A@?0A@EA@CSendPacketPool@@8 000000014007e7c8     srvlib_x64:CustomClientSocket.obj
 0002:000107f0       ??_R1A@?0A@EA@CCustomSocket@socket@inet@wylib@@8 000000014007e7f0     srvlib_x64:CustomClientSocket.obj
 0002:00010818       ??_R3CCustomSocket@socket@inet@wylib@@8 000000014007e818     srvlib_x64:CustomClientSocket.obj
 0002:00010830       ??_R2CCustomSocket@socket@inet@wylib@@8 000000014007e830     srvlib_x64:CustomClientSocket.obj
 0002:00010840       ??_R1A@?0A@EA@CCustomClientSocket@@8 000000014007e840     srvlib_x64:CustomClientSocket.obj
 0002:00010868       ??_R4?$CBaseList@PEAUtagAppInternalMessage@@@container@wylib@@6B@ 000000014007e868     srvlib_x64:CustomWorkSocket.obj
 0002:00010890       ??_R4?$CLockList@PEAUtagAppInternalMessage@@@container@wylib@@6B@ 000000014007e890     srvlib_x64:CustomWorkSocket.obj
 0002:000108b8       ??_R4?$CQueueList@PEAUtagAppInternalMessage@@@container@wylib@@6B@ 000000014007e8b8     srvlib_x64:CustomWorkSocket.obj
 0002:000108e0       ??_R3?$CQueueList@PEAUtagAppInternalMessage@@@container@wylib@@8 000000014007e8e0     srvlib_x64:CustomWorkSocket.obj
 0002:000108f8       ??_R2?$CQueueList@PEAUtagAppInternalMessage@@@container@wylib@@8 000000014007e8f8     srvlib_x64:CustomWorkSocket.obj
 0002:00010918       ??_R1A@?0A@EA@?$CLockList@PEAUtagAppInternalMessage@@@container@wylib@@8 000000014007e918     srvlib_x64:CustomWorkSocket.obj
 0002:00010940       ??_R3?$CLockList@PEAUtagAppInternalMessage@@@container@wylib@@8 000000014007e940     srvlib_x64:CustomWorkSocket.obj
 0002:00010958       ??_R2?$CLockList@PEAUtagAppInternalMessage@@@container@wylib@@8 000000014007e958     srvlib_x64:CustomWorkSocket.obj
 0002:00010970       ??_R1A@?0A@EA@?$CBaseList@PEAUtagAppInternalMessage@@@container@wylib@@8 000000014007e970     srvlib_x64:CustomWorkSocket.obj
 0002:00010998       ??_R3?$CBaseList@PEAUtagAppInternalMessage@@@container@wylib@@8 000000014007e998     srvlib_x64:CustomWorkSocket.obj
 0002:000109b0       ??_R2?$CBaseList@PEAUtagAppInternalMessage@@@container@wylib@@8 000000014007e9b0     srvlib_x64:CustomWorkSocket.obj
 0002:000109c0       ??_R1A@?0A@EA@?$CQueueList@PEAUtagAppInternalMessage@@@container@wylib@@8 000000014007e9c0     srvlib_x64:CustomWorkSocket.obj
 0002:000109e8       ??_R4CCustomWorkSocket@@6B@ 000000014007e9e8     srvlib_x64:CustomWorkSocket.obj
 0002:00010a10       ??_R4?$CLockList@PEAVCDataPacket@@@container@wylib@@6B@ 000000014007ea10     srvlib_x64:SendPackPool.obj
 0002:00010a38       ??_R4?$CQueueList@PEAVCDataPacket@@@container@wylib@@6B@ 000000014007ea38     srvlib_x64:SendPackPool.obj
 0002:00010a60       ??_R3?$CQueueList@PEAVCDataPacket@@@container@wylib@@8 000000014007ea60     srvlib_x64:SendPackPool.obj
 0002:00010a78       ??_R2?$CQueueList@PEAVCDataPacket@@@container@wylib@@8 000000014007ea78     srvlib_x64:SendPackPool.obj
 0002:00010a98       ??_R1A@?0A@EA@?$CLockList@PEAVCDataPacket@@@container@wylib@@8 000000014007ea98     srvlib_x64:SendPackPool.obj
 0002:00010ac0       ??_R3?$CLockList@PEAVCDataPacket@@@container@wylib@@8 000000014007eac0     srvlib_x64:SendPackPool.obj
 0002:00010ad8       ??_R2?$CLockList@PEAVCDataPacket@@@container@wylib@@8 000000014007ead8     srvlib_x64:SendPackPool.obj
 0002:00010af0       ??_R1A@?0A@EA@?$CQueueList@PEAVCDataPacket@@@container@wylib@@8 000000014007eaf0     srvlib_x64:SendPackPool.obj
 0002:00010b18       ??_R4?$CBaseList@PEAVCDataPacket@@@container@wylib@@6B@ 000000014007eb18     srvlib_x64:SendPackPool.obj
 0002:00010b40       ??_R3?$CBaseList@PEAVCDataPacket@@@container@wylib@@8 000000014007eb40     srvlib_x64:SendPackPool.obj
 0002:00010b58       ??_R2?$CBaseList@PEAVCDataPacket@@@container@wylib@@8 000000014007eb58     srvlib_x64:SendPackPool.obj
 0002:00010b68       ??_R1A@?0A@EA@?$CBaseList@PEAVCDataPacket@@@container@wylib@@8 000000014007eb68     srvlib_x64:SendPackPool.obj
 0002:00010b90       ??_R4?$CBaseList@PEAV?$CRefObjectImpl@VCAnsiString@string@wylib@@@misc@wylib@@@container@wylib@@6B@ 000000014007eb90     srvlib_x64:CustomLuaConfig.obj
 0002:00010bb8       ??_R3?$CBaseList@PEAV?$CRefObjectImpl@VCAnsiString@string@wylib@@@misc@wylib@@@container@wylib@@8 000000014007ebb8     srvlib_x64:CustomLuaConfig.obj
 0002:00010bd0       ??_R2?$CBaseList@PEAV?$CRefObjectImpl@VCAnsiString@string@wylib@@@misc@wylib@@@container@wylib@@8 000000014007ebd0     srvlib_x64:CustomLuaConfig.obj
 0002:00010be0       ??_R1A@?0A@EA@?$CBaseList@PEAV?$CRefObjectImpl@VCAnsiString@string@wylib@@@misc@wylib@@@container@wylib@@8 000000014007ebe0     srvlib_x64:CustomLuaConfig.obj
 0002:00010c08       ??_R4CCustomLuaConfig@@6B@ 000000014007ec08     srvlib_x64:CustomLuaConfig.obj
 0002:00010c30       ??_R3CCustomLuaConfig@@8   000000014007ec30     srvlib_x64:CustomLuaConfig.obj
 0002:00010c48       ??_R2CCustomLuaConfig@@8   000000014007ec48     srvlib_x64:CustomLuaConfig.obj
 0002:00010c60       ??_R1A@?0A@EA@CCustomLuaScript@@8 000000014007ec60     srvlib_x64:CustomLuaConfig.obj
 0002:00010c88       ??_R3CCustomLuaScript@@8   000000014007ec88     srvlib_x64:CustomLuaConfig.obj
 0002:00010ca0       ??_R2CCustomLuaScript@@8   000000014007eca0     srvlib_x64:CustomLuaConfig.obj
 0002:00010cb0       ??_R1A@?0A@EA@CCustomLuaConfig@@8 000000014007ecb0     srvlib_x64:CustomLuaConfig.obj
 0002:00010cd8       ??_R4?$CRefObjectImpl@VCAnsiString@string@wylib@@@misc@wylib@@6B@ 000000014007ecd8     srvlib_x64:CustomLuaConfig.obj
 0002:00010d00       ??_R3?$CRefObjectImpl@VCAnsiString@string@wylib@@@misc@wylib@@8 000000014007ed00     srvlib_x64:CustomLuaConfig.obj
 0002:00010d18       ??_R2?$CRefObjectImpl@VCAnsiString@string@wylib@@@misc@wylib@@8 000000014007ed18     srvlib_x64:CustomLuaConfig.obj
 0002:00010d30       ??_R1A@?0A@EA@?$CRefObjectImpl@VCAnsiString@string@wylib@@@misc@wylib@@8 000000014007ed30     srvlib_x64:CustomLuaConfig.obj
 0002:00010d58       ??_R4CAnsiString@string@wylib@@6B@ 000000014007ed58     srvlib_x64:CustomLuaConfig.obj
 0002:00010d80       ??_R3CAnsiString@string@wylib@@8 000000014007ed80     srvlib_x64:CustomLuaConfig.obj
 0002:00010d98       ??_R2CAnsiString@string@wylib@@8 000000014007ed98     srvlib_x64:CustomLuaConfig.obj
 0002:00010da8       ??_R1A@?0A@EA@CAnsiString@string@wylib@@8 000000014007eda8     srvlib_x64:CustomLuaConfig.obj
 0002:00010dd0       ??_R4?$CRefObject@VCAnsiString@string@wylib@@@misc@wylib@@6B@ 000000014007edd0     srvlib_x64:CustomLuaScript.obj
 0002:00010df8       ??_R4CCustomLuaScript@@6B@ 000000014007edf8     srvlib_x64:CustomLuaScript.obj
 0002:00010e20       ??_R4?$CTRefString@VCAnsiString@string@wylib@@D@string@wylib@@6B@ 000000014007ee20     srvlib_x64:CustomLuaScript.obj
 0002:00010e48       ??_R3?$CTRefString@VCAnsiString@string@wylib@@D@string@wylib@@8 000000014007ee48     srvlib_x64:CustomLuaScript.obj
 0002:00010e60       ??_R2?$CTRefString@VCAnsiString@string@wylib@@D@string@wylib@@8 000000014007ee60     srvlib_x64:CustomLuaScript.obj
 0002:00010e78       ??_R1A@?0A@EA@?$CRefObject@VCAnsiString@string@wylib@@@misc@wylib@@8 000000014007ee78     srvlib_x64:CustomLuaScript.obj
 0002:00010ea0       ??_R3?$CRefObject@VCAnsiString@string@wylib@@@misc@wylib@@8 000000014007eea0     srvlib_x64:CustomLuaScript.obj
 0002:00010eb8       ??_R2?$CRefObject@VCAnsiString@string@wylib@@@misc@wylib@@8 000000014007eeb8     srvlib_x64:CustomLuaScript.obj
 0002:00010ec8       ??_R1A@?0A@EA@?$CTRefString@VCAnsiString@string@wylib@@D@string@wylib@@8 000000014007eec8     srvlib_x64:CustomLuaScript.obj
 0002:00010ef0       ??_R4CCustomServerClientSocket@@6B@ 000000014007eef0     srvlib_x64:CustomServerClientSocket.obj
 0002:00010f18       ??_R3CCustomServerClientSocket@@8 000000014007ef18     srvlib_x64:CustomServerClientSocket.obj
 0002:00010f30       ??_R2CCustomServerClientSocket@@8 000000014007ef30     srvlib_x64:CustomServerClientSocket.obj
 0002:00010f60       ??_R1DHI@?0A@EA@?$Counter@VCCustomServerClientSocket@@@@8 000000014007ef60     srvlib_x64:CustomServerClientSocket.obj
 0002:00010f88       ??_R3?$Counter@VCCustomServerClientSocket@@@@8 000000014007ef88     srvlib_x64:CustomServerClientSocket.obj
 0002:00010fa0       ??_R2?$Counter@VCCustomServerClientSocket@@@@8 000000014007efa0     srvlib_x64:CustomServerClientSocket.obj
 0002:00010fb0       ??_R1A@?0A@EA@?$Counter@VCCustomServerClientSocket@@@@8 000000014007efb0     srvlib_x64:CustomServerClientSocket.obj
 0002:00010fd8       ??_R1A@?0A@EA@CCustomServerClientSocket@@8 000000014007efd8     srvlib_x64:CustomServerClientSocket.obj
 0002:00011000       ??_R4?$CBaseList@PEAVCCustomServerClientSocket@@@container@wylib@@6B@ 000000014007f000     srvlib_x64:CustomServerSocket.obj
 0002:00011028       ??_R4?$CLockList@PEAVCCustomServerClientSocket@@@container@wylib@@6B@ 000000014007f028     srvlib_x64:CustomServerSocket.obj
 0002:00011050       ??_R4?$CQueueList@PEAVCCustomServerClientSocket@@@container@wylib@@6B@ 000000014007f050     srvlib_x64:CustomServerSocket.obj
 0002:00011078       ??_R3?$CQueueList@PEAVCCustomServerClientSocket@@@container@wylib@@8 000000014007f078     srvlib_x64:CustomServerSocket.obj
 0002:00011090       ??_R2?$CQueueList@PEAVCCustomServerClientSocket@@@container@wylib@@8 000000014007f090     srvlib_x64:CustomServerSocket.obj
 0002:000110b0       ??_R1A@?0A@EA@?$CLockList@PEAVCCustomServerClientSocket@@@container@wylib@@8 000000014007f0b0     srvlib_x64:CustomServerSocket.obj
 0002:000110d8       ??_R3?$CLockList@PEAVCCustomServerClientSocket@@@container@wylib@@8 000000014007f0d8     srvlib_x64:CustomServerSocket.obj
 0002:000110f0       ??_R2?$CLockList@PEAVCCustomServerClientSocket@@@container@wylib@@8 000000014007f0f0     srvlib_x64:CustomServerSocket.obj
 0002:00011108       ??_R1A@?0A@EA@?$CBaseList@PEAVCCustomServerClientSocket@@@container@wylib@@8 000000014007f108     srvlib_x64:CustomServerSocket.obj
 0002:00011130       ??_R3?$CBaseList@PEAVCCustomServerClientSocket@@@container@wylib@@8 000000014007f130     srvlib_x64:CustomServerSocket.obj
 0002:00011148       ??_R2?$CBaseList@PEAVCCustomServerClientSocket@@@container@wylib@@8 000000014007f148     srvlib_x64:CustomServerSocket.obj
 0002:00011158       ??_R1A@?0A@EA@?$CQueueList@PEAVCCustomServerClientSocket@@@container@wylib@@8 000000014007f158     srvlib_x64:CustomServerSocket.obj
 0002:00011180       ??_R4CCustomServerSocket@@6B@ 000000014007f180     srvlib_x64:CustomServerSocket.obj
 0002:000111a8       ??_R3CCustomServerSocket@@8 000000014007f1a8     srvlib_x64:CustomServerSocket.obj
 0002:000111c0       ??_R2CCustomServerSocket@@8 000000014007f1c0     srvlib_x64:CustomServerSocket.obj
 0002:000111e8       ??_R1A@?0A@EA@CCustomServerSocket@@8 000000014007f1e8     srvlib_x64:CustomServerSocket.obj
 0002:00011210       ??_R4?$CBaseList@_N@container@wylib@@6B@ 000000014007f210     srvlib_x64:NameAllocator.obj
 0002:00011238       ??_R3?$CBaseList@_N@container@wylib@@8 000000014007f238     srvlib_x64:NameAllocator.obj
 0002:00011250       ??_R2?$CBaseList@_N@container@wylib@@8 000000014007f250     srvlib_x64:NameAllocator.obj
 0002:00011260       ??_R1A@?0A@EA@?$CBaseList@_N@container@wylib@@8 000000014007f260     srvlib_x64:NameAllocator.obj
 0002:00011288       ??_R4?$CBaseList@PEBD@container@wylib@@6B@ 000000014007f288     srvlib_x64:NameAllocator.obj
 0002:000112b0       ??_R4CNameAllocator@@6B@   000000014007f2b0     srvlib_x64:NameAllocator.obj
 0002:000112d8       ??_R3CNameAllocator@@8     000000014007f2d8     srvlib_x64:NameAllocator.obj
 0002:000112f0       ??_R2CNameAllocator@@8     000000014007f2f0     srvlib_x64:NameAllocator.obj
 0002:00011308       ??_R1A@?0A@EN@?$CBaseList@PEBD@container@wylib@@8 000000014007f308     srvlib_x64:NameAllocator.obj
 0002:00011330       ??_R3?$CBaseList@PEBD@container@wylib@@8 000000014007f330     srvlib_x64:NameAllocator.obj
 0002:00011348       ??_R2?$CBaseList@PEBD@container@wylib@@8 000000014007f348     srvlib_x64:NameAllocator.obj
 0002:00011358       ??_R1A@?0A@EA@?$CBaseList@PEBD@container@wylib@@8 000000014007f358     srvlib_x64:NameAllocator.obj
 0002:00011380       ??_R1A@?0A@EA@CNameAllocator@@8 000000014007f380     srvlib_x64:NameAllocator.obj
 0002:000113a8       ??_R4CWinService@@6B@      000000014007f3a8     srvlib_x64:WinService.obj
 0002:000113d0       ??_R3CWinService@@8        000000014007f3d0     srvlib_x64:WinService.obj
 0002:000113e8       ??_R2CWinService@@8        000000014007f3e8     srvlib_x64:WinService.obj
 0002:000113f8       ??_R1A@?0A@EA@CWinService@@8 000000014007f3f8     srvlib_x64:WinService.obj
 0002:00011420       ??_R4CCustomJXServerClientSocket@@6B@ 000000014007f420     servercommon_x64:CustomJXServerClientSocket.obj
 0002:00011448       ??_R3CCustomJXServerClientSocket@@8 000000014007f448     servercommon_x64:CustomJXServerClientSocket.obj
 0002:00011460       ??_R2CCustomJXServerClientSocket@@8 000000014007f460     servercommon_x64:CustomJXServerClientSocket.obj
 0002:00011498       ??_R1A@?0A@EA@CCustomJXServerClientSocket@@8 000000014007f498     servercommon_x64:CustomJXServerClientSocket.obj
 0002:000114c0       ??_R4COPMToFile@@6BCFileStream@stream@wylib@@@ 000000014007f4c0     servercommon_x64:FileLogger.obj
 0002:000114e8       ??_R4COPMToFile@@6BCBaseThread@thread@wylib@@@ 000000014007f4e8     servercommon_x64:FileLogger.obj
 0002:00011510       ??_R3COPMToFile@@8         000000014007f510     servercommon_x64:FileLogger.obj
 0002:00011528       ??_R2COPMToFile@@8         000000014007f528     servercommon_x64:FileLogger.obj
 0002:00011558       ??_R1BI@?0A@EJ@CBaseStream@stream@wylib@@8 000000014007f558     servercommon_x64:FileLogger.obj
 0002:00011580       ??_R1BI@?0A@EJ@CHandleStream@stream@wylib@@8 000000014007f580     servercommon_x64:FileLogger.obj
 0002:000115a8       ??_R1BI@?0A@EN@CFileStream@stream@wylib@@8 000000014007f5a8     servercommon_x64:FileLogger.obj
 0002:000115d0       ??_R3CFileStream@stream@wylib@@8 000000014007f5d0     servercommon_x64:FileLogger.obj
 0002:000115e8       ??_R2CFileStream@stream@wylib@@8 000000014007f5e8     servercommon_x64:FileLogger.obj
 0002:00011608       ??_R1A@?0A@EA@CHandleStream@stream@wylib@@8 000000014007f608     servercommon_x64:FileLogger.obj
 0002:00011630       ??_R3CHandleStream@stream@wylib@@8 000000014007f630     servercommon_x64:FileLogger.obj
 0002:00011648       ??_R2CHandleStream@stream@wylib@@8 000000014007f648     servercommon_x64:FileLogger.obj
 0002:00011660       ??_R1A@?0A@EA@CBaseStream@stream@wylib@@8 000000014007f660     servercommon_x64:FileLogger.obj
 0002:00011688       ??_R3CBaseStream@stream@wylib@@8 000000014007f688     servercommon_x64:FileLogger.obj
 0002:000116a0       ??_R2CBaseStream@stream@wylib@@8 000000014007f6a0     servercommon_x64:FileLogger.obj
 0002:000116b0       ??_R1A@?0A@EA@CFileStream@stream@wylib@@8 000000014007f6b0     servercommon_x64:FileLogger.obj
 0002:000116d8       ??_R1A@?0A@EN@CBaseThread@thread@wylib@@8 000000014007f6d8     servercommon_x64:FileLogger.obj
 0002:00011700       ??_R3CBaseThread@thread@wylib@@8 000000014007f700     servercommon_x64:FileLogger.obj
 0002:00011718       ??_R2CBaseThread@thread@wylib@@8 000000014007f718     servercommon_x64:FileLogger.obj
 0002:00011728       ??_R1A@?0A@EA@CBaseThread@thread@wylib@@8 000000014007f728     servercommon_x64:FileLogger.obj
 0002:00011750       ??_R1A@?0A@EA@COPMToFile@@8 000000014007f750     servercommon_x64:FileLogger.obj
 0002:00011778       __rtc_iaa                  000000014007f778     MSVCRT:_initsect_.obj
 0002:00011780       __rtc_izz                  000000014007f780     MSVCRT:_initsect_.obj
 0002:00011788       __rtc_taa                  000000014007f788     MSVCRT:_initsect_.obj
 0002:00011790       __rtc_tzz                  000000014007f790     MSVCRT:_initsect_.obj
 0002:00019648       _TI2?AV?$CTRefString@VCAnsiString@string@wylib@@D@string@wylib@@ 0000000140087648     DBConfig.obj
 0002:00019668       _CTA2?AV?$CTRefString@VCAnsiString@string@wylib@@D@string@wylib@@ 0000000140087668     DBConfig.obj
 0002:00019680       _CT??_R0?AV?$CTRefString@VCAnsiString@string@wylib@@D@string@wylib@@@8??0?$CTRefString@VCAnsiString@string@wylib@@D@string@wylib@@QEAA@AEBV012@@Z16 0000000140087680     DBConfig.obj
 0002:000196a8       _CT??_R0?AV?$CRefObject@VCAnsiString@string@wylib@@@misc@wylib@@@8??0?$CRefObject@VCAnsiString@string@wylib@@@misc@wylib@@QEAA@AEAV012@@Z16 00000001400876a8     DBConfig.obj
 0002:000196d0       _TI2?AVbad_alloc@std@@     00000001400876d0     DBDataCache.obj
 0002:000196f0       _CTA2?AVbad_alloc@std@@    00000001400876f0     DBDataCache.obj
 0002:00019708       _CT??_R0?AVbad_alloc@std@@@8??0bad_alloc@std@@QEAA@AEBV01@@Z24 0000000140087708     DBDataCache.obj
 0002:00019730       _CT??_R0?AVexception@std@@@8??0exception@std@@QEAA@AEBV01@@Z24 0000000140087730     DBDataCache.obj
 0002:00019758       _CT??_R0PEAD@88            0000000140087758     srvlib_x64:TimeStat.obj
 0002:00019780       _CT??_R0PEAX@88            0000000140087780     srvlib_x64:TimeStat.obj
 0002:000197a8       _CTA2PEAD                  00000001400877a8     srvlib_x64:TimeStat.obj
 0002:000197c0       _TI2PEAD                   00000001400877c0     srvlib_x64:TimeStat.obj
 0002:000197dc       __IMPORT_DESCRIPTOR_WS2_32 00000001400877dc     Ws2_32:WS2_32.dll
 0002:000197f0       __IMPORT_DESCRIPTOR_LIBMYSQL 00000001400877f0     libmysql:LIBMYSQL.dll
 0002:00019804       __IMPORT_DESCRIPTOR_memory_x64 0000000140087804     memory_x64:memory_x64.dll
 0002:00019818       __IMPORT_DESCRIPTOR_KERNEL32 0000000140087818     kernel32:KERNEL32.dll
 0002:0001982c       __IMPORT_DESCRIPTOR_ADVAPI32 000000014008782c     advapi32:ADVAPI32.dll
 0002:00019840       __IMPORT_DESCRIPTOR_ole32  0000000140087840     ole32:ole32.dll
 0002:00019854       __IMPORT_DESCRIPTOR_MSVCP100 0000000140087854     msvcprt:MSVCP100.dll
 0002:00019868       __IMPORT_DESCRIPTOR_MSVCR100 0000000140087868     MSVCRT:MSVCR100.dll
 0002:0001987c       __IMPORT_DESCRIPTOR_VERSION 000000014008787c     version:VERSION.dll
 0002:00019890       __IMPORT_DESCRIPTOR_dbghelp 0000000140087890     Dbghelp:dbghelp.dll
 0002:000198a4       __IMPORT_DESCRIPTOR_WINMM  00000001400878a4     winmm:WINMM.dll
 0002:000198b8       __NULL_IMPORT_DESCRIPTOR   00000001400878b8     Ws2_32:WS2_32.dll
 0003:00000038       ??_R0?AVCustomStackWalker@@@8 0000000140089038     CustomExceptHander.obj
 0003:00000060       ??_R0?AVCDBCenterClient@@@8 0000000140089060     DBCenterClient.obj
 0003:00000088       ??_R0?AVCCustomJXClientSocket@@@8 0000000140089088     DBCenterClient.obj
 0003:000000b8       ??_R0?AVILogicDBRequestHost@@@8 00000001400890b8     DBCenterClient.obj
 0003:000000e8       ??_R0?AVCDBConfig@@@8      00000001400890e8     DBConfig.obj
 0003:00000108       ?s_nActorCacheSaveInterval@CDBDataCache@@2_JA 0000000140089108     DBDataCache.obj
 0003:00000110       ??_R0?AVCDBDataCache@@@8   0000000140089110     DBDataCache.obj
 0003:00000140       ??_R0?AV?$CBaseLinkedList@PEAVCActorCacheData@@@container@wylib@@@8 0000000140089140     DBDataCache.obj
 0003:00000190       ??_R0?AVbad_alloc@std@@@8  0000000140089190     DBDataCache.obj
 0003:000001b8       ??_R0?AVexception@std@@@8  00000001400891b8     DBDataCache.obj
 0003:000001e0       ??_R0?AV?$CBaseList@I@container@wylib@@@8 00000001400891e0     DBDataCache.obj
 0003:00000220       ??_R0?AV?$CBaseList@V?$CBaseList@VCActorCacheData@@@container@wylib@@@container@wylib@@@8 0000000140089220     DBDataCache.obj
 0003:00000290       ??_R0?AV?$CBaseList@V?$CBaseList@V?$Handle@I@@@container@wylib@@@container@wylib@@@8 0000000140089290     DBDataCache.obj
 0003:000002f0       ??_R0?AV?$CBaseList@VCActorCacheData@@@container@wylib@@@8 00000001400892f0     DBDataCache.obj
 0003:00000340       ??_R0?AV?$CBaseList@V?$Handle@I@@@container@wylib@@@8 0000000140089340     DBDataCache.obj
 0003:00000380       ??_R0?AV?$CBaseLinkedList@PEBVHandleMgrStat@@@container@wylib@@@8 0000000140089380     DBDataCache.obj
 0003:000003e8       ??_R0?AVCDBDataClient@@@8  00000001400893e8     DBDataClient.obj
 0003:00000410       ??_R0?AV?$CLockList@PEATtagASyncNameOPData@CDBDataClient@@@container@wylib@@@8 0000000140089410     DBDataClient.obj
 0003:00000470       ??_R0?AV?$CBaseList@PEATtagASyncNameOPData@CDBDataClient@@@container@wylib@@@8 0000000140089470     DBDataClient.obj
 0003:000004cc       ?s_nDBHandleSleep@CDBDataClientHandler@@0HA 00000001400894cc     DBDataClientHandler.obj
 0003:000004d0       ??_R0?AVCDBDataClientHandler@@@8 00000001400894d0     DBDataClientHandler.obj
 0003:00000500       ??_R0?AVCKBaseThread@thread@wylib@@@8 0000000140089500     DBDataClientHandler.obj
 0003:00000530       ??_R0?AVCDBDataServer@@@8  0000000140089530     DBDataServer.obj
 0003:00000560       ??_R0?AV?$CBaseList@PEAVCDBDataClient@@@container@wylib@@@8 0000000140089560     DBDataServer.obj
 0003:000005a8       ??_R0?AV?$CBaseList@H@container@wylib@@@8 00000001400895a8     DBDataServer.obj
 0003:000005e0       ??_R0?AV?$CBaseList@UPlayerZYDistribute@@@container@wylib@@@8 00000001400895e0     DBDataServer.obj
 0003:00000630       ??_R0?AV?$CBaseList@UPlayerJobDistribute@@@container@wylib@@@8 0000000140089630     DBDataServer.obj
 0003:00000680       ??_R0?AV?$CBaseList@UPlayerNameDistribute@@@container@wylib@@@8 0000000140089680     DBDataServer.obj
 0003:000006e0       ??_R0?AV?$CLockList@PEAUtagGameServerRoute@jxSrvDef@@@container@wylib@@@8 00000001400896e0     DBServer.obj
 0003:00000740       ??_R0?AV?$CBaseList@PEAUtagGameServerRoute@jxSrvDef@@@container@wylib@@@8 0000000140089740     DBServer.obj
 0003:00000798       ??_R0?AVCNameSyncClient@@@8 0000000140089798     DBNSClient.obj
 0003:000007c0       ??_R0?AV?$CBaseList@PEAUNameOperateData@CNameSyncClient@@@container@wylib@@@8 00000001400897c0     DBNSClient.obj
 0003:00000820       ??_R0?AV?$CLockList@PEAUNameOperateData@CNameSyncClient@@@container@wylib@@@8 0000000140089820     DBNSClient.obj
 0003:00000878       ??_R0?AV?$CBaseList@UtagDbEsql@@@container@wylib@@@8 0000000140089878     EsqlMgr.obj
 0003:00000e28       ?DBEngineRunning@@3_NA     0000000140089e28     main.obj
 0003:00000e30       ??_R0?AVCDbService@@@8     0000000140089e30     main.obj
 0003:00001570       ??_R0?AVCBaseLock@lock@sync@wylib@@@8 000000014008a570     wylib_x64:Lock.obj
 0003:000015a0       ??_R0?AVCCSLock@lock@sync@wylib@@@8 000000014008a5a0     wylib_x64:Lock.obj
 0003:000015d0       ??_R0?AVCMemoryStream@stream@wylib@@@8 000000014008a5d0     wylib_x64:MemoryStream.obj
 0003:00001608       ??_R0?AVtype_info@@@8      000000014008a608     MSVCRT:ti_inst.obj
 0003:00001630       _fltused                   000000014008a630     MSVCRT:dllsupp.obj
 0003:00001634       __native_dllmain_reason    000000014008a634     MSVCRT:natstart.obj
 0003:00001638       __native_vcclrit_reason    000000014008a638     MSVCRT:natstart.obj
 0003:0000163c       __globallocalestatus       000000014008a63c     MSVCRT:xthdloc.obj
 0003:00001640       __defaultmatherr           000000014008a640     MSVCRT:merr.obj
 0003:00001648       __security_cookie          000000014008a648     MSVCRT:gs_cookie.obj
 0003:00001650       __security_cookie_complement 000000014008a650     MSVCRT:gs_cookie.obj
 0003:00001658       ?EMPTY_STR@CWideString@string@wylib@@0PEB_WEB 000000014008a658     wylib_x64:wyString.obj
 0003:00001660       ?EMPTY_STR@CAnsiString@string@wylib@@0PEBDEB 000000014008a660     wylib_x64:wyString.obj
 0003:00001670       base64_alphabet            000000014008a670     wylib_x64:base64.obj
 0003:000016b0       base64_suffix_map          000000014008a6b0     wylib_x64:base64.obj
 0003:000017b0       ??_R0?AV?$CBaseList@PEAVCTimeProfMgr@@@container@wylib@@@8 000000014008a7b0     srvlib_x64:TimeStat.obj
 0003:00001800       ??_R0?AV?$CBaseList@PEAVCTimeProfRecord@@@container@wylib@@@8 000000014008a800     srvlib_x64:TimeStat.obj
 0003:00001850       ?g_boOutLogFile@@3_NA      000000014008a850     servercommon_x64:FileLogger.obj
 0003:00001858       ?s_dwTlsIdx@CTimeProfMgr@@1KA 000000014008a858     srvlib_x64:TimeStat.obj
 0003:000018d8       ??_R0PEAD@8                000000014008a8d8     srvlib_x64:TimeStat.obj
 0003:000018f0       ??_R0PEAX@8                000000014008a8f0     srvlib_x64:TimeStat.obj
 0003:00001908       ??_R0?AVStackWalker@@@8    000000014008a908     srvlib_x64:StackWalker.obj
 0003:00001930       ??_R0?AVCSendPacketPool@@@8 000000014008a930     srvlib_x64:CustomClientSocket.obj
 0003:00001958       ??_R0?AVCCustomSocket@socket@inet@wylib@@@8 000000014008a958     srvlib_x64:CustomClientSocket.obj
 0003:00001990       ??_R0?AVCCustomWorkSocket@@@8 000000014008a990     srvlib_x64:CustomClientSocket.obj
 0003:000019b8       ??_R0?AVCCustomClientSocket@@@8 000000014008a9b8     srvlib_x64:CustomClientSocket.obj
 0003:000019f0       ??_R0?AV?$CBaseList@PEAUtagAppInternalMessage@@@container@wylib@@@8 000000014008a9f0     srvlib_x64:CustomWorkSocket.obj
 0003:00001a40       ??_R0?AV?$CLockList@PEAUtagAppInternalMessage@@@container@wylib@@@8 000000014008aa40     srvlib_x64:CustomWorkSocket.obj
 0003:00001a90       ??_R0?AV?$CQueueList@PEAUtagAppInternalMessage@@@container@wylib@@@8 000000014008aa90     srvlib_x64:CustomWorkSocket.obj
 0003:00001ae0       ??_R0?AV?$CLockList@PEAVCDataPacket@@@container@wylib@@@8 000000014008aae0     srvlib_x64:SendPackPool.obj
 0003:00001b30       ??_R0?AV?$CQueueList@PEAVCDataPacket@@@container@wylib@@@8 000000014008ab30     srvlib_x64:SendPackPool.obj
 0003:00001b80       ??_R0?AV?$CBaseList@PEAVCDataPacket@@@container@wylib@@@8 000000014008ab80     srvlib_x64:SendPackPool.obj
 0003:00001bd0       ??_R0?AV?$CBaseList@PEAV?$CRefObjectImpl@VCAnsiString@string@wylib@@@misc@wylib@@@container@wylib@@@8 000000014008abd0     srvlib_x64:CustomLuaConfig.obj
 0003:00001c40       ??_R0?AVCCustomLuaScript@@@8 000000014008ac40     srvlib_x64:CustomLuaConfig.obj
 0003:00001c68       ??_R0?AVCCustomLuaConfig@@@8 000000014008ac68     srvlib_x64:CustomLuaConfig.obj
 0003:00001c90       ??_R0?AV?$CRefObjectImpl@VCAnsiString@string@wylib@@@misc@wylib@@@8 000000014008ac90     srvlib_x64:CustomLuaConfig.obj
 0003:00001ce0       ??_R0?AVCAnsiString@string@wylib@@@8 000000014008ace0     srvlib_x64:CustomLuaConfig.obj
 0003:00001d10       ??_R0?AV?$CRefObject@VCAnsiString@string@wylib@@@misc@wylib@@@8 000000014008ad10     srvlib_x64:CustomLuaScript.obj
 0003:00001d60       ??_R0?AV?$CTRefString@VCAnsiString@string@wylib@@D@string@wylib@@@8 000000014008ad60     srvlib_x64:CustomLuaScript.obj
 0003:00001db0       ??_R0?AV?$Counter@VCCustomServerClientSocket@@@@@8 000000014008adb0     srvlib_x64:CustomServerClientSocket.obj
 0003:00001df0       ??_R0?AVCCustomServerClientSocket@@@8 000000014008adf0     srvlib_x64:CustomServerClientSocket.obj
 0003:00001e20       ??_R0?AV?$CBaseList@PEAVCCustomServerClientSocket@@@container@wylib@@@8 000000014008ae20     srvlib_x64:CustomServerSocket.obj
 0003:00001e80       ??_R0?AV?$CLockList@PEAVCCustomServerClientSocket@@@container@wylib@@@8 000000014008ae80     srvlib_x64:CustomServerSocket.obj
 0003:00001ee0       ??_R0?AV?$CQueueList@PEAVCCustomServerClientSocket@@@container@wylib@@@8 000000014008aee0     srvlib_x64:CustomServerSocket.obj
 0003:00001f38       ??_R0?AVCCustomServerSocket@@@8 000000014008af38     srvlib_x64:CustomServerSocket.obj
 0003:00001f68       ??_R0?AV?$CBaseList@_N@container@wylib@@@8 000000014008af68     srvlib_x64:NameAllocator.obj
 0003:00001fa0       ??_R0?AV?$CBaseList@PEBD@container@wylib@@@8 000000014008afa0     srvlib_x64:NameAllocator.obj
 0003:00001fd8       ??_R0?AVCNameAllocator@@@8 000000014008afd8     srvlib_x64:NameAllocator.obj
 0003:00002008       ??_R0?AVCWinService@@@8    000000014008b008     srvlib_x64:WinService.obj
 0003:00002030       ??_R0?AVCCustomJXServerClientSocket@@@8 000000014008b030     servercommon_x64:CustomJXServerClientSocket.obj
 0003:00002068       ??_R0?AVCBaseStream@stream@wylib@@@8 000000014008b068     servercommon_x64:FileLogger.obj
 0003:00002098       ??_R0?AVCHandleStream@stream@wylib@@@8 000000014008b098     servercommon_x64:FileLogger.obj
 0003:000020d0       ??_R0?AVCFileStream@stream@wylib@@@8 000000014008b0d0     servercommon_x64:FileLogger.obj
 0003:00002100       ??_R0?AVCBaseThread@thread@wylib@@@8 000000014008b100     servercommon_x64:FileLogger.obj
 0003:00002130       ??_R0?AVCOPMToFile@@@8     000000014008b130     servercommon_x64:FileLogger.obj
 0003:00002160       ?FormatTags@?1??writeMessage@COPMToFile@@IEAAXW4tagShareOutputMsgType@@PEBD_K12@Z@4PAU<unnamed-type-FormatTags>@?1??12@IEAAX01212@Z@A 000000014008b160     servercommon_x64:FileLogger.obj
 0003:00002218       ?m_nCount@?$Counter@VEntityHandle@@@@0_KA 000000014008b218     BrotherData.obj
 0003:00002220       ?m_bHasAddedToStat@?$Counter@VEntityHandle@@@@0JA 000000014008b220     BrotherData.obj
 0003:00002238       ?s_AutoMagic@?1??Init@?$Handle@I@@QEAAXI@Z@4IA 000000014008b238     DBDataCache.obj
 0003:0000223c       ??_B?1??Init@?$Handle@I@@QEAAXI@Z@51 000000014008b23c     DBDataCache.obj
 0003:00002240       ?collector@?1??getSingleton@HandleMgrCollector@@SAAEAV2@XZ@4V2@A 000000014008b240     DBDataCache.obj
 0003:00002268       ??_B?1??getSingleton@HandleMgrCollector@@SAAEAV1@XZ@51 000000014008b268     DBDataCache.obj
 0003:00002270       ?m_nCount@?$Counter@V?$CLinkedNode@PEBVHandleMgrStat@@@container@wylib@@@@0_KA 000000014008b270     DBDataCache.obj
 0003:00002278       ?m_nCount@?$Counter@V?$CLinkedNode@PEAVCActorCacheData@@@container@wylib@@@@0_KA 000000014008b278     DBDataCache.obj
 0003:00002280       ?m_bHasAddedToStat@?$Counter@V?$CLinkedNode@PEBVHandleMgrStat@@@container@wylib@@@@0JA 000000014008b280     DBDataCache.obj
 0003:00002284       ?m_bHasAddedToStat@?$Counter@V?$CLinkedNode@PEAVCActorCacheData@@@container@wylib@@@@0JA 000000014008b284     DBDataCache.obj
 0003:000022a0       ?m_bGableIsClose@CDBDataServer@@2_NA 000000014008b2a0     DBDataServer.obj
 0003:000022a8       ?s_pDBEngine@CDBServer@@2PEAV1@EA 000000014008b2a8     DBServer.obj
 0003:000022e0       ?NSSockPacketHandlers@CNameSyncClient@@0QBQ81@EAAXAEAVCDataPacketReader@@@ZB 000000014008b2e0     DBNSClient.obj
 0003:00002798       _dowildcard                000000014008b798     MSVCRT:wildcard.obj
 0003:0000279c       _newmode                   000000014008b79c     MSVCRT:_newmode.obj
 0003:000027a0       _commode                   000000014008b7a0     MSVCRT:xncommod.obj
 0003:000027a4       _fmode                     000000014008b7a4     MSVCRT:xtxtmode.obj
 0003:00006be0       ?mgr@?1??getSingleton@CTimeProfMgr@@SAAEAV2@XZ@4V2@A 000000014008fbe0     srvlib_x64:TimeStat.obj
 0003:00006d68       ??_B?1??getSingleton@CTimeProfMgr@@SAAEAV1@XZ@51 000000014008fd68     srvlib_x64:TimeStat.obj
 0003:00006d6c       ??_B?1??getSingleton@CounterManager@@SAAEAV1@XZ@51 000000014008fd6c     srvlib_x64:TimeStat.obj
 0003:00006d70       ?mgr@?1??getSingleton@CounterManager@@SAAEAV2@XZ@4V2@A 000000014008fd70     srvlib_x64:TimeStat.obj
 0003:00036d80       ?g_OutputMsgLock@@3U_RTL_CRITICAL_SECTION@@A 00000001400bfd80     srvlib_x64:ShareUtil.obj
 0003:00036da8       ?g_lpOutputMsg@@3P6A_JW4tagShareOutputMsgType@@PEBD_J@ZEA 00000001400bfda8     srvlib_x64:ShareUtil.obj
 0003:00036e30       ?CodeSource@@3TJMPInstruct@@A 00000001400bfe30     srvlib_x64:PathThreadLocale.obj
 0003:00036e40       ?g_pOPMToFile@@3PEAVCOPMToFile@@EA 00000001400bfe40     servercommon_x64:FileLogger.obj
 0003:00036e48       ?lpOldFnBeforeSet@@3P6A_JW4tagShareOutputMsgType@@PEBD_J@ZEA 00000001400bfe48     servercommon_x64:FileLogger.obj
 0003:00036e50       ?g_isOpen@CTimeProfDummy@@2_NA 00000001400bfe50     srvlib_x64:TimeStat.obj
 0003:00036e78       ?m_nCount@?$Counter@VCTimeProfDummy@@@@0_KA 00000001400bfe78     srvlib_x64:TimeStat.obj
 0003:00036e80       ?m_bHasAddedToStat@?$Counter@VCTimeProfDummy@@@@0JA 00000001400bfe80     srvlib_x64:TimeStat.obj
 0003:00036e88       ?m_nCount@?$Counter@VCTimeProfRecord@@@@0_KA 00000001400bfe88     srvlib_x64:TimeStat.obj
 0003:00036e90       ?m_bHasAddedToStat@?$Counter@VCTimeProfRecord@@@@0JA 00000001400bfe90     srvlib_x64:TimeStat.obj
 0003:00036e98       ?m_nCount@?$Counter@VCDataPacket@@@@0_KA 00000001400bfe98     srvlib_x64:SendPackPool.obj
 0003:00036ea0       ?m_bHasAddedToStat@?$Counter@VCDataPacket@@@@0JA 00000001400bfea0     srvlib_x64:SendPackPool.obj
 0003:00036ea8       ?m_nCount@?$Counter@VCCustomServerClientSocket@@@@0_KA 00000001400bfea8     srvlib_x64:CustomServerClientSocket.obj
 0003:00036eb0       ?m_bHasAddedToStat@?$Counter@VCCustomServerClientSocket@@@@0JA 00000001400bfeb0     srvlib_x64:CustomServerClientSocket.obj
 0003:00036fc0       ??_B?1??writeMessage@COPMToFile@@IEAAXW4tagShareOutputMsgType@@PEBD_K12@Z@51 00000001400bffc0     servercommon_x64:FileLogger.obj
 0003:00036fd4       __native_startup_state     00000001400bffd4     <common>
 0003:00036fd8       __native_startup_lock      00000001400bffd8     <common>
 0003:00036fe0       __dyn_tls_init_callback    00000001400bffe0     <common>
 0003:00036fe8       __onexitend                00000001400bffe8     <common>
 0003:00036ff0       __onexitbegin              00000001400bfff0     <common>

 entry point at        0001:00059298

 Static symbols

 0001:00008020       localtime                  0000000140009020 f   CustomExceptHander.obj
 0001:00008040       time                       0000000140009040 f   CustomExceptHander.obj
 0001:000406d0       index2adr                  00000001400416d0 f   lua-5.1_x64:lapi.obj
 0001:00041790       f_call                     0000000140042790 f   lua-5.1_x64:lapi.obj
 0001:00041830       f_Ccall                    0000000140042830 f   lua-5.1_x64:lapi.obj
 0001:00042030       adjuststack                0000000140043030 f   lua-5.1_x64:lauxlib.obj
 0001:00042310       getF                       0000000140043310 f   lua-5.1_x64:lauxlib.obj
 0001:000423a0       errfile                    00000001400433a0 f   lua-5.1_x64:lauxlib.obj
 0001:00042640       getS                       0000000140043640 f   lua-5.1_x64:lauxlib.obj
 0001:000426e0       l_alloc                    00000001400436e0 f   lua-5.1_x64:lauxlib.obj
 0001:00042710       panic                      0000000140043710 f   lua-5.1_x64:lauxlib.obj
 0001:00042880       tag_error                  0000000140043880 f   lua-5.1_x64:lauxlib.obj
 0001:00042e00       DumpString                 0000000140043e00 f   lua-5.1_x64:ldump.obj
 0001:00042e90       DumpConstants              0000000140043e90 f   lua-5.1_x64:ldump.obj
 0001:00042fe0       DumpDebug                  0000000140043fe0 f   lua-5.1_x64:ldump.obj
 0001:00043250       DumpFunction               0000000140044250 f   lua-5.1_x64:ldump.obj
 0001:00043460       math_abs                   0000000140044460 f   lua-5.1_x64:lmathlib.obj
 0001:000434a0       math_sin                   00000001400444a0 f   lua-5.1_x64:lmathlib.obj
 0001:000434d0       math_sinh                  00000001400444d0 f   lua-5.1_x64:lmathlib.obj
 0001:00043500       math_cos                   0000000140044500 f   lua-5.1_x64:lmathlib.obj
 0001:00043530       math_cosh                  0000000140044530 f   lua-5.1_x64:lmathlib.obj
 0001:00043560       math_tan                   0000000140044560 f   lua-5.1_x64:lmathlib.obj
 0001:00043590       math_tanh                  0000000140044590 f   lua-5.1_x64:lmathlib.obj
 0001:000435c0       math_asin                  00000001400445c0 f   lua-5.1_x64:lmathlib.obj
 0001:000435f0       math_acos                  00000001400445f0 f   lua-5.1_x64:lmathlib.obj
 0001:00043620       math_atan                  0000000140044620 f   lua-5.1_x64:lmathlib.obj
 0001:00043650       math_atan2                 0000000140044650 f   lua-5.1_x64:lmathlib.obj
 0001:000436b0       math_ceil                  00000001400446b0 f   lua-5.1_x64:lmathlib.obj
 0001:000436e0       math_floor                 00000001400446e0 f   lua-5.1_x64:lmathlib.obj
 0001:00043710       math_fmod                  0000000140044710 f   lua-5.1_x64:lmathlib.obj
 0001:00043770       math_modf                  0000000140044770 f   lua-5.1_x64:lmathlib.obj
 0001:000437d0       math_sqrt                  00000001400447d0 f   lua-5.1_x64:lmathlib.obj
 0001:00043800       math_pow                   0000000140044800 f   lua-5.1_x64:lmathlib.obj
 0001:00043860       math_log                   0000000140044860 f   lua-5.1_x64:lmathlib.obj
 0001:00043890       math_log10                 0000000140044890 f   lua-5.1_x64:lmathlib.obj
 0001:000438c0       math_exp                   00000001400448c0 f   lua-5.1_x64:lmathlib.obj
 0001:000438f0       math_deg                   00000001400448f0 f   lua-5.1_x64:lmathlib.obj
 0001:00043930       math_rad                   0000000140044930 f   lua-5.1_x64:lmathlib.obj
 0001:00043970       math_frexp                 0000000140044970 f   lua-5.1_x64:lmathlib.obj
 0001:000439c0       math_ldexp                 00000001400449c0 f   lua-5.1_x64:lmathlib.obj
 0001:00043a10       math_min                   0000000140044a10 f   lua-5.1_x64:lmathlib.obj
 0001:00043a90       math_max                   0000000140044a90 f   lua-5.1_x64:lmathlib.obj
 0001:00043b10       math_random                0000000140044b10 f   lua-5.1_x64:lmathlib.obj
 0001:00043c70       math_randomseed            0000000140044c70 f   lua-5.1_x64:lmathlib.obj
 0001:00043d30       str_len                    0000000140044d30 f   lua-5.1_x64:lstrlib.obj
 0001:00043d60       str_sub                    0000000140044d60 f   lua-5.1_x64:lstrlib.obj
 0001:00043e30       str_reverse                0000000140044e30 f   lua-5.1_x64:lstrlib.obj
 0001:00043ef0       str_lower                  0000000140044ef0 f   lua-5.1_x64:lstrlib.obj
 0001:00043fa0       str_upper                  0000000140044fa0 f   lua-5.1_x64:lstrlib.obj
 0001:00044050       str_rep                    0000000140045050 f   lua-5.1_x64:lstrlib.obj
 0001:000440e0       str_byte                   00000001400450e0 f   lua-5.1_x64:lstrlib.obj
 0001:000441f0       str_char                   00000001400451f0 f   lua-5.1_x64:lstrlib.obj
 0001:000442b0       writer                     00000001400452b0 f   lua-5.1_x64:lstrlib.obj
 0001:000442d0       str_dump                   00000001400452d0 f   lua-5.1_x64:lstrlib.obj
 0001:00044350       classend                   0000000140045350 f   lua-5.1_x64:lstrlib.obj
 0001:000443f0       match_class                00000001400453f0 f   lua-5.1_x64:lstrlib.obj
 0001:00044550       matchbracketclass          0000000140045550 f   lua-5.1_x64:lstrlib.obj
 0001:00044750       matchbalance               0000000140045750 f   lua-5.1_x64:lstrlib.obj
 0001:000447f0       max_expand                 00000001400457f0 f   lua-5.1_x64:lstrlib.obj
 0001:000448c0       min_expand                 00000001400458c0 f   lua-5.1_x64:lstrlib.obj
 0001:00044980       start_capture              0000000140045980 f   lua-5.1_x64:lstrlib.obj
 0001:00044a10       end_capture                0000000140045a10 f   lua-5.1_x64:lstrlib.obj
 0001:00044ac0       match_capture              0000000140045ac0 f   lua-5.1_x64:lstrlib.obj
 0001:00044b60       match                      0000000140045b60 f   lua-5.1_x64:lstrlib.obj
 0001:00044e00       lmemfind                   0000000140045e00 f   lua-5.1_x64:lstrlib.obj
 0001:00044ea0       push_onecapture            0000000140045ea0 f   lua-5.1_x64:lstrlib.obj
 0001:00044f60       push_captures              0000000140045f60 f   lua-5.1_x64:lstrlib.obj
 0001:00045070       str_find_aux               0000000140046070 f   lua-5.1_x64:lstrlib.obj
 0001:00045270       str_find                   0000000140046270 f   lua-5.1_x64:lstrlib.obj
 0001:00045280       str_match                  0000000140046280 f   lua-5.1_x64:lstrlib.obj
 0001:00045290       gmatch_aux                 0000000140046290 f   lua-5.1_x64:lstrlib.obj
 0001:00045390       gmatch                     0000000140046390 f   lua-5.1_x64:lstrlib.obj
 0001:000453f0       gfind_nodef                00000001400463f0 f   lua-5.1_x64:lstrlib.obj
 0001:00045400       add_s                      0000000140046400 f   lua-5.1_x64:lstrlib.obj
 0001:00045510       add_value                  0000000140046510 f   lua-5.1_x64:lstrlib.obj
 0001:00045640       str_gsub                   0000000140046640 f   lua-5.1_x64:lstrlib.obj
 0001:00045820       addquoted                  0000000140046820 f   lua-5.1_x64:lstrlib.obj
 0001:00045940       scanformat                 0000000140046940 f   lua-5.1_x64:lstrlib.obj
 0001:00045a50       str_format                 0000000140046a50 f   lua-5.1_x64:lstrlib.obj
 0001:00045d80       createmetatable            0000000140046d80 f   lua-5.1_x64:lstrlib.obj
 0001:00045e60       luaB_print                 0000000140046e60 f   lua-5.1_x64:lbaselib.obj
 0001:00045f60       luaB_tonumber              0000000140046f60 f   lua-5.1_x64:lbaselib.obj
 0001:00046090       luaB_error                 0000000140047090 f   lua-5.1_x64:lbaselib.obj
 0001:00046110       luaB_getmetatable          0000000140047110 f   lua-5.1_x64:lbaselib.obj
 0001:00046170       luaB_setmetatable          0000000140047170 f   lua-5.1_x64:lbaselib.obj
 0001:00046210       getfunc                    0000000140047210 f   lua-5.1_x64:lbaselib.obj
 0001:000462f0       luaB_getfenv               00000001400472f0 f   lua-5.1_x64:lbaselib.obj
 0001:00046340       luaB_setfenv               0000000140047340 f   lua-5.1_x64:lbaselib.obj
 0001:00046400       luaB_rawequal              0000000140047400 f   lua-5.1_x64:lbaselib.obj
 0001:00046450       luaB_rawget                0000000140047450 f   lua-5.1_x64:lbaselib.obj
 0001:000464a0       luaB_rawset                00000001400474a0 f   lua-5.1_x64:lbaselib.obj
 0001:00046500       luaB_gcinfo                0000000140047500 f   lua-5.1_x64:lbaselib.obj
 0001:00046530       luaB_collectgarbage        0000000140047530 f   lua-5.1_x64:lbaselib.obj
 0001:00046600       luaB_type                  0000000140047600 f   lua-5.1_x64:lbaselib.obj
 0001:00046640       luaB_next                  0000000140047640 f   lua-5.1_x64:lbaselib.obj
 0001:000466a0       luaB_pairs                 00000001400476a0 f   lua-5.1_x64:lbaselib.obj
 0001:000466f0       ipairsaux                  00000001400476f0 f   lua-5.1_x64:lbaselib.obj
 0001:00046760       luaB_ipairs                0000000140047760 f   lua-5.1_x64:lbaselib.obj
 0001:000467b0       luaB_loadstring            00000001400477b0 f   lua-5.1_x64:lbaselib.obj
 0001:00046830       luaB_loadfile              0000000140047830 f   lua-5.1_x64:lbaselib.obj
 0001:00046890       generic_reader             0000000140047890 f   lua-5.1_x64:lbaselib.obj
 0001:00046940       luaB_load                  0000000140047940 f   lua-5.1_x64:lbaselib.obj
 0001:000469d0       luaB_dofile                00000001400479d0 f   lua-5.1_x64:lbaselib.obj
 0001:00046a40       luaB_assert                0000000140047a40 f   lua-5.1_x64:lbaselib.obj
 0001:00046aa0       luaB_unpack                0000000140047aa0 f   lua-5.1_x64:lbaselib.obj
 0001:00046b90       luaB_select                0000000140047b90 f   lua-5.1_x64:lbaselib.obj
 0001:00046c40       luaB_pcall                 0000000140047c40 f   lua-5.1_x64:lbaselib.obj
 0001:00046ca0       luaB_xpcall                0000000140047ca0 f   lua-5.1_x64:lbaselib.obj
 0001:00046d10       luaB_tostring              0000000140047d10 f   lua-5.1_x64:lbaselib.obj
 0001:00046e30       luaB_newproxy              0000000140047e30 f   lua-5.1_x64:lbaselib.obj
 0001:00046f30       costatus                   0000000140047f30 f   lua-5.1_x64:lbaselib.obj
 0001:00046fc0       luaB_costatus              0000000140047fc0 f   lua-5.1_x64:lbaselib.obj
 0001:00047030       auxresume                  0000000140048030 f   lua-5.1_x64:lbaselib.obj
 0001:00047130       luaB_coresume              0000000140048130 f   lua-5.1_x64:lbaselib.obj
 0001:000471d0       luaB_auxwrap               00000001400481d0 f   lua-5.1_x64:lbaselib.obj
 0001:00047260       luaB_cocreate              0000000140048260 f   lua-5.1_x64:lbaselib.obj
 0001:000472e0       luaB_cowrap                00000001400482e0 f   lua-5.1_x64:lbaselib.obj
 0001:00047310       luaB_yield                 0000000140048310 f   lua-5.1_x64:lbaselib.obj
 0001:00047330       luaB_corunning             0000000140048330 f   lua-5.1_x64:lbaselib.obj
 0001:00047360       base_open                  0000000140048360 f   lua-5.1_x64:lbaselib.obj
 0001:000474f0       stack_init                 00000001400484f0 f   lua-5.1_x64:lstate.obj
 0001:000475a0       f_luaopen                  00000001400485a0 f   lua-5.1_x64:lstate.obj
 0001:00047650       close_state                0000000140048650 f   lua-5.1_x64:lstate.obj
 0001:000479f0       callallgcTM                00000001400489f0 f   lua-5.1_x64:lstate.obj
 0001:00047a80       foreachi                   0000000140048a80 f   lua-5.1_x64:ltablib.obj
 0001:00047b50       foreach                    0000000140048b50 f   lua-5.1_x64:ltablib.obj
 0001:00047c10       maxn                       0000000140048c10 f   lua-5.1_x64:ltablib.obj
 0001:00047cb0       getn                       0000000140048cb0 f   lua-5.1_x64:ltablib.obj
 0001:00047cf0       setn                       0000000140048cf0 f   lua-5.1_x64:ltablib.obj
 0001:00047d30       tinsert                    0000000140048d30 f   lua-5.1_x64:ltablib.obj
 0001:00047e10       tremove                    0000000140048e10 f   lua-5.1_x64:ltablib.obj
 0001:00047ef0       tconcat                    0000000140048ef0 f   lua-5.1_x64:ltablib.obj
 0001:00048080       auxsort                    0000000140049080 f   lua-5.1_x64:ltablib.obj
 0001:000485c0       sort                       00000001400495c0 f   lua-5.1_x64:ltablib.obj
 0001:00048840       pushstr                    0000000140049840 f   lua-5.1_x64:lobject.obj
 0001:00048f10       correctstack               0000000140049f10 f   lua-5.1_x64:ldo.obj
 0001:00049230       adjust_varargs             000000014004a230 f   lua-5.1_x64:ldo.obj
 0001:000493f0       tryfuncTM                  000000014004a3f0 f   lua-5.1_x64:ldo.obj
 0001:000494b0       callrethooks               000000014004a4b0 f   lua-5.1_x64:ldo.obj
 0001:000496c0       resume_error               000000014004a6c0 f   lua-5.1_x64:ldo.obj
 0001:00049790       f_parser                   000000014004a790 f   lua-5.1_x64:ldo.obj
 0001:00049890       resetstack                 000000014004a890 f   lua-5.1_x64:ldo.obj
 0001:000499a0       growCI                     000000014004a9a0 f   lua-5.1_x64:ldo.obj
 0001:00049ce0       resume                     000000014004ace0 f   lua-5.1_x64:ldo.obj
 0001:00049fa0       reallymarkobject           000000014004afa0 f   lua-5.1_x64:lgc.obj
 0001:0004a0c0       marktmu                    000000014004b0c0 f   lua-5.1_x64:lgc.obj
 0001:0004a2b0       traversetable              000000014004b2b0 f   lua-5.1_x64:lgc.obj
 0001:0004a490       traverseproto              000000014004b490 f   lua-5.1_x64:lgc.obj
 0001:0004a590       traverseclosure            000000014004b590 f   lua-5.1_x64:lgc.obj
 0001:0004a640       traversestack              000000014004b640 f   lua-5.1_x64:lgc.obj
 0001:0004a770       propagatemark              000000014004b770 f   lua-5.1_x64:lgc.obj
 0001:0004a8b0       propagateall               000000014004b8b0 f   lua-5.1_x64:lgc.obj
 0001:0004aa20       cleartable                 000000014004ba20 f   lua-5.1_x64:lgc.obj
 0001:0004ab50       freeobj                    000000014004bb50 f   lua-5.1_x64:lgc.obj
 0001:0004abf0       sweeplist                  000000014004bbf0 f   lua-5.1_x64:lgc.obj
 0001:0004ad70       checkSizes                 000000014004bd70 f   lua-5.1_x64:lgc.obj
 0001:0004ae00       GCTM                       000000014004be00 f   lua-5.1_x64:lgc.obj
 0001:0004b190       markmt                     000000014004c190 f   lua-5.1_x64:lgc.obj
 0001:0004b2b0       markroot                   000000014004c2b0 f   lua-5.1_x64:lgc.obj
 0001:0004b340       atomic                     000000014004c340 f   lua-5.1_x64:lgc.obj
 0001:0004b4f0       singlestep                 000000014004c4f0 f   lua-5.1_x64:lgc.obj
 0001:0004ba30       currentline                000000014004ca30 f   lua-5.1_x64:ldebug.obj
 0001:0004bb00       funcinfo                   000000014004cb00 f   lua-5.1_x64:ldebug.obj
 0001:0004bb80       collectvalidlines          000000014004cb80 f   lua-5.1_x64:ldebug.obj
 0001:0004bc80       checkArgMode               000000014004cc80 f   lua-5.1_x64:ldebug.obj
 0001:0004bcd0       symbexec                   000000014004ccd0 f   lua-5.1_x64:ldebug.obj
 0001:0004c290       getobjname                 000000014004d290 f   lua-5.1_x64:ldebug.obj
 0001:0004c4a0       getfuncname                000000014004d4a0 f   lua-5.1_x64:ldebug.obj
 0001:0004c560       addinfo                    000000014004d560 f   lua-5.1_x64:ldebug.obj
 0001:0004c730       auxgetinfo                 000000014004d730 f   lua-5.1_x64:ldebug.obj
 0001:0004cd60       traceexec                  000000014004dd60 f   lua-5.1_x64:lvm.obj
 0001:0004ce30       callTMres                  000000014004de30 f   lua-5.1_x64:lvm.obj
 0001:0004cee0       callTM                     000000014004dee0 f   lua-5.1_x64:lvm.obj
 0001:0004d260       call_binTM                 000000014004e260 f   lua-5.1_x64:lvm.obj
 0001:0004d2e0       get_compTM                 000000014004e2e0 f   lua-5.1_x64:lvm.obj
 0001:0004d3b0       call_orderTM               000000014004e3b0 f   lua-5.1_x64:lvm.obj
 0001:0004d460       l_strcmp                   000000014004e460 f   lua-5.1_x64:lvm.obj
 0001:0004d5d0       lessequal                  000000014004e5d0 f   lua-5.1_x64:lvm.obj
 0001:0004daf0       Arith                      000000014004eaf0 f   lua-5.1_x64:lvm.obj
 0001:0004f380       mainposition               0000000140050380 f   lua-5.1_x64:ltable.obj
 0001:0004f470       findindex                  0000000140050470 f   lua-5.1_x64:ltable.obj
 0001:0004f680       setarrayvector             0000000140050680 f   lua-5.1_x64:ltable.obj
 0001:0004f710       setnodevector              0000000140050710 f   lua-5.1_x64:ltable.obj
 0001:0004fbd0       unbound_search             0000000140050bd0 f   lua-5.1_x64:ltable.obj
 0001:0004fea0       resize                     0000000140050ea0 f   lua-5.1_x64:ltable.obj
 0001:00050110       rehash                     0000000140051110 f   lua-5.1_x64:ltable.obj
 0001:00050310       newkey                     0000000140051310 f   lua-5.1_x64:ltable.obj
 0001:00050ef0       LoadInt                    0000000140051ef0 f   lua-5.1_x64:lundump.obj
 0001:00050f80       LoadString                 0000000140051f80 f   lua-5.1_x64:lundump.obj
 0001:00051050       LoadCode                   0000000140052050 f   lua-5.1_x64:lundump.obj
 0001:00051100       LoadConstants              0000000140052100 f   lua-5.1_x64:lundump.obj
 0001:00051410       LoadDebug                  0000000140052410 f   lua-5.1_x64:lundump.obj
 0001:00051740       LoadFunction               0000000140052740 f   lua-5.1_x64:lundump.obj
 0001:000519c0       LoadHeader                 00000001400529c0 f   lua-5.1_x64:lundump.obj
 0001:00051c80       save                       0000000140052c80 f   lua-5.1_x64:llex.obj
 0001:00051e10       txtToken                   0000000140052e10 f   lua-5.1_x64:llex.obj
 0001:00051fd0       inclinenumber              0000000140052fd0 f   lua-5.1_x64:llex.obj
 0001:00052130       trydecpoint                0000000140053130 f   lua-5.1_x64:llex.obj
 0001:00052270       read_numeral               0000000140053270 f   lua-5.1_x64:llex.obj
 0001:000523f0       skip_sep                   00000001400533f0 f   lua-5.1_x64:llex.obj
 0001:000525c0       read_long_string           00000001400535c0 f   lua-5.1_x64:llex.obj
 0001:000528f0       read_string                00000001400538f0 f   lua-5.1_x64:llex.obj
 0001:00052d20       llex                       0000000140053d20 f   lua-5.1_x64:llex.obj
 0001:00053650       check_match                0000000140054650 f   lua-5.1_x64:lparser.obj
 0001:00053710       registerlocalvar           0000000140054710 f   lua-5.1_x64:lparser.obj
 0001:000537f0       new_localvar               00000001400547f0 f   lua-5.1_x64:lparser.obj
 0001:000538b0       indexupvalue               00000001400548b0 f   lua-5.1_x64:lparser.obj
 0001:00053a50       singlevaraux               0000000140054a50 f   lua-5.1_x64:lparser.obj
 0001:00053b80       singlevar                  0000000140054b80 f   lua-5.1_x64:lparser.obj
 0001:00053c10       leaveblock                 0000000140054c10 f   lua-5.1_x64:lparser.obj
 0001:00053cb0       pushclosure                0000000140054cb0 f   lua-5.1_x64:lparser.obj
 0001:00053e00       open_func                  0000000140054e00 f   lua-5.1_x64:lparser.obj
 0001:00053ef0       close_func                 0000000140054ef0 f   lua-5.1_x64:lparser.obj
 0001:00054120       field                      0000000140055120 f   lua-5.1_x64:lparser.obj
 0001:000541e0       recfield                   00000001400551e0 f   lua-5.1_x64:lparser.obj
 0001:000543e0       constructor                00000001400553e0 f   lua-5.1_x64:lparser.obj
 0001:000546a0       parlist                    00000001400556a0 f   lua-5.1_x64:lparser.obj
 0001:000547d0       body                       00000001400557d0 f   lua-5.1_x64:lparser.obj
 0001:00054930       funcargs                   0000000140055930 f   lua-5.1_x64:lparser.obj
 0001:00054ac0       prefixexp                  0000000140055ac0 f   lua-5.1_x64:lparser.obj
 0001:00054b50       primaryexp                 0000000140055b50 f   lua-5.1_x64:lparser.obj
 0001:00054e00       simpleexp                  0000000140055e00 f   lua-5.1_x64:lparser.obj
 0001:00055080       getbinopr                  0000000140056080 f   lua-5.1_x64:lparser.obj
 0001:00055240       subexpr                    0000000140056240 f   lua-5.1_x64:lparser.obj
 0001:00055380       block                      0000000140056380 f   lua-5.1_x64:lparser.obj
 0001:000553d0       assignment                 00000001400563d0 f   lua-5.1_x64:lparser.obj
 0001:000556a0       breakstat                  00000001400566a0 f   lua-5.1_x64:lparser.obj
 0001:00055730       whilestat                  0000000140056730 f   lua-5.1_x64:lparser.obj
 0001:000558a0       repeatstat                 00000001400568a0 f   lua-5.1_x64:lparser.obj
 0001:000559f0       forbody                    00000001400569f0 f   lua-5.1_x64:lparser.obj
 0001:00055c10       fornum                     0000000140056c10 f   lua-5.1_x64:lparser.obj
 0001:00055e00       forlist                    0000000140056e00 f   lua-5.1_x64:lparser.obj
 0001:00056050       forstat                    0000000140057050 f   lua-5.1_x64:lparser.obj
 0001:00056160       test_then_block            0000000140057160 f   lua-5.1_x64:lparser.obj
 0001:00056240       ifstat                     0000000140057240 f   lua-5.1_x64:lparser.obj
 0001:00056370       localfunc                  0000000140057370 f   lua-5.1_x64:lparser.obj
 0001:00056480       localstat                  0000000140057480 f   lua-5.1_x64:lparser.obj
 0001:00056630       funcstat                   0000000140057630 f   lua-5.1_x64:lparser.obj
 0001:000567d0       retstat                    00000001400577d0 f   lua-5.1_x64:lparser.obj
 0001:000568f0       statement                  00000001400578f0 f   lua-5.1_x64:lparser.obj
 0001:00056b00       chunk                      0000000140057b00 f   lua-5.1_x64:lparser.obj
 0001:00056d00       fixjump                    0000000140057d00 f   lua-5.1_x64:lcode.obj
 0001:00056d80       removevalues               0000000140057d80 f   lua-5.1_x64:lcode.obj
 0001:00056e10       patchlistaux               0000000140057e10 f   lua-5.1_x64:lcode.obj
 0001:000570e0       addk                       00000001400580e0 f   lua-5.1_x64:lcode.obj
 0001:00057350       invertjump                 0000000140058350 f   lua-5.1_x64:lcode.obj
 0001:000573a0       constfolding               00000001400583a0 f   lua-5.1_x64:lcode.obj
 0001:00057520       luaK_code                  0000000140058520 f   lua-5.1_x64:lcode.obj
 0001:000579a0       discharge2reg              00000001400589a0 f   lua-5.1_x64:lcode.obj
 0001:00057af0       discharge2anyreg           0000000140058af0 f   lua-5.1_x64:lcode.obj
 0001:00057b30       exp2reg                    0000000140058b30 f   lua-5.1_x64:lcode.obj
 0001:00058220       jumponcond                 0000000140059220 f   lua-5.1_x64:lcode.obj
 0001:00058420       luaK_goiffalse             0000000140059420 f   lua-5.1_x64:lcode.obj
 0001:00058520       codenot                    0000000140059520 f   lua-5.1_x64:lcode.obj
 0001:00058640       codearith                  0000000140059640 f   lua-5.1_x64:lcode.obj
 0001:00058750       codecomp                   0000000140059750 f   lua-5.1_x64:lcode.obj
 0001:00058fe0       pre_cpp_init               0000000140059fe0 f   MSVCRT:crtexe.obj
 0001:00059048       __tmainCRTStartup          000000014005a048 f   MSVCRT:crtexe.obj
 0001:000591c8       pre_c_init                 000000014005a1c8 f   MSVCRT:crtexe.obj
 0001:0005b340       time                       000000014005c340 f    CIL library: CIL module
 0001:0005b360       localtime                  000000014005c360 f    CIL library: CIL module
 0001:0005c490       ?SetupThreadLocale@@YAXXZ  000000014005d490 f    CIL library: CIL module
 0001:0005c4b0       ?PathCreateThreadCode@@YAHPEBTJMPInstruct@@@Z 000000014005d4b0 f    CIL library: CIL module
 0001:0005c5c0       ?_Path_ThreadLocale_Rountine@@YA_JPEAUPTD@@@Z 000000014005d5c0 f    CIL library: CIL module
 0001:0005c630       ?UnPathCreateThread@@YAHXZ 000000014005d630 f    CIL library: CIL module
 0001:0005c650       ?PathCreateThread@@YAHXZ   000000014005d650 f    CIL library: CIL module
 0001:0005c6c0       ?_CreateThread_Path_@@YAPEAXPEAU_SECURITY_ATTRIBUTES@@_KP6AKPEAX@Z2KPEAK@Z 000000014005d6c0 f    CIL library: CIL module
 0001:00064f10       time                       0000000140065f10 f    CIL library: CIL module
 0001:00064f30       localtime                  0000000140065f30 f    CIL library: CIL module
 0001:000678b0       ?dtor$0@?0??LoadBrotherGroupList@CLogicDBReqestHandler@@QEAAXAEAVCDataPacketReader@@@Z@4HA 00000001400688b0 f   BrotherData.obj
 0001:000678d0       ?dtor$1@?0??LoadBrotherGroupList@CLogicDBReqestHandler@@QEAAXAEAVCDataPacketReader@@@Z@4HA 00000001400688d0 f   BrotherData.obj
 0001:000678f0       ?dtor$0@?0??LoadBrothGroupDetail@CLogicDBReqestHandler@@QEAAXAEAVCDataPacketReader@@@Z@4HA 00000001400688f0 f   BrotherData.obj
 0001:00067910       ?dtor$1@?0??LoadBrothGroupDetail@CLogicDBReqestHandler@@QEAAXAEAVCDataPacketReader@@@Z@4HA 0000000140068910 f   BrotherData.obj
 0001:00067930       ?dtor$0@?0??AddBrothGroup@CLogicDBReqestHandler@@QEAAXAEAVCDataPacketReader@@@Z@4HA 0000000140068930 f   BrotherData.obj
 0001:00067950       ?dtor$1@?0??AddBrothGroup@CLogicDBReqestHandler@@QEAAXAEAVCDataPacketReader@@@Z@4HA 0000000140068950 f   BrotherData.obj
 0001:00067970       ?dtor$0@?0??SaveBrother@CLogicDBReqestHandler@@QEAAXAEAVCDataPacketReader@@@Z@4HA 0000000140068970 f   BrotherData.obj
 0001:00067990       ?dtor$1@?0??SaveBrother@CLogicDBReqestHandler@@QEAAXAEAVCDataPacketReader@@@Z@4HA 0000000140068990 f   BrotherData.obj
 0001:000679b0       ?dtor$0@?0??DeleteBrotherGroup@CLogicDBReqestHandler@@QEAAXAEAVCDataPacketReader@@@Z@4HA 00000001400689b0 f   BrotherData.obj
 0001:000679d0       ?dtor$1@?0??DeleteBrotherGroup@CLogicDBReqestHandler@@QEAAXAEAVCDataPacketReader@@@Z@4HA 00000001400689d0 f   BrotherData.obj
 0001:000679f0       ?dtor$0@?0??UpdateBrotherGroup@CLogicDBReqestHandler@@QEAAXAEAVCDataPacketReader@@@Z@4HA 00000001400689f0 f   BrotherData.obj
 0001:00067a10       ?dtor$1@?0??UpdateBrotherGroup@CLogicDBReqestHandler@@QEAAXAEAVCDataPacketReader@@@Z@4HA 0000000140068a10 f   BrotherData.obj
 0001:00067a30       ?dtor$0@?0??QueryMyBrother@CLogicDBReqestHandler@@QEAAX_KHH@Z@4HA 0000000140068a30 f   BrotherData.obj
 0001:00067a50       ?dtor$1@?0??QueryMyBrother@CLogicDBReqestHandler@@QEAAX_KHH@Z@4HA 0000000140068a50 f   BrotherData.obj
 0001:00067a70       ?dtor$0@?0??CustomExceptHandler@@YAKQEAU_EXCEPTION_POINTERS@@@Z@4HA 0000000140068a70 f   CustomExceptHander.obj
 0001:00067a90       ?dtor$0@?0??OnStackWalkStart@CustomStackWalker@@UEAAXXZ@4HA 0000000140068a90 f   CustomExceptHander.obj
 0001:00067ab0       ?dtor$0@?0???0CDBCenterClient@@QEAA@PEAVCDBServer@@@Z@4HA 0000000140068ab0 f   DBCenterClient.obj
 0001:00067ad0       ?dtor$1@?0???0CDBCenterClient@@QEAA@PEAVCDBServer@@@Z@4HA 0000000140068ad0 f   DBCenterClient.obj
 0001:00067af0       ?dtor$2@?0???0CDBCenterClient@@QEAA@PEAVCDBServer@@@Z@4HA 0000000140068af0 f   DBCenterClient.obj
 0001:00067b10       ?dtor$3@?0???0CDBCenterClient@@QEAA@PEAVCDBServer@@@Z@4HA 0000000140068b10 f   DBCenterClient.obj
 0001:00067b30       ?dtor$4@?0???0CDBCenterClient@@QEAA@PEAVCDBServer@@@Z@4HA 0000000140068b30 f   DBCenterClient.obj
 0001:00067b50       ?dtor$5@?0???0CDBCenterClient@@QEAA@PEAVCDBServer@@@Z@4HA 0000000140068b50 f   DBCenterClient.obj
 0001:00067b80       ?dtor$0@?0???1CDBCenterClient@@UEAA@XZ@4HA 0000000140068b80 f   DBCenterClient.obj
 0001:00067ba0       ?dtor$1@?0???1CDBCenterClient@@UEAA@XZ@4HA 0000000140068ba0 f   DBCenterClient.obj
 0001:00067bc0       ?dtor$2@?0???1CDBCenterClient@@UEAA@XZ@4HA 0000000140068bc0 f   DBCenterClient.obj
 0001:00067be0       ?dtor$3@?0???1CDBCenterClient@@UEAA@XZ@4HA 0000000140068be0 f   DBCenterClient.obj
 0001:00067c00       ?dtor$4@?0???1CDBCenterClient@@UEAA@XZ@4HA 0000000140068c00 f   DBCenterClient.obj
 0001:00067c20       ?dtor$5@?0???1CDBCenterClient@@UEAA@XZ@4HA 0000000140068c20 f   DBCenterClient.obj
 0001:00067c40       ?dtor$0@?0??ReadConfig@CDBConfig@@QEAA_NXZ@4HA 0000000140068c40 f   DBConfig.obj
 0001:00067c60       ?catch$0@?0??ReadConfig@CDBConfig@@QEAA_NXZ@4HA 0000000140068c60 f   DBConfig.obj
 0001:00067c6d       __catch$?ReadConfig@CDBConfig@@QEAA_NXZ$0 0000000140068c6d f   DBConfig.obj
 0001:00067ca0       ?catch$1@?0??ReadConfig@CDBConfig@@QEAA_NXZ@4HA 0000000140068ca0 f   DBConfig.obj
 0001:00067cad       __catch$?ReadConfig@CDBConfig@@QEAA_NXZ$1 0000000140068cad f   DBConfig.obj
 0001:00067cd0       ?dtor$0@?0??ShowError@CDBConfig@@IEAAXQEBD@Z@4HA 0000000140068cd0 f   DBConfig.obj
 0001:00067cf0       ?dtor$0@?0???0?$CTRefString@VCAnsiString@string@wylib@@D@string@wylib@@QEAA@AEBV012@@Z@4HA 0000000140068cf0 f   DBConfig.obj
 0001:00067d10       ?dtor$0@?0???Y?$CTRefString@VCAnsiString@string@wylib@@D@string@wylib@@QEAAXPEBD@Z@4HA 0000000140068d10 f   DBConfig.obj
 0001:00067d30       ?dtor$0@?0???0CDBDataCache@@QEAA@XZ@4HA 0000000140068d30 f   DBDataCache.obj
 0001:00067d50       ?dtor$1@?0???0CDBDataCache@@QEAA@XZ@4HA 0000000140068d50 f   DBDataCache.obj
 0001:00067d70       ?dtor$2@?0???0CDBDataCache@@QEAA@XZ@4HA 0000000140068d70 f   DBDataCache.obj
 0001:00067d90       ?dtor$3@?0???0CDBDataCache@@QEAA@XZ@4HA 0000000140068d90 f   DBDataCache.obj
 0001:00067db0       ?dtor$4@?0???0CDBDataCache@@QEAA@XZ@4HA 0000000140068db0 f   DBDataCache.obj
 0001:00067de0       ?dtor$0@?0??OnActorLogout@CDBDataCache@@QEAAXAEAVCDataPacketReader@@@Z@4HA 0000000140068de0 f   DBDataCache.obj
 0001:00067e00       ?dtor$1@?0??OnActorLogout@CDBDataCache@@QEAAXAEAVCDataPacketReader@@@Z@4HA 0000000140068e00 f   DBDataCache.obj
 0001:00067e20       ?dtor$0@?0???0?$HandleMgr@VCActorCacheData@@V?$Handle@I@@$0EAA@@@QEAA@PEBD@Z@4HA 0000000140068e20 f   DBDataCache.obj
 0001:00067e40       ?dtor$1@?0???0?$HandleMgr@VCActorCacheData@@V?$Handle@I@@$0EAA@@@QEAA@PEBD@Z@4HA 0000000140068e40 f   DBDataCache.obj
 0001:00067e60       ?dtor$2@?0???0?$HandleMgr@VCActorCacheData@@V?$Handle@I@@$0EAA@@@QEAA@PEBD@Z@4HA 0000000140068e60 f   DBDataCache.obj
 0001:00067e80       ?dtor$0@?0??Acquire@?$HandleMgr@VCActorCacheData@@V?$Handle@I@@$0EAA@@@QEAAPEAVCActorCacheData@@AEAV?$Handle@I@@@Z@4HA 0000000140068e80 f   DBDataCache.obj
 0001:00067ea0       ?dtor$1@?0??Acquire@?$HandleMgr@VCActorCacheData@@V?$Handle@I@@$0EAA@@@QEAAPEAVCActorCacheData@@AEAV?$Handle@I@@@Z@4HA 0000000140068ea0 f   DBDataCache.obj
 0001:00067ec0       ?dtor$2@?0??Acquire@?$HandleMgr@VCActorCacheData@@V?$Handle@I@@$0EAA@@@QEAAPEAVCActorCacheData@@AEAV?$Handle@I@@@Z@4HA 0000000140068ec0 f   DBDataCache.obj
 0001:00067ee0       ?catch$0@?0???$_Buynode@U?$pair@IPEAVCActorCacheData@@@std@@@?$_Tree_val@V?$_Tmap_traits@IPEAVCActorCacheData@@U?$less@I@std@@V?$allocator@U?$pair@$$CBIPEAVCActorCacheData@@@std@@@3@$0A@@std@@@std@@QEAAPEAU_Node@?$_Tree_nod@V?$_Tmap_traits@IPEAVCActorCacheData@@U?$less@I@std@@V?$allocator@U?$pair@$$CBIPEAVCActorCacheData@@@std@@@3@$0A@@std@@@1@$$QEAU?$pair@IPEAVCActorCacheData@@@1@@Z@4HA 0000000140068ee0 f   DBDataCache.obj
 0001:00067eed       __catch$??$_Buynode@U?$pair@IPEAVCActorCacheData@@@std@@@?$_Tree_val@V?$_Tmap_traits@IPEAVCActorCacheData@@U?$less@I@std@@V?$allocator@U?$pair@$$CBIPEAVCActorCacheData@@@std@@@3@$0A@@std@@@std@@QEAAPEAU_Node@?$_Tree_nod@V?$_Tmap_traits@IPEAVCActorCacheData@@U?$less@I@std@@V?$allocator@U?$pair@$$CBIPEAVCActorCacheData@@@std@@@3@$0A@@std@@@1@$$QEAU?$pair@IPEAVCActorCacheData@@@1@@Z$0 0000000140068eed f   DBDataCache.obj
 0001:00067f20       ?dtor$0@?0???$construct@U?$pair@IPEAVCActorCacheData@@@std@@@?$allocator@U?$pair@$$CBIPEAVCActorCacheData@@@std@@@std@@QEAAXPEAU?$pair@$$CBIPEAVCActorCacheData@@@1@$$QEAU?$pair@IPEAVCActorCacheData@@@1@@Z@4HA 0000000140068f20 f   DBDataCache.obj
 0001:00067f40       ?dtor$0@?0??getSingleton@HandleMgrCollector@@SAAEAV1@XZ@4HA 0000000140068f40 f   DBDataCache.obj
 0001:00067f60       ?dtor$0@?0???1CDBDataCache@@UEAA@XZ@4HA 0000000140068f60 f   DBDataCache.obj
 0001:00067f80       ?dtor$1@?0???1CDBDataCache@@UEAA@XZ@4HA 0000000140068f80 f   DBDataCache.obj
 0001:00067fa0       ?dtor$2@?0???1CDBDataCache@@UEAA@XZ@4HA 0000000140068fa0 f   DBDataCache.obj
 0001:00067fc0       ?dtor$3@?0???1CDBDataCache@@UEAA@XZ@4HA 0000000140068fc0 f   DBDataCache.obj
 0001:00067fe0       ?dtor$0@?0??allocNode@?$CBaseLinkedList@PEAVCActorCacheData@@@container@wylib@@MEAAPEAV?$CLinkedNode@PEAVCActorCacheData@@@23@XZ@4HA 0000000140068fe0 f   DBDataCache.obj
 0001:00067fe0       ?dtor$0@?0??allocNode@?$CBaseLinkedList@PEBVHandleMgrStat@@@container@wylib@@MEAAPEAV?$CLinkedNode@PEBVHandleMgrStat@@@23@XZ@4HA 0000000140068fe0 f   DBDataCache.obj
 0001:00068000       ?dtor$0@?0???1?$HandleMgr@VCActorCacheData@@V?$Handle@I@@$0EAA@@@QEAA@XZ@4HA 0000000140069000 f   DBDataCache.obj
 0001:00068020       ?dtor$1@?0???1?$HandleMgr@VCActorCacheData@@V?$Handle@I@@$0EAA@@@QEAA@XZ@4HA 0000000140069020 f   DBDataCache.obj
 0001:00068040       ?dtor$2@?0???1?$HandleMgr@VCActorCacheData@@V?$Handle@I@@$0EAA@@@QEAA@XZ@4HA 0000000140069040 f   DBDataCache.obj
 0001:00068060       ?dtor$3@?0???1?$HandleMgr@VCActorCacheData@@V?$Handle@I@@$0EAA@@@QEAA@XZ@4HA 0000000140069060 f   DBDataCache.obj
 0001:00068080       ?dtor$0@?0???1?$_Tree@V?$_Tmap_traits@IPEAVCActorCacheData@@U?$less@I@std@@V?$allocator@U?$pair@$$CBIPEAVCActorCacheData@@@std@@@3@$0A@@std@@@std@@QEAA@XZ@4HA 0000000140069080 f   DBDataCache.obj
 0001:000680a0       ?dtor$0@?0???0CDBDataClient@@QEAA@PEAVCDBDataServer@@PEAVCSQLConenction@@_KPEAUsockaddr_in@@@Z@4HA 00000001400690a0 f   DBDataClient.obj
 0001:000680c0       ?dtor$1@?0???0CDBDataClient@@QEAA@PEAVCDBDataServer@@PEAVCSQLConenction@@_KPEAUsockaddr_in@@@Z@4HA 00000001400690c0 f   DBDataClient.obj
 0001:000680e0       ?dtor$2@?0???0CDBDataClient@@QEAA@PEAVCDBDataServer@@PEAVCSQLConenction@@_KPEAUsockaddr_in@@@Z@4HA 00000001400690e0 f   DBDataClient.obj
 0001:00068100       ?dtor$3@?0???0CDBDataClient@@QEAA@PEAVCDBDataServer@@PEAVCSQLConenction@@_KPEAUsockaddr_in@@@Z@4HA 0000000140069100 f   DBDataClient.obj
 0001:00068120       ?dtor$4@?0???0CDBDataClient@@QEAA@PEAVCDBDataServer@@PEAVCSQLConenction@@_KPEAUsockaddr_in@@@Z@4HA 0000000140069120 f   DBDataClient.obj
 0001:00068150       ?dtor$0@?0???1CDBDataClient@@UEAA@XZ@4HA 0000000140069150 f   DBDataClient.obj
 0001:00068170       ?dtor$1@?0???1CDBDataClient@@UEAA@XZ@4HA 0000000140069170 f   DBDataClient.obj
 0001:00068190       ?dtor$2@?0???1CDBDataClient@@UEAA@XZ@4HA 0000000140069190 f   DBDataClient.obj
 0001:000681b0       ?dtor$3@?0???1CDBDataClient@@UEAA@XZ@4HA 00000001400691b0 f   DBDataClient.obj
 0001:000681d0       ?dtor$4@?0???1CDBDataClient@@UEAA@XZ@4HA 00000001400691d0 f   DBDataClient.obj
 0001:00068200       ?dtor$0@?0??OnDispatchRecvPacket@CDBDataClient@@MEAAXGAEAVCDataPacketReader@@@Z@4HA 0000000140069200 f   DBDataClient.obj
 0001:00068220       ?dtor$1@?0??OnDispatchRecvPacket@CDBDataClient@@MEAAXGAEAVCDataPacketReader@@@Z@4HA 0000000140069220 f   DBDataClient.obj
 0001:00068240       ?dtor$0@?0??ProcessAllocGuildResult@CDBDataClient@@IEAAXPEATtagASyncNameOPData@1@_J_K@Z@4HA 0000000140069240 f   DBDataClient.obj
 0001:00068260       ?dtor$1@?0??ProcessAllocGuildResult@CDBDataClient@@IEAAXPEATtagASyncNameOPData@1@_J_K@Z@4HA 0000000140069260 f   DBDataClient.obj
 0001:00068280       ?dtor$0@?0??CatchCreateGuild@CDBDataClient@@MEAAHIPEBD0H_KE_J@Z@4HA 0000000140069280 f   DBDataClient.obj
 0001:000682a0       ?dtor$1@?0??CatchCreateGuild@CDBDataClient@@MEAAHIPEBD0H_KE_J@Z@4HA 00000001400692a0 f   DBDataClient.obj
 0001:000682c0       ?dtor$0@?0???0CDBDataClientHandler@@QEAA@XZ@4HA 00000001400692c0 f   DBDataClientHandler.obj
 0001:000682e0       ?dtor$1@?0???0CDBDataClientHandler@@QEAA@XZ@4HA 00000001400692e0 f   DBDataClientHandler.obj
 0001:00068300       ?dtor$2@?0???0CDBDataClientHandler@@QEAA@XZ@4HA 0000000140069300 f   DBDataClientHandler.obj
 0001:00068320       ?dtor$3@?0???0CDBDataClientHandler@@QEAA@XZ@4HA 0000000140069320 f   DBDataClientHandler.obj
 0001:00068340       ?dtor$4@?0???0CDBDataClientHandler@@QEAA@XZ@4HA 0000000140069340 f   DBDataClientHandler.obj
 0001:00068360       ?dtor$5@?0???0CDBDataClientHandler@@QEAA@XZ@4HA 0000000140069360 f   DBDataClientHandler.obj
 0001:00068380       ?dtor$6@?0???0CDBDataClientHandler@@QEAA@XZ@4HA 0000000140069380 f   DBDataClientHandler.obj
 0001:000683a0       ?dtor$7@?0???0CDBDataClientHandler@@QEAA@XZ@4HA 00000001400693a0 f   DBDataClientHandler.obj
 0001:000683c0       ?dtor$8@?0???0CDBDataClientHandler@@QEAA@XZ@4HA 00000001400693c0 f   DBDataClientHandler.obj
 0001:000683f0       ?dtor$0@?0???1CDBDataClientHandler@@QEAA@XZ@4HA 00000001400693f0 f   DBDataClientHandler.obj
 0001:00068410       ?dtor$1@?0???1CDBDataClientHandler@@QEAA@XZ@4HA 0000000140069410 f   DBDataClientHandler.obj
 0001:00068430       ?dtor$2@?0???1CDBDataClientHandler@@QEAA@XZ@4HA 0000000140069430 f   DBDataClientHandler.obj
 0001:00068450       ?dtor$3@?0???1CDBDataClientHandler@@QEAA@XZ@4HA 0000000140069450 f   DBDataClientHandler.obj
 0001:00068470       ?dtor$4@?0???1CDBDataClientHandler@@QEAA@XZ@4HA 0000000140069470 f   DBDataClientHandler.obj
 0001:00068490       ?dtor$5@?0???1CDBDataClientHandler@@QEAA@XZ@4HA 0000000140069490 f   DBDataClientHandler.obj
 0001:000684b0       ?dtor$6@?0???1CDBDataClientHandler@@QEAA@XZ@4HA 00000001400694b0 f   DBDataClientHandler.obj
 0001:000684d0       ?dtor$7@?0???1CDBDataClientHandler@@QEAA@XZ@4HA 00000001400694d0 f   DBDataClientHandler.obj
 0001:000684f0       ?dtor$8@?0???1CDBDataClientHandler@@QEAA@XZ@4HA 00000001400694f0 f   DBDataClientHandler.obj
 0001:00068510       ?dtor$0@?0???0CDBDataServer@@QEAA@PEAVCDBServer@@@Z@4HA 0000000140069510 f   DBDataServer.obj
 0001:00068530       ?dtor$1@?0???0CDBDataServer@@QEAA@PEAVCDBServer@@@Z@4HA 0000000140069530 f   DBDataServer.obj
 0001:00068550       ?dtor$2@?0???0CDBDataServer@@QEAA@PEAVCDBServer@@@Z@4HA 0000000140069550 f   DBDataServer.obj
 0001:00068570       ?dtor$3@?0???0CDBDataServer@@QEAA@PEAVCDBServer@@@Z@4HA 0000000140069570 f   DBDataServer.obj
 0001:00068590       ?dtor$4@?0???0CDBDataServer@@QEAA@PEAVCDBServer@@@Z@4HA 0000000140069590 f   DBDataServer.obj
 0001:000685c0       ?dtor$0@?0???1CDBDataServer@@UEAA@XZ@4HA 00000001400695c0 f   DBDataServer.obj
 0001:000685e0       ?dtor$1@?0???1CDBDataServer@@UEAA@XZ@4HA 00000001400695e0 f   DBDataServer.obj
 0001:00068600       ?dtor$2@?0???1CDBDataServer@@UEAA@XZ@4HA 0000000140069600 f   DBDataServer.obj
 0001:00068620       ?dtor$3@?0???1CDBDataServer@@UEAA@XZ@4HA 0000000140069620 f   DBDataServer.obj
 0001:00068650       ?dtor$0@?0??CreateClientSocket@CDBDataServer@@MEAAPEAVCCustomServerClientSocket@@_KPEAUsockaddr_in@@@Z@4HA 0000000140069650 f   DBDataServer.obj
 0001:00068670       ?dtor$0@?0??UpdateLogicClientList@CDBDataServer@@QEAAXXZ@4HA 0000000140069670 f   DBDataServer.obj
 0001:00068690       ?dtor$1@?0??UpdateLogicClientList@CDBDataServer@@QEAAXXZ@4HA 0000000140069690 f   DBDataServer.obj
 0001:000686b0       ?dtor$0@?0???1CJobZyCountMgr@@QEAA@XZ@4HA 00000001400696b0 f   DBDataServer.obj
 0001:000686d0       ?dtor$1@?0???1CJobZyCountMgr@@QEAA@XZ@4HA 00000001400696d0 f   DBDataServer.obj
 0001:000686f0       ?dtor$2@?0???1CJobZyCountMgr@@QEAA@XZ@4HA 00000001400696f0 f   DBDataServer.obj
 0001:00068710       ?dtor$3@?0???1CJobZyCountMgr@@QEAA@XZ@4HA 0000000140069710 f   DBDataServer.obj
 0001:00068730       ?dtor$4@?0???1CJobZyCountMgr@@QEAA@XZ@4HA 0000000140069730 f   DBDataServer.obj
 0001:00068750       ?dtor$5@?0???1CJobZyCountMgr@@QEAA@XZ@4HA 0000000140069750 f   DBDataServer.obj
 0001:00068770       ?dtor$6@?0???1CJobZyCountMgr@@QEAA@XZ@4HA 0000000140069770 f   DBDataServer.obj
 0001:00068790       ?dtor$0@?0???0CDBServer@@QEAA@XZ@4HA 0000000140069790 f   DBServer.obj
 0001:000687c0       ?dtor$1@?0???0CDBServer@@QEAA@XZ@4HA 00000001400697c0 f   DBServer.obj
 0001:000687f0       ?dtor$2@?0???0CDBServer@@QEAA@XZ@4HA 00000001400697f0 f   DBServer.obj
 0001:00068820       ?dtor$3@?0???0CDBServer@@QEAA@XZ@4HA 0000000140069820 f   DBServer.obj
 0001:00068850       ?dtor$4@?0???0CDBServer@@QEAA@XZ@4HA 0000000140069850 f   DBServer.obj
 0001:00068880       ?dtor$5@?0???0CDBServer@@QEAA@XZ@4HA 0000000140069880 f   DBServer.obj
 0001:000688b0       ?dtor$6@?0???0CDBServer@@QEAA@XZ@4HA 00000001400698b0 f   DBServer.obj
 0001:000688d0       ?dtor$7@?0???0CDBServer@@QEAA@XZ@4HA 00000001400698d0 f   DBServer.obj
 0001:000688f0       ?dtor$8@?0???0CDBServer@@QEAA@XZ@4HA 00000001400698f0 f   DBServer.obj
 0001:00068910       ?dtor$9@?0???0CDBServer@@QEAA@XZ@4HA 0000000140069910 f   DBServer.obj
 0001:00068930       ?dtor$10@?0???0CDBServer@@QEAA@XZ@4HA 0000000140069930 f   DBServer.obj
 0001:00068950       ?dtor$0@?0???1CDBServer@@QEAA@XZ@4HA 0000000140069950 f   DBServer.obj
 0001:00068980       ?dtor$1@?0???1CDBServer@@QEAA@XZ@4HA 0000000140069980 f   DBServer.obj
 0001:000689b0       ?dtor$2@?0???1CDBServer@@QEAA@XZ@4HA 00000001400699b0 f   DBServer.obj
 0001:000689e0       ?dtor$3@?0???1CDBServer@@QEAA@XZ@4HA 00000001400699e0 f   DBServer.obj
 0001:00068a10       ?dtor$4@?0???1CDBServer@@QEAA@XZ@4HA 0000000140069a10 f   DBServer.obj
 0001:00068a40       ?dtor$5@?0???1CDBServer@@QEAA@XZ@4HA 0000000140069a40 f   DBServer.obj
 0001:00068a70       ?dtor$0@?0??LoadGameServerRoute@CDBServer@@QEAAHXZ@4HA 0000000140069a70 f   DBServer.obj
 0001:00068a90       ?dtor$1@?0??LoadGameServerRoute@CDBServer@@QEAAHXZ@4HA 0000000140069a90 f   DBServer.obj
 0001:00068ab0       ?dtor$0@?0??UpdateLogicGateUserInfo@CDBServer@@QEAAXAEAVCDataPacketReader@@@Z@4HA 0000000140069ab0 f   DBServer.obj
 0001:00068ad0       ?dtor$1@?0??UpdateLogicGateUserInfo@CDBServer@@QEAAXAEAVCDataPacketReader@@@Z@4HA 0000000140069ad0 f   DBServer.obj
 0001:00068af0       ?dtor$0@?0??LoadFilterNames@CDBServer@@QEAAHXZ@4HA 0000000140069af0 f   DBServer.obj
 0001:00068b10       ?dtor$0@?0??CheckNameStr@CDBServer@@QEAAHPEBD@Z@4HA 0000000140069b10 f   DBServer.obj
 0001:00068b30       ?dtor$1@?0??CheckNameStr@CDBServer@@QEAAHPEBD@Z@4HA 0000000140069b30 f   DBServer.obj
 0001:00068b50       ?dtor$0@?0??GetRandomName@CDBServer@@QEAA_JAEAPEBD_J@Z@4HA 0000000140069b50 f   DBServer.obj
 0001:00068b70       ?dtor$1@?0??GetRandomName@CDBServer@@QEAA_JAEAPEBD_J@Z@4HA 0000000140069b70 f   DBServer.obj
 0001:00068b90       ?dtor$0@?0??AllocRandomName@CDBServer@@QEAAX_J0@Z@4HA 0000000140069b90 f   DBServer.obj
 0001:00068bb0       ?dtor$1@?0??AllocRandomName@CDBServer@@QEAAX_J0@Z@4HA 0000000140069bb0 f   DBServer.obj
 0001:00068bd0       ?dtor$0@?0??SaveNameFile@CDBServer@@QEAAXXZ@4HA 0000000140069bd0 f   DBServer.obj
 0001:00068bf0       ?dtor$1@?0??SaveNameFile@CDBServer@@QEAAXXZ@4HA 0000000140069bf0 f   DBServer.obj
 0001:00068c10       ?dtor$2@?0??SaveNameFile@CDBServer@@QEAAXXZ@4HA 0000000140069c10 f   DBServer.obj
 0001:00068c30       ?dtor$3@?0??SaveNameFile@CDBServer@@QEAAXXZ@4HA 0000000140069c30 f   DBServer.obj
 0001:00068c50       ?dtor$0@?0???0CNameSyncClient@@QEAA@PEAVCDBServer@@@Z@4HA 0000000140069c50 f   DBNSClient.obj
 0001:00068c70       ?dtor$1@?0???0CNameSyncClient@@QEAA@PEAVCDBServer@@@Z@4HA 0000000140069c70 f   DBNSClient.obj
 0001:00068c90       ?dtor$2@?0???0CNameSyncClient@@QEAA@PEAVCDBServer@@@Z@4HA 0000000140069c90 f   DBNSClient.obj
 0001:00068cb0       ?dtor$3@?0???0CNameSyncClient@@QEAA@PEAVCDBServer@@@Z@4HA 0000000140069cb0 f   DBNSClient.obj
 0001:00068ce0       ?dtor$0@?0???1CNameSyncClient@@UEAA@XZ@4HA 0000000140069ce0 f   DBNSClient.obj
 0001:00068d00       ?dtor$1@?0???1CNameSyncClient@@UEAA@XZ@4HA 0000000140069d00 f   DBNSClient.obj
 0001:00068d20       ?dtor$2@?0???1CNameSyncClient@@UEAA@XZ@4HA 0000000140069d20 f   DBNSClient.obj
 0001:00068d40       ?dtor$0@?0???0CEsqlManager@@QEAA@XZ@4HA 0000000140069d40 f   EsqlMgr.obj
 0001:00068d60       ?dtor$0@?0???1CEsqlManager@@QEAA@XZ@4HA 0000000140069d60 f   EsqlMgr.obj
 0001:00068d80       ?dtor$0@?0??OnDeleteActor@CGateDBReqestHandler@@AEAAXAEAVCDataPacketReader@@PEAVILogicDBRequestHost@@@Z@4HA 0000000140069d80 f   GateDBRequestHandler.obj
 0001:00068da0       ?dtor$1@?0??OnDeleteActor@CGateDBReqestHandler@@AEAAXAEAVCDataPacketReader@@PEAVILogicDBRequestHost@@@Z@4HA 0000000140069da0 f   GateDBRequestHandler.obj
 0001:00068dd0       ?dtor$0@?0??OnCreateActor@CGateDBReqestHandler@@AEAAXAEAVCDataPacketReader@@PEAVILogicDBRequestHost@@@Z@4HA 0000000140069dd0 f   GateDBRequestHandler.obj
 0001:00068df0       ?dtor$1@?0??OnCreateActor@CGateDBReqestHandler@@AEAAXAEAVCDataPacketReader@@PEAVILogicDBRequestHost@@@Z@4HA 0000000140069df0 f   GateDBRequestHandler.obj
 0001:00068e20       ?dtor$0@?0??OnRandName@CGateDBReqestHandler@@AEAAXAEAVCDataPacketReader@@PEAVILogicDBRequestHost@@@Z@4HA 0000000140069e20 f   GateDBRequestHandler.obj
 0001:00068e40       ?dtor$1@?0??OnRandName@CGateDBReqestHandler@@AEAAXAEAVCDataPacketReader@@PEAVILogicDBRequestHost@@@Z@4HA 0000000140069e40 f   GateDBRequestHandler.obj
 0001:00068e60       ?dtor$0@?0??GetActorList@CGateDBReqestHandler@@QEAAXIHAEAVCDataPacket@@@Z@4HA 0000000140069e60 f   GateDBRequestHandler.obj
 0001:00068e80       ?dtor$1@?0??GetActorList@CGateDBReqestHandler@@QEAAXIHAEAVCDataPacket@@@Z@4HA 0000000140069e80 f   GateDBRequestHandler.obj
 0001:00068eb0       ?dtor$0@?0??OnChaneActorNameToDb@CGateDBReqestHandler@@AEAAXAEAVCDataPacketReader@@PEAVILogicDBRequestHost@@@Z@4HA 0000000140069eb0 f   GateDBRequestHandler.obj
 0001:00068ed0       ?dtor$1@?0??OnChaneActorNameToDb@CGateDBReqestHandler@@AEAAXAEAVCDataPacketReader@@PEAVILogicDBRequestHost@@@Z@4HA 0000000140069ed0 f   GateDBRequestHandler.obj
 0001:00068ef0       ?dtor$0@?0??LoadGuildList@CLogicDBReqestHandler@@QEAAXAEAVCDataPacketReader@@@Z@4HA 0000000140069ef0 f   GuildData.obj
 0001:00068f10       ?dtor$1@?0??LoadGuildList@CLogicDBReqestHandler@@QEAAXAEAVCDataPacketReader@@@Z@4HA 0000000140069f10 f   GuildData.obj
 0001:00068f30       ?dtor$0@?0??LoadGuildEventDb@CLogicDBReqestHandler@@QEAAXAEAVCDataPacketReader@@@Z@4HA 0000000140069f30 f   GuildData.obj
 0001:00068f50       ?dtor$1@?0??LoadGuildEventDb@CLogicDBReqestHandler@@QEAAXAEAVCDataPacketReader@@@Z@4HA 0000000140069f50 f   GuildData.obj
 0001:00068f70       ?dtor$0@?0??LoadGuildSkillDb@CLogicDBReqestHandler@@QEAAXAEAVCDataPacketReader@@@Z@4HA 0000000140069f70 f   GuildData.obj
 0001:00068f90       ?dtor$1@?0??LoadGuildSkillDb@CLogicDBReqestHandler@@QEAAXAEAVCDataPacketReader@@@Z@4HA 0000000140069f90 f   GuildData.obj
 0001:00068fb0       ?dtor$0@?0??LoadGuildDetail@CLogicDBReqestHandler@@QEAAXAEAVCDataPacketReader@@@Z@4HA 0000000140069fb0 f   GuildData.obj
 0001:00068fd0       ?dtor$1@?0??LoadGuildDetail@CLogicDBReqestHandler@@QEAAXAEAVCDataPacketReader@@@Z@4HA 0000000140069fd0 f   GuildData.obj
 0001:00068ff0       ?dtor$2@?0??LoadGuildDetail@CLogicDBReqestHandler@@QEAAXAEAVCDataPacketReader@@@Z@4HA 0000000140069ff0 f   GuildData.obj
 0001:00069010       ?dtor$0@?0??AddGuild@CLogicDBReqestHandler@@QEAAXAEAVCDataPacketReader@@@Z@4HA 000000014006a010 f   GuildData.obj
 0001:00069030       ?dtor$1@?0??AddGuild@CLogicDBReqestHandler@@QEAAXAEAVCDataPacketReader@@@Z@4HA 000000014006a030 f   GuildData.obj
 0001:00069060       ?dtor$0@?0??DeleteMember@CLogicDBReqestHandler@@QEAAXAEAVCDataPacketReader@@@Z@4HA 000000014006a060 f   GuildData.obj
 0001:00069080       ?dtor$1@?0??DeleteMember@CLogicDBReqestHandler@@QEAAXAEAVCDataPacketReader@@@Z@4HA 000000014006a080 f   GuildData.obj
 0001:000690a0       ?dtor$0@?0??SaveActorGuild@CLogicDBReqestHandler@@QEAAXAEAVCDataPacketReader@@_N@Z@4HA 000000014006a0a0 f   GuildData.obj
 0001:000690c0       ?dtor$1@?0??SaveActorGuild@CLogicDBReqestHandler@@QEAAXAEAVCDataPacketReader@@_N@Z@4HA 000000014006a0c0 f   GuildData.obj
 0001:000690f0       ?dtor$0@?0??LoadActorGuild@CLogicDBReqestHandler@@QEAAXI@Z@4HA 000000014006a0f0 f   GuildData.obj
 0001:00069110       ?dtor$1@?0??LoadActorGuild@CLogicDBReqestHandler@@QEAAXI@Z@4HA 000000014006a110 f   GuildData.obj
 0001:00069130       ?dtor$0@?0??AddGuildMember@CLogicDBReqestHandler@@QEAAXAEAVCDataPacketReader@@@Z@4HA 000000014006a130 f   GuildData.obj
 0001:00069150       ?dtor$1@?0??AddGuildMember@CLogicDBReqestHandler@@QEAAXAEAVCDataPacketReader@@@Z@4HA 000000014006a150 f   GuildData.obj
 0001:00069170       ?dtor$0@?0??InitGuildSkillInfo@CLogicDBReqestHandler@@QEAAXAEAVCDataPacketReader@@@Z@4HA 000000014006a170 f   GuildData.obj
 0001:00069190       ?dtor$1@?0??InitGuildSkillInfo@CLogicDBReqestHandler@@QEAAXAEAVCDataPacketReader@@@Z@4HA 000000014006a190 f   GuildData.obj
 0001:000691b0       ?dtor$0@?0??SaveGuildSkill@CLogicDBReqestHandler@@QEAAXAEAVCDataPacketReader@@@Z@4HA 000000014006a1b0 f   GuildData.obj
 0001:000691d0       ?dtor$1@?0??SaveGuildSkill@CLogicDBReqestHandler@@QEAAXAEAVCDataPacketReader@@@Z@4HA 000000014006a1d0 f   GuildData.obj
 0001:000691f0       ?dtor$0@?0??SaveGuildEventDb@CLogicDBReqestHandler@@QEAAXAEAVCDataPacketReader@@@Z@4HA 000000014006a1f0 f   GuildData.obj
 0001:00069210       ?dtor$1@?0??SaveGuildEventDb@CLogicDBReqestHandler@@QEAAXAEAVCDataPacketReader@@@Z@4HA 000000014006a210 f   GuildData.obj
 0001:00069240       ?dtor$0@?0??SaveGuild@CLogicDBReqestHandler@@QEAAXAEAVCDataPacketReader@@@Z@4HA 000000014006a240 f   GuildData.obj
 0001:00069260       ?dtor$1@?0??SaveGuild@CLogicDBReqestHandler@@QEAAXAEAVCDataPacketReader@@@Z@4HA 000000014006a260 f   GuildData.obj
 0001:00069290       ?dtor$0@?0??DeleteGuild@CLogicDBReqestHandler@@QEAAXAEAVCDataPacketReader@@@Z@4HA 000000014006a290 f   GuildData.obj
 0001:000692b0       ?dtor$1@?0??DeleteGuild@CLogicDBReqestHandler@@QEAAXAEAVCDataPacketReader@@@Z@4HA 000000014006a2b0 f   GuildData.obj
 0001:000692d0       ?dtor$0@?0??AddMemberOffLine@CLogicDBReqestHandler@@QEAAXAEAVCDataPacketReader@@@Z@4HA 000000014006a2d0 f   GuildData.obj
 0001:000692f0       ?dtor$1@?0??AddMemberOffLine@CLogicDBReqestHandler@@QEAAXAEAVCDataPacketReader@@@Z@4HA 000000014006a2f0 f   GuildData.obj
 0001:00069310       ?dtor$2@?0??AddMemberOffLine@CLogicDBReqestHandler@@QEAAXAEAVCDataPacketReader@@@Z@4HA 000000014006a310 f   GuildData.obj
 0001:00069330       ?dtor$0@?0??SaveGuildDepotDb@CLogicDBReqestHandler@@QEAAXAEAVCDataPacketReader@@@Z@4HA 000000014006a330 f   GuildData.obj
 0001:00069350       ?dtor$1@?0??SaveGuildDepotDb@CLogicDBReqestHandler@@QEAAXAEAVCDataPacketReader@@@Z@4HA 000000014006a350 f   GuildData.obj
 0001:00069370       ?dtor$0@?0??SaveGuildDepotRecordDb@CLogicDBReqestHandler@@QEAAXAEAVCDataPacketReader@@@Z@4HA 000000014006a370 f   GuildData.obj
 0001:00069390       ?dtor$1@?0??SaveGuildDepotRecordDb@CLogicDBReqestHandler@@QEAAXAEAVCDataPacketReader@@@Z@4HA 000000014006a390 f   GuildData.obj
 0001:000693b0       ?dtor$0@?0??LoadGuildDepoyFromDb@CLogicDBReqestHandler@@QEAAXAEAVCDataPacketReader@@@Z@4HA 000000014006a3b0 f   GuildData.obj
 0001:000693d0       ?dtor$1@?0??LoadGuildDepoyFromDb@CLogicDBReqestHandler@@QEAAXAEAVCDataPacketReader@@@Z@4HA 000000014006a3d0 f   GuildData.obj
 0001:000693f0       ?dtor$0@?0??LoadGuildDepotRecordDb@CLogicDBReqestHandler@@QEAAXAEAVCDataPacketReader@@@Z@4HA 000000014006a3f0 f   GuildData.obj
 0001:00069410       ?dtor$1@?0??LoadGuildDepotRecordDb@CLogicDBReqestHandler@@QEAAXAEAVCDataPacketReader@@@Z@4HA 000000014006a410 f   GuildData.obj
 0001:00069430       ?dtor$0@?0??LoadActorBuildingDb@CLogicDBReqestHandler@@QEAAXAEAVCDataPacketReader@@@Z@4HA 000000014006a430 f   GuildData.obj
 0001:00069450       ?dtor$1@?0??LoadActorBuildingDb@CLogicDBReqestHandler@@QEAAXAEAVCDataPacketReader@@@Z@4HA 000000014006a450 f   GuildData.obj
 0001:00069470       ?dtor$0@?0???$?6UtagActorNode@@@CDataPacket@@QEAAAEAV0@UtagActorNode@@@Z@4HA 000000014006a470 f   GuildData.obj
 0001:00069490       ?dtor$0@?0???$writeAtom@UtagActorNode@@@CDataPacket@@QEAAXUtagActorNode@@@Z@4HA 000000014006a490 f   GuildData.obj
 0001:000694b0       ?dtor$0@?0??SaveFriendsData@CLogicDBReqestHandler@@QEAAHHHHPEBDI@Z@4HA 000000014006a4b0 f   InterAction.obj
 0001:000694d0       ?dtor$0@?0??SaveFriends@CLogicDBReqestHandler@@QEAAXAEAVCDataPacketReader@@_N@Z@4HA 000000014006a4d0 f   InterAction.obj
 0001:000694f0       ?dtor$0@?0??CleanFriends@CLogicDBReqestHandler@@QEAAHH@Z@4HA 000000014006a4f0 f   InterAction.obj
 0001:00069510       ?dtor$0@?0??LoadFriends@CLogicDBReqestHandler@@AEAAXI@Z@4HA 000000014006a510 f   InterAction.obj
 0001:00069530       ?dtor$0@?0???0CJobZyCountMgr@@QEAA@XZ@4HA 000000014006a530 f   JobZyCountMgr.obj
 0001:00069550       ?dtor$1@?0???0CJobZyCountMgr@@QEAA@XZ@4HA 000000014006a550 f   JobZyCountMgr.obj
 0001:00069570       ?dtor$2@?0???0CJobZyCountMgr@@QEAA@XZ@4HA 000000014006a570 f   JobZyCountMgr.obj
 0001:00069590       ?dtor$3@?0???0CJobZyCountMgr@@QEAA@XZ@4HA 000000014006a590 f   JobZyCountMgr.obj
 0001:000695b0       ?dtor$4@?0???0CJobZyCountMgr@@QEAA@XZ@4HA 000000014006a5b0 f   JobZyCountMgr.obj
 0001:000695d0       ?dtor$5@?0???0CJobZyCountMgr@@QEAA@XZ@4HA 000000014006a5d0 f   JobZyCountMgr.obj
 0001:000695f0       ?dtor$6@?0???0CJobZyCountMgr@@QEAA@XZ@4HA 000000014006a5f0 f   JobZyCountMgr.obj
 0001:00069610       ?dtor$0@?0??QueryActorAcupointData@CLogicDBReqestHandler@@QEAAXIHH@Z@4HA 000000014006a610 f   AcupointData.obj
 0001:00069630       ?dtor$1@?0??QueryActorAcupointData@CLogicDBReqestHandler@@QEAAXIHH@Z@4HA 000000014006a630 f   AcupointData.obj
