 SessionServer64_R

 Timestamp is 577a23c8 (Mon Jul 04 16:52:24 2016)

 Preferred load address is 0000000140000000

 Start         Length     Name                   Class
 0001:00000000 00033f1dH .text                   CODE
 0001:00033f20 00001069H .text$x                 CODE
 0001:00034f90 00000295H .text$yc                CODE
 0001:00035230 00000015H .text$yd                CODE
 0002:00000000 000007e8H .idata$5                DATA
 0002:000007e8 00000008H .CRT$XCA                DATA
 0002:000007f0 00000008H .CRT$XCAA               DATA
 0002:000007f8 00000020H .CRT$XCU                DATA
 0002:00000818 00000008H .CRT$XCZ                DATA
 0002:00000820 00000008H .CRT$XIA                DATA
 0002:00000828 00000008H .CRT$XIAA               DATA
 0002:00000830 00000008H .CRT$XIY                DATA
 0002:00000838 00000008H .CRT$XIZ                DATA
 0002:00000840 00005ad8H .rdata                  DATA
 0002:00006318 00000061H .rdata$debug            DATA
 0002:00006380 00001f3cH .rdata$r                DATA
 0002:000082c0 00000008H .rtc$IAA                DATA
 0002:000082c8 00000008H .rtc$IZZ                DATA
 0002:000082d0 00000008H .rtc$TAA                DATA
 0002:000082d8 00000008H .rtc$TZZ                DATA
 0002:000082e0 00003a10H .xdata                  DATA
 0002:0000bcf0 0000010cH .xdata$x                DATA
 0002:0000bdfc 000000c8H .idata$2                DATA
 0002:0000bec4 00000014H .idata$3                DATA
 0002:0000bed8 000007e8H .idata$4                DATA
 0002:0000c6c0 00000d80H .idata$6                DATA
 0002:0000d440 00000000H .edata                  DATA
 0003:00000000 00001574H .data                   DATA
 0003:00001580 00034fa0H .bss                    DATA
 0004:00000000 00003b88H .pdata                  DATA

  Address         Publics by Value              Rva+Base               Lib:Object

 0000:00000000       ___safe_se_handler_count   0000000000000000     <absolute>
 0000:00000000       ___safe_se_handler_table   0000000000000000     <absolute>
 0000:00000000       __ImageBase                0000000140000000     <linker-defined>
 0001:00000000       _tcsstr                    0000000140001000 f i srvlib_x64:TimeStat.obj
 0001:00000030       ??2@YAPEAX_KPEAX@Z         0000000140001030 f i srvlib_x64:TimeStat.obj
 0001:00000040       ??3@YAXPEAX0@Z             0000000140001040 f i srvlib_x64:TimeStat.obj
 0001:00000050       ??0CounterNode@CounterManager@@QEAA@XZ 0000000140001050 f i srvlib_x64:TimeStat.obj
 0001:00000080       ??0CounterNode@CounterManager@@QEAA@PEBDPEAX_K@Z 0000000140001080 f i srvlib_x64:TimeStat.obj
 0001:00000240       ??4CounterNode@CounterManager@@QEAAAEAU01@AEBU01@@Z 0000000140001240 f i srvlib_x64:TimeStat.obj
 0001:00000270       ?getSingleton@CounterManager@@SAAEAV1@XZ 0000000140001270 f i srvlib_x64:TimeStat.obj
 0001:000002c0       ??0CounterManager@@QEAA@XZ 00000001400012c0 f i srvlib_x64:TimeStat.obj
 0001:00000310       ?addObjectCounter@CounterManager@@QEAAXPEBDPEAX_K@Z 0000000140001310 f i srvlib_x64:TimeStat.obj
 0001:000003d0       ??_H@YAXPEAX_KHP6APEAX0@Z@Z 00000001400013d0 f i srvlib_x64:TimeStat.obj
 0001:00000420       ??0CTimeProfRecord@@QEAA@XZ 0000000140001420 f i srvlib_x64:TimeStat.obj
 0001:00000450       ?addChild@CTimeProfRecord@@QEAAXPEAV1@@Z 0000000140001450 f i srvlib_x64:TimeStat.obj
 0001:00000480       ?getChildByHash@CTimeProfRecord@@QEAAPEAV1@H@Z 0000000140001480 f i srvlib_x64:TimeStat.obj
 0001:00000510       ?reset@CTimeProfRecord@@QEAAX_N@Z 0000000140001510 f i srvlib_x64:TimeStat.obj
 0001:00000590       ?reInitBasicData@CTimeProfRecord@@QEAAXPEBDI@Z 0000000140001590 f i srvlib_x64:TimeStat.obj
 0001:000006c0       ?startProf@CTimeProfRecord@@QEAAXXZ 00000001400016c0 f i srvlib_x64:TimeStat.obj
 0001:00000710       ?endProf@CTimeProfRecord@@QEAAXXZ 0000000140001710 f i srvlib_x64:TimeStat.obj
 0001:000007f0       ?getSingleton@CTimeProfMgr@@SAAEAV1@XZ 00000001400017f0 f i srvlib_x64:TimeStat.obj
 0001:00000840       ?getThreadInst@CTimeProfMgr@@QEAAPEAV1@XZ 0000000140001840 f i srvlib_x64:TimeStat.obj
 0001:00000970       ?OnTimeProfRecordStart@CTimeProfMgr@@QEAAXPEAVCTimeProfRecord@@@Z 0000000140001970 f i srvlib_x64:TimeStat.obj
 0001:000009a0       ?OnTimeProfRecordEnd@CTimeProfMgr@@QEAAXPEAVCTimeProfRecord@@@Z 00000001400019a0 f i srvlib_x64:TimeStat.obj
 0001:000009c0       ?GetExeUnitCount@CTimeProfMgr@@QEAA_JXZ 00000001400019c0 f i srvlib_x64:TimeStat.obj
 0001:000009e0       ?getCurrTimeProfRecord@CTimeProfMgr@@QEAAPEAVCTimeProfRecord@@XZ 00000001400019e0 f i srvlib_x64:TimeStat.obj
 0001:00000a20       ?allocRecord@CTimeProfMgr@@QEAAPEAVCTimeProfRecord@@XZ 0000000140001a20 f i srvlib_x64:TimeStat.obj
 0001:00000a70       ?freeRecord@CTimeProfMgr@@QEAAXPEAVCTimeProfRecord@@@Z 0000000140001a70 f i srvlib_x64:TimeStat.obj
 0001:00000aa0       ?clear@CTimeProfMgr@@QEAAXXZ 0000000140001aa0 f i srvlib_x64:TimeStat.obj
 0001:00000c40       ?allocTimeProfRecord@CTimeProfMgr@@IEAAXXZ 0000000140001c40 f i srvlib_x64:TimeStat.obj
 0001:00000cf0       ?setThreadId@CTimeProfMgr@@IEAAXK@Z 0000000140001cf0 f i srvlib_x64:TimeStat.obj
 0001:00000d10       ??_GCTimeProfRecord@@QEAAPEAXI@Z 0000000140001d10 f i srvlib_x64:TimeStat.obj
 0001:00000d50       ??_GCTimeProfMgr@@QEAAPEAXI@Z 0000000140001d50 f i srvlib_x64:TimeStat.obj
 0001:00000d90       ??0?$Counter@VCTimeProfDummy@@@@QEAA@XZ 0000000140001d90 f i srvlib_x64:TimeStat.obj
 0001:00000db0       ??1?$Counter@VCTimeProfDummy@@@@QEAA@XZ 0000000140001db0 f i srvlib_x64:TimeStat.obj
 0001:00000dd0       ??0?$Counter@VCTimeProfRecord@@@@QEAA@XZ 0000000140001dd0 f i srvlib_x64:TimeStat.obj
 0001:00000df0       ??1?$Counter@VCTimeProfRecord@@@@QEAA@XZ 0000000140001df0 f i srvlib_x64:TimeStat.obj
 0001:00000e10       ??0?$CBaseList@PEAVCTimeProfRecord@@@container@wylib@@QEAA@XZ 0000000140001e10 f i srvlib_x64:TimeStat.obj
 0001:00000e60       ??1?$CBaseList@PEAVCTimeProfRecord@@@container@wylib@@UEAA@XZ 0000000140001e60 f i srvlib_x64:TimeStat.obj
 0001:00000e90       ?push@?$CBaseList@PEAVCTimeProfRecord@@@container@wylib@@QEAA_JAEBQEAVCTimeProfRecord@@@Z 0000000140001e90 f i srvlib_x64:TimeStat.obj
 0001:00000ec0       ?pop@?$CBaseList@PEAVCTimeProfRecord@@@container@wylib@@QEAAPEAVCTimeProfRecord@@XZ 0000000140001ec0 f i srvlib_x64:TimeStat.obj
 0001:00000f30       ??0?$CBaseList@PEAVCTimeProfMgr@@@container@wylib@@QEAA@XZ 0000000140001f30 f i srvlib_x64:TimeStat.obj
 0001:00000f80       ??1?$CBaseList@PEAVCTimeProfMgr@@@container@wylib@@UEAA@XZ 0000000140001f80 f i srvlib_x64:TimeStat.obj
 0001:00000fb0       ??B?$CBaseList@PEAVCTimeProfMgr@@@container@wylib@@QEBAPEAPEAVCTimeProfMgr@@XZ 0000000140001fb0 f i srvlib_x64:TimeStat.obj
 0001:00000fb0       ??B?$CBaseList@PEAV?$CRefObjectImpl@VCAnsiString@string@wylib@@@misc@wylib@@@container@wylib@@QEBAPEAPEAV?$CRefObjectImpl@VCAnsiString@string@wylib@@@misc@2@XZ 0000000140001fb0 f i srvlib_x64:CustomLuaConfig.obj
 0001:00000fb0       ??B?$CBaseList@PEAVCCustomServerClientSocket@@@container@wylib@@QEBAPEAPEAVCCustomServerClientSocket@@XZ 0000000140001fb0 f i srvlib_x64:CustomServerSocket.obj
 0001:00000fb0       ??B?$CBaseList@PEAVCTimeProfRecord@@@container@wylib@@QEBAPEAPEAVCTimeProfRecord@@XZ 0000000140001fb0 f i srvlib_x64:TimeStat.obj
 0001:00000fb0       ??B?$CBaseList@PEAVCDataPacket@@@container@wylib@@QEBAPEAPEAVCDataPacket@@XZ 0000000140001fb0 f i srvlib_x64:SendPackPool.obj
 0001:00000fb0       ?getSocket@CCustomSocket@socket@inet@wylib@@QEAA_KXZ 0000000140001fb0 f i srvlib_x64:CustomClientSocket.obj
 0001:00000fb0       ??B?$CBaseList@PEAUtagAppInternalMessage@@@container@wylib@@QEBAPEAPEAUtagAppInternalMessage@@XZ 0000000140001fb0 f i srvlib_x64:CustomWorkSocket.obj
 0001:00000fb0       ?rawStr@CAnsiString@string@wylib@@QEAAPEADXZ 0000000140001fb0 f i srvlib_x64:CustomLuaConfig.obj
 0001:00000fc0       ??_G?$CBaseList@PEAVCTimeProfRecord@@@container@wylib@@UEAAPEAXI@Z 0000000140001fc0 f i srvlib_x64:TimeStat.obj
 0001:00000fc0       ??_E?$CBaseList@PEAVCTimeProfRecord@@@container@wylib@@UEAAPEAXI@Z 0000000140001fc0 f i  CIL library: CIL module
 0001:00001000       ??_E?$CBaseList@PEAVCTimeProfMgr@@@container@wylib@@UEAAPEAXI@Z 0000000140002000 f i  CIL library: CIL module
 0001:00001000       ??_G?$CBaseList@PEAVCTimeProfMgr@@@container@wylib@@UEAAPEAXI@Z 0000000140002000 f i srvlib_x64:TimeStat.obj
 0001:00001040       ?addToStat@?$Counter@VCTimeProfDummy@@@@IEAAXXZ 0000000140002040 f i srvlib_x64:TimeStat.obj
 0001:000010a0       ?addToStat@?$Counter@VCTimeProfRecord@@@@IEAAXXZ 00000001400020a0 f i srvlib_x64:TimeStat.obj
 0001:00001100       ?getCount@?$Counter@VCTimeProfDummy@@@@SA_KXZ 0000000140002100 f i srvlib_x64:TimeStat.obj
 0001:00001110       ?getCount@?$Counter@VCTimeProfRecord@@@@SA_KXZ 0000000140002110 f i srvlib_x64:TimeStat.obj
 0001:00001120       ??$strcpy_s@$0EA@@@YAHAEAY0EA@DPEBD@Z 0000000140002120 f i srvlib_x64:TimeStat.obj
 0001:00001150       ??$sprintf_s@$0CAA@@@YAHAEAY0CAA@DPEBDZZ 0000000140002150 f i srvlib_x64:TimeStat.obj
 0001:000011a0       ??$sprintf_s@$0EA@@@YAHAEAY0EA@DPEBDZZ 00000001400021a0 f i srvlib_x64:TimeStat.obj
 0001:000011f0       ?_tcsstr@@YAPEADPEADPEBD@Z 00000001400021f0 f i srvlib_x64:WinService.obj
 0001:00001220       ??_ECWinService@@UEAAPEAXI@Z 0000000140002220 f i  CIL library: CIL module
 0001:00001220       ??_GCWinService@@UEAAPEAXI@Z 0000000140002220 f i srvlib_x64:WinService.obj
 0001:00001260       ?alloc@CAnsiString@string@wylib@@MEAAPEAXPEAX_K@Z 0000000140002260 f i srvlib_x64:CustomLuaConfig.obj
 0001:000012b0       ?setData@CAnsiString@string@wylib@@IEAAXPEBD@Z 00000001400022b0 f i srvlib_x64:CustomLuaConfig.obj
 0001:00001350       ?catData@CAnsiString@string@wylib@@IEAAXPEBD@Z 0000000140002350 f i srvlib_x64:CustomLuaConfig.obj
 0001:000013f0       ??0CAnsiString@string@wylib@@QEAA@XZ 00000001400023f0 f i srvlib_x64:CustomLuaConfig.obj
 0001:00001420       ??0CAnsiString@string@wylib@@QEAA@PEBD@Z 0000000140002420 f i srvlib_x64:CustomLuaConfig.obj
 0001:00001470       ??1CAnsiString@string@wylib@@UEAA@XZ 0000000140002470 f i srvlib_x64:CustomLuaConfig.obj
 0001:000014a0       ??BCAnsiString@string@wylib@@QEAAPEADXZ 00000001400024a0 f i srvlib_x64:CustomLuaConfig.obj
 0001:000014e0       ??4CAnsiString@string@wylib@@QEAAXPEBD@Z 00000001400024e0 f i srvlib_x64:CustomLuaConfig.obj
 0001:00001520       ??YCAnsiString@string@wylib@@QEAAXPEBD@Z 0000000140002520 f i srvlib_x64:CustomLuaConfig.obj
 0001:00001590       ?length@CAnsiString@string@wylib@@QEBA_KXZ 0000000140002590 f i srvlib_x64:CustomLuaConfig.obj
 0001:000015d0       ?isEmpty@CAnsiString@string@wylib@@QEBA_NXZ 00000001400025d0 f i srvlib_x64:CustomLuaConfig.obj
 0001:00001610       ??_GCAnsiString@string@wylib@@UEAAPEAXI@Z 0000000140002610 f i srvlib_x64:CustomLuaConfig.obj
 0001:00001610       ??_ECAnsiString@string@wylib@@UEAAPEAXI@Z 0000000140002610 f i  CIL library: CIL module
 0001:00001650       ??_ECCustomLuaConfig@@UEAAPEAXI@Z 0000000140002650 f i  CIL library: CIL module
 0001:00001650       ??_GCCustomLuaConfig@@UEAAPEAXI@Z 0000000140002650 f i srvlib_x64:CustomLuaConfig.obj
 0001:00001690       ??4?$CTRefString@VCAnsiString@string@wylib@@D@string@wylib@@QEAAXPEBD@Z 0000000140002690 f i srvlib_x64:CustomLuaConfig.obj
 0001:00001730       ??0?$CBaseList@PEAV?$CRefObjectImpl@VCAnsiString@string@wylib@@@misc@wylib@@@container@wylib@@QEAA@XZ 0000000140002730 f i srvlib_x64:CustomLuaConfig.obj
 0001:00001780       ??1?$CBaseList@PEAV?$CRefObjectImpl@VCAnsiString@string@wylib@@@misc@wylib@@@container@wylib@@UEAA@XZ 0000000140002780 f i srvlib_x64:CustomLuaConfig.obj
 0001:000017b0       ?add@?$CBaseList@PEAVCDataPacket@@@container@wylib@@QEAA_JAEBQEAVCDataPacket@@@Z 00000001400027b0 f i srvlib_x64:CustomWorkSocket.obj
 0001:000017b0       ?add@?$CBaseList@PEAVCCustomServerClientSocket@@@container@wylib@@QEAA_JAEBQEAVCCustomServerClientSocket@@@Z 00000001400027b0 f i srvlib_x64:CustomServerSocket.obj
 0001:000017b0       ?add@?$CBaseList@PEAV?$CRefObjectImpl@VCAnsiString@string@wylib@@@misc@wylib@@@container@wylib@@QEAA_JAEBQEAV?$CRefObjectImpl@VCAnsiString@string@wylib@@@misc@3@@Z 00000001400027b0 f i srvlib_x64:CustomLuaConfig.obj
 0001:000017b0       ?add@?$CBaseList@PEAVCTimeProfRecord@@@container@wylib@@QEAA_JAEBQEAVCTimeProfRecord@@@Z 00000001400027b0 f i srvlib_x64:TimeStat.obj
 0001:000017b0       ?add@?$CBaseList@PEAUtagAppInternalMessage@@@container@wylib@@QEAA_JAEBQEAUtagAppInternalMessage@@@Z 00000001400027b0 f i srvlib_x64:CustomWorkSocket.obj
 0001:000017b0       ?add@?$CBaseList@PEAVCTimeProfMgr@@@container@wylib@@QEAA_JAEBQEAVCTimeProfMgr@@@Z 00000001400027b0 f i srvlib_x64:TimeStat.obj
 0001:00001860       ?remove@?$CBaseList@PEAVCCustomServerClientSocket@@@container@wylib@@QEAAX_J@Z 0000000140002860 f i srvlib_x64:CustomServerSocket.obj
 0001:00001860       ?remove@?$CBaseList@PEAV?$CRefObjectImpl@VCAnsiString@string@wylib@@@misc@wylib@@@container@wylib@@QEAAX_J@Z 0000000140002860 f i srvlib_x64:CustomLuaConfig.obj
 0001:000018a0       ?reserve@?$CBaseList@PEAVCTimeProfRecord@@@container@wylib@@UEAAX_J@Z 00000001400028a0 f i srvlib_x64:TimeStat.obj
 0001:000018a0       ?reserve@?$CBaseList@PEAV?$CRefObjectImpl@VCAnsiString@string@wylib@@@misc@wylib@@@container@wylib@@UEAAX_J@Z 00000001400028a0 f i srvlib_x64:CustomLuaConfig.obj
 0001:000018a0       ?reserve@?$CBaseList@PEAUtagAppInternalMessage@@@container@wylib@@UEAAX_J@Z 00000001400028a0 f i srvlib_x64:CustomWorkSocket.obj
 0001:000018a0       ?reserve@?$CBaseList@PEAVCTimeProfMgr@@@container@wylib@@UEAAX_J@Z 00000001400028a0 f i srvlib_x64:TimeStat.obj
 0001:000018a0       ?reserve@?$CBaseList@PEAVCDataPacket@@@container@wylib@@UEAAX_J@Z 00000001400028a0 f i srvlib_x64:SendPackPool.obj
 0001:000018a0       ?reserve@?$CBaseList@PEAVCCustomServerClientSocket@@@container@wylib@@UEAAX_J@Z 00000001400028a0 f i srvlib_x64:CustomServerSocket.obj
 0001:00001910       ??0?$CRefObjectImpl@VCAnsiString@string@wylib@@@misc@wylib@@QEAA@XZ 0000000140002910 f i srvlib_x64:CustomLuaConfig.obj
 0001:00001950       ?addRef@?$CRefObjectImpl@VCAnsiString@string@wylib@@@misc@wylib@@QEAAJXZ 0000000140002950 f i srvlib_x64:CustomLuaConfig.obj
 0001:00001970       ?release@?$CRefObjectImpl@VCAnsiString@string@wylib@@@misc@wylib@@QEAAJXZ 0000000140002970 f i srvlib_x64:CustomLuaConfig.obj
 0001:000019c0       ?finallRelease@?$CRefObjectImpl@VCAnsiString@string@wylib@@@misc@wylib@@MEAAXXZ 00000001400029c0 f i srvlib_x64:CustomLuaConfig.obj
 0001:00001a10       ??_E?$CBaseList@PEAV?$CRefObjectImpl@VCAnsiString@string@wylib@@@misc@wylib@@@container@wylib@@UEAAPEAXI@Z 0000000140002a10 f i  CIL library: CIL module
 0001:00001a10       ??_G?$CBaseList@PEAV?$CRefObjectImpl@VCAnsiString@string@wylib@@@misc@wylib@@@container@wylib@@UEAAPEAXI@Z 0000000140002a10 f i srvlib_x64:CustomLuaConfig.obj
 0001:00001a50       ??_G?$CRefObjectImpl@VCAnsiString@string@wylib@@@misc@wylib@@UEAAPEAXI@Z 0000000140002a50 f i srvlib_x64:CustomLuaConfig.obj
 0001:00001a50       ??_E?$CRefObjectImpl@VCAnsiString@string@wylib@@@misc@wylib@@UEAAPEAXI@Z 0000000140002a50 f i  CIL library: CIL module
 0001:00001a90       ??1?$CRefObjectImpl@VCAnsiString@string@wylib@@@misc@wylib@@UEAA@XZ 0000000140002a90 f i srvlib_x64:CustomLuaConfig.obj
 0001:00001ab0       ?remove@?$CBaseList@PEAV?$CRefObjectImpl@VCAnsiString@string@wylib@@@misc@wylib@@@container@wylib@@QEAAX_J0@Z 0000000140002ab0 f i srvlib_x64:CustomLuaConfig.obj
 0001:00001ab0       ?remove@?$CBaseList@PEAVCCustomServerClientSocket@@@container@wylib@@QEAAX_J0@Z 0000000140002ab0 f i srvlib_x64:CustomServerSocket.obj
 0001:00001b50       _tcsncpy                   0000000140002b50 f i srvlib_x64:CustomLuaScript.obj
 0001:00001b80       ?getMemoryPtr@CDataPacketReader@@QEAAPEADXZ 0000000140002b80 f i srvlib_x64:CustomLuaScript.obj
 0001:00001b90       ?writeBuf@CDataPacket@@QEAAXPEBX_K@Z 0000000140002b90 f i srvlib_x64:CustomLuaScript.obj
 0001:00001c50       ?setLength@CDataPacket@@QEAAX_K@Z 0000000140002c50 f i srvlib_x64:CustomLuaScript.obj
 0001:00001cd0       ?setSize@CDataPacket@@IEAAX_K@Z 0000000140002cd0 f i srvlib_x64:CustomLuaScript.obj
 0001:00001e10       ??_ECCustomLuaScript@@UEAAPEAXI@Z 0000000140002e10 f i  CIL library: CIL module
 0001:00001e10       ??_GCCustomLuaScript@@UEAAPEAXI@Z 0000000140002e10 f i srvlib_x64:CustomLuaScript.obj
 0001:00001e50       ??1?$CTRefString@VCAnsiString@string@wylib@@D@string@wylib@@UEAA@XZ 0000000140002e50 f i srvlib_x64:CustomLuaScript.obj
 0001:00001e70       ?lcCheck@CCustomLuaScript@@IEAA_NH@Z 0000000140002e70 f i srvlib_x64:CustomLuaScript.obj
 0001:00001f90       ??0?$CTRefString@VCAnsiString@string@wylib@@D@string@wylib@@QEAA@XZ 0000000140002f90 f i srvlib_x64:CustomLuaScript.obj
 0001:00001fc0       ??1?$CRefObject@VCAnsiString@string@wylib@@@misc@wylib@@UEAA@XZ 0000000140002fc0 f i srvlib_x64:CustomLuaScript.obj
 0001:00002000       ??_E?$CTRefString@VCAnsiString@string@wylib@@D@string@wylib@@UEAAPEAXI@Z 0000000140003000 f i  CIL library: CIL module
 0001:00002000       ??_G?$CTRefString@VCAnsiString@string@wylib@@D@string@wylib@@UEAAPEAXI@Z 0000000140003000 f i srvlib_x64:CustomLuaScript.obj
 0001:00002040       ??_E?$CRefObject@VCAnsiString@string@wylib@@@misc@wylib@@UEAAPEAXI@Z 0000000140003040 f i  CIL library: CIL module
 0001:00002040       ??_G?$CRefObject@VCAnsiString@string@wylib@@@misc@wylib@@UEAAPEAXI@Z 0000000140003040 f i srvlib_x64:CustomLuaScript.obj
 0001:00002080       ??0?$CRefObject@VCAnsiString@string@wylib@@@misc@wylib@@QEAA@XZ 0000000140003080 f i srvlib_x64:CustomLuaScript.obj
 0001:000020b0       ?connected@CCustomSocket@socket@inet@wylib@@QEAA_NXZ 00000001400030b0 f i srvlib_x64:CustomWorkSocket.obj
 0001:000020c0       ?getLength@CDataPacketReader@@QEAA_KXZ 00000001400030c0 f i srvlib_x64:CustomWorkSocket.obj
 0001:000020e0       ?setPosition@CDataPacket@@QEAA_K_K@Z 00000001400030e0 f i srvlib_x64:CustomWorkSocket.obj
 0001:00002170       ?allocSendPacket@CSendPacketPool@@QEAAAEAVCDataPacket@@XZ 0000000140003170 f i srvlib_x64:CustomWorkSocket.obj
 0001:000021b0       ?flushSendPacket@CSendPacketPool@@QEAAXAEAVCDataPacket@@@Z 00000001400031b0 f i srvlib_x64:CustomWorkSocket.obj
 0001:00002260       ??_ECCustomWorkSocket@@UEAAPEAXI@Z 0000000140003260 f i  CIL library: CIL module
 0001:00002260       ??_GCCustomWorkSocket@@UEAAPEAXI@Z 0000000140003260 f i srvlib_x64:CustomWorkSocket.obj
 0001:000022a0       ??0?$CQueueList@PEAUtagAppInternalMessage@@@container@wylib@@QEAA@XZ 00000001400032a0 f i srvlib_x64:CustomWorkSocket.obj
 0001:000022e0       ??1?$CQueueList@PEAUtagAppInternalMessage@@@container@wylib@@UEAA@XZ 00000001400032e0 f i srvlib_x64:CustomWorkSocket.obj
 0001:00002310       ??_G?$CQueueList@PEAUtagAppInternalMessage@@@container@wylib@@UEAAPEAXI@Z 0000000140003310 f i srvlib_x64:CustomWorkSocket.obj
 0001:00002310       ??_E?$CQueueList@PEAUtagAppInternalMessage@@@container@wylib@@UEAAPEAXI@Z 0000000140003310 f i  CIL library: CIL module
 0001:00002350       ??1?$CLockList@PEAUtagAppInternalMessage@@@container@wylib@@UEAA@XZ 0000000140003350 f i srvlib_x64:CustomWorkSocket.obj
 0001:00002370       ?append@?$CQueueList@PEAUtagAppInternalMessage@@@container@wylib@@QEAAXAEBQEAUtagAppInternalMessage@@@Z 0000000140003370 f i srvlib_x64:CustomWorkSocket.obj
 0001:00002370       ?append@?$CQueueList@PEAVCDataPacket@@@container@wylib@@QEAAXAEBQEAVCDataPacket@@@Z 0000000140003370 f i srvlib_x64:CustomWorkSocket.obj
 0001:00002370       ?append@?$CQueueList@PEAVCCustomServerClientSocket@@@container@wylib@@QEAAXAEBQEAVCCustomServerClientSocket@@@Z 0000000140003370 f i srvlib_x64:CustomServerSocket.obj
 0001:000023b0       ?lock@?$CLockList@PEAVCCustomServerClientSocket@@@container@wylib@@QEAAXXZ 00000001400033b0 f i srvlib_x64:CustomServerSocket.obj
 0001:000023b0       ?lock@?$CLockList@PEAUtagAppInternalMessage@@@container@wylib@@QEAAXXZ 00000001400033b0 f i srvlib_x64:CustomWorkSocket.obj
 0001:000023b0       ?lock@?$CLockList@PEAVCDataPacket@@@container@wylib@@QEAAXXZ 00000001400033b0 f i srvlib_x64:CustomWorkSocket.obj
 0001:000023f0       ??0?$CLockList@PEAUtagAppInternalMessage@@@container@wylib@@QEAA@PEAVCBaseLock@lock@sync@2@@Z 00000001400033f0 f i srvlib_x64:CustomWorkSocket.obj
 0001:00002430       ??0?$CBaseList@PEAUtagAppInternalMessage@@@container@wylib@@QEAA@XZ 0000000140003430 f i srvlib_x64:CustomWorkSocket.obj
 0001:00002480       ??1?$CBaseList@PEAUtagAppInternalMessage@@@container@wylib@@UEAA@XZ 0000000140003480 f i srvlib_x64:CustomWorkSocket.obj
 0001:000024b0       ?empty@?$CBaseList@PEAVCTimeProfMgr@@@container@wylib@@UEAAXXZ 00000001400034b0 f i srvlib_x64:TimeStat.obj
 0001:000024b0       ?empty@?$CBaseList@PEAUtagAppInternalMessage@@@container@wylib@@UEAAXXZ 00000001400034b0 f i srvlib_x64:CustomWorkSocket.obj
 0001:000024b0       ?empty@?$CBaseList@PEAVCCustomServerClientSocket@@@container@wylib@@UEAAXXZ 00000001400034b0 f i srvlib_x64:CustomServerSocket.obj
 0001:000024b0       ?empty@?$CBaseList@PEAVCDataPacket@@@container@wylib@@UEAAXXZ 00000001400034b0 f i srvlib_x64:SendPackPool.obj
 0001:000024b0       ?empty@?$CBaseList@PEAVCTimeProfRecord@@@container@wylib@@UEAAXXZ 00000001400034b0 f i srvlib_x64:TimeStat.obj
 0001:000024b0       ?empty@?$CBaseList@PEAV?$CRefObjectImpl@VCAnsiString@string@wylib@@@misc@wylib@@@container@wylib@@UEAAXXZ 00000001400034b0 f i srvlib_x64:CustomLuaConfig.obj
 0001:00002500       ?clear@?$CBaseList@PEAVCTimeProfRecord@@@container@wylib@@QEAAXXZ 0000000140003500 f i srvlib_x64:TimeStat.obj
 0001:00002500       ?clear@?$CBaseList@PEAVCCustomServerClientSocket@@@container@wylib@@QEAAXXZ 0000000140003500 f i srvlib_x64:CustomServerSocket.obj
 0001:00002500       ?clear@?$CBaseList@PEAV?$CRefObjectImpl@VCAnsiString@string@wylib@@@misc@wylib@@@container@wylib@@QEAAXXZ 0000000140003500 f i srvlib_x64:CustomLuaConfig.obj
 0001:00002500       ?clear@?$CBaseList@PEAVCDataPacket@@@container@wylib@@QEAAXXZ 0000000140003500 f i srvlib_x64:SendPackPool.obj
 0001:00002500       ?clear@?$CBaseList@PEAVCTimeProfMgr@@@container@wylib@@QEAAXXZ 0000000140003500 f i srvlib_x64:TimeStat.obj
 0001:00002500       ?clear@?$CBaseList@PEAUtagAppInternalMessage@@@container@wylib@@QEAAXXZ 0000000140003500 f i srvlib_x64:CustomWorkSocket.obj
 0001:00002520       ??_G?$CLockList@PEAUtagAppInternalMessage@@@container@wylib@@UEAAPEAXI@Z 0000000140003520 f i srvlib_x64:CustomWorkSocket.obj
 0001:00002520       ??_E?$CLockList@PEAUtagAppInternalMessage@@@container@wylib@@UEAAPEAXI@Z 0000000140003520 f i  CIL library: CIL module
 0001:00002560       ??_E?$CBaseList@PEAUtagAppInternalMessage@@@container@wylib@@UEAAPEAXI@Z 0000000140003560 f i  CIL library: CIL module
 0001:00002560       ??_G?$CBaseList@PEAUtagAppInternalMessage@@@container@wylib@@UEAAPEAXI@Z 0000000140003560 f i srvlib_x64:CustomWorkSocket.obj
 0001:000025a0       ??_GCCustomServerClientSocket@@UEAAPEAXI@Z 00000001400035a0 f i srvlib_x64:CustomServerClientSocket.obj
 0001:000025a0       ??_ECCustomServerClientSocket@@UEAAPEAXI@Z 00000001400035a0 f i  CIL library: CIL module
 0001:000025e0       ??0?$Counter@VCCustomServerClientSocket@@@@QEAA@XZ 00000001400035e0 f i srvlib_x64:CustomServerClientSocket.obj
 0001:00002600       ??1?$Counter@VCCustomServerClientSocket@@@@QEAA@XZ 0000000140003600 f i srvlib_x64:CustomServerClientSocket.obj
 0001:00002620       ?addToStat@?$Counter@VCCustomServerClientSocket@@@@IEAAXXZ 0000000140003620 f i srvlib_x64:CustomServerClientSocket.obj
 0001:00002680       ?getCount@?$Counter@VCCustomServerClientSocket@@@@SA_KXZ 0000000140003680 f i srvlib_x64:CustomServerClientSocket.obj
 0001:00002690       ?Run@CCustomServerClientSocket@@QEAAXXZ 0000000140003690 f i srvlib_x64:CustomServerSocket.obj
 0001:000026b0       ??_ECCustomServerSocket@@UEAAPEAXI@Z 00000001400036b0 f i  CIL library: CIL module
 0001:000026b0       ??_GCCustomServerSocket@@UEAAPEAXI@Z 00000001400036b0 f i srvlib_x64:CustomServerSocket.obj
 0001:000026f0       ??0?$CQueueList@PEAVCCustomServerClientSocket@@@container@wylib@@QEAA@XZ 00000001400036f0 f i srvlib_x64:CustomServerSocket.obj
 0001:00002730       ??1?$CQueueList@PEAVCCustomServerClientSocket@@@container@wylib@@UEAA@XZ 0000000140003730 f i srvlib_x64:CustomServerSocket.obj
 0001:00002760       ??_E?$CQueueList@PEAVCCustomServerClientSocket@@@container@wylib@@UEAAPEAXI@Z 0000000140003760 f i  CIL library: CIL module
 0001:00002760       ??_G?$CQueueList@PEAVCCustomServerClientSocket@@@container@wylib@@UEAAPEAXI@Z 0000000140003760 f i srvlib_x64:CustomServerSocket.obj
 0001:000027a0       ??1?$CLockList@PEAVCCustomServerClientSocket@@@container@wylib@@UEAA@XZ 00000001400037a0 f i srvlib_x64:CustomServerSocket.obj
 0001:000027c0       ?flush@?$CQueueList@PEAVCCustomServerClientSocket@@@container@wylib@@QEAAXXZ 00000001400037c0 f i srvlib_x64:CustomServerSocket.obj
 0001:000027c0       ?flush@?$CQueueList@PEAVCDataPacket@@@container@wylib@@QEAAXXZ 00000001400037c0 f i srvlib_x64:SendPackPool.obj
 0001:000027c0       ?flush@?$CQueueList@PEAUtagAppInternalMessage@@@container@wylib@@QEAAXXZ 00000001400037c0 f i srvlib_x64:CustomWorkSocket.obj
 0001:00002830       ??0?$CLockList@PEAVCCustomServerClientSocket@@@container@wylib@@QEAA@PEAVCBaseLock@lock@sync@2@@Z 0000000140003830 f i srvlib_x64:CustomServerSocket.obj
 0001:00002870       ?unlock@?$CLockList@PEAVCCustomServerClientSocket@@@container@wylib@@QEAAXXZ 0000000140003870 f i srvlib_x64:CustomServerSocket.obj
 0001:00002870       ?unlock@?$CLockList@PEAUtagAppInternalMessage@@@container@wylib@@QEAAXXZ 0000000140003870 f i srvlib_x64:CustomWorkSocket.obj
 0001:00002870       ?unlock@?$CLockList@PEAVCDataPacket@@@container@wylib@@QEAAXXZ 0000000140003870 f i srvlib_x64:CustomWorkSocket.obj
 0001:000028b0       ??0?$CBaseList@PEAVCCustomServerClientSocket@@@container@wylib@@QEAA@XZ 00000001400038b0 f i srvlib_x64:CustomServerSocket.obj
 0001:00002900       ??1?$CBaseList@PEAVCCustomServerClientSocket@@@container@wylib@@UEAA@XZ 0000000140003900 f i srvlib_x64:CustomServerSocket.obj
 0001:00002930       ?count@?$CBaseList@PEAVCDataPacket@@@container@wylib@@QEBA_JXZ 0000000140003930 f i srvlib_x64:SendPackPool.obj
 0001:00002930       ?count@?$CBaseList@PEAV?$CRefObjectImpl@VCAnsiString@string@wylib@@@misc@wylib@@@container@wylib@@QEBA_JXZ 0000000140003930 f i srvlib_x64:CustomLuaConfig.obj
 0001:00002930       ?count@?$CBaseList@PEAUtagAppInternalMessage@@@container@wylib@@QEBA_JXZ 0000000140003930 f i srvlib_x64:CustomWorkSocket.obj
 0001:00002930       ?count@?$CBaseList@PEAVCCustomServerClientSocket@@@container@wylib@@QEBA_JXZ 0000000140003930 f i srvlib_x64:CustomServerSocket.obj
 0001:00002930       ?count@?$CBaseList@PEAVCTimeProfRecord@@@container@wylib@@QEBA_JXZ 0000000140003930 f i srvlib_x64:TimeStat.obj
 0001:00002930       ?count@?$CBaseList@PEAVCTimeProfMgr@@@container@wylib@@QEBA_JXZ 0000000140003930 f i srvlib_x64:TimeStat.obj
 0001:00002940       ??_G?$CLockList@PEAVCCustomServerClientSocket@@@container@wylib@@UEAAPEAXI@Z 0000000140003940 f i srvlib_x64:CustomServerSocket.obj
 0001:00002940       ??_E?$CLockList@PEAVCCustomServerClientSocket@@@container@wylib@@UEAAPEAXI@Z 0000000140003940 f i  CIL library: CIL module
 0001:00002980       ??_G?$CBaseList@PEAVCCustomServerClientSocket@@@container@wylib@@UEAAPEAXI@Z 0000000140003980 f i srvlib_x64:CustomServerSocket.obj
 0001:00002980       ??_E?$CBaseList@PEAVCCustomServerClientSocket@@@container@wylib@@UEAAPEAXI@Z 0000000140003980 f i  CIL library: CIL module
 0001:000029c0       ?trunc@?$CBaseList@PEAVCCustomServerClientSocket@@@container@wylib@@QEAAX_J@Z 00000001400039c0 f i srvlib_x64:CustomServerSocket.obj
 0001:000029c0       ?trunc@?$CBaseList@PEAUtagAppInternalMessage@@@container@wylib@@QEAAX_J@Z 00000001400039c0 f i srvlib_x64:CustomWorkSocket.obj
 0001:000029c0       ?trunc@?$CBaseList@PEAVCDataPacket@@@container@wylib@@QEAAX_J@Z 00000001400039c0 f i srvlib_x64:SendPackPool.obj
 0001:000029f0       ?CheckMemory@CSendPacketPool@@QEAAX_NH@Z 00000001400039f0 f i srvlib_x64:CustomClientSocket.obj
 0001:00002a70       ??_GCCustomClientSocket@@UEAAPEAXI@Z 0000000140003a70 f i srvlib_x64:CustomClientSocket.obj
 0001:00002a70       ??_ECCustomClientSocket@@UEAAPEAXI@Z 0000000140003a70 f i  CIL library: CIL module
 0001:00002ab0       ?getAvaliableLength@CDataPacketReader@@QEAA_KXZ 0000000140003ab0 f i srvlib_x64:SendPackPool.obj
 0001:00002ad0       ?maxCount@?$CBaseList@PEAVCDataPacket@@@container@wylib@@QEBA_JXZ 0000000140003ad0 f i srvlib_x64:SendPackPool.obj
 0001:00002ad0       ?getOffsetPtr@CDataPacketReader@@QEAAPEADXZ 0000000140003ad0 f i srvlib_x64:SendPackPool.obj
 0001:00002ae0       ??0CDataPacketReader@@QEAA@XZ 0000000140003ae0 f i srvlib_x64:SendPackPool.obj
 0001:00002b20       ?adjustOffset@CDataPacket@@QEAA_K_J@Z 0000000140003b20 f i srvlib_x64:SendPackPool.obj
 0001:00002be0       ??0CDataPacket@@QEAA@PEAVCBufferAllocator@@@Z 0000000140003be0 f i srvlib_x64:SendPackPool.obj
 0001:00002c30       ??1CDataPacket@@QEAA@XZ    0000000140003c30 f i srvlib_x64:SendPackPool.obj
 0001:00002cc0       ??0?$CQueueList@PEAVCDataPacket@@@container@wylib@@QEAA@XZ 0000000140003cc0 f i srvlib_x64:SendPackPool.obj
 0001:00002d00       ??1?$CQueueList@PEAVCDataPacket@@@container@wylib@@UEAA@XZ 0000000140003d00 f i srvlib_x64:SendPackPool.obj
 0001:00002d30       ??1?$CLockList@PEAVCDataPacket@@@container@wylib@@UEAA@XZ 0000000140003d30 f i srvlib_x64:SendPackPool.obj
 0001:00002d50       ??_G?$CQueueList@PEAVCDataPacket@@@container@wylib@@UEAAPEAXI@Z 0000000140003d50 f i srvlib_x64:SendPackPool.obj
 0001:00002d50       ??_E?$CQueueList@PEAVCDataPacket@@@container@wylib@@UEAAPEAXI@Z 0000000140003d50 f i  CIL library: CIL module
 0001:00002d90       ??_GCDataPacket@@QEAAPEAXI@Z 0000000140003d90 f i srvlib_x64:SendPackPool.obj
 0001:00002dd0       ??0?$Counter@VCDataPacket@@@@QEAA@XZ 0000000140003dd0 f i srvlib_x64:SendPackPool.obj
 0001:00002df0       ??1?$Counter@VCDataPacket@@@@QEAA@XZ 0000000140003df0 f i srvlib_x64:SendPackPool.obj
 0001:00002e10       ??0?$CLockList@PEAVCDataPacket@@@container@wylib@@QEAA@PEAVCBaseLock@lock@sync@2@@Z 0000000140003e10 f i srvlib_x64:SendPackPool.obj
 0001:00002e50       ?setLock@?$CLockList@PEAVCDataPacket@@@container@wylib@@QEAAPEAVCBaseLock@lock@sync@3@PEAV4563@@Z 0000000140003e50 f i srvlib_x64:SendPackPool.obj
 0001:00002e50       ?setLock@?$CLockList@PEAUtagAppInternalMessage@@@container@wylib@@QEAAPEAVCBaseLock@lock@sync@3@PEAV4563@@Z 0000000140003e50 f i srvlib_x64:CustomWorkSocket.obj
 0001:00002e50       ?setLock@?$CLockList@PEAVCCustomServerClientSocket@@@container@wylib@@QEAAPEAVCBaseLock@lock@sync@3@PEAV4563@@Z 0000000140003e50 f i srvlib_x64:CustomServerSocket.obj
 0001:00002e90       ??0?$CBaseList@PEAVCDataPacket@@@container@wylib@@QEAA@XZ 0000000140003e90 f i srvlib_x64:SendPackPool.obj
 0001:00002ee0       ??1?$CBaseList@PEAVCDataPacket@@@container@wylib@@UEAA@XZ 0000000140003ee0 f i srvlib_x64:SendPackPool.obj
 0001:00002f10       ?addArray@?$CBaseList@PEAUtagAppInternalMessage@@@container@wylib@@QEAAXPEAPEAUtagAppInternalMessage@@_J@Z 0000000140003f10 f i srvlib_x64:CustomWorkSocket.obj
 0001:00002f10       ?addArray@?$CBaseList@PEAVCDataPacket@@@container@wylib@@QEAAXPEAPEAVCDataPacket@@_J@Z 0000000140003f10 f i srvlib_x64:SendPackPool.obj
 0001:00002f10       ?addArray@?$CBaseList@PEAVCCustomServerClientSocket@@@container@wylib@@QEAAXPEAPEAVCCustomServerClientSocket@@_J@Z 0000000140003f10 f i srvlib_x64:CustomServerSocket.obj
 0001:00002fb0       ??_E?$CLockList@PEAVCDataPacket@@@container@wylib@@UEAAPEAXI@Z 0000000140003fb0 f i  CIL library: CIL module
 0001:00002fb0       ??_G?$CLockList@PEAVCDataPacket@@@container@wylib@@UEAAPEAXI@Z 0000000140003fb0 f i srvlib_x64:SendPackPool.obj
 0001:00002ff0       ??_E?$CBaseList@PEAVCDataPacket@@@container@wylib@@UEAAPEAXI@Z 0000000140003ff0 f i  CIL library: CIL module
 0001:00002ff0       ??_G?$CBaseList@PEAVCDataPacket@@@container@wylib@@UEAAPEAXI@Z 0000000140003ff0 f i srvlib_x64:SendPackPool.obj
 0001:00003030       ?addToStat@?$Counter@VCDataPacket@@@@IEAAXXZ 0000000140004030 f i srvlib_x64:SendPackPool.obj
 0001:00003090       ?addList@?$CBaseList@PEAUtagAppInternalMessage@@@container@wylib@@QEAAXAEBV123@@Z 0000000140004090 f i srvlib_x64:CustomWorkSocket.obj
 0001:00003090       ?addList@?$CBaseList@PEAVCDataPacket@@@container@wylib@@QEAAXAEBV123@@Z 0000000140004090 f i srvlib_x64:SendPackPool.obj
 0001:00003090       ?addList@?$CBaseList@PEAVCCustomServerClientSocket@@@container@wylib@@QEAAXAEBV123@@Z 0000000140004090 f i srvlib_x64:CustomServerSocket.obj
 0001:000030d0       ?getCount@?$Counter@VCDataPacket@@@@SA_KXZ 00000001400040d0 f i srvlib_x64:SendPackPool.obj
 0001:000030e0       ??0CDataPacketReader@@QEAA@PEBX_K@Z 00000001400040e0 f i AMClient_x64:AMClient.obj
 0001:00003100       ??0CAMClient@@QEAA@XZ      0000000140004100 f   AMClient_x64:AMClient.obj
 0001:000031c0       ??_ECAMClient@@UEAAPEAXI@Z 00000001400041c0 f i  CIL library: CIL module
 0001:000031c0       ??_GCAMClient@@UEAAPEAXI@Z 00000001400041c0 f i AMClient_x64:AMClient.obj
 0001:000031f0       ??1?$CQueueList@UAMOPData@CAMClient@@@container@wylib@@UEAA@XZ 00000001400041f0 f i AMClient_x64:AMClient.obj
 0001:00003260       ??_E?$CQueueList@UAMOPData@CAMClient@@@container@wylib@@UEAAPEAXI@Z 0000000140004260 f i  CIL library: CIL module
 0001:00003260       ??_G?$CQueueList@UAMOPData@CAMClient@@@container@wylib@@UEAAPEAXI@Z 0000000140004260 f i AMClient_x64:AMClient.obj
 0001:000032f0       ??1CAMClient@@UEAA@XZ      00000001400042f0 f   AMClient_x64:AMClient.obj
 0001:000033b0       ?SetProductName@CAMClient@@QEAAXPEBD@Z 00000001400043b0 f   AMClient_x64:AMClient.obj
 0001:000033e0       ?SetSPID@CAMClient@@QEAAXPEBD@Z 00000001400043e0 f   AMClient_x64:AMClient.obj
 0001:00003410       ?ProcessRecvBuffers@CAMClient@@MEAAXPEAUtagDataBuffer@@@Z 0000000140004410 f   AMClient_x64:AMClient.obj
 0001:000034d0       ?SendKeepAlive@CAMClient@@MEAAXXZ 00000001400044d0 f   AMClient_x64:AMClient.obj
 0001:00003620       ?SendRegisteClient@CAMClient@@MEAAXXZ 0000000140004620 f   AMClient_x64:AMClient.obj
 0001:00003860       ?ProcessRecvPacket@CAMClient@@AEAAXAEAVCDataPacketReader@@@Z 0000000140004860 f   AMClient_x64:AMClient.obj
 0001:000039f0       ?GetAMOPResults@CAMClient@@QEAA_JAEAV?$CBaseList@UAMOPData@CAMClient@@@container@wylib@@@Z 00000001400049f0 f   AMClient_x64:AMClient.obj
 0001:00003a90       ?PostQueryAmount@CAMClient@@QEAAX_J00@Z 0000000140004a90 f   AMClient_x64:AMClient.obj
 0001:00003bd0       ?PostConsume@CAMClient@@QEAAX_J00PEBD0@Z 0000000140004bd0 f   AMClient_x64:AMClient.obj
 0001:00003d70       ?append@?$CQueueList@UAMOPData@CAMClient@@@container@wylib@@QEAAXAEBUAMOPData@CAMClient@@@Z 0000000140004d70 f i AMClient_x64:AMClient.obj
 0001:00003e20       ?flush@?$CQueueList@UAMOPData@CAMClient@@@container@wylib@@QEAAXXZ 0000000140004e20 f i AMClient_x64:AMClient.obj
 0001:00003ed0       ??1?$CBaseList@UAMOPData@CAMClient@@@container@wylib@@UEAA@XZ 0000000140004ed0 f i AMClient_x64:AMClient.obj
 0001:00003f10       ?reserve@?$CBaseList@UAMOPData@CAMClient@@@container@wylib@@UEAAX_J@Z 0000000140004f10 f i AMClient_x64:AMClient.obj
 0001:00003f50       ??_G?$CBaseList@UAMOPData@CAMClient@@@container@wylib@@UEAAPEAXI@Z 0000000140004f50 f i AMClient_x64:AMClient.obj
 0001:00003f50       ??_E?$CBaseList@UAMOPData@CAMClient@@@container@wylib@@UEAAPEAXI@Z 0000000140004f50 f i  CIL library: CIL module
 0001:00003fb0       ??$writeAtom@D@CDataPacket@@QEAAXD@Z 0000000140004fb0 f i AMClient_x64:AMClient.obj
 0001:00004000       ?terminated@CBaseThread@thread@wylib@@IEAA_NXZ 0000000140005000 f i servercommon_x64:FileLogger.obj
 0001:00004010       ?readBuf@CDataPacketReader@@QEAA_KPEAX_K@Z 0000000140005010 f i servercommon_x64:FileLogger.obj
 0001:000040a0       ?readString@CDataPacketReader@@QEAA_KPEAD_K@Z 00000001400050a0 f i servercommon_x64:FileLogger.obj
 0001:000040d0       ??5CDataPacketReader@@QEAAAEAV0@AEAPEBD@Z 00000001400050d0 f i servercommon_x64:FileLogger.obj
 0001:00004100       ??0COPMToFile@@QEAA@PEBD@Z 0000000140005100 f i servercommon_x64:FileLogger.obj
 0001:00004270       ?addRef@COPMToFile@@QEAAJXZ 0000000140005270 f i servercommon_x64:FileLogger.obj
 0001:00004290       ?release@COPMToFile@@QEAAJXZ 0000000140005290 f i servercommon_x64:FileLogger.obj
 0001:00004320       ??1COPMToFile@@UEAA@XZ     0000000140005320 f i servercommon_x64:FileLogger.obj
 0001:000045b0       ?addMsg@COPMToFile@@QEAAXW4tagShareOutputMsgType@@PEBD_J@Z 00000001400055b0 f i servercommon_x64:FileLogger.obj
 0001:000047f0       ?OnRountine@COPMToFile@@MEAAXXZ 00000001400057f0 f i servercommon_x64:FileLogger.obj
 0001:00004870       ?ProcessMessages@COPMToFile@@IEAAXXZ 0000000140005870 f i servercommon_x64:FileLogger.obj
 0001:00004b60       ?writeMessage@COPMToFile@@IEAAXW4tagShareOutputMsgType@@PEBD_K12@Z 0000000140005b60 f i servercommon_x64:FileLogger.obj
 0001:00004e30       ?displayMessage@COPMToFile@@IEAAXW4tagShareOutputMsgType@@PEBD1_K@Z 0000000140005e30 f i servercommon_x64:FileLogger.obj
 0001:00004ec0       ?convertToUTF8@COPMToFile@@IEAA_KPEBD_KPEAD1@Z 0000000140005ec0 f i servercommon_x64:FileLogger.obj
 0001:00004fd0       ?convertToACP@COPMToFile@@IEAA_KPEBD_KPEAD1@Z 0000000140005fd0 f i servercommon_x64:FileLogger.obj
 0001:00005120       ?DumpImpl@COPMToFile@@IEAAXXZ 0000000140006120 f i servercommon_x64:FileLogger.obj
 0001:000055e0       ??_GCOPMToFile@@UEAAPEAXI@Z 00000001400065e0 f i servercommon_x64:FileLogger.obj
 0001:000055e0       ??_ECOPMToFile@@UEAAPEAXI@Z 00000001400065e0 f i  CIL library: CIL module
 0001:00005620       ?appendCount@?$CQueueList@PEAVCDataPacket@@@container@wylib@@QEAA_JXZ 0000000140006620 f i servercommon_x64:FileLogger.obj
 0001:00005640       ??$rawReadStringLen@PEADG@CDataPacketReader@@IEAA_KPEAD_K@Z 0000000140006640 f i servercommon_x64:FileLogger.obj
 0001:000057e0       ??$rawReadStringPtr@DG@CDataPacketReader@@IEAAPEBDXZ 00000001400067e0 f i servercommon_x64:FileLogger.obj
 0001:00005870       ??$?6_W@CDataPacket@@QEAAAEAV0@_W@Z 0000000140006870 f i servercommon_x64:FileLogger.obj
 0001:00005870       ??$?6G@CDataPacket@@QEAAAEAV0@G@Z 0000000140006870 f i servercommon_x64:FileLogger.obj
 0001:000058c0       ??$?5H@CDataPacketReader@@QEAAAEAV0@AEAH@Z 00000001400068c0 f i servercommon_x64:LogSender.obj
 0001:000058c0       ??$?5W4tagShareOutputMsgType@@@CDataPacketReader@@QEAAAEAV0@AEAW4tagShareOutputMsgType@@@Z 00000001400068c0 f i servercommon_x64:FileLogger.obj
 0001:00005910       ??$?5U_SYSTEMTIME@@@CDataPacketReader@@QEAAAEAV0@AEAU_SYSTEMTIME@@@Z 0000000140006910 f i servercommon_x64:FileLogger.obj
 0001:00005980       ??$writeAtom@G@CDataPacket@@QEAAXG@Z 0000000140006980 f i servercommon_x64:FileLogger.obj
 0001:00005980       ??$writeAtom@_W@CDataPacket@@QEAAX_W@Z 0000000140006980 f i servercommon_x64:FileLogger.obj
 0001:00005a30       ??$writeAtom@W4tagShareOutputMsgType@@@CDataPacket@@QEAAXW4tagShareOutputMsgType@@@Z 0000000140006a30 f i servercommon_x64:FileLogger.obj
 0001:00005a30       ??$writeAtom@H@CDataPacket@@QEAAXH@Z 0000000140006a30 f i servercommon_x64:LogSender.obj
 0001:00005ae0       ??$readAtom@W4tagShareOutputMsgType@@@CDataPacketReader@@QEAA?AW4tagShareOutputMsgType@@XZ 0000000140006ae0 f i servercommon_x64:FileLogger.obj
 0001:00005ae0       ??$readAtom@H@CDataPacketReader@@QEAAHXZ 0000000140006ae0 f i servercommon_x64:LogSender.obj
 0001:00005ba0       ??$readAtom@U_SYSTEMTIME@@@CDataPacketReader@@QEAA?AU_SYSTEMTIME@@XZ 0000000140006ba0 f i servercommon_x64:FileLogger.obj
 0001:00005ca0       ??_ECOPMToFile@@WBI@EAAPEAXI@Z 0000000140006ca0 f i servercommon_x64:FileLogger.obj
 0001:00005cb0       ?GetRemoteHost@CCustomServerClientSocket@@QEAAPEBDXZ 0000000140006cb0 f i servercommon_x64:CustomJXServerClientSocket.obj
 0001:00005cd0       ?GetRemotePort@CCustomServerClientSocket@@QEAAHXZ 0000000140006cd0 f i servercommon_x64:CustomJXServerClientSocket.obj
 0001:00005cf0       ?getServerTypeName@jxSrvDef@@YAPEBDW4tagServerType@1@@Z 0000000140006cf0 f i servercommon_x64:CustomJXServerClientSocket.obj
 0001:00005d80       ?getClientName@CCustomJXServerClientSocket@@QEAAPEBDXZ 0000000140006d80 f i servercommon_x64:CustomJXServerClientSocket.obj
 0001:00005da0       ?OnRegDataValidated@CCustomJXServerClientSocket@@MEAAXXZ 0000000140006da0 f i servercommon_x64:CustomJXServerClientSocket.obj
 0001:00005da0       ?_Assert@CDataPacket@@QEAAXXZ 0000000140006da0 f i srvlib_x64:CustomLuaScript.obj
 0001:00005db0       ??_ECCustomJXServerClientSocket@@UEAAPEAXI@Z 0000000140006db0 f i  CIL library: CIL module
 0001:00005db0       ??_GCCustomJXServerClientSocket@@UEAAPEAXI@Z 0000000140006db0 f i servercommon_x64:CustomJXServerClientSocket.obj
 0001:00005df0       ??1CCustomJXServerClientSocket@@UEAA@XZ 0000000140006df0 f i servercommon_x64:CustomJXServerClientSocket.obj
 0001:00005e10       ??$?5G@CDataPacketReader@@QEAAAEAV0@AEAG@Z 0000000140006e10 f i servercommon_x64:CustomJXServerClientSocket.obj
 0001:00005e60       ??$readAtom@G@CDataPacketReader@@QEAAGXZ 0000000140006e60 f i servercommon_x64:CustomJXServerClientSocket.obj
 0001:00005f20       ?SetChatLogFlag@LogSender@@QEAAXH@Z 0000000140006f20 f i servercommon_x64:LogSender.obj
 0001:00005f50       ??_GLogSender@@UEAAPEAXI@Z 0000000140006f50 f i servercommon_x64:LogSender.obj
 0001:00005f50       ??_ELogSender@@UEAAPEAXI@Z 0000000140006f50 f i  CIL library: CIL module
 0001:00005f90       ??0CCustomJXClientSocket@@QEAA@XZ 0000000140006f90 f i servercommon_x64:LogSender.obj
 0001:00005fc0       ??1CCustomJXClientSocket@@UEAA@XZ 0000000140006fc0 f i servercommon_x64:LogSender.obj
 0001:00005fe0       ??_GCCustomJXClientSocket@@UEAAPEAXI@Z 0000000140006fe0 f i servercommon_x64:LogSender.obj
 0001:00005fe0       ??_ECCustomJXClientSocket@@UEAAPEAXI@Z 0000000140006fe0 f i  CIL library: CIL module
 0001:00006020       ??$rawWriteStringLen@G@CDataPacket@@IEAAXPEBD_K@Z 0000000140007020 f i servercommon_x64:LogSender.obj
 0001:000060b0       ??$?6UtagLogDataLogin@@@CDataPacket@@QEAAAEAV0@UtagLogDataLogin@@@Z 00000001400070b0 f i servercommon_x64:LogSender.obj
 0001:00006130       ??$?6UtagLogDataOnlineCount@@@CDataPacket@@QEAAAEAV0@UtagLogDataOnlineCount@@@Z 0000000140007130 f i servercommon_x64:LogSender.obj
 0001:00006190       ??$?6W4tagShareOutputMsgType@@@CDataPacket@@QEAAAEAV0@W4tagShareOutputMsgType@@@Z 0000000140007190 f i servercommon_x64:FileLogger.obj
 0001:00006190       ??$?6H@CDataPacket@@QEAAAEAV0@H@Z 0000000140007190 f i servercommon_x64:LogSender.obj
 0001:000061e0       ??$writeAtom@UtagLogDataLogin@@@CDataPacket@@QEAAXUtagLogDataLogin@@@Z 00000001400071e0 f i servercommon_x64:LogSender.obj
 0001:000062e0       ??$writeAtom@UtagLogDataOnlineCount@@@CDataPacket@@QEAAXUtagLogDataOnlineCount@@@Z 00000001400072e0 f i servercommon_x64:LogSender.obj
 0001:000063b0       ?GetClientName@CCustomClientSocket@@QEAAPEBDXZ 00000001400073b0 f i servercommon_x64:CustomJXClientSocket.obj
 0001:000063d0       ?logToFile@CounterManager@@QEAAXXZ 00000001400073d0 f i main.obj
 0001:000066d0       ??1CSSConfig@@UEAA@XZ      00000001400076d0 f i main.obj
 0001:000066e0       ??_GCSSConfig@@UEAAPEAXI@Z 00000001400076e0 f i main.obj
 0001:000066e0       ??_ECSSConfig@@UEAAPEAXI@Z 00000001400076e0 f i main.obj
 0001:00006710       ?ServerMain@@YAXXZ         0000000140007710 f   main.obj
 0001:00006c50       main                       0000000140007c50 f   main.obj
 0001:00006d10       ?RegistWndClass@CPerformanceWnd@@AEAAXXZ 0000000140007d10 f i PerformanceWatcher.obj
 0001:00006df0       ?CreatePerformanceWindow@CPerformanceWnd@@AEAAXXZ 0000000140007df0 f i PerformanceWatcher.obj
 0001:00006e60       ?WndProc@CPerformanceWnd@@MEAA_JPEAUHWND__@@I_K_J@Z 0000000140007e60 f i PerformanceWatcher.obj
 0001:00007030       ??_GCPerformanceWnd@@UEAAPEAXI@Z 0000000140008030 f i PerformanceWatcher.obj
 0001:00007030       ??_ECPerformanceWnd@@UEAAPEAXI@Z 0000000140008030 f i PerformanceWatcher.obj
 0001:00007090       ?RegistWndClass@CServerConnectionWnd@@AEAAXXZ 0000000140008090 f i PerformanceWatcher.obj
 0001:00007170       ?CreateDisplayConnectWndWindow@CServerConnectionWnd@@AEAAXXZ 0000000140008170 f i PerformanceWatcher.obj
 0001:000071e0       ?CreateWndFont@CServerConnectionWnd@@AEAAXXZ 00000001400081e0 f i PerformanceWatcher.obj
 0001:00007250       ?CreateListView@CServerConnectionWnd@@AEAAXPEAUHWND__@@@Z 0000000140008250 f i PerformanceWatcher.obj
 0001:00007470       ?WndProc@CServerConnectionWnd@@MEAA_JPEAUHWND__@@I_K_J@Z 0000000140008470 f i PerformanceWatcher.obj
 0001:000075f0       ??_GCServerConnectionWnd@@UEAAPEAXI@Z 00000001400085f0 f i PerformanceWatcher.obj
 0001:000075f0       ??_ECServerConnectionWnd@@UEAAPEAXI@Z 00000001400085f0 f i PerformanceWatcher.obj
 0001:00007630       ??0CPerformanceWatcher@@QEAA@PEAVCSSManager@@@Z 0000000140008630 f   PerformanceWatcher.obj
 0001:00007670       ??1CPerformanceWatcher@@QEAA@XZ 0000000140008670 f   PerformanceWatcher.obj
 0001:00007680       ?reserve@?$CBaseList@UServerConnetionInfo@CPerformanceWatcher@@@container@wylib@@UEAAX_J@Z 0000000140008680 f i PerformanceWatcher.obj
 0001:000076c0       ?DisplayServerConnections@CServerConnectionWnd@@QEAAXAEAV?$CBaseList@UServerConnetionInfo@CPerformanceWatcher@@@container@wylib@@@Z 00000001400086c0 f i PerformanceWatcher.obj
 0001:000078b0       ?ShowPerformance@CPerformanceWatcher@@AEAAXXZ 00000001400088b0 f   PerformanceWatcher.obj
 0001:00007970       ?EnumServerConnectionCallBack@CPerformanceWatcher@@CAIPEAV?$CBaseList@UServerConnetionInfo@CPerformanceWatcher@@@container@wylib@@PEAVCSessionClient@@@Z 0000000140008970 f   PerformanceWatcher.obj
 0001:00007a40       ?ShowPerformanceWindow@CPerformanceWatcher@@QEAAXH@Z 0000000140008a40 f   PerformanceWatcher.obj
 0001:00007a90       ??1?$CBaseList@UServerConnetionInfo@CPerformanceWatcher@@@container@wylib@@UEAA@XZ 0000000140008a90 f i PerformanceWatcher.obj
 0001:00007ad0       ??_E?$CBaseList@UServerConnetionInfo@CPerformanceWatcher@@@container@wylib@@UEAAPEAXI@Z 0000000140008ad0 f i PerformanceWatcher.obj
 0001:00007ad0       ??_G?$CBaseList@UServerConnetionInfo@CPerformanceWatcher@@@container@wylib@@UEAAPEAXI@Z 0000000140008ad0 f i PerformanceWatcher.obj
 0001:00007b30       ?ShowServerConnections@CPerformanceWatcher@@AEAAXXZ 0000000140008b30 f   PerformanceWatcher.obj
 0001:00007bc0       ?ShowServerConnectionWindow@CPerformanceWatcher@@QEAAXH@Z 0000000140008bc0 f   PerformanceWatcher.obj
 0001:00007c10       ?OnRountine@CPerformanceWatcher@@MEAAXXZ 0000000140008c10 f   PerformanceWatcher.obj
 0001:00007df0       ?OnValidateRegData@CSessionClient@@MEAA_NQEAUtagServerRegistData@jxSrvDef@@@Z 0000000140008df0 f   SessionClient.obj
 0001:00007e10       ?OnDispatchRecvPacket@CSessionClient@@MEAAXGAEAVCDataPacketReader@@@Z 0000000140008e10 f   SessionClient.obj
 0001:00007e50       ?OnDisconnected@CSessionClient@@MEAAXXZ 0000000140008e50 f   SessionClient.obj
 0001:00007f10       ?OnError@CSessionClient@@MEAAXH@Z 0000000140008f10 f   SessionClient.obj
 0001:00007f90       ?CheckUserValid@CSessionClient@@QEAAHPEAD0AEAUtagGlobalSessionOpenData@jxSrvDef@@@Z 0000000140008f90 f   SessionClient.obj
 0001:000083b0       ??$readAtom@_J@CDataPacketReader@@QEAA_JXZ 00000001400093b0 f i SessionClient.obj
 0001:000083b0       ??$readAtom@_K@CDataPacketReader@@QEAA_KXZ 00000001400093b0 f i SessionClient.obj
 0001:00008430       ??$readAtom@E@CDataPacketReader@@QEAAEXZ 0000000140009430 f i SessionClient.obj
 0001:000084b0       ??0CSessionClient@@QEAA@PEAVCSessionServer@@PEAVCSQLConenction@@_KPEAUsockaddr_in@@@Z 00000001400094b0 f   SessionClient.obj
 0001:00008570       ??_GCSessionClient@@UEAAPEAXI@Z 0000000140009570 f i SessionClient.obj
 0001:00008570       ??_ECSessionClient@@UEAAPEAXI@Z 0000000140009570 f i SessionClient.obj
 0001:000085e0       ??$?6E@CDataPacket@@QEAAAEAV0@E@Z 00000001400095e0 f i SessionClient.obj
 0001:00008640       ??$?6_K@CDataPacket@@QEAAAEAV0@_K@Z 0000000140009640 f i SessionClient.obj
 0001:000086a0       ?CatchConformOpenSession@CSessionClient@@QEAAXAEAVCDataPacketReader@@@Z 00000001400096a0 f   SessionClient.obj
 0001:000086c0       ?CatchRequestTransmit@CSessionClient@@QEAAXAEAVCDataPacketReader@@@Z 00000001400096c0 f   SessionClient.obj
 0001:000088c0       ?CatchCloseSession@CSessionClient@@QEAAXAEAVCDataPacketReader@@@Z 00000001400098c0 f   SessionClient.obj
 0001:00008920       ?CatchUpdateSession@CSessionClient@@QEAAXAEAVCDataPacketReader@@@Z 0000000140009920 f   SessionClient.obj
 0001:00008990       ?CatchQuerySessionResult@CSessionClient@@QEAAXAEAVCDataPacketReader@@@Z 0000000140009990 f   SessionClient.obj
 0001:00008a20       ?CatchOnlineCount@CSessionClient@@QEAAXAEAVCDataPacketReader@@@Z 0000000140009a20 f   SessionClient.obj
 0001:00008a50       ?CatchLoadUserItem@CSessionClient@@QEAAXAEAVCDataPacketReader@@@Z 0000000140009a50 f   SessionClient.obj
 0001:00008dd0       ?CatchGetUserItem@CSessionClient@@QEAAXAEAVCDataPacketReader@@@Z 0000000140009dd0 f   SessionClient.obj
 0001:00009010       ?CatchRemoveUserItem@CSessionClient@@QEAAXAEAVCDataPacketReader@@@Z 000000014000a010 f   SessionClient.obj
 0001:00009150       ?CatchAddValueCard@CSessionClient@@QEAAXAEAVCDataPacketReader@@@Z 000000014000a150 f   SessionClient.obj
 0001:000094e0       ?CatchQueryAddValueCard@CSessionClient@@QEAAXAEAVCDataPacketReader@@@Z 000000014000a4e0 f   SessionClient.obj
 0001:000097f0       ?CatchQueryYuanbaoCount@CSessionClient@@QEAAXAEAVCDataPacketReader@@@Z 000000014000a7f0 f   SessionClient.obj
 0001:00009880       ?CatchWithdrawYuanbao@CSessionClient@@QEAAXAEAVCDataPacketReader@@@Z 000000014000a880 f   SessionClient.obj
 0001:00009a50       ?sendAMCMsgAck@CSessionClient@@QEAAXAEBUAMOPData@CAMClient@@@Z 000000014000aa50 f   SessionClient.obj
 0001:00009b00       ?CatchSaveCsRank@CSessionClient@@QEAAXAEAVCDataPacketReader@@@Z 000000014000ab00 f   SessionClient.obj
 0001:00009d80       ?CatchLoadCsRank@CSessionClient@@QEAAXAEAVCDataPacketReader@@@Z 000000014000ad80 f   SessionClient.obj
 0001:0000a0f0       ?CatchClearCsRank@CSessionClient@@QEAAXAEAVCDataPacketReader@@@Z 000000014000b0f0 f   SessionClient.obj
 0001:0000a180       ?CatchCheckUserPassword@CSessionClient@@QEAAXAEAVCDataPacketReader@@@Z 000000014000b180 f   SessionClient.obj
 0001:0000a540       ?CatchCreateAccount@CSessionClient@@QEAAXAEAVCDataPacketReader@@@Z 000000014000b540 f   SessionClient.obj
 0001:0000a920       ?SetCommonServerId@CSessionClient@@QEAAXAEAVCDataPacketReader@@@Z 000000014000b920 f   SessionClient.obj
 0001:0000a9a0       ?CatchGroupMessage@CSessionClient@@QEAAXAEAVCDataPacketReader@@@Z 000000014000b9a0 f   SessionClient.obj
 0001:0000aba0       ?CatchBroadcastMessage@CSessionClient@@QEAAXAEAVCDataPacketReader@@@Z 000000014000bba0 f   SessionClient.obj
 0001:0000add0       ?CreateClientSocket@CSessionServer@@MEAAPEAVCCustomServerClientSocket@@_KPEAUsockaddr_in@@@Z 000000014000bdd0 f   SessionServer.obj
 0001:0000ae40       ?InitACCountId@CSessionServer@@AEAA_NXZ 000000014000be40 f   SessionServer.obj
 0001:0000aff0       ?PostKickCrossActor@CSessionServer@@QEAAX_JH@Z 000000014000bff0 f   SessionServer.obj
 0001:0000b020       ?PostCloseSessionByAccountId@CSessionServer@@QEAAX_K0@Z 000000014000c020 f   SessionServer.obj
 0001:0000b050       ?PostCloseSessionByAccount@CSessionServer@@QEAAXQEBD@Z 000000014000c050 f   SessionServer.obj
 0001:0000b0d0       ?SendLogOnlineCount@CSessionServer@@AEAAXXZ 000000014000c0d0 f   SessionServer.obj
 0001:0000b1b0       ?ConnectSQL@CSessionServer@@AEAAHXZ 000000014000c1b0 f   SessionServer.obj
 0001:0000b260       ?SendAllClientMsg@CSessionServer@@AEAA_JW4tagServerType@jxSrvDef@@PEBD_K@Z 000000014000c260 f   SessionServer.obj
 0001:0000b300       ?SendLogicClientMsg@CSessionServer@@AEAA_J_JPEBD_K@Z 000000014000c300 f   SessionServer.obj
 0001:0000b3b0       ?SendGroupLogicClientMsg@CSessionServer@@AEAA_JHPEAX_K@Z 000000014000c3b0 f   SessionServer.obj
 0001:0000b460       ?SendAllDBAndIndexEngineMsg@CSessionServer@@AEAA_J_JPEBD_K@Z 000000014000c460 f   SessionServer.obj
 0001:0000b560       ?GetSession@CSessionServer@@QEAAH_JPEAUtagGameSession@@@Z 000000014000c560 f   SessionServer.obj
 0001:0000b630       ?GetSpecialServerSession@CSessionServer@@QEAAPEAUtagGameSession@@_JH@Z 000000014000c630 f   SessionServer.obj
 0001:0000b660       ?GetLogicClientCount@CSessionServer@@QEAA_J_J@Z 000000014000c660 f   SessionServer.obj
 0001:0000b750       ?UserCanLoginToServer@CSessionServer@@QEAA_J_J@Z 000000014000c750 f   SessionServer.obj
 0001:0000b830       ?EnumConnections@CSessionServer@@QEAAXP6AIPEBXPEAVCSessionClient@@@Z0@Z 000000014000c830 f   SessionServer.obj
 0001:0000b8f0       ?PostAMCMsg@CSessionServer@@QEAAXAEBUAMOPData@CAMClient@@@Z 000000014000c8f0 f   SessionServer.obj
 0001:0000b980       ?flush@?$CQueueList@PEAUtagGameSession@@@container@wylib@@QEAAXXZ 000000014000c980 f i SessionServer.obj
 0001:0000ba30       ??_G?$CBaseList@PEAUtagGameSession@@@container@wylib@@UEAAPEAXI@Z 000000014000ca30 f i SessionServer.obj
 0001:0000ba30       ??_E?$CBaseList@PEAUtagGameSession@@@container@wylib@@UEAAPEAXI@Z 000000014000ca30 f i SessionServer.obj
 0001:0000ba90       ?ProcessClients@CSessionServer@@MEAAXXZ 000000014000ca90 f   SessionServer.obj
 0001:0000bc00       ?SingleRun@CSessionServer@@MEAAXXZ 000000014000cc00 f   SessionServer.obj
 0001:0000bcc0       ??1?$CQueueList@PEAUtagGameSession@@@container@wylib@@UEAA@XZ 000000014000ccc0 f i SessionServer.obj
 0001:0000bd30       ??_G?$CQueueList@PEAUtagGameSession@@@container@wylib@@UEAAPEAXI@Z 000000014000cd30 f i SessionServer.obj
 0001:0000bd30       ??_E?$CQueueList@PEAUtagGameSession@@@container@wylib@@UEAAPEAXI@Z 000000014000cd30 f i SessionServer.obj
 0001:0000bd60       ?ProcessKickCrossActor@CSessionServer@@QEAAX_JH@Z 000000014000cd60 f   SessionServer.obj
 0001:0000be30       ?BroadCastUpdateSessionState@CSessionServer@@AEAA_JPEAUtagGameSession@@@Z 000000014000ce30 f   SessionServer.obj
 0001:0000bf60       ?BroadCastCloseSession@CSessionServer@@AEAA_J_K_KH@Z 000000014000cf60 f   SessionServer.obj
 0001:0000c090       ?BroadCastSessionConfim@CSessionServer@@AEAA_J_J0@Z 000000014000d090 f   SessionServer.obj
 0001:0000c1b0       ?PostOpenSession@CSessionServer@@QEAAH_J0PEBD000_J_K2@Z 000000014000d1b0 f   SessionServer.obj
 0001:0000c4f0       ??0CSessionServer@@QEAA@PEAVCSSManager@@@Z 000000014000d4f0 f   SessionServer.obj
 0001:0000c5f0       ??_ECSessionServer@@UEAAPEAXI@Z 000000014000d5f0 f i SessionServer.obj
 0001:0000c5f0       ??_GCSessionServer@@UEAAPEAXI@Z 000000014000d5f0 f i SessionServer.obj
 0001:0000c670       ?CloseSessionAtListIndex@CSessionServer@@AEAAH_J@Z 000000014000d670 f   SessionServer.obj
 0001:0000c8b0       ?DispatchInternalMessage@CSessionServer@@MEAAXI_K000@Z 000000014000d8b0 f   SessionServer.obj
 0001:0000cd00       ?readConfig@CSSConfig@@IEAA_NPEAVCSSManager@@@Z 000000014000dd00 f   SSConfig.obj
 0001:0000cfe0       ?loadConfig@CSSConfig@@QEAA_NPEAVCSSManager@@@Z 000000014000dfe0 f   SSConfig.obj
 0001:0000d090       ??0?$CTRefString@VCAnsiString@string@wylib@@D@string@wylib@@QEAA@AEBV012@@Z 000000014000e090 f i SSConfig.obj
 0001:0000d0e0       ?showError@CSSConfig@@MEAAXPEBD@Z 000000014000e0e0 f   SSConfig.obj
 0001:0000d250       ??0?$CRefObject@VCAnsiString@string@wylib@@@misc@wylib@@QEAA@AEAV012@@Z 000000014000e250 f i SSConfig.obj
 0001:0000d270       ?SetupSQLConnection@CSSManager@@QEAAXPEAVCSQLConenction@@@Z 000000014000e270 f   SSManager.obj
 0001:0000d2f0       ?SetServerName@CSSManager@@QEAAXPEBD@Z 000000014000e2f0 f   SSManager.obj
 0001:0000d330       ?SetSessionServiceAddress@CSSManager@@QEAAXPEBDH@Z 000000014000e330 f   SSManager.obj
 0001:0000d370       ?SetAMServerAddr@CSSManager@@QEAAXPEBDH@Z 000000014000e370 f   SSManager.obj
 0001:0000d3b0       ?SetSPID@CSSManager@@QEAAXPEBD@Z 000000014000e3b0 f   SSManager.obj
 0001:0000d400       ?SetLogServerAddress@CSSManager@@QEAAXPEBDH@Z 000000014000e400 f   SSManager.obj
 0001:0000d440       ?SetSQLConfig@CSSManager@@QEAAXPEBDH000@Z 000000014000e440 f   SSManager.obj
 0001:0000d4f0       ?reserve@?$CBaseList@H@container@wylib@@UEAAX_J@Z 000000014000e4f0 f i SSManager.obj
 0001:0000d530       ?reserve@?$CBaseList@UtagLogicServerInfo@@@container@wylib@@UEAAX_J@Z 000000014000e530 f i SSManager.obj
 0001:0000d530       ?reserve@?$CBaseList@VCommServerClient@@@container@wylib@@UEAAX_J@Z 000000014000e530 f i SSManager.obj
 0001:0000d570       ?reserve@?$CBaseList@PEAUtagCharGateRoute@@@container@wylib@@UEAAX_J@Z 000000014000e570 f i SSManager.obj
 0001:0000d570       ?reserve@?$CBaseList@PEAUtagAdminLoginRecord@@@container@wylib@@UEAAX_J@Z 000000014000e570 f i SSManager.obj
 0001:0000d570       ?reserve@?$CBaseList@PEAUtagGameSession@@@container@wylib@@UEAAX_J@Z 000000014000e570 f i SessionServer.obj
 0001:0000d5b0       ?Add@CommServerClient@@QEAAXH@Z 000000014000e5b0 f i SSManager.obj
 0001:0000d640       ?Trace@CommServerClientList@@QEAAXXZ 000000014000e640 f i SSManager.obj
 0001:0000d700       ?ClearRouteList@CSSManager@@AEAAXXZ 000000014000e700 f   SSManager.obj
 0001:0000d7a0       ?ClearAdministLoginList@CSSManager@@AEAAXXZ 000000014000e7a0 f   SSManager.obj
 0001:0000d840       ?Shutdown@CSSManager@@QEAAXXZ 000000014000e840 f   SSManager.obj
 0001:0000d890       ?empty@?$CBaseList@UServerConnetionInfo@CPerformanceWatcher@@@container@wylib@@UEAAXXZ 000000014000e890 f i PerformanceWatcher.obj
 0001:0000d890       ?empty@?$CBaseList@UtagLogicServerInfo@@@container@wylib@@UEAAXXZ 000000014000e890 f i SSManager.obj
 0001:0000d890       ?empty@?$CBaseList@PEAUtagCharGateRoute@@@container@wylib@@UEAAXXZ 000000014000e890 f i SSManager.obj
 0001:0000d890       ?empty@?$CBaseList@PEAUtagAdminLoginRecord@@@container@wylib@@UEAAXXZ 000000014000e890 f i SSManager.obj
 0001:0000d890       ?empty@?$CBaseList@PEAUtagGameSession@@@container@wylib@@UEAAXXZ 000000014000e890 f i SessionServer.obj
 0001:0000d890       ?empty@?$CBaseList@H@container@wylib@@UEAAXXZ 000000014000e890 f i SSManager.obj
 0001:0000d890       ?empty@?$CBaseList@VCommServerClient@@@container@wylib@@UEAAXXZ 000000014000e890 f i SSManager.obj
 0001:0000d890       ?empty@?$CBaseList@UAMOPData@CAMClient@@@container@wylib@@UEAAXXZ 000000014000e890 f i AMClient_x64:AMClient.obj
 0001:0000d8d0       ??1?$CLockList@PEAUtagCharGateRoute@@@container@wylib@@UEAA@XZ 000000014000e8d0 f i SSManager.obj
 0001:0000d8d0       ??1?$CBaseList@PEAUtagCharGateRoute@@@container@wylib@@UEAA@XZ 000000014000e8d0 f i SSManager.obj
 0001:0000d910       ??1?$CBaseList@PEAUtagAdminLoginRecord@@@container@wylib@@UEAA@XZ 000000014000e910 f i SSManager.obj
 0001:0000d910       ??1?$CLockList@PEAUtagAdminLoginRecord@@@container@wylib@@UEAA@XZ 000000014000e910 f i SSManager.obj
 0001:0000d950       ??_G?$CBaseList@H@container@wylib@@UEAAPEAXI@Z 000000014000e950 f i SSManager.obj
 0001:0000d950       ??_E?$CBaseList@H@container@wylib@@UEAAPEAXI@Z 000000014000e950 f i SSManager.obj
 0001:0000d9b0       ??_E?$CBaseList@VCommServerClient@@@container@wylib@@UEAAPEAXI@Z 000000014000e9b0 f i SSManager.obj
 0001:0000d9b0       ??_G?$CBaseList@VCommServerClient@@@container@wylib@@UEAAPEAXI@Z 000000014000e9b0 f i SSManager.obj
 0001:0000da10       ??_G?$CBaseList@PEAUtagCharGateRoute@@@container@wylib@@UEAAPEAXI@Z 000000014000ea10 f i SSManager.obj
 0001:0000da10       ??_E?$CBaseList@PEAUtagCharGateRoute@@@container@wylib@@UEAAPEAXI@Z 000000014000ea10 f i SSManager.obj
 0001:0000da10       ??_G?$CLockList@PEAUtagCharGateRoute@@@container@wylib@@UEAAPEAXI@Z 000000014000ea10 f i SSManager.obj
 0001:0000da10       ??_E?$CLockList@PEAUtagCharGateRoute@@@container@wylib@@UEAAPEAXI@Z 000000014000ea10 f i SSManager.obj
 0001:0000da70       ??_E?$CBaseList@PEAUtagAdminLoginRecord@@@container@wylib@@UEAAPEAXI@Z 000000014000ea70 f i SSManager.obj
 0001:0000da70       ??_G?$CLockList@PEAUtagAdminLoginRecord@@@container@wylib@@UEAAPEAXI@Z 000000014000ea70 f i SSManager.obj
 0001:0000da70       ??_G?$CBaseList@PEAUtagAdminLoginRecord@@@container@wylib@@UEAAPEAXI@Z 000000014000ea70 f i SSManager.obj
 0001:0000da70       ??_E?$CLockList@PEAUtagAdminLoginRecord@@@container@wylib@@UEAAPEAXI@Z 000000014000ea70 f i SSManager.obj
 0001:0000dad0       ??_E?$CLockList@UtagLogicServerInfo@@@container@wylib@@UEAAPEAXI@Z 000000014000ead0 f i SSManager.obj
 0001:0000dad0       ??_G?$CBaseList@UtagLogicServerInfo@@@container@wylib@@UEAAPEAXI@Z 000000014000ead0 f i SSManager.obj
 0001:0000dad0       ??_E?$CBaseList@UtagLogicServerInfo@@@container@wylib@@UEAAPEAXI@Z 000000014000ead0 f i SSManager.obj
 0001:0000dad0       ??_G?$CLockList@UtagLogicServerInfo@@@container@wylib@@UEAAPEAXI@Z 000000014000ead0 f i SSManager.obj
 0001:0000db30       ??1CommServerClient@@QEAA@XZ 000000014000eb30 f i SSManager.obj
 0001:0000db70       ??1CommServerClientList@@QEAA@XZ 000000014000eb70 f i SSManager.obj
 0001:0000dbe0       ?AddClient@CommServerClientList@@QEAAXHH@Z 000000014000ebe0 f i SSManager.obj
 0001:0000dce0       ??1?$CLockList@UtagLogicServerInfo@@@container@wylib@@UEAA@XZ 000000014000ece0 f i SSManager.obj
 0001:0000dce0       ??1?$CBaseList@UtagLogicServerInfo@@@container@wylib@@UEAA@XZ 000000014000ece0 f i SSManager.obj
 0001:0000dd20       ??1CSSManager@@QEAA@XZ     000000014000ed20 f   SSManager.obj
 0001:0000deb0       ?LoadCharGateRouteTable@CSSManager@@QEAA_JXZ 000000014000eeb0 f   SSManager.obj
 0001:0000e2a0       ?LoadAdministLoginTable@CSSManager@@QEAA_JXZ 000000014000f2a0 f   SSManager.obj
 0001:0000e610       ?LoadLogicServerInfoList@CSSManager@@QEAA_JXZ 000000014000f610 f   SSManager.obj
 0001:0000ea50       ?Startup@CSSManager@@QEAAHXZ 000000014000fa50 f   SSManager.obj
 0001:0000eb20       ?UpdateAMC@CSSManager@@QEAAXXZ 000000014000fb20 f   SSManager.obj
 0001:0000ebf0       ??0CSSManager@@QEAA@XZ     000000014000fbf0 f   SSManager.obj
 0001:0000ee50       mysql_fetch_row            000000014000fe50 f   libmysql:LIBMYSQL.dll
 0001:0000ee56       mysql_options              000000014000fe56 f   libmysql:LIBMYSQL.dll
 0001:0000ee5c       inet_ntoa                  000000014000fe5c f   Ws2_32:WS2_32.dll
 0001:0000ee62       htons                      000000014000fe62 f   Ws2_32:WS2_32.dll
 0001:0000ee70       ?setSize@CBaseStream@stream@wylib@@UEAA_N_J@Z 000000014000fe70 f i wylib_x64:FileStream.obj
 0001:0000ee80       ??1CHandleStream@stream@wylib@@UEAA@XZ 000000014000fe80 f i wylib_x64:FileStream.obj
 0001:0000ee90       ??1CFileStream@stream@wylib@@UEAA@XZ 000000014000fe90 f   wylib_x64:FileStream.obj
 0001:0000eee0       ?construct@CFileStream@stream@wylib@@IEAAXPEBDKK@Z 000000014000fee0 f   wylib_x64:FileStream.obj
 0001:0000efc0       ??0CFileStream@stream@wylib@@QEAA@PEBDK@Z 000000014000ffc0 f   wylib_x64:FileStream.obj
 0001:0000f030       ??_GCFileStream@stream@wylib@@UEAAPEAXI@Z 0000000140010030 f i wylib_x64:FileStream.obj
 0001:0000f030       ??_ECFileStream@stream@wylib@@UEAAPEAXI@Z 0000000140010030 f i wylib_x64:FileStream.obj
 0001:0000f0a0       ??0CFileStream@stream@wylib@@QEAA@PEBDKW4OpenDisposition@012@@Z 00000001400100a0 f   wylib_x64:FileStream.obj
 0001:0000f110       ??0CHandleStream@stream@wylib@@QEAA@PEAX@Z 0000000140010110 f   wylib_x64:HandleStream.obj
 0001:0000f130       ?setHandle@CHandleStream@stream@wylib@@IEAAXPEAX@Z 0000000140010130 f   wylib_x64:HandleStream.obj
 0001:0000f140       ?setSize@CHandleStream@stream@wylib@@UEAA_N_J@Z 0000000140010140 f   wylib_x64:HandleStream.obj
 0001:0000f170       ?seek@CHandleStream@stream@wylib@@UEAA_J_JH@Z 0000000140010170 f   wylib_x64:HandleStream.obj
 0001:0000f1a0       ?read@CHandleStream@stream@wylib@@UEAA_JPEAX_J@Z 00000001400101a0 f   wylib_x64:HandleStream.obj
 0001:0000f1e0       ?write@CHandleStream@stream@wylib@@UEAA_JPEBX_J@Z 00000001400101e0 f   wylib_x64:HandleStream.obj
 0001:0000f220       ??_GCBaseStream@stream@wylib@@UEAAPEAXI@Z 0000000140010220 f i wylib_x64:FileStream.obj
 0001:0000f220       ??_ECHandleStream@stream@wylib@@UEAAPEAXI@Z 0000000140010220 f i wylib_x64:HandleStream.obj
 0001:0000f220       ??_ECBaseStream@stream@wylib@@UEAAPEAXI@Z 0000000140010220 f i wylib_x64:FileStream.obj
 0001:0000f220       ??_GCHandleStream@stream@wylib@@UEAAPEAXI@Z 0000000140010220 f i wylib_x64:HandleStream.obj
 0001:0000f250       ?getSize@CBaseStream@stream@wylib@@UEAA_JXZ 0000000140010250 f   wylib_x64:BaseStream.obj
 0001:0000f2b0       ?setPosition@CBaseStream@stream@wylib@@QEAA_J_J@Z 00000001400102b0 f   wylib_x64:BaseStream.obj
 0001:0000f2c0       ?copyFrom@CBaseStream@stream@wylib@@UEAA_JAEAV123@_J@Z 00000001400102c0 f   wylib_x64:BaseStream.obj
 0001:0000f3d0       ?ThreadRoutine@CBaseThread@thread@wylib@@CAXPEAV123@@Z 00000001400103d0 f   wylib_x64:Thread.obj
 0001:0000f400       ?OnDisconnected@CCustomSocket@socket@inet@wylib@@MEAAXXZ 0000000140010400 f   wylib_x64:CustomSocket.obj
 0001:0000f400       ?OnResume@CBaseThread@thread@wylib@@MEAAXH@Z 0000000140010400 f   wylib_x64:Thread.obj
 0001:0000f400       ?DoStop@CSessionServer@@MEAAXXZ 0000000140010400 f   SessionServer.obj
 0001:0000f400       ?OnSuspend@CBaseThread@thread@wylib@@MEAAXH@Z 0000000140010400 f   wylib_x64:Thread.obj
 0001:0000f400       ?OnError@CCustomSocket@socket@inet@wylib@@MEAAXH@Z 0000000140010400 f   wylib_x64:CustomSocket.obj
 0001:0000f400       ?OnConnected@CCustomSocket@socket@inet@wylib@@MEAAXXZ 0000000140010400 f   wylib_x64:CustomSocket.obj
 0001:0000f400       ?OnTerminated@CBaseThread@thread@wylib@@MEAAXXZ 0000000140010400 f   wylib_x64:Thread.obj
 0001:0000f400       ?OnRegDataValidated@CSessionClient@@MEAAXXZ 0000000140010400 f   SessionClient.obj
 0001:0000f400       ?OnRountine@CBaseThread@thread@wylib@@MEAAXXZ 0000000140010400 f   wylib_x64:Thread.obj
 0001:0000f400       ?OnRun@CSessionClient@@MEAAXXZ 0000000140010400 f   SessionClient.obj
 0001:0000f400       ?CatchDefaultPacket@CSessionClient@@QEAAXAEAVCDataPacketReader@@@Z 0000000140010400 f   SessionClient.obj
 0001:0000f410       ?resume@CBaseThread@thread@wylib@@QEAAHXZ 0000000140010410 f   wylib_x64:Thread.obj
 0001:0000f460       ?waitFor@CBaseThread@thread@wylib@@QEAAHK_N@Z 0000000140010460 f   wylib_x64:Thread.obj
 0001:0000f470       ?terminate@CBaseThread@thread@wylib@@QEAAXXZ 0000000140010470 f   wylib_x64:Thread.obj
 0001:0000f480       ??1CBaseThread@thread@wylib@@QEAA@XZ 0000000140010480 f   wylib_x64:Thread.obj
 0001:0000f4d0       ??0CBaseThread@thread@wylib@@QEAA@_N@Z 00000001400104d0 f   wylib_x64:Thread.obj
 0001:0000f530       ?AllocClassedWndProcInstance@@YAP6A_JPEAUHWND__@@I_K_J@ZPEAX3@Z 0000000140010530 f   wylib_x64:ClassedWnd.obj
 0001:0000f600       ??1CClassedWnd@window@wylib@@UEAA@XZ 0000000140010600 f   wylib_x64:ClassedWnd.obj
 0001:0000f630       ?InitClassedWndProc@CClassedWnd@window@wylib@@CA_JPEAUHWND__@@I_K_J@Z 0000000140010630 f   wylib_x64:ClassedWnd.obj
 0001:0000f6e0       ?MyCreateWindowEx@CClassedWnd@window@wylib@@IEAAPEAUHWND__@@KPEBD0KHHHHPEAU4@PEAUHMENU__@@PEAUHINSTANCE__@@PEAX@Z 00000001400106e0 f   wylib_x64:ClassedWnd.obj
 0001:0000f780       ?StaticWndProc@CClassedWnd@window@wylib@@CA_JPEAUHWND__@@I_K_JPEAV123@@Z 0000000140010780 f   wylib_x64:ClassedWnd.obj
 0001:0000f7b0       ?WndProc@CClassedWnd@window@wylib@@MEAA_JPEAUHWND__@@I_K_J@Z 00000001400107b0 f   wylib_x64:ClassedWnd.obj
 0001:0000f7d0       ?getClassedWndProc@CClassedWnd@window@wylib@@QEAAP6A_JPEAUHWND__@@I_K_J@ZXZ 00000001400107d0 f   wylib_x64:ClassedWnd.obj
 0001:0000f7e0       ??0CClassedWnd@window@wylib@@QEAA@XZ 00000001400107e0 f   wylib_x64:ClassedWnd.obj
 0001:0000f810       ??_ECClassedWnd@window@wylib@@UEAAPEAXI@Z 0000000140010810 f i wylib_x64:ClassedWnd.obj
 0001:0000f810       ??_GCClassedWnd@window@wylib@@UEAAPEAXI@Z 0000000140010810 f i wylib_x64:ClassedWnd.obj
 0001:0000f860       ?GetTickCount64@tick64@time@wylib@@YA_JXZ 0000000140010860 f   wylib_x64:Tick.obj
 0001:0000f900       ??0CCustomSocket@socket@inet@wylib@@QEAA@XZ 0000000140010900 f   wylib_x64:CustomSocket.obj
 0001:0000f950       ?Connected@CCustomSocket@socket@inet@wylib@@MEAAXXZ 0000000140010950 f   wylib_x64:CustomSocket.obj
 0001:0000f960       ?Disconnected@CCustomSocket@socket@inet@wylib@@MEAAXXZ 0000000140010960 f   wylib_x64:CustomSocket.obj
 0001:0000f970       ?setBlockMode@CCustomSocket@socket@inet@wylib@@QEAAH_N@Z 0000000140010970 f   wylib_x64:CustomSocket.obj
 0001:0000f9d0       ?close@CCustomSocket@socket@inet@wylib@@QEAAXXZ 00000001400109d0 f   wylib_x64:CustomSocket.obj
 0001:0000fa10       ?bind@CCustomSocket@socket@inet@wylib@@QEAAHKH@Z 0000000140010a10 f   wylib_x64:CustomSocket.obj
 0001:0000fa90       ?bind@CCustomSocket@socket@inet@wylib@@QEAAHPEBDH@Z 0000000140010a90 f   wylib_x64:CustomSocket.obj
 0001:0000fae0       ?setRecvBufSize@CCustomSocket@socket@inet@wylib@@QEAAHK@Z 0000000140010ae0 f   wylib_x64:CustomSocket.obj
 0001:0000fb20       ?setSendBufSize@CCustomSocket@socket@inet@wylib@@QEAAHK@Z 0000000140010b20 f   wylib_x64:CustomSocket.obj
 0001:0000fb60       ?listen@CCustomSocket@socket@inet@wylib@@QEAAHH@Z 0000000140010b60 f   wylib_x64:CustomSocket.obj
 0001:0000fb90       ?accept@CCustomSocket@socket@inet@wylib@@QEAAHPEA_KKPEAUsockaddr_in@@@Z 0000000140010b90 f   wylib_x64:CustomSocket.obj
 0001:0000fc50       ?connect@CCustomSocket@socket@inet@wylib@@QEAAHKH@Z 0000000140010c50 f   wylib_x64:CustomSocket.obj
 0001:0000fce0       ?createSocket@CCustomSocket@socket@inet@wylib@@SAHPEA_KHHH@Z 0000000140010ce0 f   wylib_x64:CustomSocket.obj
 0001:0000fd20       ?recv@CCustomSocket@socket@inet@wylib@@UEAAHPEAXHH@Z 0000000140010d20 f   wylib_x64:CustomSocket.obj
 0001:0000fdc0       ?send@CCustomSocket@socket@inet@wylib@@UEAAHPEAXHH@Z 0000000140010dc0 f   wylib_x64:CustomSocket.obj
 0001:0000fea0       ??1CCustomSocket@socket@inet@wylib@@UEAA@XZ 0000000140010ea0 f   wylib_x64:CustomSocket.obj
 0001:0000fef0       ?SocketError@CCustomSocket@socket@inet@wylib@@MEAAXH@Z 0000000140010ef0 f   wylib_x64:CustomSocket.obj
 0001:0000ff40       ?setSocket@CCustomSocket@socket@inet@wylib@@QEAAX_K@Z 0000000140010f40 f   wylib_x64:CustomSocket.obj
 0001:0000ffc0       ?connect@CCustomSocket@socket@inet@wylib@@QEAAHPEBDH@Z 0000000140010fc0 f   wylib_x64:CustomSocket.obj
 0001:00010010       ??_ECCustomSocket@socket@inet@wylib@@UEAAPEAXI@Z 0000000140011010 f i wylib_x64:CustomSocket.obj
 0001:00010010       ??_GCCustomSocket@socket@inet@wylib@@UEAAPEAXI@Z 0000000140011010 f i wylib_x64:CustomSocket.obj
 0001:00010080       ??1CCSLock@lock@sync@wylib@@UEAA@XZ 0000000140011080 f   wylib_x64:Lock.obj
 0001:000100a0       ?_Lock@CCSLock@lock@sync@wylib@@UEAAXPEADH@Z 00000001400110a0 f   wylib_x64:Lock.obj
 0001:000100c0       ?TryLock@CCSLock@lock@sync@wylib@@UEAAHXZ 00000001400110c0 f   wylib_x64:Lock.obj
 0001:000100d0       ?_Unlock@CCSLock@lock@sync@wylib@@UEAAXPEADH@Z 00000001400110d0 f   wylib_x64:Lock.obj
 0001:000100f0       ??0CCSLock@lock@sync@wylib@@QEAA@XZ 00000001400110f0 f   wylib_x64:Lock.obj
 0001:00010120       ??_GCCSLock@lock@sync@wylib@@UEAAPEAXI@Z 0000000140011120 f i wylib_x64:Lock.obj
 0001:00010120       ??_ECCSLock@lock@sync@wylib@@UEAAPEAXI@Z 0000000140011120 f i wylib_x64:Lock.obj
 0001:00010160       ??0CMemoryStream@stream@wylib@@QEAA@XZ 0000000140011160 f   wylib_x64:MemoryStream.obj
 0001:00010180       ??1CMemoryStream@stream@wylib@@UEAA@XZ 0000000140011180 f   wylib_x64:MemoryStream.obj
 0001:000101c0       ?Alloc@CMemoryStream@stream@wylib@@MEAAPEADPEAD_J@Z 00000001400111c0 f   wylib_x64:MemoryStream.obj
 0001:00010200       ?setSize@CMemoryStream@stream@wylib@@UEAA_N_J@Z 0000000140011200 f   wylib_x64:MemoryStream.obj
 0001:00010270       ?seek@CMemoryStream@stream@wylib@@UEAA_J_JH@Z 0000000140011270 f   wylib_x64:MemoryStream.obj
 0001:000102c0       ?read@CMemoryStream@stream@wylib@@UEAA_JPEAX_J@Z 00000001400112c0 f   wylib_x64:MemoryStream.obj
 0001:00010320       ?write@CMemoryStream@stream@wylib@@UEAA_JPEBX_J@Z 0000000140011320 f   wylib_x64:MemoryStream.obj
 0001:00010380       ?loadFromFile@CMemoryStream@stream@wylib@@QEAA_JPEBD@Z 0000000140011380 f   wylib_x64:MemoryStream.obj
 0001:00010400       ??_ECMemoryStream@stream@wylib@@UEAAPEAXI@Z 0000000140011400 f i wylib_x64:MemoryStream.obj
 0001:00010400       ??_GCMemoryStream@stream@wylib@@UEAAPEAXI@Z 0000000140011400 f i wylib_x64:MemoryStream.obj
 0001:00010458       ??_U@YAPEAX_K@Z            0000000140011458 f   msvcprt:newaop_s.obj
 0001:0001045e       __CxxFrameHandler3         000000014001145e f   MSVCRT:MSVCR100.dll
 0001:00010464       memset                     0000000140011464 f   MSVCRT:MSVCR100.dll
 0001:0001046c       ??_Etype_info@@UEAAPEAXI@Z 000000014001146c f i MSVCRT:ti_inst.obj
 0001:000104d6       ??3@YAXPEAX@Z              00000001400114d6 f   MSVCRT:MSVCR100.dll
 0001:000104dc       _onexit                    00000001400114dc f   MSVCRT:atonexit.obj
 0001:0001058c       atexit                     000000014001158c f   MSVCRT:atonexit.obj
 0001:000105a4       ??2@YAPEAX_K@Z             00000001400115a4 f   MSVCRT:MSVCR100.dll
 0001:000105aa       memcpy                     00000001400115aa f   MSVCRT:MSVCR100.dll
 0001:000105c0       __chkstk                   00000001400115c0 f   MSVCRT:chkstk.obj
 0001:000105c0       _alloca_probe              00000001400115c0     MSVCRT:chkstk.obj
 0001:0001060e       _CxxThrowException         000000014001160e f   MSVCRT:MSVCR100.dll
 0001:000108cc       mainCRTStartup             00000001400118cc f   MSVCRT:crtexe.obj
 0001:000108de       _purecall                  00000001400118de f   MSVCRT:MSVCR100.dll
 0001:00010900       __security_check_cookie    0000000140011900 f   MSVCRT:amdsecgs.obj
 0001:00010920       ?__ArrayUnwind@@YAXPEAX_KHP6AX0@Z@Z 0000000140011920 f   MSVCRT:ehvecdtr.obj
 0001:0001096c       ??_M@YAXPEAX_KHP6AX0@Z@Z   000000014001196c f   MSVCRT:ehvecdtr.obj
 0001:000109ca       __C_specific_handler       00000001400119ca f   MSVCRT:MSVCR100.dll
 0001:000109d0       _unlock                    00000001400119d0 f   MSVCRT:MSVCR100.dll
 0001:000109d6       __dllonexit                00000001400119d6 f   MSVCRT:MSVCR100.dll
 0001:000109dc       _lock                      00000001400119dc f   MSVCRT:MSVCR100.dll
 0001:000109e4       ?__CxxUnhandledExceptionFilter@@YAJPEAU_EXCEPTION_POINTERS@@@Z 00000001400119e4 f   MSVCRT:unhandld.obj
 0001:00010a28       __CxxSetUnhandledExceptionFilter 0000000140011a28 f   MSVCRT:unhandld.obj
 0001:00010a40       _amsg_exit                 0000000140011a40 f   MSVCRT:MSVCR100.dll
 0001:00010a48       _RTC_Initialize            0000000140011a48 f   MSVCRT:_initsect_.obj
 0001:00010a80       _RTC_Terminate             0000000140011a80 f   MSVCRT:_initsect_.obj
 0001:00010ab8       _XcptFilter                0000000140011ab8 f   MSVCRT:MSVCR100.dll
 0001:00010ac0       _ValidateImageBase         0000000140011ac0 f   MSVCRT:pesect.obj
 0001:00010af0       _FindPESection             0000000140011af0 f   MSVCRT:pesect.obj
 0001:00010b40       _IsNonwritableInCurrentImage 0000000140011b40 f   MSVCRT:pesect.obj
 0001:00010b82       _initterm                  0000000140011b82 f   MSVCRT:MSVCR100.dll
 0001:00010b88       _initterm_e                0000000140011b88 f   MSVCRT:MSVCR100.dll
 0001:00010b90       _matherr                   0000000140011b90 f   MSVCRT:merr.obj
 0001:00010b90       _setargv                   0000000140011b90 f   MSVCRT:dllargv.obj
 0001:00010b94       __security_init_cookie     0000000140011b94 f   MSVCRT:gs_support.obj
 0001:00010c48       __report_gsfailure         0000000140011c48 f   MSVCRT:gs_report.obj
 0001:00010d92       ?terminate@@YAXXZ          0000000140011d92 f   MSVCRT:MSVCR100.dll
 0001:00010d98       ?_type_info_dtor_internal_method@type_info@@QEAAXXZ 0000000140011d98 f   MSVCRT:MSVCR100.dll
 0001:00010d98       ??1type_info@@UEAA@XZ      0000000140011d98 f   MSVCRT:MSVCR100.dll
 0001:00010d9e       __crt_debugger_hook        0000000140011d9e f   MSVCRT:MSVCR100.dll
 0001:00010da4       WSAGetLastError            0000000140011da4 f   Ws2_32:WS2_32.dll
 0001:00010daa       ioctlsocket                0000000140011daa f   Ws2_32:WS2_32.dll
 0001:00010db0       closesocket                0000000140011db0 f   Ws2_32:WS2_32.dll
 0001:00010db6       bind                       0000000140011db6 f   Ws2_32:WS2_32.dll
 0001:00010dbc       gethostbyname              0000000140011dbc f   Ws2_32:WS2_32.dll
 0001:00010dc2       setsockopt                 0000000140011dc2 f   Ws2_32:WS2_32.dll
 0001:00010dc8       listen                     0000000140011dc8 f   Ws2_32:WS2_32.dll
 0001:00010dce       accept                     0000000140011dce f   Ws2_32:WS2_32.dll
 0001:00010dd4       select                     0000000140011dd4 f   Ws2_32:WS2_32.dll
 0001:00010dda       connect                    0000000140011dda f   Ws2_32:WS2_32.dll
 0001:00010de0       socket                     0000000140011de0 f   Ws2_32:WS2_32.dll
 0001:00010de6       recv                       0000000140011de6 f   Ws2_32:WS2_32.dll
 0001:00010dec       send                       0000000140011dec f   Ws2_32:WS2_32.dll
 0001:00010e00       Encode6BitBuf              0000000140011e00 f   edcode_x64:EDcode.obj
 0001:00010ef0       Decode6BitBuf              0000000140011ef0 f   edcode_x64:EDcode.obj
 0001:00011090       lua_checkstack             0000000140012090 f   lua-5.1_x64:lapi.obj
 0001:00011130       lua_xmove                  0000000140012130 f   lua-5.1_x64:lapi.obj
 0001:00011190       lua_setlevel               0000000140012190 f   lua-5.1_x64:lapi.obj
 0001:000111a0       lua_atpanic                00000001400121a0 f   lua-5.1_x64:lapi.obj
 0001:000111c0       lua_newthread              00000001400121c0 f   lua-5.1_x64:lapi.obj
 0001:00011200       lua_gettop                 0000000140012200 f   lua-5.1_x64:lapi.obj
 0001:00011210       lua_settop                 0000000140012210 f   lua-5.1_x64:lapi.obj
 0001:00011270       lua_remove                 0000000140012270 f   lua-5.1_x64:lapi.obj
 0001:000112c0       lua_insert                 00000001400122c0 f   lua-5.1_x64:lapi.obj
 0001:00011320       lua_replace                0000000140012320 f   lua-5.1_x64:lapi.obj
 0001:000113f0       lua_pushvalue              00000001400123f0 f   lua-5.1_x64:lapi.obj
 0001:00011420       lua_type                   0000000140012420 f   lua-5.1_x64:lapi.obj
 0001:00011450       lua_typename               0000000140012450 f   lua-5.1_x64:lapi.obj
 0001:00011470       lua_iscfunction            0000000140012470 f   lua-5.1_x64:lapi.obj
 0001:000114a0       lua_isnumber               00000001400124a0 f   lua-5.1_x64:lapi.obj
 0001:000114d0       lua_isstring               00000001400124d0 f   lua-5.1_x64:lapi.obj
 0001:00011510       lua_rawequal               0000000140012510 f   lua-5.1_x64:lapi.obj
 0001:00011560       lua_lessthan               0000000140012560 f   lua-5.1_x64:lapi.obj
 0001:000115b0       lua_tonumber               00000001400125b0 f   lua-5.1_x64:lapi.obj
 0001:000115f0       lua_tointeger              00000001400125f0 f   lua-5.1_x64:lapi.obj
 0001:00011620       lua_toboolean              0000000140012620 f   lua-5.1_x64:lapi.obj
 0001:00011650       lua_tolstring              0000000140012650 f   lua-5.1_x64:lapi.obj
 0001:000116f0       lua_objlen                 00000001400126f0 f   lua-5.1_x64:lapi.obj
 0001:00011770       lua_tothread               0000000140012770 f   lua-5.1_x64:lapi.obj
 0001:00011790       lua_topointer              0000000140012790 f   lua-5.1_x64:lapi.obj
 0001:00011800       lua_pushnil                0000000140012800 f   lua-5.1_x64:lapi.obj
 0001:00011820       lua_pushnumber             0000000140012820 f   lua-5.1_x64:lapi.obj
 0001:00011840       lua_pushinteger            0000000140012840 f   lua-5.1_x64:lapi.obj
 0001:00011860       lua_pushlstring            0000000140012860 f   lua-5.1_x64:lapi.obj
 0001:000118d0       lua_pushstring             00000001400128d0 f   lua-5.1_x64:lapi.obj
 0001:00011920       lua_pushvfstring           0000000140012920 f   lua-5.1_x64:lapi.obj
 0001:00011970       lua_pushfstring            0000000140012970 f   lua-5.1_x64:lapi.obj
 0001:000119c0       lua_pushcclosure           00000001400129c0 f   lua-5.1_x64:lapi.obj
 0001:00011a80       lua_pushboolean            0000000140012a80 f   lua-5.1_x64:lapi.obj
 0001:00011aa0       lua_pushthread             0000000140012aa0 f   lua-5.1_x64:lapi.obj
 0001:00011ad0       lua_gettable               0000000140012ad0 f   lua-5.1_x64:lapi.obj
 0001:00011b00       lua_getfield               0000000140012b00 f   lua-5.1_x64:lapi.obj
 0001:00011b70       lua_rawget                 0000000140012b70 f   lua-5.1_x64:lapi.obj
 0001:00011bb0       lua_rawgeti                0000000140012bb0 f   lua-5.1_x64:lapi.obj
 0001:00011bf0       lua_createtable            0000000140012bf0 f   lua-5.1_x64:lapi.obj
 0001:00011c60       lua_getmetatable           0000000140012c60 f   lua-5.1_x64:lapi.obj
 0001:00011cc0       lua_getfenv                0000000140012cc0 f   lua-5.1_x64:lapi.obj
 0001:00011d40       lua_settable               0000000140012d40 f   lua-5.1_x64:lapi.obj
 0001:00011d70       lua_setfield               0000000140012d70 f   lua-5.1_x64:lapi.obj
 0001:00011df0       lua_rawset                 0000000140012df0 f   lua-5.1_x64:lapi.obj
 0001:00011e70       lua_rawseti                0000000140012e70 f   lua-5.1_x64:lapi.obj
 0001:00011ef0       lua_setmetatable           0000000140012ef0 f   lua-5.1_x64:lapi.obj
 0001:00011fb0       lua_setfenv                0000000140012fb0 f   lua-5.1_x64:lapi.obj
 0001:00012050       lua_call                   0000000140013050 f   lua-5.1_x64:lapi.obj
 0001:000120b0       lua_pcall                  00000001400130b0 f   lua-5.1_x64:lapi.obj
 0001:000121d0       lua_cpcall                 00000001400131d0 f   lua-5.1_x64:lapi.obj
 0001:00012210       lua_load                   0000000140013210 f   lua-5.1_x64:lapi.obj
 0001:00012260       lua_dump                   0000000140013260 f   lua-5.1_x64:lapi.obj
 0001:000122b0       lua_status                 00000001400132b0 f   lua-5.1_x64:lapi.obj
 0001:000122c0       lua_gc                     00000001400132c0 f   lua-5.1_x64:lapi.obj
 0001:00012460       lua_error                  0000000140013460 f   lua-5.1_x64:lapi.obj
 0001:00012470       lua_next                   0000000140013470 f   lua-5.1_x64:lapi.obj
 0001:000124b0       lua_concat                 00000001400134b0 f   lua-5.1_x64:lapi.obj
 0001:00012540       lua_newuserdata            0000000140013540 f   lua-5.1_x64:lapi.obj
 0001:000125b0       luaL_where                 00000001400135b0 f   lua-5.1_x64:lauxlib.obj
 0001:00012620       luaL_error                 0000000140013620 f   lua-5.1_x64:lauxlib.obj
 0001:000126d0       luaL_checkstack            00000001400136d0 f   lua-5.1_x64:lauxlib.obj
 0001:00012710       luaL_getmetafield          0000000140013710 f   lua-5.1_x64:lauxlib.obj
 0001:00012790       luaL_callmeta              0000000140013790 f   lua-5.1_x64:lauxlib.obj
 0001:00012810       luaL_findtable             0000000140013810 f   lua-5.1_x64:lauxlib.obj
 0001:000129f0       luaL_prepbuffer            00000001400139f0 f   lua-5.1_x64:lauxlib.obj
 0001:00012a50       luaL_addlstring            0000000140013a50 f   lua-5.1_x64:lauxlib.obj
 0001:00012af0       luaL_pushresult            0000000140013af0 f   lua-5.1_x64:lauxlib.obj
 0001:00012b40       luaL_addvalue              0000000140013b40 f   lua-5.1_x64:lauxlib.obj
 0001:00012c00       luaL_buffinit              0000000140013c00 f   lua-5.1_x64:lauxlib.obj
 0001:00012d30       luaL_loadfile              0000000140013d30 f   lua-5.1_x64:lauxlib.obj
 0001:00012f70       luaL_loadbuffer            0000000140013f70 f   lua-5.1_x64:lauxlib.obj
 0001:00012fa0       luaL_loadstring            0000000140013fa0 f   lua-5.1_x64:lauxlib.obj
 0001:00013060       luaL_newstate              0000000140014060 f   lua-5.1_x64:lauxlib.obj
 0001:000130a0       luaL_argerror              00000001400140a0 f   lua-5.1_x64:lauxlib.obj
 0001:00013200       luaL_checktype             0000000140014200 f   lua-5.1_x64:lauxlib.obj
 0001:00013240       luaL_checkany              0000000140014240 f   lua-5.1_x64:lauxlib.obj
 0001:00013280       luaL_checklstring          0000000140014280 f   lua-5.1_x64:lauxlib.obj
 0001:00013310       luaL_optlstring            0000000140014310 f   lua-5.1_x64:lauxlib.obj
 0001:00013390       luaL_checknumber           0000000140014390 f   lua-5.1_x64:lauxlib.obj
 0001:00013400       luaL_checkinteger          0000000140014400 f   lua-5.1_x64:lauxlib.obj
 0001:00013450       luaL_optinteger            0000000140014450 f   lua-5.1_x64:lauxlib.obj
 0001:000134c0       luaL_openlib               00000001400144c0 f   lua-5.1_x64:lauxlib.obj
 0001:00013640       luaL_checkoption           0000000140014640 f   lua-5.1_x64:lauxlib.obj
 0001:00013700       luaL_register              0000000140014700 f   lua-5.1_x64:lauxlib.obj
 0001:00013cf0       luaU_dump                  0000000140014cf0 f   lua-5.1_x64:ldump.obj
 0001:000145a0       luaopen_math               00000001400155a0 f   lua-5.1_x64:lmathlib.obj
 0001:00016710       luaopen_string             0000000140017710 f   lua-5.1_x64:lstrlib.obj
 0001:00017dd0       luaopen_base               0000000140018dd0 f   lua-5.1_x64:lbaselib.obj
 0001:00018010       luaE_newthread             0000000140019010 f   lua-5.1_x64:lstate.obj
 0001:000180e0       luaE_freethread            00000001400190e0 f   lua-5.1_x64:lstate.obj
 0001:00018150       lua_newstate               0000000140019150 f   lua-5.1_x64:lstate.obj
 0001:00018310       lua_close                  0000000140019310 f   lua-5.1_x64:lstate.obj
 0001:00018f60       luaopen_table              0000000140019f60 f   lua-5.1_x64:ltablib.obj
 0001:00018f90       luaO_int2fb                0000000140019f90 f   lua-5.1_x64:lobject.obj
 0001:00018fc0       luaO_fb2int                0000000140019fc0 f   lua-5.1_x64:lobject.obj
 0001:00018fe0       luaO_log2                  0000000140019fe0 f   lua-5.1_x64:lobject.obj
 0001:00019010       luaO_rawequalObj           000000014001a010 f   lua-5.1_x64:lobject.obj
 0001:00019080       luaO_str2d                 000000014001a080 f   lua-5.1_x64:lobject.obj
 0001:000191c0       luaO_pushvfstring          000000014001a1c0 f   lua-5.1_x64:lobject.obj
 0001:00019530       luaO_pushfstring           000000014001a530 f   lua-5.1_x64:lobject.obj
 0001:00019560       luaO_chunkid               000000014001a560 f   lua-5.1_x64:lobject.obj
 0001:000196c0       luaD_seterrorobj           000000014001a6c0 f   lua-5.1_x64:ldo.obj
 0001:00019770       luaD_rawrunprotected       000000014001a770 f   lua-5.1_x64:ldo.obj
 0001:000198d0       luaD_reallocstack          000000014001a8d0 f   lua-5.1_x64:ldo.obj
 0001:00019960       luaD_reallocCI             000000014001a960 f   lua-5.1_x64:ldo.obj
 0001:00019a10       luaD_growstack             000000014001aa10 f   lua-5.1_x64:ldo.obj
 0001:00019a30       luaD_callhook              000000014001aa30 f   lua-5.1_x64:ldo.obj
 0001:00019f30       luaD_poscall               000000014001af30 f   lua-5.1_x64:ldo.obj
 0001:0001a050       lua_yield                  000000014001b050 f   lua-5.1_x64:ldo.obj
 0001:0001a240       luaD_throw                 000000014001b240 f   lua-5.1_x64:ldo.obj
 0001:0001a300       luaD_precall               000000014001b300 f   lua-5.1_x64:ldo.obj
 0001:0001a550       luaD_call                  000000014001b550 f   lua-5.1_x64:ldo.obj
 0001:0001a680       lua_resume                 000000014001b680 f   lua-5.1_x64:ldo.obj
 0001:0001a740       luaD_pcall                 000000014001b740 f   lua-5.1_x64:ldo.obj
 0001:0001a840       luaD_protectedparser       000000014001b840 f   lua-5.1_x64:ldo.obj
 0001:0001aae0       luaC_separateudata         000000014001bae0 f   lua-5.1_x64:lgc.obj
 0001:0001b830       luaC_callGCTM              000000014001c830 f   lua-5.1_x64:lgc.obj
 0001:0001b970       luaC_freeall               000000014001c970 f   lua-5.1_x64:lgc.obj
 0001:0001bf70       luaC_step                  000000014001cf70 f   lua-5.1_x64:lgc.obj
 0001:0001c190       luaC_fullgc                000000014001d190 f   lua-5.1_x64:lgc.obj
 0001:0001c240       luaC_barrierf              000000014001d240 f   lua-5.1_x64:lgc.obj
 0001:0001c270       luaC_barrierback           000000014001d270 f   lua-5.1_x64:lgc.obj
 0001:0001c290       luaC_link                  000000014001d290 f   lua-5.1_x64:lgc.obj
 0001:0001c2b0       luaC_linkupval             000000014001d2b0 f   lua-5.1_x64:lgc.obj
 0001:0001c390       lua_getstack               000000014001d390 f   lua-5.1_x64:ldebug.obj
 0001:0001c560       luaG_checkopenop           000000014001d560 f   lua-5.1_x64:ldebug.obj
 0001:0001cb80       luaG_checkcode             000000014001db80 f   lua-5.1_x64:ldebug.obj
 0001:0001cf50       luaG_errormsg              000000014001df50 f   lua-5.1_x64:ldebug.obj
 0001:0001d000       luaG_runerror              000000014001e000 f   lua-5.1_x64:ldebug.obj
 0001:0001d1e0       lua_getinfo                000000014001e1e0 f   lua-5.1_x64:ldebug.obj
 0001:0001d2d0       luaG_typeerror             000000014001e2d0 f   lua-5.1_x64:ldebug.obj
 0001:0001d3a0       luaG_concaterror           000000014001e3a0 f   lua-5.1_x64:ldebug.obj
 0001:0001d3c0       luaG_aritherror            000000014001e3c0 f   lua-5.1_x64:ldebug.obj
 0001:0001d410       luaG_ordererror            000000014001e410 f   lua-5.1_x64:ldebug.obj
 0001:0001d460       luaT_init                  000000014001e460 f   lua-5.1_x64:ltm.obj
 0001:0001d4f0       luaT_gettm                 000000014001e4f0 f   lua-5.1_x64:ltm.obj
 0001:0001d530       luaT_gettmbyobj            000000014001e530 f   lua-5.1_x64:ltm.obj
 0001:0001d580       luaV_tonumber              000000014001e580 f   lua-5.1_x64:lvm.obj
 0001:0001d5e0       luaV_tostring              000000014001e5e0 f   lua-5.1_x64:lvm.obj
 0001:0001d880       luaV_gettable              000000014001e880 f   lua-5.1_x64:lvm.obj
 0001:0001da10       luaV_settable              000000014001ea10 f   lua-5.1_x64:lvm.obj
 0001:0001de20       luaV_lessthan              000000014001ee20 f   lua-5.1_x64:lvm.obj
 0001:0001dfd0       luaV_equalval              000000014001efd0 f   lua-5.1_x64:lvm.obj
 0001:0001e120       luaV_concat                000000014001f120 f   lua-5.1_x64:lvm.obj
 0001:0001e5c0       luaV_execute               000000014001f5c0 f   lua-5.1_x64:lvm.obj
 0001:0001fe90       luaH_next                  0000000140020e90 f   lua-5.1_x64:ltable.obj
 0001:00020120       luaH_new                   0000000140021120 f   lua-5.1_x64:ltable.obj
 0001:000201c0       luaH_free                  00000001400211c0 f   lua-5.1_x64:ltable.obj
 0001:00020240       luaH_getnum                0000000140021240 f   lua-5.1_x64:ltable.obj
 0001:000202d0       luaH_getstr                00000001400212d0 f   lua-5.1_x64:ltable.obj
 0001:00020320       luaH_get                   0000000140021320 f   lua-5.1_x64:ltable.obj
 0001:000203f0       luaH_set                   00000001400213f0 f   lua-5.1_x64:ltable.obj
 0001:00020480       luaH_setnum                0000000140021480 f   lua-5.1_x64:ltable.obj
 0001:00020730       luaH_getn                  0000000140021730 f   lua-5.1_x64:ltable.obj
 0001:000209f0       luaH_resizearray           00000001400219f0 f   lua-5.1_x64:ltable.obj
 0001:00020d70       luaH_setstr                0000000140021d70 f   lua-5.1_x64:ltable.obj
 0001:00020df0       luaS_resize                0000000140021df0 f   lua-5.1_x64:lstring.obj
 0001:00020ee0       luaS_newlstr               0000000140021ee0 f   lua-5.1_x64:lstring.obj
 0001:00021060       luaS_newudata              0000000140022060 f   lua-5.1_x64:lstring.obj
 0001:000210f0       luaF_newCclosure           00000001400220f0 f   lua-5.1_x64:lfunc.obj
 0001:00021160       luaF_newLclosure           0000000140022160 f   lua-5.1_x64:lfunc.obj
 0001:000211e0       luaF_newupval              00000001400221e0 f   lua-5.1_x64:lfunc.obj
 0001:00021230       luaF_findupval             0000000140022230 f   lua-5.1_x64:lfunc.obj
 0001:00021300       luaF_freeupval             0000000140022300 f   lua-5.1_x64:lfunc.obj
 0001:00021330       luaF_close                 0000000140022330 f   lua-5.1_x64:lfunc.obj
 0001:00021420       luaF_newproto              0000000140022420 f   lua-5.1_x64:lfunc.obj
 0001:000214a0       luaF_freeproto             00000001400224a0 f   lua-5.1_x64:lfunc.obj
 0001:00021560       luaF_freeclosure           0000000140022560 f   lua-5.1_x64:lfunc.obj
 0001:00021590       luaF_getlocalname          0000000140022590 f   lua-5.1_x64:lfunc.obj
 0001:000215e0       luaZ_fill                  00000001400225e0 f   lua-5.1_x64:lzio.obj
 0001:00021630       luaZ_lookahead             0000000140022630 f   lua-5.1_x64:lzio.obj
 0001:000216a0       luaZ_init                  00000001400226a0 f   lua-5.1_x64:lzio.obj
 0001:000216c0       luaZ_read                  00000001400226c0 f   lua-5.1_x64:lzio.obj
 0001:00021780       luaZ_openspace             0000000140022780 f   lua-5.1_x64:lzio.obj
 0001:000222b0       luaU_header                00000001400232b0 f   lua-5.1_x64:lundump.obj
 0001:00022390       luaU_undump                0000000140023390 f   lua-5.1_x64:lundump.obj
 0001:00022410       luaM_toobig                0000000140023410 f   lua-5.1_x64:lmem.obj
 0001:00022430       luaM_realloc_              0000000140023430 f   lua-5.1_x64:lmem.obj
 0001:000224a0       luaM_growaux_              00000001400234a0 f   lua-5.1_x64:lmem.obj
 0001:00022640       luaX_init                  0000000140023640 f   lua-5.1_x64:llex.obj
 0001:000226b0       luaX_token2str             00000001400236b0 f   lua-5.1_x64:llex.obj
 0001:000227c0       luaX_lexerror              00000001400237c0 f   lua-5.1_x64:llex.obj
 0001:00022860       luaX_syntaxerror           0000000140023860 f   lua-5.1_x64:llex.obj
 0001:00022870       luaX_newstring             0000000140023870 f   lua-5.1_x64:llex.obj
 0001:00022990       luaX_setinput              0000000140023990 f   lua-5.1_x64:llex.obj
 0001:00023d80       luaX_mergestring           0000000140024d80 f   lua-5.1_x64:llex.obj
 0001:00023e40       luaX_next                  0000000140024e40 f   lua-5.1_x64:llex.obj
 0001:00023f40       luaX_lookahead             0000000140024f40 f   lua-5.1_x64:llex.obj
 0001:000274b0       luaY_parser                00000001400284b0 f   lua-5.1_x64:lparser.obj
 0001:00027680       luaK_getlabel              0000000140028680 f   lua-5.1_x64:lcode.obj
 0001:000278d0       luaK_concat                00000001400288d0 f   lua-5.1_x64:lcode.obj
 0001:00027930       luaK_checkstack            0000000140028930 f   lua-5.1_x64:lcode.obj
 0001:00027980       luaK_reserveregs           0000000140028980 f   lua-5.1_x64:lcode.obj
 0001:00027b10       luaK_stringK               0000000140028b10 f   lua-5.1_x64:lcode.obj
 0001:00027b40       luaK_numberK               0000000140028b40 f   lua-5.1_x64:lcode.obj
 0001:00027b70       luaK_setreturns            0000000140028b70 f   lua-5.1_x64:lcode.obj
 0001:00027c00       luaK_setoneret             0000000140028c00 f   lua-5.1_x64:lcode.obj
 0001:00027e10       luaK_fixline               0000000140028e10 f   lua-5.1_x64:lcode.obj
 0001:00027f20       luaK_codeABC               0000000140028f20 f   lua-5.1_x64:lcode.obj
 0001:00027f50       luaK_codeABx               0000000140028f50 f   lua-5.1_x64:lcode.obj
 0001:00027f70       luaK_setlist               0000000140028f70 f   lua-5.1_x64:lcode.obj
 0001:00028010       luaK_nil                   0000000140029010 f   lua-5.1_x64:lcode.obj
 0001:000280b0       luaK_jump                  00000001400290b0 f   lua-5.1_x64:lcode.obj
 0001:00028150       luaK_ret                   0000000140029150 f   lua-5.1_x64:lcode.obj
 0001:00028170       luaK_patchtohere           0000000140029170 f   lua-5.1_x64:lcode.obj
 0001:000281d0       luaK_dischargevars         00000001400291d0 f   lua-5.1_x64:lcode.obj
 0001:00028650       luaK_exp2nextreg           0000000140029650 f   lua-5.1_x64:lcode.obj
 0001:000286e0       luaK_exp2anyreg            00000001400296e0 f   lua-5.1_x64:lcode.obj
 0001:00028750       luaK_exp2val               0000000140029750 f   lua-5.1_x64:lcode.obj
 0001:000287d0       luaK_exp2RK                00000001400297d0 f   lua-5.1_x64:lcode.obj
 0001:00028910       luaK_storevar              0000000140029910 f   lua-5.1_x64:lcode.obj
 0001:00028a10       luaK_self                  0000000140029a10 f   lua-5.1_x64:lcode.obj
 0001:00028c10       luaK_goiftrue              0000000140029c10 f   lua-5.1_x64:lcode.obj
 0001:00028f30       luaK_indexed               0000000140029f30 f   lua-5.1_x64:lcode.obj
 0001:00029140       luaK_prefix                000000014002a140 f   lua-5.1_x64:lcode.obj
 0001:00029250       luaK_infix                 000000014002a250 f   lua-5.1_x64:lcode.obj
 0001:000292c0       luaK_posfix                000000014002a2c0 f   lua-5.1_x64:lcode.obj
 0001:00029550       luaK_patchlist             000000014002a550 f   lua-5.1_x64:lcode.obj
 0001:000295e0       gen_tabs                   000000014002a5e0 f   wylib_x64:aes.obj
 0001:00029900       aes_set_key                000000014002a900 f   wylib_x64:aes.obj
 0001:00029f90       aes_decrypt                000000014002af90 f   wylib_x64:aes.obj
 0001:0002af70       _AESDecrypt                000000014002bf70 f   wylib_x64:aes.obj
 0001:0002aff0       base64_decode              000000014002bff0 f   wylib_x64:base64.obj
 0001:0002b1a0       RtlVirtualUnwind           000000014002c1a0 f   kernel32:KERNEL32.dll
 0001:0002b1a6       RtlLookupFunctionEntry     000000014002c1a6 f   kernel32:KERNEL32.dll
 0001:0002b1ac       sin                        000000014002c1ac f   MSVCRT:MSVCR100.dll
 0001:0002b1b2       sinh                       000000014002c1b2 f   MSVCRT:MSVCR100.dll
 0001:0002b1b8       cos                        000000014002c1b8 f   MSVCRT:MSVCR100.dll
 0001:0002b1be       cosh                       000000014002c1be f   MSVCRT:MSVCR100.dll
 0001:0002b1c4       tan                        000000014002c1c4 f   MSVCRT:MSVCR100.dll
 0001:0002b1ca       tanh                       000000014002c1ca f   MSVCRT:MSVCR100.dll
 0001:0002b1d0       asin                       000000014002c1d0 f   MSVCRT:MSVCR100.dll
 0001:0002b1d6       acos                       000000014002c1d6 f   MSVCRT:MSVCR100.dll
 0001:0002b1dc       atan                       000000014002c1dc f   MSVCRT:MSVCR100.dll
 0001:0002b1e2       atan2                      000000014002c1e2 f   MSVCRT:MSVCR100.dll
 0001:0002b1e8       ceil                       000000014002c1e8 f   MSVCRT:MSVCR100.dll
 0001:0002b1ee       floor                      000000014002c1ee f   MSVCRT:MSVCR100.dll
 0001:0002b1f4       fmod                       000000014002c1f4 f   MSVCRT:MSVCR100.dll
 0001:0002b1fa       sqrt                       000000014002c1fa f   MSVCRT:MSVCR100.dll
 0001:0002b200       pow                        000000014002c200 f   MSVCRT:MSVCR100.dll
 0001:0002b206       log                        000000014002c206 f   MSVCRT:MSVCR100.dll
 0001:0002b20c       log10                      000000014002c20c f   MSVCRT:MSVCR100.dll
 0001:0002b212       exp                        000000014002c212 f   MSVCRT:MSVCR100.dll
 0001:0002b218       memcmp                     000000014002c218 f   MSVCRT:MSVCR100.dll
 0001:0002b21e       _setjmp                    000000014002c21e f   MSVCRT:MSVCR100.dll
 0001:0002b230       ?SendRegisteClient@CCustomJXClientSocket@@MEAAXXZ 000000014002c230 f   servercommon_x64:CustomJXClientSocket.obj
 0001:0002b2f0       ?getLocalServerIndex@CCustomJXClientSocket@@MEAAHXZ 000000014002c2f0 f   servercommon_x64:CustomJXClientSocket.obj
 0001:0002b300       ?ProcessRecvBuffers@CCustomJXClientSocket@@MEAAXPEAUtagDataBuffer@@@Z 000000014002c300 f   servercommon_x64:CustomJXClientSocket.obj
 0001:0002b5e0       ?flushProtoPacket@CCustomJXClientSocket@@QEAAXAEAVCDataPacket@@@Z 000000014002c5e0 f   servercommon_x64:CustomJXClientSocket.obj
 0001:0002b640       ?allocProtoPacket@CCustomJXClientSocket@@QEAAAEAVCDataPacket@@G@Z 000000014002c640 f   servercommon_x64:CustomJXClientSocket.obj
 0001:0002b6c0       ?SendKeepAlive@CCustomJXClientSocket@@MEAAXXZ 000000014002c6c0 f   servercommon_x64:CustomJXClientSocket.obj
 0001:0002b6f0       ?getLocalServerIndex@LogSender@@MEAAHXZ 000000014002c6f0 f   servercommon_x64:LogSender.obj
 0001:0002b710       ?getLocalServerName@LogSender@@MEAAPEBDXZ 000000014002c710 f   servercommon_x64:LogSender.obj
 0001:0002b730       ?getLocalServerType@LogSender@@MEAA?AW4tagServerType@jxSrvDef@@XZ 000000014002c730 f   servercommon_x64:LogSender.obj
 0001:0002b750       ?OnDispatchRecvPacket@LogSender@@MEAAXGAEAVCDataPacketReader@@@Z 000000014002c750 f   servercommon_x64:LogSender.obj
 0001:0002b7b0       ??0LogSender@@QEAA@W4tagServerType@jxSrvDef@@HPEAD@Z 000000014002c7b0 f   servercommon_x64:LogSender.obj
 0001:0002b880       ?OnConnected@LogSender@@MEAAXXZ 000000014002c880 f   servercommon_x64:LogSender.obj
 0001:0002b8d0       ?SendOnlineLog@LogSender@@QEAAXHH@Z 000000014002c8d0 f   servercommon_x64:LogSender.obj
 0001:0002b960       ?SendLoginLog@LogSender@@QEAAXGHPEBD00@Z 000000014002c960 f   servercommon_x64:LogSender.obj
 0001:0002bae0       ??1LogSender@@UEAA@XZ      000000014002cae0 f   servercommon_x64:LogSender.obj
 0001:0002bb50       ??1CFileLogger@@QEAA@XZ    000000014002cb50 f   servercommon_x64:FileLogger.obj
 0001:0002bba0       ?getCurrentTimeDesc@@YAPEBDXZ 000000014002cba0 f   servercommon_x64:FileLogger.obj
 0001:0002bbf0       ?OutputMsgToFileFn@@YA_JW4tagShareOutputMsgType@@PEBD_J@Z 000000014002cbf0 f   servercommon_x64:FileLogger.obj
 0001:0002bc30       ??0CFileLogger@@QEAA@PEBDZZ 000000014002cc30 f   servercommon_x64:FileLogger.obj
 0001:0002bd40       ?SetServerPort@CCustomClientSocket@@QEAAX_J@Z 000000014002cd40 f   srvlib_x64:CustomClientSocket.obj
 0001:0002bd70       ?SendKeepAlive@CCustomClientSocket@@MEAAXXZ 000000014002cd70 f   srvlib_x64:CustomClientSocket.obj
 0001:0002bd80       ?SendRegisteClient@CCustomClientSocket@@MEAAXXZ 000000014002cd80 f   srvlib_x64:CustomClientSocket.obj
 0001:0002bd90       ?OnWorkThreadStop@CCustomClientSocket@@MEAAXXZ 000000014002cd90 f   srvlib_x64:CustomClientSocket.obj
 0001:0002bda0       ?OnWorkThreadStart@CCustomClientSocket@@MEAAXXZ 000000014002cda0 f   srvlib_x64:CustomClientSocket.obj
 0001:0002bdb0       ?SetServerHost@CCustomClientSocket@@QEAAXPEBD@Z 000000014002cdb0 f   srvlib_x64:CustomClientSocket.obj
 0001:0002be00       ?CustomClientSocketWorkRoutine@CCustomClientSocket@@CAXPEAV1@@Z 000000014002ce00 f   srvlib_x64:CustomClientSocket.obj
 0001:0002c0d0       ?ConnectToServer@CCustomClientSocket@@IEAAHXZ 000000014002d0d0 f   srvlib_x64:CustomClientSocket.obj
 0001:0002c2e0       ?SetClientName@CCustomClientSocket@@IEAAXPEBD@Z 000000014002d2e0 f   srvlib_x64:CustomClientSocket.obj
 0001:0002c330       ?SocketError@CCustomClientSocket@@MEAAXH@Z 000000014002d330 f   srvlib_x64:CustomClientSocket.obj
 0001:0002c380       ?Disconnected@CCustomClientSocket@@MEAAXXZ 000000014002d380 f   srvlib_x64:CustomClientSocket.obj
 0001:0002c3c0       ?Connected@CCustomClientSocket@@MEAAXXZ 000000014002d3c0 f   srvlib_x64:CustomClientSocket.obj
 0001:0002c410       ?Startup@CCustomClientSocket@@QEAAHXZ 000000014002d410 f   srvlib_x64:CustomClientSocket.obj
 0001:0002c4d0       ?Stop@CCustomClientSocket@@QEAAXXZ 000000014002d4d0 f   srvlib_x64:CustomClientSocket.obj
 0001:0002c570       ??1CCustomClientSocket@@UEAA@XZ 000000014002d570 f   srvlib_x64:CustomClientSocket.obj
 0001:0002c5c0       ??0CCustomClientSocket@@QEAA@XZ 000000014002d5c0 f   srvlib_x64:CustomClientSocket.obj
 0001:0002c6e0       ?SingleRun@CCustomClientSocket@@MEAAXXZ 000000014002d6e0 f   srvlib_x64:CustomClientSocket.obj
 0001:0002c7c0       ?DecryptPassword@@YAPEBDPEADHPEBD1@Z 000000014002d7c0 f   srvlib_x64:EDPass.obj
 0001:0002c910       ?Stop@CCustomServerSocket@@QEAAXXZ 000000014002d910 f   srvlib_x64:CustomServerSocket.obj
 0001:0002ca10       ?SetServicePort@CCustomServerSocket@@QEAAX_J@Z 000000014002da10 f   srvlib_x64:CustomServerSocket.obj
 0001:0002ca40       ?DestroyClientSocket@CCustomServerSocket@@MEAAXPEAVCCustomServerClientSocket@@@Z 000000014002da40 f   srvlib_x64:CustomServerSocket.obj
 0001:0002caa0       ?OnSocketDataThreadStop@CCustomServerSocket@@MEAAXXZ 000000014002daa0 f   srvlib_x64:CustomServerSocket.obj
 0001:0002cab0       ?OnSocketDataThreadStart@CCustomServerSocket@@MEAAXXZ 000000014002dab0 f   srvlib_x64:CustomServerSocket.obj
 0001:0002cac0       ?DoStop@CCustomServerSocket@@MEAAXXZ 000000014002dac0 f   srvlib_x64:CustomServerSocket.obj
 0001:0002cad0       ?DoStartup@CCustomServerSocket@@MEAAHXZ 000000014002dad0 f   srvlib_x64:CustomServerSocket.obj
 0001:0002caf0       ?OnClientConnect@CCustomServerSocket@@MEAAXPEAVCCustomServerClientSocket@@@Z 000000014002daf0 f   srvlib_x64:CustomServerSocket.obj
 0001:0002cb10       ?SetServiceHost@CCustomServerSocket@@QEAAXPEBD@Z 000000014002db10 f   srvlib_x64:CustomServerSocket.obj
 0001:0002cb60       ?SetServiceName@CCustomServerSocket@@QEAAXPEBD@Z 000000014002db60 f   srvlib_x64:CustomServerSocket.obj
 0001:0002cbb0       ?CloseAllClients@CCustomServerSocket@@MEAAXXZ 000000014002dbb0 f   srvlib_x64:CustomServerSocket.obj
 0001:0002cc90       ?ProcessClients@CCustomServerSocket@@MEAAXXZ 000000014002dc90 f   srvlib_x64:CustomServerSocket.obj
 0001:0002cd90       ?ServerSocketDataThreadRoutine@CCustomServerSocket@@CAXPEAV1@@Z 000000014002dd90 f   srvlib_x64:CustomServerSocket.obj
 0001:0002d0a0       ?ServerSocketAcceptThreadRoutine@CCustomServerSocket@@CAXPEAV1@@Z 000000014002e0a0 f   srvlib_x64:CustomServerSocket.obj
 0001:0002d2d0       ?Startup@CCustomServerSocket@@QEAAHXZ 000000014002e2d0 f   srvlib_x64:CustomServerSocket.obj
 0001:0002d570       ?SingleRun@CCustomServerSocket@@MEAAXXZ 000000014002e570 f   srvlib_x64:CustomServerSocket.obj
 0001:0002d5c0       ??1CCustomServerSocket@@UEAA@XZ 000000014002e5c0 f   srvlib_x64:CustomServerSocket.obj
 0001:0002d630       ??0CCustomServerSocket@@QEAA@XZ 000000014002e630 f   srvlib_x64:CustomServerSocket.obj
 0001:0002d750       ?ResetQuery@CSQLConenction@@QEAAXXZ 000000014002e750 f   srvlib_x64:SQL.obj
 0001:0002d810       ?Disconnect@CSQLConenction@@QEAAXXZ 000000014002e810 f   srvlib_x64:SQL.obj
 0001:0002d860       ?SetMultiThread@CSQLConenction@@QEAAXH@Z 000000014002e860 f   srvlib_x64:SQL.obj
 0001:0002d880       ?SetConnectionFlags@CSQLConenction@@QEAAX_K@Z 000000014002e880 f   srvlib_x64:SQL.obj
 0001:0002d8b0       ?SetPassWord@CSQLConenction@@QEAAXPEBD@Z 000000014002e8b0 f   srvlib_x64:SQL.obj
 0001:0002d910       ?SetUserName@CSQLConenction@@QEAAXPEBD@Z 000000014002e910 f   srvlib_x64:SQL.obj
 0001:0002d970       ?SetDataBaseName@CSQLConenction@@QEAAXPEBD@Z 000000014002e970 f   srvlib_x64:SQL.obj
 0001:0002d9d0       ?SetServerPort@CSQLConenction@@QEAAX_J@Z 000000014002e9d0 f   srvlib_x64:SQL.obj
 0001:0002da00       ?SetServerHost@CSQLConenction@@QEAAXPEBD@Z 000000014002ea00 f   srvlib_x64:SQL.obj
 0001:0002da60       ??1CSQLConenction@@QEAA@XZ 000000014002ea60 f   srvlib_x64:SQL.obj
 0001:0002daa0       ??0CSQLConenction@@QEAA@XZ 000000014002eaa0 f   srvlib_x64:SQL.obj
 0001:0002dbb0       ?AfterExeced@CSQLConenction@@AEAAXH@Z 000000014002ebb0 f   srvlib_x64:SQL.obj
 0001:0002dca0       ?AfterQueryed@CSQLConenction@@AEAAXH@Z 000000014002eca0 f   srvlib_x64:SQL.obj
 0001:0002de90       ?Connect@CSQLConenction@@QEAAHXZ 000000014002ee90 f   srvlib_x64:SQL.obj
 0001:0002dfd0       ?Exec@CSQLConenction@@QEAAHPEBDZZ 000000014002efd0 f   srvlib_x64:SQL.obj
 0001:0002e080       ?RealQuery@CSQLConenction@@QEAAHPEBD_K@Z 000000014002f080 f   srvlib_x64:SQL.obj
 0001:0002e0f0       ?Query@CSQLConenction@@QEAAHPEBDZZ 000000014002f0f0 f   srvlib_x64:SQL.obj
 0001:0002e1a0       ?SendKeepAlive@CCustomServerClientSocket@@MEAAXXZ 000000014002f1a0 f   srvlib_x64:CustomServerClientSocket.obj
 0001:0002e1b0       ?SetClientSocket@CCustomServerClientSocket@@IEAAX_KPEAUsockaddr_in@@@Z 000000014002f1b0 f   srvlib_x64:CustomServerClientSocket.obj
 0001:0002e320       ??1CCustomServerClientSocket@@UEAA@XZ 000000014002f320 f   srvlib_x64:CustomServerClientSocket.obj
 0001:0002e360       ??0CCustomServerClientSocket@@QEAA@XZ 000000014002f360 f   srvlib_x64:CustomServerClientSocket.obj
 0001:0002e3e0       ?SingleRun@CCustomServerClientSocket@@MEAAXXZ 000000014002f3e0 f   srvlib_x64:CustomServerClientSocket.obj
 0001:0002e440       ?CheckFreeBuffers@CBufferAllocator@@QEAAX_N@Z 000000014002f440 f   srvlib_x64:BufferAllocator.obj
 0001:0002e790       ?GetMemoryInfo@CBufferAllocator@@QEAAXPEAUtagAllocatorMemoryInfo@1@@Z 000000014002f790 f   srvlib_x64:BufferAllocator.obj
 0001:0002e840       ?FreeBuffer@CBufferAllocator@@QEAAXPEAX@Z 000000014002f840 f   srvlib_x64:BufferAllocator.obj
 0001:0002ea20       ?AllocBuffer@CBufferAllocator@@QEAAPEAX_K@Z 000000014002fa20 f   srvlib_x64:BufferAllocator.obj
 0001:0002edf0       ??1CBufferAllocator@@QEAA@XZ 000000014002fdf0 f   srvlib_x64:BufferAllocator.obj
 0001:0002ef00       ??0CBufferAllocator@@QEAA@XZ 000000014002ff00 f   srvlib_x64:BufferAllocator.obj
 0001:0002efc0       ?PostInternalMessage@CCustomWorkSocket@@QEAAXI_K000@Z 000000014002ffc0 f   srvlib_x64:CustomWorkSocket.obj
 0001:0002f060       ?OnRun@CCustomWorkSocket@@MEAAXXZ 0000000140030060 f   srvlib_x64:CustomWorkSocket.obj
 0001:0002f070       ?SwapRecvProcessBuffers@CCustomWorkSocket@@IEAAXXZ 0000000140030070 f   srvlib_x64:CustomWorkSocket.obj
 0001:0002f3f0       ?Disconnected@CCustomWorkSocket@@MEAAXXZ 00000001400303f0 f   srvlib_x64:CustomWorkSocket.obj
 0001:0002f480       ?DispatchInternalMessage@CCustomWorkSocket@@MEAAXI_K000@Z 0000000140030480 f   srvlib_x64:CustomWorkSocket.obj
 0001:0002f4a0       ?ProcessRecvBuffers@CCustomWorkSocket@@MEAAXPEAUtagDataBuffer@@@Z 00000001400304a0 f   srvlib_x64:CustomWorkSocket.obj
 0001:0002f4d0       ?ReadSocket@CCustomWorkSocket@@IEAAXXZ 00000001400304d0 f   srvlib_x64:CustomWorkSocket.obj
 0001:0002f680       ?ProcessInternalMessages@CCustomWorkSocket@@IEAAXXZ 0000000140030680 f   srvlib_x64:CustomWorkSocket.obj
 0001:0002f780       ?ClearSendBuffers@CCustomWorkSocket@@IEAAXXZ 0000000140030780 f   srvlib_x64:CustomWorkSocket.obj
 0001:0002f7b0       ??1CCustomWorkSocket@@UEAA@XZ 00000001400307b0 f   srvlib_x64:CustomWorkSocket.obj
 0001:0002f900       ??0CCustomWorkSocket@@QEAA@XZ 0000000140030900 f   srvlib_x64:CustomWorkSocket.obj
 0001:0002fa20       ?SendSocketBuffers@CCustomWorkSocket@@IEAAXXZ 0000000140030a20 f   srvlib_x64:CustomWorkSocket.obj
 0001:0002fa60       ?SingleRun@CCustomWorkSocket@@MEAAXXZ 0000000140030a60 f   srvlib_x64:CustomWorkSocket.obj
 0001:0002fb10       ?AppendSendBuffer@CCustomWorkSocket@@IEAAXPEBX_K@Z 0000000140030b10 f   srvlib_x64:CustomWorkSocket.obj
 0001:0002fb70       ?StrToInt64@@YA_JPEBD@Z    0000000140030b70 f   srvlib_x64:ShareUtil.obj
 0001:0002fbb0       ?StrToInt@@YAHPEBD@Z       0000000140030bb0 f   srvlib_x64:ShareUtil.obj
 0001:0002fbf0       ?GetSysErrorMessage@@YAPEBD_JPEAD_KPEA_K@Z 0000000140030bf0 f   srvlib_x64:ShareUtil.obj
 0001:0002fd40       ?DefaultUnHandleExceptionFilter@@YAJPEAU_EXCEPTION_POINTERS@@@Z 0000000140030d40 f   srvlib_x64:ShareUtil.obj
 0001:0002ff30       ?SetOutputMsgFn@@YAP6A_JW4tagShareOutputMsgType@@PEBD_J@ZP6A_J012@Z@Z 0000000140030f30 f   srvlib_x64:ShareUtil.obj
 0001:0002ff80       ?UninitDefMsgOut@@YAXXZ    0000000140030f80 f   srvlib_x64:ShareUtil.obj
 0001:0002ffa0       ?OutputError@@YA_J_JPEBDZZ 0000000140030fa0 f   srvlib_x64:ShareUtil.obj
 0001:00030140       ?OutputMsg@@YA_JW4tagShareOutputMsgType@@PEBDZZ 0000000140031140 f   srvlib_x64:ShareUtil.obj
 0001:000301f0       ?StdDefOutputMsg@@YA_JW4tagShareOutputMsgType@@PEBD_J@Z 00000001400311f0 f   srvlib_x64:ShareUtil.obj
 0001:00030330       ?InitDefMsgOut@@YAXXZ      0000000140031330 f   srvlib_x64:ShareUtil.obj
 0001:00030380       ?showErrorFormat@CCustomLuaScript@@IEAAXPEBDZZ 0000000140031380 f   srvlib_x64:CustomLuaScript.obj
 0001:00030400       ?callFinal@CCustomLuaScript@@MEAA_NXZ 0000000140031400 f   srvlib_x64:CustomLuaScript.obj
 0001:00030410       ?callInit@CCustomLuaScript@@MEAA_NXZ 0000000140031410 f   srvlib_x64:CustomLuaScript.obj
 0001:00030420       ?registLocalLibs@CCustomLuaScript@@MEAA_NXZ 0000000140031420 f   srvlib_x64:CustomLuaScript.obj
 0001:00030430       ?createLuaVM@CCustomLuaScript@@MEAAPEAUlua_State@@XZ 0000000140031430 f   srvlib_x64:CustomLuaScript.obj
 0001:00030450       ?openBaseLibs@CCustomLuaScript@@MEAA_NXZ 0000000140031450 f   srvlib_x64:CustomLuaScript.obj
 0001:00030530       ??0CCustomLuaScript@@QEAA@XZ 0000000140031530 f   srvlib_x64:CustomLuaScript.obj
 0001:00030590       ?pcall@CCustomLuaScript@@IEAA_NHHH@Z 0000000140031590 f   srvlib_x64:CustomLuaScript.obj
 0001:00030670       ?StreamWriter@CCustomLuaScript@@KAHPEAUlua_State@@PEBX_KPEAX@Z 0000000140031670 f   srvlib_x64:CustomLuaScript.obj
 0001:000306d0       ?setScript@CCustomLuaScript@@QEAA_NPEBD@Z 00000001400316d0 f   srvlib_x64:CustomLuaScript.obj
 0001:00030820       ??1CCustomLuaScript@@UEAA@XZ 0000000140031820 f   srvlib_x64:CustomLuaScript.obj
 0001:00030870       ?showError@CCustomLuaScript@@MEAAXPEBD@Z 0000000140031870 f   srvlib_x64:CustomLuaScript.obj
 0001:000308b0       ?closeTable@CCustomLuaConfig@@IEAAXXZ 00000001400318b0 f   srvlib_x64:CustomLuaConfig.obj
 0001:00030950       ?createTableName@CCustomLuaConfig@@KAPEAV?$CRefObjectImpl@VCAnsiString@string@wylib@@@misc@wylib@@PEBD@Z 0000000140031950 f   srvlib_x64:CustomLuaConfig.obj
 0001:000309d0       ??1CCustomLuaConfig@@UEAA@XZ 00000001400319d0 f   srvlib_x64:CustomLuaConfig.obj
 0001:00030a90       ??0CCustomLuaConfig@@QEAA@XZ 0000000140031a90 f   srvlib_x64:CustomLuaConfig.obj
 0001:00030ae0       ?getTablePath@CCustomLuaConfig@@IEAAAEAVCAnsiString@string@wylib@@AEAV234@@Z 0000000140031ae0 f   srvlib_x64:CustomLuaConfig.obj
 0001:00030bd0       ?showFieldDoesNotContainValue@CCustomLuaConfig@@IEAAXPEBD0@Z 0000000140031bd0 f   srvlib_x64:CustomLuaConfig.obj
 0001:00030ca0       ?showTableNotExists@CCustomLuaConfig@@IEAAXPEBD@Z 0000000140031ca0 f   srvlib_x64:CustomLuaConfig.obj
 0001:00030d50       ?showError@CCustomLuaConfig@@MEAAXPEBD@Z 0000000140031d50 f   srvlib_x64:CustomLuaConfig.obj
 0001:00030dd0       ?getFieldString@CCustomLuaConfig@@IEAAPEBDPEBD0PEAH@Z 0000000140031dd0 f   srvlib_x64:CustomLuaConfig.obj
 0001:00030ec0       ?getFieldNumber@CCustomLuaConfig@@IEAANPEBDPEBNPEAH@Z 0000000140031ec0 f   srvlib_x64:CustomLuaConfig.obj
 0001:00030fb0       ?getFieldBoolean@CCustomLuaConfig@@IEAA_NPEBDPEB_NPEAH@Z 0000000140031fb0 f   srvlib_x64:CustomLuaConfig.obj
 0001:000310d0       ?openFieldTable@CCustomLuaConfig@@IEAA_NPEBD@Z 00000001400320d0 f   srvlib_x64:CustomLuaConfig.obj
 0001:00031190       ?openGlobalTable@CCustomLuaConfig@@IEAA_NPEBD@Z 0000000140032190 f   srvlib_x64:CustomLuaConfig.obj
 0001:00031250       ?getFieldInt@CCustomLuaConfig@@IEAAHPEBDQEAHPEAH@Z 0000000140032250 f   srvlib_x64:CustomLuaConfig.obj
 0001:000312d0       ?UninstallService@CWinService@@QEAAHXZ 00000001400322d0 f   srvlib_x64:WinService.obj
 0001:000313a0       ?StopService@CWinService@@QEAAHXZ 00000001400323a0 f   srvlib_x64:WinService.obj
 0001:00031450       ?StartServiceA@CWinService@@QEAAHXZ 0000000140032450 f   srvlib_x64:WinService.obj
 0001:00031510       ?ServiceInstalled@CWinService@@IEAAHXZ 0000000140032510 f   srvlib_x64:WinService.obj
 0001:000315f0       ?SetStatus@CWinService@@IEAAHKKK@Z 00000001400325f0 f   srvlib_x64:WinService.obj
 0001:000316a0       ??1CWinService@@UEAA@XZ    00000001400326a0 f   srvlib_x64:WinService.obj
 0001:000316c0       ??0CWinService@@QEAA@PEBDK@Z 00000001400326c0 f   srvlib_x64:WinService.obj
 0001:00031870       ?ServiceControl@CWinService@@SAXK@Z 0000000140032870 f   srvlib_x64:WinService.obj
 0001:00031910       ?InstallService@CWinService@@QEAAHXZ 0000000140032910 f   srvlib_x64:WinService.obj
 0001:00031a50       ?ServiceMain@CWinService@@SAXKPEAPEAD@Z 0000000140032a50 f   srvlib_x64:WinService.obj
 0001:00031b30       ?Run@CWinService@@QEAAXPEAD@Z 0000000140032b30 f   srvlib_x64:WinService.obj
 0001:00031f00       ?InstallThreadLocalePath@@YAHPEBD@Z 0000000140032f00 f   srvlib_x64:PathThreadLocale.obj
 0001:00031f70       ?formatTimeStr@CTimeProfMgr@@IEAAXPEAD_KPEAUtm@@@Z 0000000140032f70 f   srvlib_x64:TimeStat.obj
 0001:00031fc0       ?setName@CTimeProfRecord@@QEAAXPEBD@Z 0000000140032fc0 f   srvlib_x64:TimeStat.obj
 0001:00032030       ?getCurrentTm@CTimeProfMgr@@IEAAXAEAUtm@@@Z 0000000140033030 f   srvlib_x64:TimeStat.obj
 0001:000320a0       ?dump@CTimeProfRecord@@QEAAXAEAVCBaseStream@stream@wylib@@H@Z 00000001400330a0 f   srvlib_x64:TimeStat.obj
 0001:000323d0       ?dumpDateTimeHeader@CTimeProfMgr@@IEAAXAEAVCBaseStream@stream@wylib@@@Z 00000001400333d0 f   srvlib_x64:TimeStat.obj
 0001:00032630       ?dumpImpl@CTimeProfMgr@@IEAAXAEAVCBaseStream@stream@wylib@@@Z 0000000140033630 f   srvlib_x64:TimeStat.obj
 0001:000326b0       ?dump@CTimeProfMgr@@QEAAXXZ 00000001400336b0 f   srvlib_x64:TimeStat.obj
 0001:00032880       ??0CTimeProfRecord@@QEAA@PEBDI@Z 0000000140033880 f   srvlib_x64:TimeStat.obj
 0001:000328c0       ??0CTimeProfMgr@@QEAA@XZ   00000001400338c0 f   srvlib_x64:TimeStat.obj
 0001:00032a00       ?clear@CTimeProfRecord@@QEAAXXZ 0000000140033a00 f   srvlib_x64:TimeStat.obj
 0001:00032ac0       ??1CTimeProfRecord@@QEAA@XZ 0000000140033ac0 f   srvlib_x64:TimeStat.obj
 0001:00032b10       ??1CTimeProfDummy@@QEAA@XZ 0000000140033b10 f   srvlib_x64:TimeStat.obj
 0001:00032ba0       ??0CTimeProfDummy@@QEAA@PEBDI@Z 0000000140033ba0 f   srvlib_x64:TimeStat.obj
 0001:00032c80       ??1CTimeProfMgr@@QEAA@XZ   0000000140033c80 f   srvlib_x64:TimeStat.obj
 0001:00032d00       ?Disconnected@CCustomJXServerClientSocket@@MEAAXXZ 0000000140033d00 f   servercommon_x64:CustomJXServerClientSocket.obj
 0001:00032d60       ?ProcessRecvBuffers@CCustomJXServerClientSocket@@MEAAXPEAUtagDataBuffer@@@Z 0000000140033d60 f   servercommon_x64:CustomJXServerClientSocket.obj
 0001:000331f0       ?flushProtoPacket@CCustomJXServerClientSocket@@QEAAXAEAVCDataPacket@@@Z 00000001400341f0 f   servercommon_x64:CustomJXServerClientSocket.obj
 0001:00033290       ??0CCustomJXServerClientSocket@@QEAA@XZ 0000000140034290 f   servercommon_x64:CustomJXServerClientSocket.obj
 0001:00033300       ?allocProtoPacket@CCustomJXServerClientSocket@@QEAAAEAVCDataPacket@@G@Z 0000000140034300 f   servercommon_x64:CustomJXServerClientSocket.obj
 0001:00033380       ?SendKeepAlive@CCustomJXServerClientSocket@@MEAAXXZ 0000000140034380 f   servercommon_x64:CustomJXServerClientSocket.obj
 0001:000333b0       ??0CSendPacketPool@@QEAA@XZ 00000001400343b0 f   srvlib_x64:SendPackPool.obj
 0001:000334b0       ?clearSendList@CSendPacketPool@@QEAAXXZ 00000001400344b0 f   srvlib_x64:SendPackPool.obj
 0001:000335f0       ?FreeAllPackets@CSendPacketPool@@AEAAXXZ 00000001400345f0 f   srvlib_x64:SendPackPool.obj
 0001:00033770       ??1CSendPacketPool@@QEAA@XZ 0000000140034770 f   srvlib_x64:SendPackPool.obj
 0001:00033820       ?sendToSocket@CSendPacketPool@@QEAA_KAEAVCCustomSocket@socket@inet@wylib@@@Z 0000000140034820 f   srvlib_x64:SendPackPool.obj
 0001:00033a30       ?allocSendPacketList@CSendPacketPool@@QEAAXAEAV?$CBaseList@PEAVCDataPacket@@@container@wylib@@_JPEAPEAVCDataPacket@@@Z 0000000140034a30 f   srvlib_x64:SendPackPool.obj
 0001:00033e9c       __GSHandlerCheckCommon     0000000140034e9c f   MSVCRT:gshandler.obj
 0001:00033f00       __GSHandlerCheck           0000000140034f00 f   MSVCRT:gshandler.obj
 0001:00035230       ??__Fmgr@?1??getSingleton@CTimeProfMgr@@SAAEAV1@XZ@YAXXZ 0000000140036230 f i srvlib_x64:TimeStat.obj
 0002:00000000       __imp_ControlService       0000000140037000     advapi32:ADVAPI32.dll
 0002:00000008       __imp_OpenSCManagerA       0000000140037008     advapi32:ADVAPI32.dll
 0002:00000010       __imp_SetServiceStatus     0000000140037010     advapi32:ADVAPI32.dll
 0002:00000018       __imp_OpenServiceA         0000000140037018     advapi32:ADVAPI32.dll
 0002:00000020       __imp_CloseServiceHandle   0000000140037020     advapi32:ADVAPI32.dll
 0002:00000028       __imp_StartServiceCtrlDispatcherA 0000000140037028     advapi32:ADVAPI32.dll
 0002:00000030       __imp_DeleteService        0000000140037030     advapi32:ADVAPI32.dll
 0002:00000038       __imp_RegisterServiceCtrlHandlerA 0000000140037038     advapi32:ADVAPI32.dll
 0002:00000040       __imp_CreateServiceA       0000000140037040     advapi32:ADVAPI32.dll
 0002:00000048       __imp_StartServiceA        0000000140037048     advapi32:ADVAPI32.dll
 0002:00000050       __imp_QueryServiceStatus   0000000140037050     advapi32:ADVAPI32.dll
 0002:00000058       \177ADVAPI32_NULL_THUNK_DATA 0000000140037058     advapi32:ADVAPI32.dll
 0002:00000060       __imp_InitCommonControlsEx 0000000140037060     comctl32:COMCTL32.dll
 0002:00000068       __imp_InitCommonControls   0000000140037068     comctl32:COMCTL32.dll
 0002:00000070       \177COMCTL32_NULL_THUNK_DATA 0000000140037070     comctl32:COMCTL32.dll
 0002:00000078       __imp_CreateFontA          0000000140037078     gdi32:GDI32.dll
 0002:00000080       __imp_DeleteObject         0000000140037080     gdi32:GDI32.dll
 0002:00000088       __imp_TextOutA             0000000140037088     gdi32:GDI32.dll
 0002:00000090       __imp_SelectObject         0000000140037090     gdi32:GDI32.dll
 0002:00000098       __imp_GetStockObject       0000000140037098     gdi32:GDI32.dll
 0002:000000a0       \177GDI32_NULL_THUNK_DATA  00000001400370a0     gdi32:GDI32.dll
 0002:000000a8       __imp_ResumeThread         00000001400370a8     kernel32:KERNEL32.dll
 0002:000000b0       __imp_WaitForSingleObjectEx 00000001400370b0     kernel32:KERNEL32.dll
 0002:000000b8       __imp_CreateThread         00000001400370b8     kernel32:KERNEL32.dll
 0002:000000c0       __imp_VirtualAlloc         00000001400370c0     kernel32:KERNEL32.dll
 0002:000000c8       __imp_DebugBreak           00000001400370c8     kernel32:KERNEL32.dll
 0002:000000d0       __imp_OutputDebugStringA   00000001400370d0     kernel32:KERNEL32.dll
 0002:000000d8       __imp_IsDebuggerPresent    00000001400370d8     kernel32:KERNEL32.dll
 0002:000000e0       __imp_DeleteCriticalSection 00000001400370e0     kernel32:KERNEL32.dll
 0002:000000e8       __imp_EnterCriticalSection 00000001400370e8     kernel32:KERNEL32.dll
 0002:000000f0       __imp_TryEnterCriticalSection 00000001400370f0     kernel32:KERNEL32.dll
 0002:000000f8       __imp_LeaveCriticalSection 00000001400370f8     kernel32:KERNEL32.dll
 0002:00000100       __imp_GetCurrentThreadId   0000000140037100     kernel32:KERNEL32.dll
 0002:00000108       __imp_InitializeCriticalSection 0000000140037108     kernel32:KERNEL32.dll
 0002:00000110       __imp_TlsGetValue          0000000140037110     kernel32:KERNEL32.dll
 0002:00000118       __imp_TlsSetValue          0000000140037118     kernel32:KERNEL32.dll
 0002:00000120       __imp_GetLocalTime         0000000140037120     kernel32:KERNEL32.dll
 0002:00000128       __imp_VirtualQuery         0000000140037128     kernel32:KERNEL32.dll
 0002:00000130       __imp_GetLastError         0000000140037130     kernel32:KERNEL32.dll
 0002:00000138       __imp_VirtualProtect       0000000140037138     kernel32:KERNEL32.dll
 0002:00000140       __imp_GetModuleFileNameA   0000000140037140     kernel32:KERNEL32.dll
 0002:00000148       __imp_GetCurrentProcess    0000000140037148     kernel32:KERNEL32.dll
 0002:00000150       __imp_FormatMessageA       0000000140037150     kernel32:KERNEL32.dll
 0002:00000158       __imp_GetACP               0000000140037158     kernel32:KERNEL32.dll
 0002:00000160       __imp_GetCurrentProcessId  0000000140037160     kernel32:KERNEL32.dll
 0002:00000168       __imp_WaitForSingleObject  0000000140037168     kernel32:KERNEL32.dll
 0002:00000170       __imp_WideCharToMultiByte  0000000140037170     kernel32:KERNEL32.dll
 0002:00000178       __imp_MultiByteToWideChar  0000000140037178     kernel32:KERNEL32.dll
 0002:00000180       __imp_TerminateProcess     0000000140037180     kernel32:KERNEL32.dll
 0002:00000188       __imp_GetSystemTimeAsFileTime 0000000140037188     kernel32:KERNEL32.dll
 0002:00000190       __imp_GetTickCount         0000000140037190     kernel32:KERNEL32.dll
 0002:00000198       __imp_QueryPerformanceCounter 0000000140037198     kernel32:KERNEL32.dll
 0002:000001a0       __imp_DecodePointer        00000001400371a0     kernel32:KERNEL32.dll
 0002:000001a8       __imp_EncodePointer        00000001400371a8     kernel32:KERNEL32.dll
 0002:000001b0       __imp_GetModuleHandleA     00000001400371b0     kernel32:KERNEL32.dll
 0002:000001b8       __imp_SetUnhandledExceptionFilter 00000001400371b8     kernel32:KERNEL32.dll
 0002:000001c0       __imp_SetCurrentDirectoryA 00000001400371c0     kernel32:KERNEL32.dll
 0002:000001c8       __imp_Sleep                00000001400371c8     kernel32:KERNEL32.dll
 0002:000001d0       __imp_TlsAlloc             00000001400371d0     kernel32:KERNEL32.dll
 0002:000001d8       __imp_UnhandledExceptionFilter 00000001400371d8     kernel32:KERNEL32.dll
 0002:000001e0       __imp_RtlVirtualUnwind     00000001400371e0     kernel32:KERNEL32.dll
 0002:000001e8       __imp_RtlLookupFunctionEntry 00000001400371e8     kernel32:KERNEL32.dll
 0002:000001f0       __imp_ExitThread           00000001400371f0     kernel32:KERNEL32.dll
 0002:000001f8       __imp_WriteFile            00000001400371f8     kernel32:KERNEL32.dll
 0002:00000200       __imp_ReadFile             0000000140037200     kernel32:KERNEL32.dll
 0002:00000208       __imp_SetFilePointerEx     0000000140037208     kernel32:KERNEL32.dll
 0002:00000210       __imp_SetEndOfFile         0000000140037210     kernel32:KERNEL32.dll
 0002:00000218       __imp_CreateFileA          0000000140037218     kernel32:KERNEL32.dll
 0002:00000220       __imp_CloseHandle          0000000140037220     kernel32:KERNEL32.dll
 0002:00000228       __imp_ExitProcess          0000000140037228     kernel32:KERNEL32.dll
 0002:00000230       __imp_SetConsoleTitleA     0000000140037230     kernel32:KERNEL32.dll
 0002:00000238       __imp_TlsFree              0000000140037238     kernel32:KERNEL32.dll
 0002:00000240       __imp_RtlCaptureContext    0000000140037240     kernel32:KERNEL32.dll
 0002:00000248       \177KERNEL32_NULL_THUNK_DATA 0000000140037248     kernel32:KERNEL32.dll
 0002:00000250       __imp_mysql_close          0000000140037250     libmysql:LIBMYSQL.dll
 0002:00000258       __imp_mysql_error          0000000140037258     libmysql:LIBMYSQL.dll
 0002:00000260       __imp_mysql_real_query     0000000140037260     libmysql:LIBMYSQL.dll
 0002:00000268       __imp_mysql_data_seek      0000000140037268     libmysql:LIBMYSQL.dll
 0002:00000270       __imp_mysql_real_connect   0000000140037270     libmysql:LIBMYSQL.dll
 0002:00000278       __imp_mysql_store_result   0000000140037278     libmysql:LIBMYSQL.dll
 0002:00000280       __imp_mysql_num_fields     0000000140037280     libmysql:LIBMYSQL.dll
 0002:00000288       __imp_mysql_free_result    0000000140037288     libmysql:LIBMYSQL.dll
 0002:00000290       __imp_mysql_init           0000000140037290     libmysql:LIBMYSQL.dll
 0002:00000298       __imp_mysql_field_seek     0000000140037298     libmysql:LIBMYSQL.dll
 0002:000002a0       __imp_mysql_affected_rows  00000001400372a0     libmysql:LIBMYSQL.dll
 0002:000002a8       __imp_mysql_num_rows       00000001400372a8     libmysql:LIBMYSQL.dll
 0002:000002b0       __imp_mysql_next_result    00000001400372b0     libmysql:LIBMYSQL.dll
 0002:000002b8       __imp_mysql_options        00000001400372b8     libmysql:LIBMYSQL.dll
 0002:000002c0       __imp_mysql_fetch_row      00000001400372c0     libmysql:LIBMYSQL.dll
 0002:000002c8       \177LIBMYSQL_NULL_THUNK_DATA 00000001400372c8     libmysql:LIBMYSQL.dll
 0002:000002d0       __imp_ldexp                00000001400372d0     MSVCRT:MSVCR100.dll
 0002:000002d8       __imp__mbsnicmp            00000001400372d8     MSVCRT:MSVCR100.dll
 0002:000002e0       __imp__localtime64         00000001400372e0     MSVCRT:MSVCR100.dll
 0002:000002e8       __imp__time64              00000001400372e8     MSVCRT:MSVCR100.dll
 0002:000002f0       __imp___CxxFrameHandler3   00000001400372f0     MSVCRT:MSVCR100.dll
 0002:000002f8       __imp_strftime             00000001400372f8     MSVCRT:MSVCR100.dll
 0002:00000300       __imp_sprintf              0000000140037300     MSVCRT:MSVCR100.dll
 0002:00000308       __imp_memset               0000000140037308     MSVCRT:MSVCR100.dll
 0002:00000310       __imp_rand                 0000000140037310     MSVCRT:MSVCR100.dll
 0002:00000318       __imp_??3@YAXPEAX@Z        0000000140037318     MSVCRT:MSVCR100.dll
 0002:00000320       __imp_??2@YAPEAX_K@Z       0000000140037320     MSVCRT:MSVCR100.dll
 0002:00000328       __imp_system               0000000140037328     MSVCRT:MSVCR100.dll
 0002:00000330       __imp_gets                 0000000140037330     MSVCRT:MSVCR100.dll
 0002:00000338       __imp_getc                 0000000140037338     MSVCRT:MSVCR100.dll
 0002:00000340       __imp___iob_func           0000000140037340     MSVCRT:MSVCR100.dll
 0002:00000348       __imp_memcpy               0000000140037348     MSVCRT:MSVCR100.dll
 0002:00000350       __imp_realloc              0000000140037350     MSVCRT:MSVCR100.dll
 0002:00000358       __imp_strncpy              0000000140037358     MSVCRT:MSVCR100.dll
 0002:00000360       __imp_free                 0000000140037360     MSVCRT:MSVCR100.dll
 0002:00000368       __imp__mbsstr              0000000140037368     MSVCRT:MSVCR100.dll
 0002:00000370       __imp_sscanf               0000000140037370     MSVCRT:MSVCR100.dll
 0002:00000378       __imp_atoi                 0000000140037378     MSVCRT:MSVCR100.dll
 0002:00000380       __imp__stricmp             0000000140037380     MSVCRT:MSVCR100.dll
 0002:00000388       __imp__CxxThrowException   0000000140037388     MSVCRT:MSVCR100.dll
 0002:00000390       __imp__mbsnbcpy            0000000140037390     MSVCRT:MSVCR100.dll
 0002:00000398       __imp__purecall            0000000140037398     MSVCRT:MSVCR100.dll
 0002:000003a0       __imp_malloc               00000001400373a0     MSVCRT:MSVCR100.dll
 0002:000003a8       __imp_strlen               00000001400373a8     MSVCRT:MSVCR100.dll
 0002:000003b0       __imp_vsprintf_s           00000001400373b0     MSVCRT:MSVCR100.dll
 0002:000003b8       __imp_strcpy_s             00000001400373b8     MSVCRT:MSVCR100.dll
 0002:000003c0       __imp_setlocale            00000001400373c0     MSVCRT:MSVCR100.dll
 0002:000003c8       __imp_strcpy               00000001400373c8     MSVCRT:MSVCR100.dll
 0002:000003d0       __imp_printf               00000001400373d0     MSVCRT:MSVCR100.dll
 0002:000003d8       __imp__vsnprintf           00000001400373d8     MSVCRT:MSVCR100.dll
 0002:000003e0       __imp__snprintf            00000001400373e0     MSVCRT:MSVCR100.dll
 0002:000003e8       __imp_strcat               00000001400373e8     MSVCRT:MSVCR100.dll
 0002:000003f0       __imp_vsprintf             00000001400373f0     MSVCRT:MSVCR100.dll
 0002:000003f8       __imp_strchr               00000001400373f8     MSVCRT:MSVCR100.dll
 0002:00000400       __imp_??_V@YAXPEAX@Z       0000000140037400     MSVCRT:MSVCR100.dll
 0002:00000408       __imp___C_specific_handler 0000000140037408     MSVCRT:MSVCR100.dll
 0002:00000410       __imp__unlock              0000000140037410     MSVCRT:MSVCR100.dll
 0002:00000418       __imp___dllonexit          0000000140037418     MSVCRT:MSVCR100.dll
 0002:00000420       __imp__lock                0000000140037420     MSVCRT:MSVCR100.dll
 0002:00000428       __imp__onexit              0000000140037428     MSVCRT:MSVCR100.dll
 0002:00000430       __imp__amsg_exit           0000000140037430     MSVCRT:MSVCR100.dll
 0002:00000438       __imp___getmainargs        0000000140037438     MSVCRT:MSVCR100.dll
 0002:00000440       __imp__XcptFilter          0000000140037440     MSVCRT:MSVCR100.dll
 0002:00000448       __imp__exit                0000000140037448     MSVCRT:MSVCR100.dll
 0002:00000450       __imp__cexit               0000000140037450     MSVCRT:MSVCR100.dll
 0002:00000458       __imp_exit                 0000000140037458     MSVCRT:MSVCR100.dll
 0002:00000460       __imp___initenv            0000000140037460     MSVCRT:MSVCR100.dll
 0002:00000468       __imp__initterm            0000000140037468     MSVCRT:MSVCR100.dll
 0002:00000470       __imp__initterm_e          0000000140037470     MSVCRT:MSVCR100.dll
 0002:00000478       __imp__configthreadlocale  0000000140037478     MSVCRT:MSVCR100.dll
 0002:00000480       __imp___setusermatherr     0000000140037480     MSVCRT:MSVCR100.dll
 0002:00000488       __imp__commode             0000000140037488     MSVCRT:MSVCR100.dll
 0002:00000490       __imp__fmode               0000000140037490     MSVCRT:MSVCR100.dll
 0002:00000498       __imp___set_app_type       0000000140037498     MSVCRT:MSVCR100.dll
 0002:000004a0       __imp_?terminate@@YAXXZ    00000001400374a0     MSVCRT:MSVCR100.dll
 0002:000004a8       __imp_?_type_info_dtor_internal_method@type_info@@QEAAXXZ 00000001400374a8     MSVCRT:MSVCR100.dll
 0002:000004b0       __imp___crt_debugger_hook  00000001400374b0     MSVCRT:MSVCR100.dll
 0002:000004b8       __imp_srand                00000001400374b8     MSVCRT:MSVCR100.dll
 0002:000004c0       __imp__HUGE                00000001400374c0     MSVCRT:MSVCR100.dll
 0002:000004c8       __imp_tolower              00000001400374c8     MSVCRT:MSVCR100.dll
 0002:000004d0       __imp_frexp                00000001400374d0     MSVCRT:MSVCR100.dll
 0002:000004d8       __imp_exp                  00000001400374d8     MSVCRT:MSVCR100.dll
 0002:000004e0       __imp_log10                00000001400374e0     MSVCRT:MSVCR100.dll
 0002:000004e8       __imp_log                  00000001400374e8     MSVCRT:MSVCR100.dll
 0002:000004f0       __imp_pow                  00000001400374f0     MSVCRT:MSVCR100.dll
 0002:000004f8       __imp_toupper              00000001400374f8     MSVCRT:MSVCR100.dll
 0002:00000500       __imp_isxdigit             0000000140037500     MSVCRT:MSVCR100.dll
 0002:00000508       __imp_isalnum              0000000140037508     MSVCRT:MSVCR100.dll
 0002:00000510       __imp_isupper              0000000140037510     MSVCRT:MSVCR100.dll
 0002:00000518       __imp_isspace              0000000140037518     MSVCRT:MSVCR100.dll
 0002:00000520       __imp_ispunct              0000000140037520     MSVCRT:MSVCR100.dll
 0002:00000528       __imp_islower              0000000140037528     MSVCRT:MSVCR100.dll
 0002:00000530       __imp_isdigit              0000000140037530     MSVCRT:MSVCR100.dll
 0002:00000538       __imp_iscntrl              0000000140037538     MSVCRT:MSVCR100.dll
 0002:00000540       __imp_isalpha              0000000140037540     MSVCRT:MSVCR100.dll
 0002:00000548       __imp_memcmp               0000000140037548     MSVCRT:MSVCR100.dll
 0002:00000550       __imp_memchr               0000000140037550     MSVCRT:MSVCR100.dll
 0002:00000558       __imp_strpbrk              0000000140037558     MSVCRT:MSVCR100.dll
 0002:00000560       __imp_sqrt                 0000000140037560     MSVCRT:MSVCR100.dll
 0002:00000568       __imp_modf                 0000000140037568     MSVCRT:MSVCR100.dll
 0002:00000570       __imp_fmod                 0000000140037570     MSVCRT:MSVCR100.dll
 0002:00000578       __imp_floor                0000000140037578     MSVCRT:MSVCR100.dll
 0002:00000580       __imp_ceil                 0000000140037580     MSVCRT:MSVCR100.dll
 0002:00000588       __imp_atan2                0000000140037588     MSVCRT:MSVCR100.dll
 0002:00000590       __imp_atan                 0000000140037590     MSVCRT:MSVCR100.dll
 0002:00000598       __imp_acos                 0000000140037598     MSVCRT:MSVCR100.dll
 0002:000005a0       __imp_asin                 00000001400375a0     MSVCRT:MSVCR100.dll
 0002:000005a8       __imp_tanh                 00000001400375a8     MSVCRT:MSVCR100.dll
 0002:000005b0       __imp_tan                  00000001400375b0     MSVCRT:MSVCR100.dll
 0002:000005b8       __imp_cosh                 00000001400375b8     MSVCRT:MSVCR100.dll
 0002:000005c0       __imp_cos                  00000001400375c0     MSVCRT:MSVCR100.dll
 0002:000005c8       __imp_sinh                 00000001400375c8     MSVCRT:MSVCR100.dll
 0002:000005d0       __imp_sin                  00000001400375d0     MSVCRT:MSVCR100.dll
 0002:000005d8       __imp_fprintf              00000001400375d8     MSVCRT:MSVCR100.dll
 0002:000005e0       __imp_fputs                00000001400375e0     MSVCRT:MSVCR100.dll
 0002:000005e8       __imp_strtoul              00000001400375e8     MSVCRT:MSVCR100.dll
 0002:000005f0       __imp_strtod               00000001400375f0     MSVCRT:MSVCR100.dll
 0002:000005f8       __imp_strncat              00000001400375f8     MSVCRT:MSVCR100.dll
 0002:00000600       __imp_strcspn              0000000140037600     MSVCRT:MSVCR100.dll
 0002:00000608       __imp__setjmp              0000000140037608     MSVCRT:MSVCR100.dll
 0002:00000610       __imp_longjmp              0000000140037610     MSVCRT:MSVCR100.dll
 0002:00000618       __imp_strcoll              0000000140037618     MSVCRT:MSVCR100.dll
 0002:00000620       __imp_localeconv           0000000140037620     MSVCRT:MSVCR100.dll
 0002:00000628       __imp__setmbcp             0000000140037628     MSVCRT:MSVCR100.dll
 0002:00000630       __imp_fread                0000000140037630     MSVCRT:MSVCR100.dll
 0002:00000638       __imp_feof                 0000000140037638     MSVCRT:MSVCR100.dll
 0002:00000640       __imp_strerror             0000000140037640     MSVCRT:MSVCR100.dll
 0002:00000648       __imp__errno               0000000140037648     MSVCRT:MSVCR100.dll
 0002:00000650       __imp_fclose               0000000140037650     MSVCRT:MSVCR100.dll
 0002:00000658       __imp_ferror               0000000140037658     MSVCRT:MSVCR100.dll
 0002:00000660       __imp_ungetc               0000000140037660     MSVCRT:MSVCR100.dll
 0002:00000668       __imp_fopen                0000000140037668     MSVCRT:MSVCR100.dll
 0002:00000670       __imp_freopen              0000000140037670     MSVCRT:MSVCR100.dll
 0002:00000678       \177MSVCR100_NULL_THUNK_DATA 0000000140037678     MSVCRT:MSVCR100.dll
 0002:00000680       __imp_MessageBoxA          0000000140037680     user32:USER32.dll
 0002:00000688       __imp_RegisterClassA       0000000140037688     user32:USER32.dll
 0002:00000690       __imp_LoadCursorA          0000000140037690     user32:USER32.dll
 0002:00000698       __imp_UnregisterClassA     0000000140037698     user32:USER32.dll
 0002:000006a0       __imp_GetClassInfoA        00000001400376a0     user32:USER32.dll
 0002:000006a8       __imp_SendMessageA         00000001400376a8     user32:USER32.dll
 0002:000006b0       __imp_CreateWindowExA      00000001400376b0     user32:USER32.dll
 0002:000006b8       __imp_MoveWindow           00000001400376b8     user32:USER32.dll
 0002:000006c0       __imp_SetFocus             00000001400376c0     user32:USER32.dll
 0002:000006c8       __imp_ShowWindow           00000001400376c8     user32:USER32.dll
 0002:000006d0       __imp_DefWindowProcA       00000001400376d0     user32:USER32.dll
 0002:000006d8       __imp_DestroyWindow        00000001400376d8     user32:USER32.dll
 0002:000006e0       __imp_SetWindowTextA       00000001400376e0     user32:USER32.dll
 0002:000006e8       __imp_UpdateWindow         00000001400376e8     user32:USER32.dll
 0002:000006f0       __imp_wsprintfA            00000001400376f0     user32:USER32.dll
 0002:000006f8       __imp_GetClientRect        00000001400376f8     user32:USER32.dll
 0002:00000700       __imp_EndPaint             0000000140037700     user32:USER32.dll
 0002:00000708       __imp_BeginPaint           0000000140037708     user32:USER32.dll
 0002:00000710       __imp_DispatchMessageA     0000000140037710     user32:USER32.dll
 0002:00000718       __imp_TranslateMessage     0000000140037718     user32:USER32.dll
 0002:00000720       __imp_PeekMessageA         0000000140037720     user32:USER32.dll
 0002:00000728       __imp_SetWindowLongPtrA    0000000140037728     user32:USER32.dll
 0002:00000730       __imp_GetWindowLongPtrA    0000000140037730     user32:USER32.dll
 0002:00000738       \177USER32_NULL_THUNK_DATA 0000000140037738     user32:USER32.dll
 0002:00000740       __imp_timeBeginPeriod      0000000140037740     winmm:WINMM.dll
 0002:00000748       __imp_timeGetTime          0000000140037748     winmm:WINMM.dll
 0002:00000750       \177WINMM_NULL_THUNK_DATA  0000000140037750     winmm:WINMM.dll
 0002:00000758       __imp_inet_ntoa            0000000140037758     Ws2_32:WS2_32.dll
 0002:00000760       __imp_setsockopt           0000000140037760     Ws2_32:WS2_32.dll
 0002:00000768       __imp_WSAGetLastError      0000000140037768     Ws2_32:WS2_32.dll
 0002:00000770       __imp_ioctlsocket          0000000140037770     Ws2_32:WS2_32.dll
 0002:00000778       __imp_closesocket          0000000140037778     Ws2_32:WS2_32.dll
 0002:00000780       __imp_bind                 0000000140037780     Ws2_32:WS2_32.dll
 0002:00000788       __imp_gethostbyname        0000000140037788     Ws2_32:WS2_32.dll
 0002:00000790       __imp_listen               0000000140037790     Ws2_32:WS2_32.dll
 0002:00000798       __imp_accept               0000000140037798     Ws2_32:WS2_32.dll
 0002:000007a0       __imp_select               00000001400377a0     Ws2_32:WS2_32.dll
 0002:000007a8       __imp_connect              00000001400377a8     Ws2_32:WS2_32.dll
 0002:000007b0       __imp_socket               00000001400377b0     Ws2_32:WS2_32.dll
 0002:000007b8       __imp_recv                 00000001400377b8     Ws2_32:WS2_32.dll
 0002:000007c0       __imp_send                 00000001400377c0     Ws2_32:WS2_32.dll
 0002:000007c8       __imp_htons                00000001400377c8     Ws2_32:WS2_32.dll
 0002:000007d0       \177WS2_32_NULL_THUNK_DATA 00000001400377d0     Ws2_32:WS2_32.dll
 0002:000007d8       __imp_MiniDumpWriteDump    00000001400377d8     Dbghelp:dbghelp.dll
 0002:000007e0       \177dbghelp_NULL_THUNK_DATA 00000001400377e0     Dbghelp:dbghelp.dll
 0002:000007e8       __xc_a                     00000001400377e8     MSVCRT:cinitexe.obj
 0002:00000818       __xc_z                     0000000140037818     MSVCRT:cinitexe.obj
 0002:00000820       __xi_a                     0000000140037820     MSVCRT:cinitexe.obj
 0002:00000838       __xi_z                     0000000140037838     MSVCRT:cinitexe.obj
 0002:00000860       ??_C@_0BC@PFKMAJAB@call?5loadcsrank?$CI?$CJ?$AA@ 0000000140037860     main.obj
 0002:00000880       ??_C@_0EH@HICEOCGO@insert?5into?5csrank?$CIactorid?0actor@ 0000000140037880     main.obj
 0002:000008c8       ??_C@_0BG@LOGCOMED@call?5deletecsrank?$CI?$CFd?$CJ?$AA@ 00000001400378c8     main.obj
 0002:000008e0       ??_C@_0CJ@IBAPLAAJ@call?5deletevaseries?$CI?$CFI64u?0?5?$CFd?0?5?$CF@ 00000001400378e0     main.obj
 0002:00000910       ??_C@_0BM@CPDEPLA@call?5getvaseriesinfo?$CI?$CFI64u?$CJ?$AA@ 0000000140037910     main.obj
 0002:00000930       ??_C@_0BL@IBAGIHJL@call?5deleteuseritem?$CI?$CFI64d?$CJ?$AA@ 0000000140037930     main.obj
 0002:00000950       ??_C@_0CB@CKLKJ@call?5getuseritem?$CI?$CFd?0?$CFd?0?$CFI64d?0?$CFd?$CJ@ 0000000140037950     main.obj
 0002:00000978       ??_C@_0BM@DAEMKEJP@call?5loaduseritem?$CI?$CFd?0?$CFd?0?$CFd?$CJ?$AA@ 0000000140037978     main.obj
 0002:00000998       ??_C@_0CG@PPONMNNA@call?5createglobaluser?$CI?$CC?$CFs?$CC?0?$CC?$CFs?$CC?0@ 0000000140037998     main.obj
 0002:000009c0       ??_C@_0BE@GAODDJAH@call?5getFcmTime?$CI?$CFd?$CJ?$AA@ 00000001400379c0     main.obj
 0002:000009d8       ??_C@_0CH@IKLMNOBJ@call?5updateGlobaluserOnlineTime?$CI@ 00000001400379d8     main.obj
 0002:00000a00       ??_C@_0CD@NGCIKFGN@call?5updateGlobaluserLogin?$CI?$CFd?0?$CFl@ 0000000140037a00     main.obj
 0002:00000a28       ??_C@_0BO@OLKDPLED@call?5logingetglobaluser?$CI?$CC?$CFs?$CC?$CJ?$AA@ 0000000140037a28     main.obj
 0002:00000a48       ??_C@_0BP@BKMJAHAJ@call?5loadlogicserverinfolist?$CI?$CJ?$AA@ 0000000140037a48     main.obj
 0002:00000a68       ??_C@_0BO@GONMIEF@call?5loadadministlogintable?$CI?$CJ?$AA@ 0000000140037a68     main.obj
 0002:00000a88       ??_C@_0CC@LPIAFPLA@call?5loadcharactorserveraddress?$CI@ 0000000140037a88     main.obj
 0002:00000ab0       ?szExceptionDumpFile@@3QBDB 0000000140037ab0     main.obj
 0002:00000af0       ??_C@_0BF@CIPACGIH@?$CF?984s?$CF?920I64u?$CF?920d?$AN?6?$AA@ 0000000140037af0     main.obj
 0002:00000b08       ??_C@_0BC@MKFNADON@?$CF?984s?$CF?920s?$CF?920s?$AN?6?$AA@ 0000000140037b08     main.obj
 0002:00000b1c       ??_C@_06ELFECKBG@Object?$AA@ 0000000140037b1c     main.obj
 0002:00000b24       ??_C@_05IJGIMMHE@Count?$AA@ 0000000140037b24     main.obj
 0002:00000b30       ??_C@_09CNMMJHCC@TotalSize?$AA@ 0000000140037b30     main.obj
 0002:00000b40       ??_C@_0BD@CJHLEFJH@OCProf?$CFd_?$CFd_?$CFd?4log?$AA@ 0000000140037b40     main.obj
 0002:00000b54       ??_C@_01GFHCPBMG@C?$AA@    0000000140037b54     main.obj
 0002:00000b68       ??_7CSSConfig@@6B@         0000000140037b68     main.obj
 0002:00000ba0       ??_C@_0P@FCOCABPP@SessionService?$AA@ 0000000140037ba0     main.obj
 0002:00000bb0       ??_C@_0BH@OPFAJMK@?$LG?A?H?$KB?$LL?a?$LL?$LA?$LJ?$NM?$MA?m?F?w?E?d?V?C?J?$KH?$LA?$NM?$AA@ 0000000140037bb0     main.obj
 0002:00000bc8       ??_C@_0BD@EGFFJEJF@fcmopen?5?5?9?5?$LP?$KK?F?tfcm?$AA@ 0000000140037bc8     main.obj
 0002:00000be0       ??_C@_0BE@EJKJBPAL@fcmclose?5?5?9?5?$LJ?X?$LB?Ufcm?$AA@ 0000000140037be0     main.obj
 0002:00000bf8       ??_C@_0BC@IJHMICOB@kks?5?5?9?5?L?$NP?U?K?$LK?E?O?B?O?$NP?$AA@ 0000000140037bf8     main.obj
 0002:00000c10       ??_C@_0BM@BDEHGNNG@lal?5?5?9?5?V?X?P?B?$LM?S?T?X?$LJ?$NM?$MA?m?T?$LB?$LF?G?B?$LM?$LB?m?$AA@ 0000000140037c10     main.obj
 0002:00000c30       ??_C@_0BO@OAODACHI@lgr?5?5?9?5?V?X?P?B?$LM?S?T?X?$LN?G?I?$KL?M?x?$LJ?X?B?$LH?S?I?$LB?m?$AA@ 0000000140037c30     main.obj
 0002:00000c50       ??_C@_0BK@HHDFNGLF@sscw?5?9?5?O?T?J?$LO?$LH?$PO?N?q?F?w?A?$KM?$LN?S?$LE?$LA?$LP?Z?$AA@ 0000000140037c50     main.obj
 0002:00000c70       ??_C@_0BI@ELMNBJMB@spfw?5?9?5?O?T?J?$LO?P?T?D?$NM?W?$LE?L?$KM?$LE?$LA?$LP?Z?$AA@ 0000000140037c70     main.obj
 0002:00000c88       ??_C@_0BK@PAKIJBOE@quit?5?9?5?M?$KD?V?$LJ?$LH?$PO?N?q?$LC?$KC?M?K?$LD?v?$LD?L?P?r?$AA@ 0000000140037c88     main.obj
 0002:00000ca8       ??_C@_0CD@OEELEGHA@?$LL?a?$LL?$LA?$LJ?$NM?$MA?m?F?w?F?t?$LG?$KP?$LD?I?$LJ?$KG?$KD?$KM?$LK?K?P?D?$LA?f?$LB?$LO?$LK?E?J?G@ 0000000140037ca8     main.obj
 0002:00000cd0       ??_C@_0CM@JHDGHFGP@?9?9?9?9?9?9?9?9?9?9?9?9?9?9?9?9?9?9?9?9?9?9?9?9?9?9?9?9?9?9?9?9@ 0000000140037cd0     main.obj
 0002:00000d00       ??_C@_0BK@MHOBFANJ@SessionServer_?$CFs?4log?4html?$AA@ 0000000140037d00     main.obj
 0002:00000d1c       ??_C@_03LOJJKLGJ@?4?4?1?$AA@ 0000000140037d1c     main.obj
 0002:00000d48       ??_C@_05PDJBBECF@pause?$AA@ 0000000140037d48     main.obj
 0002:00000d50       ??_C@_0BL@JFCLPPBM@pSSManager?9?$DOStartup?$CI?$CJ?5?J?$KH?$LA?$NM?$AA@ 0000000140037d50     main.obj
 0002:00000d70       ??_C@_0BG@GNLMGMCC@?U?$PN?T?Z?M?$KD?V?$LJ?M?x?$LJ?X?$LJ?$NM?$MA?m?F?w?4?4?4?$AA@ 0000000140037d70     main.obj
 0002:00000d88       ??_C@_04KNNLNNGO@quit?$AA@ 0000000140037d88     main.obj
 0002:00000d90       ??_C@_04MKNBDEPB@exit?$AA@ 0000000140037d90     main.obj
 0002:00000d98       ??_C@_02FDDMLJIO@?2q?$AA@  0000000140037d98     main.obj
 0002:00000d9c       ??_C@_03MAGHILOA@spf?$AA@  0000000140037d9c     main.obj
 0002:00000da0       ??_C@_08HNFANAAE@fcmclose?$AA@ 0000000140037da0     main.obj
 0002:00000db0       ??_C@_07EHFCMMLE@fcmopen?$AA@ 0000000140037db0     main.obj
 0002:00000db8       ??_C@_03OHCBHMED@pss?$AA@  0000000140037db8     main.obj
 0002:00000dbc       ??_C@_04NEMKAHMH@sscw?$AA@ 0000000140037dbc     main.obj
 0002:00000dc4       ??_C@_04MALEGKMC@spfw?$AA@ 0000000140037dc4     main.obj
 0002:00000dd0       ??_C@_0BH@JNFKNFHG@?$LH?$KC?$LD?v?$LJ?X?$LB?U?$LL?a?$LL?$LA?$CI?$CFs?$CJ?$LF?D?O?$PL?O?$KC?$AA@ 0000000140037dd0     main.obj
 0002:00000de8       ??_C@_03HCAMFOBF@kks?$AA@  0000000140037de8     main.obj
 0002:00000df0       ??_C@_0BL@FIACLEED@?$LM?S?T?X?$LJ?$NM?$MA?m?T?$LB?$LF?G?B?$LM?$LM?G?B?$LM?J?$PN?$LO?$NN?J?$KH?$LA?$NM?$AA@ 0000000140037df0     main.obj
 0002:00000e10       ??_C@_0BJ@HCKJAPNP@?R?Q?$LM?S?T?X?$CFd?$LI?v?$LJ?$NM?$MA?m?T?$LB?$LF?G?B?$LM?$LM?G?B?$LM?$AA@ 0000000140037e10     main.obj
 0002:00000e2c       ??_C@_03CPBGONOE@lal?$AA@  0000000140037e2c     main.obj
 0002:00000e30       ??_C@_0BJ@KJLDPBAP@?$LM?S?T?X?$LN?G?I?$KL?M?x?$LJ?X?B?$LH?S?I?J?$PN?$LO?$NN?J?$KH?$LA?$NM?$AA@ 0000000140037e30     main.obj
 0002:00000e50       ??_C@_0BL@CGBFBLCG@?R?Q?$LM?S?T?X?$CFd?$LI?v?$LN?G?I?$KL?M?x?$LJ?X?B?$LH?S?I?J?$PN?$LO?$NN?$AA@ 0000000140037e50     main.obj
 0002:00000e6c       ??_C@_03PPNKKOIJ@lgr?$AA@  0000000140037e6c     main.obj
 0002:00000e70       ??_C@_0BI@CJLFCJOF@can?5not?5set?5locale?5path?$AA@ 0000000140037e70     main.obj
 0002:00000eb0       ?WndClassName@CPerformanceWnd@@2QBDB 0000000140037eb0     PerformanceWatcher.obj
 0002:00000ec0       ?WndClassName@CServerConnectionWnd@@2QBDB 0000000140037ec0     PerformanceWatcher.obj
 0002:00000ed8       ??_C@_0CC@HMMNKNGE@This?5program?5requires?5Windows?5NT@ 0000000140037ed8     PerformanceWatcher.obj
 0002:00000f00       ??_C@_08JHMHHOIE@?$LL?a?$LL?$LA?W?$LE?L?$KM?$AA@ 0000000140037f00     PerformanceWatcher.obj
 0002:00000f18       ??_7CPerformanceWnd@@6B@   0000000140037f18     PerformanceWatcher.obj
 0002:00000f28       ??_C@_04IKDGCAJA@?K?N?L?e?$AA@ 0000000140037f28     PerformanceWatcher.obj
 0002:00000f30       ??_C@_04BMCEDOKO@EDIT?$AA@ 0000000140037f30     PerformanceWatcher.obj
 0002:00000f38       ??_C@_01CLKCMJKC@?5?$AA@   0000000140037f38     PerformanceWatcher.obj
 0002:00000f40       ??_C@_0N@HALOJLLO@?R?Q?A?$KM?$LN?S?$LH?$PO?N?q?F?w?$AA@ 0000000140037f40     PerformanceWatcher.obj
 0002:00000f58       ??_7CServerConnectionWnd@@6B@ 0000000140037f58     PerformanceWatcher.obj
 0002:00000f68       ??_C@_0DB@LKGIBKMF@?$LK?$KP?J?$PNListView_InsertColumn?$CIm_hEdi@ 0000000140037f68     PerformanceWatcher.obj
 0002:00000f9c       ??_C@_02DKCKIIND@?$CFs?$AA@ 0000000140037f9c     PerformanceWatcher.obj
 0002:00000fa0       ??_C@_08GOJNKGGB@?A?$KM?$LN?S?J?$LB?$LM?d?$AA@ 0000000140037fa0     PerformanceWatcher.obj
 0002:00000fb0       ??_C@_08BFLOEOHD@?A?$KM?$LN?S?$LG?K?$LP?Z?$AA@ 0000000140037fb0     PerformanceWatcher.obj
 0002:00000fbc       ??_C@_06HPGBFEOC@?A?$KM?$LN?SIP?$AA@ 0000000140037fbc     PerformanceWatcher.obj
 0002:00000fc8       ??_C@_0L@KNLJOFAL@?$LH?$PO?N?q?F?w?C?$PL?$LD?F?$AA@ 0000000140037fc8     PerformanceWatcher.obj
 0002:00000fd8       ??_C@_0O@IJGGEEB@SysListView32?$AA@ 0000000140037fd8     PerformanceWatcher.obj
 0002:00000fe8       ??_C@_0BB@KIENFOBO@?$LF?c?$LL?w?$LE?K?$LE?$KG?K?$KC?P?B?A?P?$LB?m?$AA@ 0000000140037fe8     PerformanceWatcher.obj
 0002:00001008       ??_7CPerformanceWatcher@@6B@ 0000000140038008     PerformanceWatcher.obj
 0002:00001030       ??_7?$CBaseList@UServerConnetionInfo@CPerformanceWatcher@@@container@wylib@@6B@ 0000000140038030     PerformanceWatcher.obj
 0002:00001048       ??_C@_04KKNLMKPM@?$CFd?C?k?$AA@ 0000000140038048     PerformanceWatcher.obj
 0002:00001050       ??_C@_02DPKJAMEF@?$CFd?$AA@ 0000000140038050     PerformanceWatcher.obj
 0002:00001058       ??_C@_0CB@PJBACPMP@?J?$PN?$LO?$NN?$LH?$PO?N?q?F?w?3?$CF3d?5?5?R?$PN?G?f?$LH?$PO?N?q?F?w?3?$CF3d?$AN?6@ 0000000140038058     PerformanceWatcher.obj
 0002:00001080       ??_C@_0O@OCIHOOFB@?$LL?a?$LL?$LA?J?$PN?A?$LP?3?$CFd?$AN?6?$AA@ 0000000140038080     PerformanceWatcher.obj
 0002:000010e8       ??_7CSessionClient@@6B@    00000001400380e8     SessionClient.obj
 0002:00001170       ??_C@_0CN@EPMHCBEE@SessionClient?5has?5recv?5invalid?5p@ 0000000140038170     SessionClient.obj
 0002:000011a0       ??_C@_0BK@DDOAILPJ@?$CFs?$LH?$PO?N?q?F?w?$CI?$CFs?3?$CFd?$CJ?A?$KM?$LN?S?R?Q?$LG?O?$LP?$KK?$AA@ 00000001400381a0     SessionClient.obj
 0002:000011c0       ??_C@_0BO@FEPFDLGH@?$CFs?$LH?$PO?N?q?F?w?$CI?$CFs?$CJ?$CI?$CFs?3?$CFd?$CJ?A?$KM?$LN?S?R?Q?$LG?O?$LP?$KK?$AA@ 00000001400381c0     SessionClient.obj
 0002:000011e0       ??_C@_0BO@JAEEMHLP@?$CFs?$LH?$PO?N?q?F?w?$CI?$CFs?$CJ?$CI?$CFs?3?$CFd?$CJ?L?W?$LN?S?W?V?$LE?m?N?s?$AA@ 00000001400381e0     SessionClient.obj
 0002:00001228       ??_C@_0P@HAECGIHI@?N?$NO?$LH?$KI?A?$KM?$LN?S?J?$PN?$LO?$NN?$LP?b?$AA@ 0000000140038228     SessionClient.obj
 0002:00001238       ??_C@_0BP@FPBNBOEG@?$CFs?C?$NM?B?k?$LC?$LL?R?$LL?Q?y?$KD?$KMdb?$DN?$CFs?0?M?f?$LM?R?$LF?D?N?$KK?$CFs?$AA@ 0000000140038238     SessionClient.obj
 0002:00001258       ??_C@_05LLAMLEHD@?$CFI64d?$AA@ 0000000140038258     SessionClient.obj
 0002:00001260       ??_C@_0BL@NHGPBICD@No?5Account?5?5?$CFs?5Found?5on?5db?$AA@ 0000000140038260     SessionClient.obj
 0002:00001280       ??_C@_0BD@JGHGFCCE@000000198110100000?$AA@ 0000000140038280     SessionClient.obj
 0002:00001298       ??_C@_0BI@KEAMMJOK@?J?$PN?$LO?$NN?$LP?b?V?$LE?P?Psql?$LC?Y?W?w?$CFs?J?$KH?$LA?$NM?$AA@ 0000000140038298     SessionClient.obj
 0002:000012b0       ??_C@_0BP@HEPNHLNE@CSessionClient?3?3CheckUserValid?$AA@ 00000001400382b0     SessionClient.obj
 0002:00001320       ??_C@_0DP@DNOKPAMI@recv?5client?5msg?3?5query?5Session?5r@ 0000000140038320     SessionClient.obj
 0002:00001360       ??_C@_0BD@NJNAJNC@?$CFs?0?$LP?$KI?$CFI64d?C?$LL?$LD?u?J?$LM?$LL?$KP?$AA@ 0000000140038360     SessionClient.obj
 0002:00001378       ??_C@_0CC@KJJHNJBL@CSessionClient?3?3CatchAddValueCar@ 0000000140038378     SessionClient.obj
 0002:000013a0       ??_C@_0CA@LPINKGGA@?L?a?H?$KB?$LF?D?J?$LB?$LK?r?$LH?$KC?O?V?S?P?$LP?$KI?$CFI64d?C?$LL?$LD?u?J?$LM?$LL?$KP?$AA@ 00000001400383a0     SessionClient.obj
 0002:000013c0       ??_C@_0CH@EJCLKGEM@?U?K?$LK?E?3?$CFd?5?$LC?i?Q?$KP?T?$KK?$LB?$KG?J?$PN?A?$LP?5?$KD?$KMsrv_idx?5?$DN@ 00000001400383c0     SessionClient.obj
 0002:000013e8       ??_C@_0BH@KJLIHBIB@?$LN?G?I?$KL?3?$CFs?5?L?a?H?$KB?T?$KK?$LB?$KG?5?3?5?$CFld?$AA@ 00000001400383e8     SessionClient.obj
 0002:00001400       ??_C@_0CI@MODFCCKO@update?5csrank?5data?5error?3serveri@ 0000000140038400     SessionClient.obj
 0002:00001428       ??_C@_0CK@MPOMEPIL@update?5csrank?5data?5Success?3serve@ 0000000140038428     SessionClient.obj
 0002:00001454       ??_C@_01IHBHIGKO@?0?$AA@   0000000140038454     SessionClient.obj
 0002:00001458       ??_C@_0BL@CKCHEPPC@?$CI?$CFd?0?5?$CC?$CFs?$CC?0?5?$CFd?0?5?$CFd?0?5?$CFd?0?5?$CFd?$CJ?$AA@ 0000000140038458     SessionClient.obj
 0002:00001478       ??_C@_0CI@NAMOJDGE@delete?5csrank?5data?5error?3serveri@ 0000000140038478     SessionClient.obj
 0002:000014a0       ??_C@_0CK@ECJPONKO@delete?5csrank?5data?5Success?3serve@ 00000001400384a0     SessionClient.obj
 0002:000014d0       ??_C@_0DE@OOIKIOAA@Kick?5cross?5server?5actor?0accounti@ 00000001400384d0     SessionClient.obj
 0002:00001508       ??_C@_0CK@IADPKMPN@?$LP?M?$LL?$KH?$LG?K?$LF?G?B?$LM?5name?$DN?$CFs?0pw?$DN?$CFs?$KD?$KMnServe@ 0000000140038508     SessionClient.obj
 0002:00001538       ??_C@_0CL@NANLLKLG@CheckUserValid?5name?$DN?$CFs?0pw?$DN?$CFs?$KD?$KMer@ 0000000140038538     SessionClient.obj
 0002:00001590       ??_C@_0CD@IJEINPOP@CSessionClient?3?3CatchCreateAccou@ 0000000140038590     SessionClient.obj
 0002:000015b8       ??_C@_0CD@CAALEFHD@Client?5id?$DN?$CFd?0set?5commonserverId?$DN@ 00000001400385b8     SessionClient.obj
 0002:000015e0       ??_C@_0DM@FBPDLDPF@SetCommonServerId?5error?0nCommonS@ 00000001400385e0     SessionClient.obj
 0002:00001648       ??_C@_0BO@NPOLIKHE@too?5large?5data?5packet?0size?$DN?$CFd?$AA@ 0000000140038648     SessionClient.obj
 0002:00001690       ??_C@_0ED@EFOKLGBD@F?3?2DragonWork?2code?2server?2common@ 0000000140038690     SessionServer.obj
 0002:00001700       ??_C@_0BB@FOJGHIFH@account?5has?5init?$AA@ 0000000140038700     SessionServer.obj
 0002:00001718       ??_C@_0CH@FGOAAGBO@init?5account?5?5spid?5succeed?0?5acco@ 0000000140038718     SessionServer.obj
 0002:00001740       ??_C@_0BI@DCGJIP@init?5account?5?5spid?5fail?$AA@ 0000000140038740     SessionServer.obj
 0002:00001760       ??_C@_0EG@NEODDF@insert?5into?5globaluser?5?$CIuserid?0a@ 0000000140038760     SessionServer.obj
 0002:000017a8       ??_C@_0BC@MAFEBBDP@__init_account_?$CFd?$AA@ 00000001400387a8     SessionServer.obj
 0002:000017c0       ??_C@_0EC@CBHMEJCP@2?5the?5account?5db?5has?5no?5account?5@ 00000001400387c0     SessionServer.obj
 0002:00001810       ??_C@_0EC@PLEGLOAO@1?5the?5account?5db?5has?5no?5account?5@ 0000000140038810     SessionServer.obj
 0002:00001858       ??_C@_0P@FANPFDJ@max?5account?$DN?$CFd?$AA@ 0000000140038858     SessionServer.obj
 0002:00001868       ??_C@_0BG@HFMNLFCG@InitACCountId?5spid?$DN?$CFd?$AA@ 0000000140038868     SessionServer.obj
 0002:00001880       ??_C@_0DA@IGJMPEIG@can?5not?5call?5select?5max?$CIuserid?$CJ?5@ 0000000140038880     SessionServer.obj
 0002:000018b0       ??_C@_0CD@NOIKLLAN@select?5max?$CIuserid?$CJ?5from?5globalus@ 00000001400388b0     SessionServer.obj
 0002:000018e0       ??_7?$CBaseList@PEAUtagGameSession@@@container@wylib@@6B@ 00000001400388e0     SessionServer.obj
 0002:000018f8       ??_C@_04LHHHFLPP@utf8?$AA@ 00000001400388f8     SessionServer.obj
 0002:00001900       ??_C@_0BH@HADCOPGB@GetLogicClientCount?3?$CFd?$AA@ 0000000140038900     SessionServer.obj
 0002:00001918       ??_C@_0DK@NOBOIAGJ@PostAMCMsg?5No?5client?5found?0op?$DN?$CFd@ 0000000140038918     SessionServer.obj
 0002:00001960       ??_7?$CQueueList@PEAUtagGameSession@@@container@wylib@@6B@ 0000000140038960     SessionServer.obj
 0002:00001988       ??_7CSessionServer@@6B@    0000000140038988     SessionServer.obj
 0002:00001a60       ??_C@_0DJ@COKJGCPA@send?5Kick?5cross?5server?5actor?0acc@ 0000000140038a60     SessionServer.obj
 0002:00001b90       ??_C@_0BG@DABOPNPD@close?5nIndex?5?$DN?$CFd?0fail?$AA@ 0000000140038b90     SessionServer.obj
 0002:00001ba8       ??_C@_0DB@CMLGCJPM@?T?Z?$LJ?X?$LB?U?$LL?a?$LL?$LA?J?G?J?T?M?$LM?$LI?$PM?P?B?U?K?$LK?E?J?$PN?$LO?$NN?$CI?$CFd?0@ 0000000140038ba8     SessionServer.obj
 0002:00001be0       ??_C@_0M@IJPBPFEG@sql?5?$CFserror?$AA@ 0000000140038be0     SessionServer.obj
 0002:00001bf0       ??_C@_0BE@LBABALJE@close?5Session?0ID?$DN?$CFd?$AA@ 0000000140038bf0     SessionServer.obj
 0002:00001c08       ??_C@_09HAHAPKEA@?$CFs?3?$CFd?9?$DO?$CFd?$AA@ 0000000140038c08     SessionServer.obj
 0002:00001c18       ??_C@_0CN@MGNNJKIN@SSIM_CONFIM_SESSION_RESULT?5?U?R?$LC?$LL?$LF@ 0000000140038c18     SessionServer.obj
 0002:00001c48       ??_C@_0CI@FCCNAHNO@nConfimSrvCount?$DN?$CFd?$CL?$CFd?$DN?$CFd?0serveri@ 0000000140038c48     SessionServer.obj
 0002:00001c70       ??_C@_0CN@DMOGFCKM@SSIM_CONFIM_SESSION_ONLINE?5?U?R?$LC?$LL?$LF@ 0000000140038c70     SessionServer.obj
 0002:00001ca0       ??_C@_0CA@CCMJJHEB@?$LJ?X?$LB?U?A?$KM?$LN?S?$LF?D?J?$LB?$LK?r?U?R?$LC?$LL?$LF?$LNsession?$KD?$LK?$CFd?$AA@ 0000000140038ca0     SessionServer.obj
 0002:00001cc8       ??_7CAnsiString@string@wylib@@6B@ 0000000140038cc8     SSConfig.obj
 0002:00001cd8       ??_C@_0BB@LBDLBGDB@JX_SS_DB_CFG_KEY?$AA@ 0000000140038cd8     SSConfig.obj
 0002:00001cec       ??_C@_06HJGLHJBN@DBPass?$AA@ 0000000140038cec     SSConfig.obj
 0002:00001cf4       ??_C@_06EKCLIHPK@DBUser?$AA@ 0000000140038cf4     SSConfig.obj
 0002:00001cfc       ??_C@_06KMJLGLFD@DBName?$AA@ 0000000140038cfc     SSConfig.obj
 0002:00001d04       ??_C@_03DGLBMECB@SQL?$AA@  0000000140038d04     SSConfig.obj
 0002:00001d08       ??_C@_08LGNABILK@AMServer?$AA@ 0000000140038d08     SSConfig.obj
 0002:00001d14       ??_C@_04CPPPJGME@Host?$AA@ 0000000140038d14     SSConfig.obj
 0002:00001d20       ??_C@_09BFFAKEOD@LogServer?$AA@ 0000000140038d20     SSConfig.obj
 0002:00001d2c       ??_C@_04HOKNCALA@Port?$AA@ 0000000140038d2c     SSConfig.obj
 0002:00001d38       ??_C@_07EODJIPPN@Address?$AA@ 0000000140038d38     SSConfig.obj
 0002:00001d40       ??_C@_07IGJDODLA@fcmOpen?$AA@ 0000000140038d40     SSConfig.obj
 0002:00001d48       ??_C@_06IFFFECAJ@spguid?$AA@ 0000000140038d48     SSConfig.obj
 0002:00001d50       ??_C@_04GGDNIOBF@SPID?$AA@ 0000000140038d50     SSConfig.obj
 0002:00001d58       ??_C@_0L@FFDIDHBB@ServerName?$AA@ 0000000140038d58     SSConfig.obj
 0002:00001d68       ??_C@_0O@ONPIIGBA@SessionServer?$AA@ 0000000140038d68     SSConfig.obj
 0002:00001d80       ??_7?$CRefObject@VCAnsiString@string@wylib@@@misc@wylib@@6B@ 0000000140038d80     SSConfig.obj
 0002:00001d90       ??_7?$CRefObjectImpl@VCAnsiString@string@wylib@@@misc@wylib@@6B@ 0000000140038d90     SSConfig.obj
 0002:00001dd0       ??_C@_0CA@KDBDOHGA@unexpected?5error?5on?5load?5config?$AA@ 0000000140038dd0     SSConfig.obj
 0002:00001df0       ??_C@_0BP@CIMNBLID@unabled?5to?5load?5config?5from?5?$CFs?$AA@ 0000000140038df0     SSConfig.obj
 0002:00001e10       ??_C@_0BC@DMGCOGGJ@SessionServer?4txt?$AA@ 0000000140038e10     SSConfig.obj
 0002:00001e30       ??_7?$CTRefString@VCAnsiString@string@wylib@@D@string@wylib@@6B@ 0000000140038e30     SSConfig.obj
 0002:00001e88       ??_C@_0P@BBHABMLA@?$FLConfig?5Error?$FN?$AA@ 0000000140038e88     SSConfig.obj
 0002:00001ea0       ??_7?$CBaseList@UAMOPData@CAMClient@@@container@wylib@@6B@ 0000000140038ea0     SSManager.obj
 0002:00001ec0       ??_7?$CBaseList@H@container@wylib@@6B@ 0000000140038ec0     SSManager.obj
 0002:00001ee0       ??_7?$CBaseList@VCommServerClient@@@container@wylib@@6B@ 0000000140038ee0     SSManager.obj
 0002:00001f00       ??_7?$CBaseList@PEAUtagCharGateRoute@@@container@wylib@@6B@ 0000000140038f00     SSManager.obj
 0002:00001f20       ??_7?$CBaseList@PEAUtagAdminLoginRecord@@@container@wylib@@6B@ 0000000140038f20     SSManager.obj
 0002:00001f40       ??_7?$CBaseList@UtagLogicServerInfo@@@container@wylib@@6B@ 0000000140038f40     SSManager.obj
 0002:00001f58       ??_C@_0DH@KPMJKLGC@?$LH?$KC?O?V?V?X?$LI?$LE?$LF?DClientServerId?E?d?V?C?$FLcse@ 0000000140038f58     SSManager.obj
 0002:00001f90       ??_C@_0BG@CCGEEHLL@?$LP?M?$LL?$KH?$LG?K_?$CF2d?$LH?$PO?N?q?F?wID?3?$CFd?$AA@ 0000000140038f90     SSManager.obj
 0002:00001fa8       ??_C@_0CD@MDOOFOOB@?$LJ?$KL?$LJ?$LC?$LH?$PO?N?q?F?w?$FL?$CFd?$FN?A?$KM?$LN?S?$LF?D?$LP?M?$LL?$KH?$LG?K?J?$PN?A?$LP?N?$KK@ 0000000140038fa8     SSManager.obj
 0002:00002048       ??_C@_0CI@JLGCKDIN@?L?m?$LM?S?B?$LH?S?I?$LB?m?$KD?$KMHost?$DN?$CFs?0port?$DN?$CFd?0serv@ 0000000140039048     SSManager.obj
 0002:00002098       ??_C@_0BN@MAKAMLLM@?L?m?$LM?S?$LJ?$NM?$MA?m?T?$LB?$KD?$KM?$MA?$OA?P?M?N?$KK?$CFd?0Name?$DN?$CFs?$AA@ 0000000140039098     SSManager.obj
 0002:000020e0       ??_C@_0DE@IGONEEGA@?L?m?$LM?S?$LH?$PO?N?q?F?w?P?E?O?$KC?$KD?$KM?$FLserverid?$DN?$CFd?0?5cs@ 00000001400390e0     SSManager.obj
 0002:00002118       ??_C@_07NBCGADJA@Unknown?$AA@ 0000000140039118     SSManager.obj
 0002:00002120       ??_C@_0BG@DJILIADE@?$CFs?5exec?5sp?$FL?$CFs?$FN?5failed?$AA@ 0000000140039120     SSManager.obj
 0002:00002138       ??_C@_0BN@ECDKBABJ@?$CFs?5connect?5sql?5server?5failed?$AA@ 0000000140039138     SSManager.obj
 0002:00002158       ??_C@_0CE@NLJMDEBN@CSSManager?3?3LoadLogicServerInfoL@ 0000000140039158     SSManager.obj
 0002:00002180       ??_C@_0CC@CCMOHJAK@?$CBm_pSessionServer?9?$DOStartup?$CI?$CJ?5?J?$KH?$LA@ 0000000140039180     SSManager.obj
 0002:000021a8       ??_C@_0L@EGKAAKEO@?F?t?$LG?$KPAM?J?$KH?$LA?$NM?$AA@ 00000001400391a8     SSManager.obj
 0002:000021b8       ??_C@_0N@NLJENKHM@?F?t?$LG?$KP?H?U?V?$LO?J?$KH?$LA?$NM?$AA@ 00000001400391b8     SSManager.obj
 0002:000021c8       ??_C@_0BH@DBAHGLIE@?$LM?S?T?X?B?$NP?$LM?$KN?$LH?$PO?N?q?F?w?A?P?$LB?m?J?$KH?$LA?$NM?$AA@ 00000001400391c8     SSManager.obj
 0002:000021e0       ??_C@_0BB@LOHJODDA@?$LM?S?T?X?$LJ?$NM?$MA?m?T?$LB?$LB?m?J?$KH?$LA?$NM?$AA@ 00000001400391e0     SSManager.obj
 0002:00002228       ??_7?$CLockList@PEAUtagCharGateRoute@@@container@wylib@@6B@ 0000000140039228     SSManager.obj
 0002:00002248       ??_7?$CLockList@PEAUtagAdminLoginRecord@@@container@wylib@@6B@ 0000000140039248     SSManager.obj
 0002:00002268       ??_7?$CLockList@UtagLogicServerInfo@@@container@wylib@@6B@ 0000000140039268     SSManager.obj
 0002:000022a8       ??_C@_04IGNCGHNM@djrm?$AA@ 00000001400392a8     SSManager.obj
 0002:000022b0       ??_C@_06BHEBDDGP@123456?$AA@ 00000001400392b0     SSManager.obj
 0002:000022b8       ??_C@_04NBFCGMPH@root?$AA@ 00000001400392b8     SSManager.obj
 0002:000022c0       ??_C@_06JKGFFAAB@gamedb?$AA@ 00000001400392c0     SSManager.obj
 0002:000022c8       ??_C@_09IPAEKDAI@localhost?$AA@ 00000001400392c8     SSManager.obj
 0002:000022e8       ??_7CBaseStream@stream@wylib@@6B@ 00000001400392e8     wylib_x64:FileStream.obj
 0002:00002328       ??_7CFileStream@stream@wylib@@6B@ 0000000140039328     wylib_x64:FileStream.obj
 0002:000023b8       ??_7CHandleStream@stream@wylib@@6B@ 00000001400393b8     wylib_x64:HandleStream.obj
 0002:000023f8       ??_7CBaseThread@thread@wylib@@6B@ 00000001400393f8     wylib_x64:Thread.obj
 0002:00002460       ??_7CClassedWnd@window@wylib@@6B@ 0000000140039460     wylib_x64:ClassedWnd.obj
 0002:00002470       ??_C@_0DM@NCEEEACA@?G?k?J?V?$LG?$KP?H?$LH?H?O?$LE?K?$LE?$KG?J?G?$LH?q?N?$LE?$LH?$KC?I?zBUG?$KD?$KM?$LG?x?J@ 0000000140039470     wylib_x64:Tick.obj
 0002:000024b8       ??_7CCustomSocket@socket@inet@wylib@@6B@ 00000001400394b8     wylib_x64:CustomSocket.obj
 0002:00002508       ??_7CCSLock@lock@sync@wylib@@6B@ 0000000140039508     wylib_x64:Lock.obj
 0002:00002538       ??_7CMemoryStream@stream@wylib@@6B@ 0000000140039538     wylib_x64:MemoryStream.obj
 0002:000025a8       ??_7type_info@@6B@         00000001400395a8     MSVCRT:ti_inst.obj
 0002:000025c0       lua_ident                  00000001400395c0     lua-5.1_x64:lapi.obj
 0002:00002650       ??_C@_0BH@CCGEKEGO@no?5calling?5environment?$AA@ 0000000140039650     lua-5.1_x64:lapi.obj
 0002:00002668       ??_C@_08JEIPHCP@no?5value?$AA@ 0000000140039668     lua-5.1_x64:lapi.obj
 0002:00002674       ??_C@_01OGPIMHDM@?$DP?$AA@ 0000000140039674     lua-5.1_x64:lapi.obj
 0002:00002678       ??_C@_07FCDHCGBN@?$CFs?3?$CFd?3?5?$AA@ 0000000140039678     lua-5.1_x64:lauxlib.obj
 0002:00002680       ??_C@_02KHAMJCKP@Sl?$AA@   0000000140039680     lua-5.1_x64:lauxlib.obj
 0002:00002688       ??_C@_0BE@CBBDHBEP@stack?5overflow?5?$CI?$CFs?$CJ?$AA@ 0000000140039688     lua-5.1_x64:lauxlib.obj
 0002:000026a0       ??_C@_0BB@BJDGDOHH@cannot?5?$CFs?5?$CFs?3?5?$CFs?$AA@ 00000001400396a0     lua-5.1_x64:lauxlib.obj
 0002:000026b4       ??_C@_04POLDLDMI@read?$AA@ 00000001400396b4     lua-5.1_x64:lauxlib.obj
 0002:000026bc       ??_C@_04PMOCAHAA@open?$AA@ 00000001400396bc     lua-5.1_x64:lauxlib.obj
 0002:000026c4       ??_C@_01KDCPPGHE@r?$AA@    00000001400396c4     lua-5.1_x64:lauxlib.obj
 0002:000026c8       ??_C@_03HPDLNGOA@?$EA?$CFs?$AA@ 00000001400396c8     lua-5.1_x64:lauxlib.obj
 0002:000026cc       ??_C@_06IEGCHAII@reopen?$AA@ 00000001400396cc     lua-5.1_x64:lauxlib.obj
 0002:000026d4       ??_C@_02JDPG@rb?$AA@       00000001400396d4     lua-5.1_x64:lauxlib.obj
 0002:000026d8       ??_C@_06CCPPALKB@?$DNstdin?$AA@ 00000001400396d8     lua-5.1_x64:lauxlib.obj
 0002:000026e0       ??_C@_0DC@EFOPIIKP@PANIC?3?5unprotected?5error?5in?5call@ 00000001400396e0     lua-5.1_x64:lauxlib.obj
 0002:00002718       ??_C@_0BO@GOMKJOAH@bad?5argument?5?$CD?$CFd?5to?5?8?$CFs?8?5?$CI?$CFs?$CJ?$AA@ 0000000140039718     lua-5.1_x64:lauxlib.obj
 0002:00002738       ??_C@_0BO@LENGMNDF@calling?5?8?$CFs?8?5on?5bad?5self?5?$CI?$CFs?$CJ?$AA@ 0000000140039738     lua-5.1_x64:lauxlib.obj
 0002:00002758       ??_C@_06GABBCIBA@method?$AA@ 0000000140039758     lua-5.1_x64:lauxlib.obj
 0002:00002760       ??_C@_01EFFIKLCJ@n?$AA@    0000000140039760     lua-5.1_x64:lauxlib.obj
 0002:00002768       ??_C@_0BG@CHJGEHJL@bad?5argument?5?$CD?$CFd?5?$CI?$CFs?$CJ?$AA@ 0000000140039768     lua-5.1_x64:lauxlib.obj
 0002:00002780       ??_C@_0BE@LDJANOJE@?$CFs?5expected?0?5got?5?$CFs?$AA@ 0000000140039780     lua-5.1_x64:lauxlib.obj
 0002:00002798       ??_C@_0P@PDHEKNMA@value?5expected?$AA@ 0000000140039798     lua-5.1_x64:lauxlib.obj
 0002:000027a8       __real@0000000000000000    00000001400397a8     lua-5.1_x64:lauxlib.obj
 0002:000027b0       ??_C@_0BO@CBJIAGLF@name?5conflict?5for?5module?5?8?$CFs?8?$AA@ 00000001400397b0     lua-5.1_x64:lauxlib.obj
 0002:000027d0       ??_C@_07PINPBNPB@_LOADED?$AA@ 00000001400397d0     lua-5.1_x64:lauxlib.obj
 0002:000027d8       ??_C@_0BE@HBADPNMP@invalid?5option?5?8?$CFs?8?$AA@ 00000001400397d8     lua-5.1_x64:lauxlib.obj
 0002:000027ec       ??_C@_03IIINPABG@tan?$AA@  00000001400397ec     lua-5.1_x64:lmathlib.obj
 0002:000027f0       ??_C@_04FJHINJAO@tanh?$AA@ 00000001400397f0     lua-5.1_x64:lmathlib.obj
 0002:000027f8       ??_C@_04EIAKFFMI@sqrt?$AA@ 00000001400397f8     lua-5.1_x64:lmathlib.obj
 0002:00002800       ??_C@_03BLEJJJBH@sin?$AA@  0000000140039800     lua-5.1_x64:lmathlib.obj
 0002:00002804       ??_C@_04COOMCNPB@sinh?$AA@ 0000000140039804     lua-5.1_x64:lmathlib.obj
 0002:00002810       ??_C@_0L@PIIACENG@randomseed?$AA@ 0000000140039810     lua-5.1_x64:lmathlib.obj
 0002:0000281c       ??_C@_06NLFCANPD@random?$AA@ 000000014003981c     lua-5.1_x64:lmathlib.obj
 0002:00002824       ??_C@_03FHAJEHEA@rad?$AA@  0000000140039824     lua-5.1_x64:lmathlib.obj
 0002:00002828       ??_C@_03JGHBODFD@pow?$AA@  0000000140039828     lua-5.1_x64:lmathlib.obj
 0002:0000282c       ??_C@_04EHEDPDJG@modf?$AA@ 000000014003982c     lua-5.1_x64:lmathlib.obj
 0002:00002834       ??_C@_03KLIPLJLL@min?$AA@  0000000140039834     lua-5.1_x64:lmathlib.obj
 0002:00002838       ??_C@_03LJAEFNNE@max?$AA@  0000000140039838     lua-5.1_x64:lmathlib.obj
 0002:0000283c       ??_C@_03MGHMBJCF@log?$AA@  000000014003983c     lua-5.1_x64:lmathlib.obj
 0002:00002840       ??_C@_05HGHHAHAP@log10?$AA@ 0000000140039840     lua-5.1_x64:lmathlib.obj
 0002:00002848       ??_C@_05CEJMAHNP@ldexp?$AA@ 0000000140039848     lua-5.1_x64:lmathlib.obj
 0002:00002850       ??_C@_05GKKHEGJL@frexp?$AA@ 0000000140039850     lua-5.1_x64:lmathlib.obj
 0002:00002858       ??_C@_04KEPJIHGP@fmod?$AA@ 0000000140039858     lua-5.1_x64:lmathlib.obj
 0002:00002860       ??_C@_05PBJFFIGL@floor?$AA@ 0000000140039860     lua-5.1_x64:lmathlib.obj
 0002:00002868       ??_C@_03KHJOGHMM@exp?$AA@  0000000140039868     lua-5.1_x64:lmathlib.obj
 0002:0000286c       ??_C@_03OFPLEBM@deg?$AA@   000000014003986c     lua-5.1_x64:lmathlib.obj
 0002:00002870       ??_C@_03LALBNOCG@cos?$AA@  0000000140039870     lua-5.1_x64:lmathlib.obj
 0002:00002874       ??_C@_04HPJJNFIM@cosh?$AA@ 0000000140039874     lua-5.1_x64:lmathlib.obj
 0002:0000287c       ??_C@_04GFPJNGEK@ceil?$AA@ 000000014003987c     lua-5.1_x64:lmathlib.obj
 0002:00002884       ??_C@_04MLLJIGOK@atan?$AA@ 0000000140039884     lua-5.1_x64:lmathlib.obj
 0002:0000288c       ??_C@_05KNGEOGJB@atan2?$AA@ 000000014003988c     lua-5.1_x64:lmathlib.obj
 0002:00002894       ??_C@_04FIHNOPOL@asin?$AA@ 0000000140039894     lua-5.1_x64:lmathlib.obj
 0002:0000289c       ??_C@_04PDIFKINK@acos?$AA@ 000000014003989c     lua-5.1_x64:lmathlib.obj
 0002:000028a4       ??_C@_03BCGAIFPO@abs?$AA@  00000001400398a4     lua-5.1_x64:lmathlib.obj
 0002:00002a80       __mask@@AbsDouble@         0000000140039a80     lua-5.1_x64:lmathlib.obj
 0002:00002a90       __real@3f91df46a2529d39    0000000140039a90     lua-5.1_x64:lmathlib.obj
 0002:00002a98       __real@3ff0000000000000    0000000140039a98     lua-5.1_x64:lmathlib.obj
 0002:00002aa0       ??_C@_0BC@JKHEKPDC@interval?5is?5empty?$AA@ 0000000140039aa0     lua-5.1_x64:lmathlib.obj
 0002:00002ab8       ??_C@_0BK@KNAOOCNO@wrong?5number?5of?5arguments?$AA@ 0000000140039ab8     lua-5.1_x64:lmathlib.obj
 0002:00002ad8       __real@40dfffc000000000    0000000140039ad8     lua-5.1_x64:lmathlib.obj
 0002:00002ae0       ??_C@_03FFONCNID@mod?$AA@  0000000140039ae0     lua-5.1_x64:lmathlib.obj
 0002:00002ae4       ??_C@_04JJGMCGIH@huge?$AA@ 0000000140039ae4     lua-5.1_x64:lmathlib.obj
 0002:00002aec       ??_C@_02OAHAJOFD@pi?$AA@   0000000140039aec     lua-5.1_x64:lmathlib.obj
 0002:00002af0       __real@400921fb54442d18    0000000140039af0     lua-5.1_x64:lmathlib.obj
 0002:00002af8       ??_C@_04CFDJAKFL@math?$AA@ 0000000140039af8     lua-5.1_x64:lmathlib.obj
 0002:00002b00       ??_C@_05NECKJAMC@upper?$AA@ 0000000140039b00     lua-5.1_x64:lstrlib.obj
 0002:00002b08       ??_C@_03KCMAIMAP@sub?$AA@  0000000140039b08     lua-5.1_x64:lstrlib.obj
 0002:00002b10       ??_C@_07KOIEOCCE@reverse?$AA@ 0000000140039b10     lua-5.1_x64:lstrlib.obj
 0002:00002b18       ??_C@_03HOKODIMJ@rep?$AA@  0000000140039b18     lua-5.1_x64:lstrlib.obj
 0002:00002b1c       ??_C@_05FNONLPDI@match?$AA@ 0000000140039b1c     lua-5.1_x64:lstrlib.obj
 0002:00002b24       ??_C@_05IPJEPLHL@lower?$AA@ 0000000140039b24     lua-5.1_x64:lstrlib.obj
 0002:00002b2c       ??_C@_03BKCJCHLK@len?$AA@  0000000140039b2c     lua-5.1_x64:lstrlib.obj
 0002:00002b30       ??_C@_04GOLEAPFD@gsub?$AA@ 0000000140039b30     lua-5.1_x64:lstrlib.obj
 0002:00002b38       ??_C@_06DPFCLDIO@gmatch?$AA@ 0000000140039b38     lua-5.1_x64:lstrlib.obj
 0002:00002b40       ??_C@_05EIEIBDFD@gfind?$AA@ 0000000140039b40     lua-5.1_x64:lstrlib.obj
 0002:00002b48       ??_C@_06DLEPGFEF@format?$AA@ 0000000140039b48     lua-5.1_x64:lstrlib.obj
 0002:00002b50       ??_C@_04CKFJHKAP@find?$AA@ 0000000140039b50     lua-5.1_x64:lstrlib.obj
 0002:00002b58       ??_C@_04GGLOKIEE@dump?$AA@ 0000000140039b58     lua-5.1_x64:lstrlib.obj
 0002:00002b60       ??_C@_04ENMBGAPA@char?$AA@ 0000000140039b60     lua-5.1_x64:lstrlib.obj
 0002:00002b68       ??_C@_04IHGKJMLH@byte?$AA@ 0000000140039b68     lua-5.1_x64:lstrlib.obj
 0002:00002c70       ??_C@_0BG@DFAIEAEC@string?5slice?5too?5long?$AA@ 0000000140039c70     lua-5.1_x64:lstrlib.obj
 0002:00002c88       ??_C@_0O@EAJJMEEM@invalid?5value?$AA@ 0000000140039c88     lua-5.1_x64:lstrlib.obj
 0002:00002c98       ??_C@_0BO@BNLBHKJN@unable?5to?5dump?5given?5function?$AA@ 0000000140039c98     lua-5.1_x64:lstrlib.obj
 0002:00002cb8       ??_C@_0BG@LEHNKOGD@invalid?5capture?5index?$AA@ 0000000140039cb8     lua-5.1_x64:lstrlib.obj
 0002:00002cd0       ??_C@_0BI@ECNPHIBF@invalid?5pattern?5capture?$AA@ 0000000140039cd0     lua-5.1_x64:lstrlib.obj
 0002:00002ce8       ??_C@_0CD@PLJBIEHA@malformed?5pattern?5?$CIends?5with?5?8?$CF?$CF@ 0000000140039ce8     lua-5.1_x64:lstrlib.obj
 0002:00002d10       ??_C@_0CA@CFGACOGB@malformed?5pattern?5?$CImissing?5?8?$FN?8?$CJ?$AA@ 0000000140039d10     lua-5.1_x64:lstrlib.obj
 0002:00002d30       ??_C@_0BD@NGJIMPLI@unbalanced?5pattern?$AA@ 0000000140039d30     lua-5.1_x64:lstrlib.obj
 0002:00002d48       ??_C@_0BC@IMEAEJPD@too?5many?5captures?$AA@ 0000000140039d48     lua-5.1_x64:lstrlib.obj
 0002:00002d60       ??_C@_0CD@LOJJMDBH@missing?5?8?$FL?8?5after?5?8?$CF?$CFf?8?5in?5patte@ 0000000140039d60     lua-5.1_x64:lstrlib.obj
 0002:00002d88       ??_C@_0BD@BFKNEALP@unfinished?5capture?$AA@ 0000000140039d88     lua-5.1_x64:lstrlib.obj
 0002:00002da0       ??_C@_0L@NLFJOONJ@?$FO$?$CK?$CL?$DP?4?$CI?$FL?$CF?9?$AA@ 0000000140039da0     lua-5.1_x64:lstrlib.obj
 0002:00002db0       ??_C@_0CO@MAGJPEI@?8string?4gfind?8?5was?5renamed?5to?5?8s@ 0000000140039db0     lua-5.1_x64:lstrlib.obj
 0002:00002de0       ??_C@_0CB@LPDIHGGA@invalid?5replacement?5value?5?$CIa?5?$CFs?$CJ@ 0000000140039de0     lua-5.1_x64:lstrlib.obj
 0002:00002e08       ??_C@_0BP@PPPOBACA@string?1function?1table?5expected?$AA@ 0000000140039e08     lua-5.1_x64:lstrlib.obj
 0002:00002e28       ??_C@_04MPDIABOK@?2000?$AA@ 0000000140039e28     lua-5.1_x64:lstrlib.obj
 0002:00002e30       ??_C@_02HIBBOKEN@?2r?$AA@  0000000140039e30     lua-5.1_x64:lstrlib.obj
 0002:00002e38       ??_C@_0CN@KALFEKPN@invalid?5format?5?$CIwidth?5or?5precisi@ 0000000140039e38     lua-5.1_x64:lstrlib.obj
 0002:00002e68       ??_C@_0CA@COOMGCAO@invalid?5format?5?$CIrepeated?5flags?$CJ?$AA@ 0000000140039e68     lua-5.1_x64:lstrlib.obj
 0002:00002e88       ??_C@_05GGBDHNF@?9?$CL?5?$CD0?$AA@ 0000000140039e88     lua-5.1_x64:lstrlib.obj
 0002:00002e90       ??_C@_0CC@KIPBEOBI@invalid?5option?5?8?$CF?$CF?$CFc?8?5to?5?8format@ 0000000140039e90     lua-5.1_x64:lstrlib.obj
 0002:00002eb8       ??_C@_07NHABFFHN@__index?$AA@ 0000000140039eb8     lua-5.1_x64:lstrlib.obj
 0002:00002ec0       ??_C@_06ICGJLFIM@string?$AA@ 0000000140039ec0     lua-5.1_x64:lstrlib.obj
 0002:00002ec8       ??_C@_05LKJGIMLP@yield?$AA@ 0000000140039ec8     lua-5.1_x64:lbaselib.obj
 0002:00002ed0       ??_C@_04NFDDIEML@wrap?$AA@ 0000000140039ed0     lua-5.1_x64:lbaselib.obj
 0002:00002ed8       ??_C@_06DJIHEMFI@status?$AA@ 0000000140039ed8     lua-5.1_x64:lbaselib.obj
 0002:00002ee0       ??_C@_06PLELHCEK@resume?$AA@ 0000000140039ee0     lua-5.1_x64:lbaselib.obj
 0002:00002ee8       ??_C@_06HBNONAG@create?$AA@ 0000000140039ee8     lua-5.1_x64:lbaselib.obj
 0002:00002ef0       ??_C@_04BBBDNBOK@dead?$AA@ 0000000140039ef0     lua-5.1_x64:lbaselib.obj
 0002:00002ef8       ??_C@_06IKLLLDHL@normal?$AA@ 0000000140039ef8     lua-5.1_x64:lbaselib.obj
 0002:00002f00       ??_C@_09PAHKPJCJ@suspended?$AA@ 0000000140039f00     lua-5.1_x64:lbaselib.obj
 0002:00002f10       ??_C@_07PANPENDC@running?$AA@ 0000000140039f10     lua-5.1_x64:lbaselib.obj
 0002:00002f18       ??_C@_06GDLLDIBI@xpcall?$AA@ 0000000140039f18     lua-5.1_x64:lbaselib.obj
 0002:00002f20       ??_C@_06FIONAGJL@unpack?$AA@ 0000000140039f20     lua-5.1_x64:lbaselib.obj
 0002:00002f28       ??_C@_04GPMDFGEJ@type?$AA@ 0000000140039f28     lua-5.1_x64:lbaselib.obj
 0002:00002f30       ??_C@_08FNIIFOJC@tostring?$AA@ 0000000140039f30     lua-5.1_x64:lbaselib.obj
 0002:00002f40       ??_C@_08JOIMPOJO@tonumber?$AA@ 0000000140039f40     lua-5.1_x64:lbaselib.obj
 0002:00002f50       ??_C@_0N@MCAAIDEK@setmetatable?$AA@ 0000000140039f50     lua-5.1_x64:lbaselib.obj
 0002:00002f60       ??_C@_07NAJJCHPG@setfenv?$AA@ 0000000140039f60     lua-5.1_x64:lbaselib.obj
 0002:00002f68       ??_C@_06LGNCCACI@select?$AA@ 0000000140039f68     lua-5.1_x64:lbaselib.obj
 0002:00002f70       ??_C@_06ONPLLLOI@rawset?$AA@ 0000000140039f70     lua-5.1_x64:lbaselib.obj
 0002:00002f78       ??_C@_06DCIAHLCA@rawget?$AA@ 0000000140039f78     lua-5.1_x64:lbaselib.obj
 0002:00002f80       ??_C@_08LCBKMMAG@rawequal?$AA@ 0000000140039f80     lua-5.1_x64:lbaselib.obj
 0002:00002f8c       ??_C@_05IJDJACGD@print?$AA@ 0000000140039f8c     lua-5.1_x64:lbaselib.obj
 0002:00002f94       ??_C@_05JAJCNIIJ@pcall?$AA@ 0000000140039f94     lua-5.1_x64:lbaselib.obj
 0002:00002f9c       ??_C@_04CJGEDOF@next?$AA@  0000000140039f9c     lua-5.1_x64:lbaselib.obj
 0002:00002fa8       ??_C@_0L@BBBJLLLK@loadstring?$AA@ 0000000140039fa8     lua-5.1_x64:lbaselib.obj
 0002:00002fb4       ??_C@_04EONOHKEP@load?$AA@ 0000000140039fb4     lua-5.1_x64:lbaselib.obj
 0002:00002fc0       ??_C@_08BNNFLGCJ@loadfile?$AA@ 0000000140039fc0     lua-5.1_x64:lbaselib.obj
 0002:00002fd0       ??_C@_0N@LGLOEPAG@getmetatable?$AA@ 0000000140039fd0     lua-5.1_x64:lbaselib.obj
 0002:00002fe0       ??_C@_07CIGIBICH@getfenv?$AA@ 0000000140039fe0     lua-5.1_x64:lbaselib.obj
 0002:00002fe8       ??_C@_06EDAGHKOI@gcinfo?$AA@ 0000000140039fe8     lua-5.1_x64:lbaselib.obj
 0002:00002ff0       ??_C@_05KKCIMGE@error?$AA@ 0000000140039ff0     lua-5.1_x64:lbaselib.obj
 0002:00002ff8       ??_C@_06ONNDGCDK@dofile?$AA@ 0000000140039ff8     lua-5.1_x64:lbaselib.obj
 0002:00003000       ??_C@_0P@CKFEAJJE@collectgarbage?$AA@ 000000014003a000     lua-5.1_x64:lbaselib.obj
 0002:00003010       ??_C@_06GMEIIFFN@assert?$AA@ 000000014003a010     lua-5.1_x64:lbaselib.obj
 0002:00003018       ??_C@_0L@KABEJKKP@setstepmul?$AA@ 000000014003a018     lua-5.1_x64:lbaselib.obj
 0002:00003028       ??_C@_08ONFIAENP@setpause?$AA@ 000000014003a028     lua-5.1_x64:lbaselib.obj
 0002:00003034       ??_C@_04CNBNFAL@step?$AA@  000000014003a034     lua-5.1_x64:lbaselib.obj
 0002:0000303c       ??_C@_05IOMEMJEC@count?$AA@ 000000014003a03c     lua-5.1_x64:lbaselib.obj
 0002:00003048       ??_C@_07JHIJCABF@collect?$AA@ 000000014003a048     lua-5.1_x64:lbaselib.obj
 0002:00003050       ??_C@_07LDHOHMPD@restart?$AA@ 000000014003a050     lua-5.1_x64:lbaselib.obj
 0002:00003058       ??_C@_04PEGFANN@stop?$AA@  000000014003a058     lua-5.1_x64:lbaselib.obj
 0002:000032e0       ??_C@_0CL@KMHHCBJA@?8tostring?8?5must?5return?5a?5string?5@ 000000014003a2e0     lua-5.1_x64:lbaselib.obj
 0002:0000330c       ??_C@_01GPOEFGEJ@?7?$AA@   000000014003a30c     lua-5.1_x64:lbaselib.obj
 0002:00003310       ??_C@_0BC@GGLHLOMM@base?5out?5of?5range?$AA@ 000000014003a310     lua-5.1_x64:lbaselib.obj
 0002:00003328       ??_C@_0M@OKDMMFBL@__metatable?$AA@ 000000014003a328     lua-5.1_x64:lbaselib.obj
 0002:00003338       ??_C@_0CE@LJKICCEL@cannot?5change?5a?5protected?5metata@ 000000014003a338     lua-5.1_x64:lbaselib.obj
 0002:00003360       ??_C@_0BG@HDIIKINN@nil?5or?5table?5expected?$AA@ 000000014003a360     lua-5.1_x64:lbaselib.obj
 0002:00003378       ??_C@_0DC@LPPOGBD@no?5function?5environment?5for?5tail@ 000000014003a378     lua-5.1_x64:lbaselib.obj
 0002:000033ac       ??_C@_01INIBCBCB@f?$AA@    000000014003a3ac     lua-5.1_x64:lbaselib.obj
 0002:000033b0       ??_C@_0O@OFBEOMLD@invalid?5level?$AA@ 000000014003a3b0     lua-5.1_x64:lbaselib.obj
 0002:000033c0       ??_C@_0BL@NGAFCBHD@level?5must?5be?5non?9negative?$AA@ 000000014003a3c0     lua-5.1_x64:lbaselib.obj
 0002:000033e0       ??_C@_0DE@PIGGMBA@?8setfenv?8?5cannot?5change?5environm@ 000000014003a3e0     lua-5.1_x64:lbaselib.obj
 0002:00003418       __real@3f50000000000000    000000014003a418     lua-5.1_x64:lbaselib.obj
 0002:00003420       ??_C@_0CF@IPNALDCD@reader?5function?5must?5return?5a?5st@ 000000014003a420     lua-5.1_x64:lbaselib.obj
 0002:00003448       ??_C@_0BK@NJPFPDBN@too?5many?5nested?5functions?$AA@ 000000014003a448     lua-5.1_x64:lbaselib.obj
 0002:00003468       ??_C@_07JEBBFCAN@?$DN?$CIload?$CJ?$AA@ 000000014003a468     lua-5.1_x64:lbaselib.obj
 0002:00003470       ??_C@_0BC@ONMFJPBH@assertion?5failed?$CB?$AA@ 000000014003a470     lua-5.1_x64:lbaselib.obj
 0002:00003488       ??_C@_0BL@EDBCOFHM@too?5many?5results?5to?5unpack?$AA@ 000000014003a488     lua-5.1_x64:lbaselib.obj
 0002:000034a8       ??_C@_0BD@ILOGJALA@index?5out?5of?5range?$AA@ 000000014003a4a8     lua-5.1_x64:lbaselib.obj
 0002:000034bc       ??_C@_03ILAMHENH@nil?$AA@  000000014003a4bc     lua-5.1_x64:lbaselib.obj
 0002:000034c0       ??_C@_05LAPONLG@false?$AA@ 000000014003a4c0     lua-5.1_x64:lbaselib.obj
 0002:000034c8       ??_C@_04LOAJBDKD@true?$AA@ 000000014003a4c8     lua-5.1_x64:lbaselib.obj
 0002:000034d0       ??_C@_06CILKLLDB@?$CFs?3?5?$CFp?$AA@ 000000014003a4d0     lua-5.1_x64:lbaselib.obj
 0002:000034d8       ??_C@_0L@HDFPAPPH@__tostring?$AA@ 000000014003a4d8     lua-5.1_x64:lbaselib.obj
 0002:000034e8       ??_C@_0BK@OMPDBBEM@boolean?5or?5proxy?5expected?$AA@ 000000014003a4e8     lua-5.1_x64:lbaselib.obj
 0002:00003508       ??_C@_0BD@LDCLGBHF@coroutine?5expected?$AA@ 000000014003a508     lua-5.1_x64:lbaselib.obj
 0002:00003520       ??_C@_0BL@OALEJBKN@too?5many?5results?5to?5resume?$AA@ 000000014003a520     lua-5.1_x64:lbaselib.obj
 0002:00003540       ??_C@_0BL@DGCALGPK@cannot?5resume?5?$CFs?5coroutine?$AA@ 000000014003a540     lua-5.1_x64:lbaselib.obj
 0002:00003560       ??_C@_0BN@CLPLGDGN@too?5many?5arguments?5to?5resume?$AA@ 000000014003a560     lua-5.1_x64:lbaselib.obj
 0002:00003580       ??_C@_0BG@EHJAKGKG@Lua?5function?5expected?$AA@ 000000014003a580     lua-5.1_x64:lbaselib.obj
 0002:00003598       ??_C@_08HDPJFDHB@newproxy?$AA@ 000000014003a598     lua-5.1_x64:lbaselib.obj
 0002:000035a4       ??_C@_06BPGFKLEK@__mode?$AA@ 000000014003a5a4     lua-5.1_x64:lbaselib.obj
 0002:000035ac       ??_C@_02DNFJNMFM@kv?$AA@   000000014003a5ac     lua-5.1_x64:lbaselib.obj
 0002:000035b0       ??_C@_05PEAECDOC@pairs?$AA@ 000000014003a5b0     lua-5.1_x64:lbaselib.obj
 0002:000035b8       ??_C@_06MGIEFEAJ@ipairs?$AA@ 000000014003a5b8     lua-5.1_x64:lbaselib.obj
 0002:000035c0       ??_C@_08PMLCGGEP@_VERSION?$AA@ 000000014003a5c0     lua-5.1_x64:lbaselib.obj
 0002:000035d0       ??_C@_07GLKNJPII@Lua?55?41?$AA@ 000000014003a5d0     lua-5.1_x64:lbaselib.obj
 0002:000035d8       ??_C@_02NIGGJGKC@_G?$AA@   000000014003a5d8     lua-5.1_x64:lbaselib.obj
 0002:000035e0       ??_C@_09HNKENHFC@coroutine?$AA@ 000000014003a5e0     lua-5.1_x64:lbaselib.obj
 0002:000035f0       ??_C@_0BC@ENOOLCNF@not?5enough?5memory?$AA@ 000000014003a5f0     lua-5.1_x64:lstate.obj
 0002:00003604       ??_C@_04PIMMHFGE@sort?$AA@ 000000014003a604     lua-5.1_x64:ltablib.obj
 0002:0000360c       ??_C@_04CDNBBDGJ@setn?$AA@ 000000014003a60c     lua-5.1_x64:ltablib.obj
 0002:00003614       ??_C@_06LEMKAMD@remove?$AA@ 000000014003a614     lua-5.1_x64:ltablib.obj
 0002:0000361c       ??_C@_06OAOPNKHP@insert?$AA@ 000000014003a61c     lua-5.1_x64:ltablib.obj
 0002:00003624       ??_C@_04HKHJFELJ@maxn?$AA@ 000000014003a624     lua-5.1_x64:ltablib.obj
 0002:0000362c       ??_C@_04LGLBCCCL@getn?$AA@ 000000014003a62c     lua-5.1_x64:ltablib.obj
 0002:00003638       ??_C@_08GDLALCOF@foreachi?$AA@ 000000014003a638     lua-5.1_x64:ltablib.obj
 0002:00003648       ??_C@_07ICLAOFOB@foreach?$AA@ 000000014003a648     lua-5.1_x64:ltablib.obj
 0002:00003650       ??_C@_06CMLIEHFC@concat?$AA@ 000000014003a650     lua-5.1_x64:ltablib.obj
 0002:00003700       ??_C@_0BD@OBDNDPKA@?8setn?8?5is?5obsolete?$AA@ 000000014003a700     lua-5.1_x64:ltablib.obj
 0002:00003718       ??_C@_0CG@LPGHMHCC@wrong?5number?5of?5arguments?5to?5?8in@ 000000014003a718     lua-5.1_x64:ltablib.obj
 0002:00003740       ??_C@_0DF@OJJECDJJ@invalid?5value?5?$CI?$CFs?$CJ?5at?5index?5?$CFd?5i@ 000000014003a740     lua-5.1_x64:ltablib.obj
 0002:00003778       ??_C@_0CD@OFHMGIPD@invalid?5order?5function?5for?5sorti@ 000000014003a778     lua-5.1_x64:ltablib.obj
 0002:0000379c       ??_C@_05LCLENNFI@table?$AA@ 000000014003a79c     lua-5.1_x64:ltablib.obj
 0002:000037b0       luaO_nilobject_            000000014003a7b0     lua-5.1_x64:lobject.obj
 0002:000038c0       ??_C@_01FGNFDNOH@?$CF?$AA@ 000000014003a8c0     lua-5.1_x64:lobject.obj
 0002:000038c4       ??_C@_02BBAHNLBA@?$CFp?$AA@ 000000014003a8c4     lua-5.1_x64:lobject.obj
 0002:000038c8       ??_C@_06OJHGLDPL@?$CInull?$CJ?$AA@ 000000014003a8c8     lua-5.1_x64:lobject.obj
 0002:000038d0       ??_C@_02DEGCJHHK@?$CC?$FN?$AA@ 000000014003a8d0     lua-5.1_x64:lobject.obj
 0002:000038d8       ??_C@_09PHLFBDIK@?$FLstring?5?$CC?$AA@ 000000014003a8d8     lua-5.1_x64:lobject.obj
 0002:000038e4       ??_C@_02LIIHNNHG@?6?$AN?$AA@ 000000014003a8e4     lua-5.1_x64:lobject.obj
 0002:000038e8       ??_C@_03KHICJKCI@?4?4?4?$AA@ 000000014003a8e8     lua-5.1_x64:lobject.obj
 0002:000038f0       ??_C@_0BI@KGOCJOGJ@error?5in?5error?5handling?$AA@ 000000014003a8f0     lua-5.1_x64:ldo.obj
 0002:00003908       ??_C@_04OMFAIDPG@call?$AA@ 000000014003a908     lua-5.1_x64:ldo.obj
 0002:00003910       ??_C@_0DD@CPKEKIFA@attempt?5to?5yield?5across?5metameth@ 000000014003a910     lua-5.1_x64:ldo.obj
 0002:00003948       ??_C@_0P@EODJGPIM@stack?5overflow?$AA@ 000000014003a948     lua-5.1_x64:ldo.obj
 0002:00003958       ??_C@_0BB@EJOGNINL@C?5stack?5overflow?$AA@ 000000014003a958     lua-5.1_x64:ldo.obj
 0002:00003970       ??_C@_0CG@NAAHDPPN@cannot?5resume?5non?9suspended?5coro@ 000000014003a970     lua-5.1_x64:ldo.obj
 0002:00003998       ??_C@_04GHJNJNPO@main?$AA@ 000000014003a998     lua-5.1_x64:ldebug.obj
 0002:000039a0       ??_C@_03CBKFDHDL@Lua?$AA@  000000014003a9a0     lua-5.1_x64:ldebug.obj
 0002:000039a4       ??_C@_04BKJOMPG@?$DN?$FLC?$FN?$AA@ 000000014003a9a4     lua-5.1_x64:ldebug.obj
 0002:000039ac       ??_C@_04DIFLAKIP@tail?$AA@ 000000014003a9ac     lua-5.1_x64:ldebug.obj
 0002:000039b8       ??_C@_0N@DIENKKJP@?$DN?$CItail?5call?$CJ?$AA@ 000000014003a9b8     lua-5.1_x64:ldebug.obj
 0002:000039c8       ??_C@_05IDKHKMLA@local?$AA@ 000000014003a9c8     lua-5.1_x64:ldebug.obj
 0002:000039d0       ??_C@_07NAGMKCIK@upvalue?$AA@ 000000014003a9d0     lua-5.1_x64:ldebug.obj
 0002:000039d8       ??_C@_06FJKEMHGD@global?$AA@ 000000014003a9d8     lua-5.1_x64:ldebug.obj
 0002:000039e0       ??_C@_05EIBGDMPB@field?$AA@ 000000014003a9e0     lua-5.1_x64:ldebug.obj
 0002:000039e8       ??_C@_09BHPFBFOI@?$CFs?3?$CFd?3?5?$CFs?$AA@ 000000014003a9e8     lua-5.1_x64:ldebug.obj
 0002:000039f8       ??_C@_0CD@HAGFMPIP@attempt?5to?5?$CFs?5?$CFs?5?8?$CFs?8?5?$CIa?5?$CFs?5valu@ 000000014003a9f8     lua-5.1_x64:ldebug.obj
 0002:00003a20       ??_C@_0BJ@HGCMIDJD@attempt?5to?5?$CFs?5a?5?$CFs?5value?$AA@ 000000014003aa20     lua-5.1_x64:ldebug.obj
 0002:00003a40       ??_C@_0M@LPKAOE@concatenate?$AA@ 000000014003aa40     lua-5.1_x64:ldebug.obj
 0002:00003a50       ??_C@_0BG@IOLALLOM@perform?5arithmetic?5on?$AA@ 000000014003aa50     lua-5.1_x64:ldebug.obj
 0002:00003a68       ??_C@_0BO@DNBGDDFP@attempt?5to?5compare?5?$CFs?5with?5?$CFs?$AA@ 000000014003aa68     lua-5.1_x64:ldebug.obj
 0002:00003a88       ??_C@_0CB@DEJMKNMB@attempt?5to?5compare?5two?5?$CFs?5values@ 000000014003aa88     lua-5.1_x64:ldebug.obj
 0002:00003aac       ??_C@_06JPFLIIOJ@__call?$AA@ 000000014003aaac     lua-5.1_x64:ltm.obj
 0002:00003ab8       ??_C@_08HGDAODEP@__concat?$AA@ 000000014003aab8     lua-5.1_x64:ltm.obj
 0002:00003ac4       ??_C@_04EJLHOCKK@__le?$AA@ 000000014003aac4     lua-5.1_x64:ltm.obj
 0002:00003acc       ??_C@_04BKGOMBLK@__lt?$AA@ 000000014003aacc     lua-5.1_x64:ltm.obj
 0002:00003ad4       ??_C@_05MNDELLDN@__len?$AA@ 000000014003aad4     lua-5.1_x64:ltm.obj
 0002:00003adc       ??_C@_05MHFNBPAK@__unm?$AA@ 000000014003aadc     lua-5.1_x64:ltm.obj
 0002:00003ae4       ??_C@_05EBGMHPNE@__pow?$AA@ 000000014003aae4     lua-5.1_x64:ltm.obj
 0002:00003aec       ??_C@_05ICPALBAE@__mod?$AA@ 000000014003aaec     lua-5.1_x64:ltm.obj
 0002:00003af4       ??_C@_05IDIBPCOP@__div?$AA@ 000000014003aaf4     lua-5.1_x64:ltm.obj
 0002:00003afc       ??_C@_05FLJIBNKK@__mul?$AA@ 000000014003aafc     lua-5.1_x64:ltm.obj
 0002:00003b04       ??_C@_05HFNNBAII@__sub?$AA@ 000000014003ab04     lua-5.1_x64:ltm.obj
 0002:00003b0c       ??_C@_05MEHDOBFN@__add?$AA@ 000000014003ab0c     lua-5.1_x64:ltm.obj
 0002:00003b14       ??_C@_04GIMIAOHA@__eq?$AA@ 000000014003ab14     lua-5.1_x64:ltm.obj
 0002:00003b1c       ??_C@_04BDLIKKMN@__gc?$AA@ 000000014003ab1c     lua-5.1_x64:ltm.obj
 0002:00003b28       ??_C@_0L@GADKNKH@__newindex?$AA@ 000000014003ab28     lua-5.1_x64:ltm.obj
 0002:00003b34       ??_C@_05CCAJFIBN@upval?$AA@ 000000014003ab34     lua-5.1_x64:ltm.obj
 0002:00003b3c       ??_C@_05BENFLAID@proto?$AA@ 000000014003ab3c     lua-5.1_x64:ltm.obj
 0002:00003b44       ??_C@_06FJHNOCKE@thread?$AA@ 000000014003ab44     lua-5.1_x64:ltm.obj
 0002:00003b50       ??_C@_08HFFPPCHF@function?$AA@ 000000014003ab50     lua-5.1_x64:ltm.obj
 0002:00003b5c       ??_C@_06EBGNBFIA@number?$AA@ 000000014003ab5c     lua-5.1_x64:ltm.obj
 0002:00003b68       ??_C@_08NOEPOPLB@userdata?$AA@ 000000014003ab68     lua-5.1_x64:ltm.obj
 0002:00003b78       ??_C@_07GOBOHMJA@boolean?$AA@ 000000014003ab78     lua-5.1_x64:ltm.obj
 0002:00003b80       luaT_typenames             000000014003ab80     lua-5.1_x64:ltm.obj
 0002:00003c68       ??_C@_05CGOEHEFE@?$CF?414g?$AA@ 000000014003ac68     lua-5.1_x64:lvm.obj
 0002:00003c70       ??_C@_0BB@JEECHIJH@loop?5in?5gettable?$AA@ 000000014003ac70     lua-5.1_x64:lvm.obj
 0002:00003c84       ??_C@_05FKHKFDID@index?$AA@ 000000014003ac84     lua-5.1_x64:lvm.obj
 0002:00003c90       ??_C@_0BB@GFGOGLOK@loop?5in?5settable?$AA@ 000000014003ac90     lua-5.1_x64:lvm.obj
 0002:00003ca8       ??_C@_0BH@ONIKNOCM@string?5length?5overflow?$AA@ 000000014003aca8     lua-5.1_x64:lvm.obj
 0002:00003cc0       __mask@@NegDouble@         000000014003acc0     lua-5.1_x64:lvm.obj
 0002:00003cd0       ??_C@_0BM@EGCFKNIJ@?8for?8?5step?5must?5be?5a?5number?$AA@ 000000014003acd0     lua-5.1_x64:lvm.obj
 0002:00003cf0       ??_C@_0CF@JJFDEONC@?8for?8?5initial?5value?5must?5be?5a?5nu@ 000000014003acf0     lua-5.1_x64:lvm.obj
 0002:00003d18       ??_C@_0BN@GHPMJMPH@?8for?8?5limit?5must?5be?5a?5number?$AA@ 000000014003ad18     lua-5.1_x64:lvm.obj
 0002:00003d38       ??_C@_0O@MKOIIDGO@get?5length?5of?$AA@ 000000014003ad38     lua-5.1_x64:lvm.obj
 0002:00003d48       __real@43f0000000000000    000000014003ad48     lua-5.1_x64:lvm.obj
 0002:00003d78       ??_C@_0BG@FEBJBDLJ@invalid?5key?5to?5?8next?8?$AA@ 000000014003ad78     lua-5.1_x64:ltable.obj
 0002:00003d90       ??_C@_0P@KKABOKCO@table?5overflow?$AA@ 000000014003ad90     lua-5.1_x64:ltable.obj
 0002:00003da0       ??_C@_0BD@BKBJANLJ@table?5index?5is?5NaN?$AA@ 000000014003ada0     lua-5.1_x64:ltable.obj
 0002:00003db8       ??_C@_0BD@BDIKLFBP@table?5index?5is?5nil?$AA@ 000000014003adb8     lua-5.1_x64:ltable.obj
 0002:00003dd0       ??_C@_0BM@EDNHGHJO@?$CFs?3?5?$CFs?5in?5precompiled?5chunk?$AA@ 000000014003add0     lua-5.1_x64:lundump.obj
 0002:00003df0       ??_C@_0P@CLDJCNKP@unexpected?5end?$AA@ 000000014003adf0     lua-5.1_x64:lundump.obj
 0002:00003e00       ??_C@_0M@KLEMECJB@bad?5integer?$AA@ 000000014003ae00     lua-5.1_x64:lundump.obj
 0002:00003e10       ??_C@_0N@DOELNLHF@bad?5constant?$AA@ 000000014003ae10     lua-5.1_x64:lundump.obj
 0002:00003e20       ??_C@_08OFPEJJEA@bad?5code?$AA@ 000000014003ae20     lua-5.1_x64:lundump.obj
 0002:00003e30       ??_C@_0O@GNEOPCAJ@code?5too?5deep?$AA@ 000000014003ae30     lua-5.1_x64:lundump.obj
 0002:00003e40       ??_C@_0L@PJHPAMCH@bad?5header?$AA@ 000000014003ae40     lua-5.1_x64:lundump.obj
 0002:00003e4c       ??_C@_02HENDHKBC@?$DN?$DP?$AA@ 000000014003ae4c     lua-5.1_x64:lundump.obj
 0002:00003e50       ??_C@_0O@CNJIDMJE@binary?5string?$AA@ 000000014003ae50     lua-5.1_x64:lundump.obj
 0002:00003e60       ??_C@_0CH@LBFPMMCP@memory?5allocation?5error?3?5block?5t@ 000000014003ae60     lua-5.1_x64:lmem.obj
 0002:00003e88       ??_C@_05CINCKAN@?$DMeof?$DO?$AA@ 000000014003ae88     lua-5.1_x64:llex.obj
 0002:00003e90       ??_C@_08OOGHEFMC@?$DMstring?$DO?$AA@ 000000014003ae90     lua-5.1_x64:llex.obj
 0002:00003e9c       ??_C@_06FNGJOCBI@?$DMname?$DO?$AA@ 000000014003ae9c     lua-5.1_x64:llex.obj
 0002:00003ea8       ??_C@_08OHBCANEJ@?$DMnumber?$DO?$AA@ 000000014003aea8     lua-5.1_x64:llex.obj
 0002:00003eb4       ??_C@_02DEDJCLAJ@?$HO?$DN?$AA@ 000000014003aeb4     lua-5.1_x64:llex.obj
 0002:00003eb8       ??_C@_02EHCHHCKH@?$DM?$DN?$AA@ 000000014003aeb8     lua-5.1_x64:llex.obj
 0002:00003ebc       ??_C@_02EEKDKGMJ@?$DO?$DN?$AA@ 000000014003aebc     lua-5.1_x64:llex.obj
 0002:00003ec0       ??_C@_02EGOFBIJA@?$DN?$DN?$AA@ 000000014003aec0     lua-5.1_x64:llex.obj
 0002:00003ec4       ??_C@_02DJGKEECL@?4?4?$AA@ 000000014003aec4     lua-5.1_x64:llex.obj
 0002:00003ec8       ??_C@_05OODBEKIG@while?$AA@ 000000014003aec8     lua-5.1_x64:llex.obj
 0002:00003ed0       ??_C@_05FJMDOIMN@until?$AA@ 000000014003aed0     lua-5.1_x64:llex.obj
 0002:00003ed8       ??_C@_04HOHPNOOD@then?$AA@ 000000014003aed8     lua-5.1_x64:llex.obj
 0002:00003ee0       ??_C@_06LNOFJDNM@return?$AA@ 000000014003aee0     lua-5.1_x64:llex.obj
 0002:00003ee8       ??_C@_06LGDBIFHB@repeat?$AA@ 000000014003aee8     lua-5.1_x64:llex.obj
 0002:00003ef0       ??_C@_02FODMLBIE@or?$AA@   000000014003aef0     lua-5.1_x64:llex.obj
 0002:00003ef4       ??_C@_03NJKJADM@not?$AA@   000000014003aef4     lua-5.1_x64:llex.obj
 0002:00003ef8       ??_C@_02LMMGJAGL@in?$AA@   000000014003aef8     lua-5.1_x64:llex.obj
 0002:00003efc       ??_C@_02HEBPBKGD@if?$AA@   000000014003aefc     lua-5.1_x64:llex.obj
 0002:00003f00       ??_C@_03JOHEBPFF@for?$AA@  000000014003af00     lua-5.1_x64:llex.obj
 0002:00003f04       ??_C@_03JBJLGPFL@end?$AA@  000000014003af04     lua-5.1_x64:llex.obj
 0002:00003f08       ??_C@_06CAACNEC@elseif?$AA@ 000000014003af08     lua-5.1_x64:llex.obj
 0002:00003f10       ??_C@_04FHMCPBIP@else?$AA@ 000000014003af10     lua-5.1_x64:llex.obj
 0002:00003f18       ??_C@_02KNAFDCHJ@do?$AA@   000000014003af18     lua-5.1_x64:llex.obj
 0002:00003f1c       ??_C@_05ELPHFHOI@break?$AA@ 000000014003af1c     lua-5.1_x64:llex.obj
 0002:00003f24       ??_C@_03BOPJPIAM@and?$AA@  000000014003af24     lua-5.1_x64:llex.obj
 0002:00003f30       luaX_tokens                000000014003af30     lua-5.1_x64:llex.obj
 0002:00004030       ??_C@_0BJ@JNKOFINI@lexical?5element?5too?5long?$AA@ 000000014003b030     lua-5.1_x64:llex.obj
 0002:0000404c       ??_C@_02HAOIJKIC@?$CFc?$AA@ 000000014003b04c     lua-5.1_x64:llex.obj
 0002:00004050       ??_C@_08HJPIMBHL@char?$CI?$CFd?$CJ?$AA@ 000000014003b050     lua-5.1_x64:llex.obj
 0002:00004060       ??_C@_0N@FKCNMBAF@?$CFs?5near?5?8?$CFs?8?$AA@ 000000014003b060     lua-5.1_x64:llex.obj
 0002:00004070       ??_C@_0BJ@LAKGPFF@chunk?5has?5too?5many?5lines?$AA@ 000000014003b070     lua-5.1_x64:llex.obj
 0002:00004090       ??_C@_0BB@CFMNENCE@malformed?5number?$AA@ 000000014003b090     lua-5.1_x64:llex.obj
 0002:000040a4       ??_C@_02BEIMNFAD@?$CL?9?$AA@ 000000014003b0a4     lua-5.1_x64:llex.obj
 0002:000040a8       ??_C@_02GOGFPGCE@Ee?$AA@   000000014003b0a8     lua-5.1_x64:llex.obj
 0002:000040b0       ??_C@_0BI@ONEAKEIB@unfinished?5long?5comment?$AA@ 000000014003b0b0     lua-5.1_x64:llex.obj
 0002:000040c8       ??_C@_0BH@BBMFLJJP@unfinished?5long?5string?$AA@ 000000014003b0c8     lua-5.1_x64:llex.obj
 0002:000040e0       ??_C@_0CB@BALFDNPK@nesting?5of?5?$FL?$FL?4?4?4?$FN?$FN?5is?5deprecated@ 000000014003b0e0     lua-5.1_x64:llex.obj
 0002:00004108       ??_C@_0BK@GLJFEJMO@escape?5sequence?5too?5large?$AA@ 000000014003b108     lua-5.1_x64:llex.obj
 0002:00004128       ??_C@_0BC@IBAFBKML@unfinished?5string?$AA@ 000000014003b128     lua-5.1_x64:llex.obj
 0002:0000413c       ??_C@_01LFCBOECM@?4?$AA@   000000014003b13c     lua-5.1_x64:llex.obj
 0002:00004140       ??_C@_0BO@DBNLNIBP@invalid?5long?5string?5delimiter?$AA@ 000000014003b140     lua-5.1_x64:llex.obj
 0002:00004180       ??_C@_0O@DDMAPLHE@?8?$CFs?8?5expected?$AA@ 000000014003b180     lua-5.1_x64:lparser.obj
 0002:00004190       ??_C@_0CI@FLAOKACM@function?5at?5line?5?$CFd?5has?5more?5tha@ 000000014003b190     lua-5.1_x64:lparser.obj
 0002:000041b8       ??_C@_0CC@OKOPEFGK@main?5function?5has?5more?5than?5?$CFd?5?$CF@ 000000014003b1b8     lua-5.1_x64:lparser.obj
 0002:000041e0       ??_C@_0CJ@IJEGBPEP@?8?$CFs?8?5expected?5?$CIto?5close?5?8?$CFs?8?5at?5@ 000000014003b1e0     lua-5.1_x64:lparser.obj
 0002:00004210       ??_C@_0BJ@EGOMLGMD@too?5many?5local?5variables?$AA@ 000000014003b210     lua-5.1_x64:lparser.obj
 0002:00004230       ??_C@_0BA@EIDMAHJI@local?5variables?$AA@ 000000014003b230     lua-5.1_x64:lparser.obj
 0002:00004240       ??_C@_08JKPCMKJ@upvalues?$AA@ 000000014003b240     lua-5.1_x64:lparser.obj
 0002:00004250       ??_C@_0CB@OHOGAGIL@chunk?5has?5too?5many?5syntax?5levels@ 000000014003b250     lua-5.1_x64:lparser.obj
 0002:00004278       ??_C@_0BI@DGLMJHJB@constant?5table?5overflow?$AA@ 000000014003b278     lua-5.1_x64:lparser.obj
 0002:00004290       ??_C@_0BH@IAOKECIM@items?5in?5a?5constructor?$AA@ 000000014003b290     lua-5.1_x64:lparser.obj
 0002:000042a8       ??_C@_03CAOIPBNL@arg?$AA@  000000014003b2a8     lua-5.1_x64:lparser.obj
 0002:000042b0       ??_C@_0BJ@MHIGIDHO@?$DMname?$DO?5or?5?8?4?4?4?8?5expected?$AA@ 000000014003b2b0     lua-5.1_x64:lparser.obj
 0002:000042cc       ??_C@_04PJDNGLKJ@self?$AA@ 000000014003b2cc     lua-5.1_x64:lparser.obj
 0002:000042d8       ??_C@_0DB@LGGKFLCP@ambiguous?5syntax?5?$CIfunction?5call?5@ 000000014003b2d8     lua-5.1_x64:lparser.obj
 0002:00004310       ??_C@_0BM@HEIHHEKF@function?5arguments?5expected?$AA@ 000000014003b310     lua-5.1_x64:lparser.obj
 0002:00004330       ??_C@_0BC@KBCKKGAJ@unexpected?5symbol?$AA@ 000000014003b330     lua-5.1_x64:lparser.obj
 0002:00004348       ??_C@_0CL@EJFFCAJP@cannot?5use?5?8?4?4?4?8?5outside?5a?5varar@ 000000014003b348     lua-5.1_x64:lparser.obj
 0002:00004378       ??_C@_0BI@MAKOOLPG@variables?5in?5assignment?$AA@ 000000014003b378     lua-5.1_x64:lparser.obj
 0002:00004390       ??_C@_0N@MNJHOOI@syntax?5error?$AA@ 000000014003b390     lua-5.1_x64:lparser.obj
 0002:000043a0       ??_C@_0BB@DBFONGCK@no?5loop?5to?5break?$AA@ 000000014003b3a0     lua-5.1_x64:lparser.obj
 0002:000043b8       ??_C@_0L@ELGHHMFI@?$CIfor?5step?$CJ?$AA@ 000000014003b3b8     lua-5.1_x64:lparser.obj
 0002:000043c8       ??_C@_0M@HGGGDCAE@?$CIfor?5limit?$CJ?$AA@ 000000014003b3c8     lua-5.1_x64:lparser.obj
 0002:000043d8       ??_C@_0M@HHIHAJLG@?$CIfor?5index?$CJ?$AA@ 000000014003b3d8     lua-5.1_x64:lparser.obj
 0002:000043e8       ??_C@_0O@PHJHAIC@?$CIfor?5control?$CJ?$AA@ 000000014003b3e8     lua-5.1_x64:lparser.obj
 0002:000043f8       ??_C@_0M@CCNPGEGC@?$CIfor?5state?$CJ?$AA@ 000000014003b3f8     lua-5.1_x64:lparser.obj
 0002:00004408       ??_C@_0BA@IJIMMPHF@?$CIfor?5generator?$CJ?$AA@ 000000014003b408     lua-5.1_x64:lparser.obj
 0002:00004418       ??_C@_0BF@PACDFECJ@?8?$DN?8?5or?5?8in?8?5expected?$AA@ 000000014003b418     lua-5.1_x64:lparser.obj
 0002:00004430       ??_C@_06FHOJKFCK@VARARG?$AA@ 000000014003b430     lua-5.1_x64:lopcodes.obj
 0002:00004438       ??_C@_07CBDMEJDJ@CLOSURE?$AA@ 000000014003b438     lua-5.1_x64:lopcodes.obj
 0002:00004440       ??_C@_05HKHBPABE@CLOSE?$AA@ 000000014003b440     lua-5.1_x64:lopcodes.obj
 0002:00004448       ??_C@_07LGKGOMK@SETLIST?$AA@ 000000014003b448     lua-5.1_x64:lopcodes.obj
 0002:00004450       ??_C@_08LFLGPGKH@TFORLOOP?$AA@ 000000014003b450     lua-5.1_x64:lopcodes.obj
 0002:00004460       ??_C@_07BDNHFNAN@FORPREP?$AA@ 000000014003b460     lua-5.1_x64:lopcodes.obj
 0002:00004468       ??_C@_07BJCDCNBK@FORLOOP?$AA@ 000000014003b468     lua-5.1_x64:lopcodes.obj
 0002:00004470       ??_C@_06LJMOENAO@RETURN?$AA@ 000000014003b470     lua-5.1_x64:lopcodes.obj
 0002:00004478       ??_C@_08GDMBKKIJ@TAILCALL?$AA@ 000000014003b478     lua-5.1_x64:lopcodes.obj
 0002:00004484       ??_C@_04CAGKGBIO@CALL?$AA@ 000000014003b484     lua-5.1_x64:lopcodes.obj
 0002:00004490       ??_C@_07GLDFODBB@TESTSET?$AA@ 000000014003b490     lua-5.1_x64:lopcodes.obj
 0002:00004498       ??_C@_04OIKJMBFP@TEST?$AA@ 000000014003b498     lua-5.1_x64:lopcodes.obj
 0002:000044a0       ??_C@_02PEDAOJAJ@LE?$AA@   000000014003b4a0     lua-5.1_x64:lopcodes.obj
 0002:000044a4       ??_C@_02KHOJMKBJ@LT?$AA@   000000014003b4a4     lua-5.1_x64:lopcodes.obj
 0002:000044a8       ??_C@_02NFEPAFND@EQ?$AA@   000000014003b4a8     lua-5.1_x64:lopcodes.obj
 0002:000044ac       ??_C@_03OIOLNLHN@JMP?$AA@  000000014003b4ac     lua-5.1_x64:lopcodes.obj
 0002:000044b0       ??_C@_06CIJDJJIA@CONCAT?$AA@ 000000014003b4b0     lua-5.1_x64:lopcodes.obj
 0002:000044b8       ??_C@_03BHNCOKMG@LEN?$AA@  000000014003b4b8     lua-5.1_x64:lopcodes.obj
 0002:000044bc       ??_C@_03GBFNEA@NOT?$AA@    000000014003b4bc     lua-5.1_x64:lopcodes.obj
 0002:000044c0       ??_C@_03BNLLEOPB@UNM?$AA@  000000014003b4c0     lua-5.1_x64:lopcodes.obj
 0002:000044c4       ??_C@_03JLIKCOCP@POW?$AA@  000000014003b4c4     lua-5.1_x64:lopcodes.obj
 0002:000044c8       ??_C@_03FIBGOAPP@MOD?$AA@  000000014003b4c8     lua-5.1_x64:lopcodes.obj
 0002:000044cc       ??_C@_03FJGHKDBE@DIV?$AA@  000000014003b4cc     lua-5.1_x64:lopcodes.obj
 0002:000044d0       ??_C@_03IBHOEMFB@MUL?$AA@  000000014003b4d0     lua-5.1_x64:lopcodes.obj
 0002:000044d4       ??_C@_03KPDLEBHD@SUB?$AA@  000000014003b4d4     lua-5.1_x64:lopcodes.obj
 0002:000044d8       ??_C@_03BOJFLAKG@ADD?$AA@  000000014003b4d8     lua-5.1_x64:lopcodes.obj
 0002:000044dc       ??_C@_04DFAHIJNB@SELF?$AA@ 000000014003b4dc     lua-5.1_x64:lopcodes.obj
 0002:000044e8       ??_C@_08LPLGEMDO@NEWTABLE?$AA@ 000000014003b4e8     lua-5.1_x64:lopcodes.obj
 0002:000044f8       ??_C@_08NDNBPDIF@SETTABLE?$AA@ 000000014003b4f8     lua-5.1_x64:lopcodes.obj
 0002:00004508       ??_C@_08EDGMHGMA@SETUPVAL?$AA@ 000000014003b508     lua-5.1_x64:lopcodes.obj
 0002:00004518       ??_C@_09DECDCIIG@SETGLOBAL?$AA@ 000000014003b518     lua-5.1_x64:lopcodes.obj
 0002:00004528       ??_C@_08CCPNOAPI@GETTABLE?$AA@ 000000014003b528     lua-5.1_x64:lopcodes.obj
 0002:00004538       ??_C@_09BKGGAJBE@GETGLOBAL?$AA@ 000000014003b538     lua-5.1_x64:lopcodes.obj
 0002:00004548       ??_C@_08LCEAGFLN@GETUPVAL?$AA@ 000000014003b548     lua-5.1_x64:lopcodes.obj
 0002:00004558       ??_C@_07GHJHEMKM@LOADNIL?$AA@ 000000014003b558     lua-5.1_x64:lopcodes.obj
 0002:00004560       ??_C@_08GBBGHEAC@LOADBOOL?$AA@ 000000014003b560     lua-5.1_x64:lopcodes.obj
 0002:0000456c       ??_C@_05KLLCNHFJ@LOADK?$AA@ 000000014003b56c     lua-5.1_x64:lopcodes.obj
 0002:00004574       ??_C@_04LPPGDFDD@MOVE?$AA@ 000000014003b574     lua-5.1_x64:lopcodes.obj
 0002:00004580       luaP_opnames               000000014003b580     lua-5.1_x64:lopcodes.obj
 0002:000046b8       luaP_opmodes               000000014003b6b8     lua-5.1_x64:lopcodes.obj
 0002:000046e0       ??_C@_0BL@BDOLDOFI@control?5structure?5too?5long?$AA@ 000000014003b6e0     lua-5.1_x64:lcode.obj
 0002:00004700       ??_C@_0CD@HGHHKJGL@function?5or?5expression?5too?5compl@ 000000014003b700     lua-5.1_x64:lcode.obj
 0002:00004728       ??_C@_0BD@LKJEPOHE@code?5size?5overflow?$AA@ 000000014003b728     lua-5.1_x64:lcode.obj
 0002:0000473c       ??_C@_01LOCGONAA@?$AA?$AA@ 000000014003b73c     wylib_x64:wyString.obj
 0002:00004740       ??_C@_13NOLLCAOD@?$AA?$AA?$AA?$AA@ 000000014003b740     wylib_x64:wyString.obj
 0002:000054c0       ??_C@_06LJBABKPM@class?5?$AA@ 000000014003c4c0     srvlib_x64:TimeStat.obj
 0002:000054c8       ??_C@_07DIBCDNGL@struct?5?$AA@ 000000014003c4c8     srvlib_x64:TimeStat.obj
 0002:000054d0       ??_C@_0M@GMGKAKNE@?3?3addToStat?$AA@ 000000014003c4d0     srvlib_x64:TimeStat.obj
 0002:000054e0       ??_C@_0ED@LOEMEBHL@f?3?2dragonwork?2code?2server?2gameco@ 000000014003c4e0     srvlib_x64:TimeStat.obj
 0002:00005528       ??_C@_0BA@FJDDLIMD@stack?5was?5empty?$AA@ 000000014003c528     srvlib_x64:TimeStat.obj
 0002:00005538       ??_C@_0CJ@HEICLDDK@Counter?$DMclass?5CTimeProfDummy?$DO?3?3a@ 000000014003c538     srvlib_x64:TimeStat.obj
 0002:00005568       ??_C@_0CK@OPIPEKGM@Counter?$DMclass?5CTimeProfRecord?$DO?3?3@ 000000014003c568     srvlib_x64:TimeStat.obj
 0002:000055a0       ??_7?$CBaseList@PEAVCTimeProfRecord@@@container@wylib@@6B@ 000000014003c5a0     srvlib_x64:TimeStat.obj
 0002:000055c0       ??_7?$CBaseList@PEAVCTimeProfMgr@@@container@wylib@@6B@ 000000014003c5c0     srvlib_x64:TimeStat.obj
 0002:000055e0       ??_7CWinService@@6B@       000000014003c5e0     srvlib_x64:WinService.obj
 0002:000055f8       ??_7CCustomLuaConfig@@6B@  000000014003c5f8     srvlib_x64:CustomLuaConfig.obj
 0002:00005638       ??_7?$CBaseList@PEAV?$CRefObjectImpl@VCAnsiString@string@wylib@@@misc@wylib@@@container@wylib@@6B@ 000000014003c638     srvlib_x64:CustomLuaConfig.obj
 0002:00005650       ??_C@_0CD@ILLPNHEH@falt?5system?5error?3?5lua_gettop?5?$DM?$DN@ 000000014003c650     srvlib_x64:CustomLuaScript.obj
 0002:00005678       ??_C@_0BA@HFDEDKNE@undefined?5error?$AA@ 000000014003c678     srvlib_x64:CustomLuaScript.obj
 0002:00005688       ??_C@_0BF@EMLMKIIE@function?3?$CFs?0error?3?$CFs?$AA@ 000000014003c688     srvlib_x64:CustomLuaScript.obj
 0002:000056a8       ??_7CCustomLuaScript@@6B@  000000014003c6a8     srvlib_x64:CustomLuaScript.obj
 0002:000056e0       ??_C@_0EH@MLHAKMFD@f?3?2dragonwork?2code?2server?2common@ 000000014003c6e0     srvlib_x64:CustomWorkSocket.obj
 0002:00005738       ??_7CCustomWorkSocket@@6B@ 000000014003c738     srvlib_x64:CustomWorkSocket.obj
 0002:000057a8       ??_7?$CQueueList@PEAUtagAppInternalMessage@@@container@wylib@@6B@ 000000014003c7a8     srvlib_x64:CustomWorkSocket.obj
 0002:000057c8       ??_7?$CLockList@PEAUtagAppInternalMessage@@@container@wylib@@6B@ 000000014003c7c8     srvlib_x64:CustomWorkSocket.obj
 0002:000057e8       ??_7?$CBaseList@PEAUtagAppInternalMessage@@@container@wylib@@6B@ 000000014003c7e8     srvlib_x64:CustomWorkSocket.obj
 0002:00005800       ??_C@_0DE@IHHKFPHO@Counter?$DMclass?5CCustomServerClien@ 000000014003c800     srvlib_x64:CustomServerClientSocket.obj
 0002:00005848       ??_7CCustomServerClientSocket@@6B@ 000000014003c848     srvlib_x64:CustomServerClientSocket.obj
 0002:000058c8       ??_7CCustomServerSocket@@6B@ 000000014003c8c8     srvlib_x64:CustomServerSocket.obj
 0002:00005980       ??_7?$CQueueList@PEAVCCustomServerClientSocket@@@container@wylib@@6B@ 000000014003c980     srvlib_x64:CustomServerSocket.obj
 0002:000059a0       ??_7?$CLockList@PEAVCCustomServerClientSocket@@@container@wylib@@6B@ 000000014003c9a0     srvlib_x64:CustomServerSocket.obj
 0002:000059c0       ??_7?$CBaseList@PEAVCCustomServerClientSocket@@@container@wylib@@6B@ 000000014003c9c0     srvlib_x64:CustomServerSocket.obj
 0002:000059e8       ??_7CCustomClientSocket@@6B@ 000000014003c9e8     srvlib_x64:CustomClientSocket.obj
 0002:00005a70       ??_C@_0CG@DGJLBAIN@Counter?$DMclass?5CDataPacket?$DO?3?3addT@ 000000014003ca70     srvlib_x64:SendPackPool.obj
 0002:00005aa0       ??_7?$CBaseList@PEAVCDataPacket@@@container@wylib@@6B@ 000000014003caa0     srvlib_x64:SendPackPool.obj
 0002:00005ac0       ??_7?$CQueueList@PEAVCDataPacket@@@container@wylib@@6B@ 000000014003cac0     srvlib_x64:SendPackPool.obj
 0002:00005ae0       ??_7?$CLockList@PEAVCDataPacket@@@container@wylib@@6B@ 000000014003cae0     srvlib_x64:SendPackPool.obj
 0002:00005af8       ??_C@_03FOAFBNOO@AMC?$AA@  000000014003caf8     AMClient_x64:AMClient.obj
 0002:00005b00       ??_C@_0BM@HOMMNJHJ@?$FLAMC?$FNregist?5client?5success?$CB?$AA@ 000000014003cb00     AMClient_x64:AMClient.obj
 0002:00005b20       ??_C@_0CG@FJMABGOF@?$FLAMC?$FNserver?5does?5not?5implement?5C@ 000000014003cb20     AMClient_x64:AMClient.obj
 0002:00005b48       ??_C@_0DE@HCCLBNNB@?$FLAMC?$FN?5pay?5succeed?0userid?$DN?$CFd?0coun@ 000000014003cb48     AMClient_x64:AMClient.obj
 0002:00005b80       ??_C@_0CG@CCIJGPNI@?$FLAMC?$FNclient?5does?5not?5implement?5C@ 000000014003cb80     AMClient_x64:AMClient.obj
 0002:00005bb8       ??_7CAMClient@@6B@         000000014003cbb8     AMClient_x64:AMClient.obj
 0002:00005c48       ??_7?$CQueueList@UAMOPData@CAMClient@@@container@wylib@@6B@ 000000014003cc48     AMClient_x64:AMClient.obj
 0002:00005c60       ??_C@_01EEMJAFIK@?6?$AA@   000000014003cc60     servercommon_x64:FileLogger.obj
 0002:00005c62       ??_C@_00CNPNBAHC@?$AA@     000000014003cc62     servercommon_x64:FileLogger.obj
 0002:00005c70       ??_C@_0FO@IKJPAOOE@?9?9?9?9?9?9?9?9?9?9?9?9?9?9?9?9?9?9?9?9?9?9?9?9?9?9?9?9?9?9?9?9@ 000000014003cc70     servercommon_x64:FileLogger.obj
 0002:00005cd0       ??_C@_0BE@DMHFPANB@?$CFY?9?$CFm?9?$CFd?5?$CFH?3?$CFM?3?$CFS?$AN?6?$AA@ 000000014003ccd0     servercommon_x64:FileLogger.obj
 0002:00005ce8       ??_C@_0CA@KBPLFHHM@?$FL?$CF02d?9?$CF02d?9?$CF02d?5?$CF02d?3?$CF02d?3?$CF02d?$FN?$AA@ 000000014003cce8     servercommon_x64:FileLogger.obj
 0002:00005d08       ??_C@_05LJEOGPLP@?$FLERR?$FN?$AA@ 000000014003cd08     servercommon_x64:FileLogger.obj
 0002:00005d10       ??_C@_05GAFCNFHN@?$FLTIP?$FN?$AA@ 000000014003cd10     servercommon_x64:FileLogger.obj
 0002:00005d18       ??_C@_05LGFCPBEJ@?$FLWRN?$FN?$AA@ 000000014003cd18     servercommon_x64:FileLogger.obj
 0002:00005d20       ??_C@_0BD@FOLNPDDM@FileLoggerStat?4log?$AA@ 000000014003cd20     servercommon_x64:FileLogger.obj
 0002:00005d38       ??_C@_0BK@IONKBFPL@?W?$NM?$LH?V?E?d?$LF?D?J?$PN?$LO?$NN?$LA?$PM?J?$PN?D?$LP?5?$DN?5?$CFd?$AN?6?$AA@ 000000014003cd38     servercommon_x64:FileLogger.obj
 0002:00005d58       ??_C@_0CO@KACPIOKD@?P?$KB?$LP?i?D?Z?$LE?f?W?$NM?$LH?V?E?d?W?V?$LN?Z?J?$PN?5?$DN?5?$CF?920d?0?5?$LP?U@ 000000014003cd58     servercommon_x64:FileLogger.obj
 0002:00005d88       ??_C@_0CO@HFBKJBCO@?V?P?$LP?i?D?Z?$LE?f?W?$NM?$LH?V?E?d?W?V?$LN?Z?J?$PN?5?$DN?5?$CF?920d?0?5?$LP?U@ 000000014003cd88     servercommon_x64:FileLogger.obj
 0002:00005db8       ??_C@_0CO@BHPEFCDL@?$LE?s?$LP?i?D?Z?$LE?f?W?$NM?$LH?V?E?d?W?V?$LN?Z?J?$PN?5?$DN?5?$CF?920d?0?5?$LP?U@ 000000014003cdb8     servercommon_x64:FileLogger.obj
 0002:00005de8       ??_C@_0DA@NMHIPJMJ@?$LD?$KM?$LE?s?$LP?i?D?Z?$LE?f?W?$NM?$LH?V?E?d?W?V?$LN?Z?J?$PN?5?$DN?5?$CF?920d?0?5@ 000000014003cde8     servercommon_x64:FileLogger.obj
 0002:00005e18       ??_C@_0CO@GJBFEKE@?$LP?U?O?P?H?U?V?$LO?O?$PL?O?$KC?J?$PN?A?$LP?5?$DN?5?$CF?920d?0?5?$LE?$PN?P?$LE?H?k@ 000000014003ce18     servercommon_x64:FileLogger.obj
 0002:00005e50       ??_7COPMToFile@@6BCBaseThread@thread@wylib@@@ 000000014003ce50     servercommon_x64:FileLogger.obj
 0002:00005e78       ??_7COPMToFile@@6BCFileStream@stream@wylib@@@ 000000014003ce78     servercommon_x64:FileLogger.obj
 0002:00005eb0       ??_C@_04OIOEJAEI@?M?x?$LJ?X?$AA@ 000000014003ceb0     servercommon_x64:CustomJXServerClientSocket.obj
 0002:00005eb8       ??_C@_04CHACIOH@?H?U?V?$LO?$AA@ 000000014003ceb8     servercommon_x64:CustomJXServerClientSocket.obj
 0002:00005ec0       ??_C@_04JMLHDLMO@?C?$PL?$LD?F?$AA@ 000000014003cec0     servercommon_x64:CustomJXServerClientSocket.obj
 0002:00005ec8       ??_C@_04BNMHKIPD@?$LL?a?$LL?$LA?$AA@ 000000014003cec8     servercommon_x64:CustomJXServerClientSocket.obj
 0002:00005ed0       ??_C@_04BFCCFOKK@?J?$PN?$LO?$NN?$AA@ 000000014003ced0     servercommon_x64:CustomJXServerClientSocket.obj
 0002:00005ed8       ??_C@_04DNCNPEG@?B?$NP?$LM?$KN?$AA@ 000000014003ced8     servercommon_x64:CustomJXServerClientSocket.obj
 0002:00005ee0       ??_C@_04CAAEJKHE@?N?$LE?V?$KK?$AA@ 000000014003cee0     servercommon_x64:CustomJXServerClientSocket.obj
 0002:00005ef8       ??_7CCustomJXServerClientSocket@@6B@ 000000014003cef8     servercommon_x64:CustomJXServerClientSocket.obj
 0002:00005f88       ??_7CCustomJXClientSocket@@6B@ 000000014003cf88     servercommon_x64:LogSender.obj
 0002:00006038       ??_7LogSender@@6B@         000000014003d038     servercommon_x64:LogSender.obj
 0002:00006168       __real@5f800000            000000014003d168      CIL library: CIL module
 0002:00006380       ??_R4CSSConfig@@6B@        000000014003d380     main.obj
 0002:000063a8       ??_R3CSSConfig@@8          000000014003d3a8     main.obj
 0002:000063c0       ??_R2CSSConfig@@8          000000014003d3c0     main.obj
 0002:000063e0       ??_R1A@?0A@EA@CSSConfig@@8 000000014003d3e0     main.obj
 0002:00006408       ??_R4CPerformanceWnd@@6B@  000000014003d408     PerformanceWatcher.obj
 0002:00006430       ??_R3CPerformanceWnd@@8    000000014003d430     PerformanceWatcher.obj
 0002:00006448       ??_R2CPerformanceWnd@@8    000000014003d448     PerformanceWatcher.obj
 0002:00006460       ??_R1A@?0A@EA@CPerformanceWnd@@8 000000014003d460     PerformanceWatcher.obj
 0002:00006488       ??_R1A@?0A@EA@CClassedWnd@window@wylib@@8 000000014003d488     PerformanceWatcher.obj
 0002:000064b0       ??_R3CClassedWnd@window@wylib@@8 000000014003d4b0     PerformanceWatcher.obj
 0002:000064c8       ??_R2CClassedWnd@window@wylib@@8 000000014003d4c8     PerformanceWatcher.obj
 0002:000064d8       ??_R4CServerConnectionWnd@@6B@ 000000014003d4d8     PerformanceWatcher.obj
 0002:00006500       ??_R3CServerConnectionWnd@@8 000000014003d500     PerformanceWatcher.obj
 0002:00006518       ??_R2CServerConnectionWnd@@8 000000014003d518     PerformanceWatcher.obj
 0002:00006530       ??_R1A@?0A@EA@CServerConnectionWnd@@8 000000014003d530     PerformanceWatcher.obj
 0002:00006558       ??_R4CPerformanceWatcher@@6B@ 000000014003d558     PerformanceWatcher.obj
 0002:00006580       ??_R3CPerformanceWatcher@@8 000000014003d580     PerformanceWatcher.obj
 0002:00006598       ??_R2CPerformanceWatcher@@8 000000014003d598     PerformanceWatcher.obj
 0002:000065b0       ??_R1A@?0A@EA@CPerformanceWatcher@@8 000000014003d5b0     PerformanceWatcher.obj
 0002:000065d8       ??_R4?$CBaseList@UServerConnetionInfo@CPerformanceWatcher@@@container@wylib@@6B@ 000000014003d5d8     PerformanceWatcher.obj
 0002:00006600       ??_R3?$CBaseList@UServerConnetionInfo@CPerformanceWatcher@@@container@wylib@@8 000000014003d600     PerformanceWatcher.obj
 0002:00006618       ??_R2?$CBaseList@UServerConnetionInfo@CPerformanceWatcher@@@container@wylib@@8 000000014003d618     PerformanceWatcher.obj
 0002:00006628       ??_R1A@?0A@EA@?$CBaseList@UServerConnetionInfo@CPerformanceWatcher@@@container@wylib@@8 000000014003d628     PerformanceWatcher.obj
 0002:00006650       ??_R4CSessionClient@@6B@   000000014003d650     SessionClient.obj
 0002:00006678       ??_R3CSessionClient@@8     000000014003d678     SessionClient.obj
 0002:00006690       ??_R2CSessionClient@@8     000000014003d690     SessionClient.obj
 0002:000066d0       ??_R1A@?0A@EA@CSessionClient@@8 000000014003d6d0     SessionClient.obj
 0002:000066f8       ??_R4?$CBaseList@PEAUtagGameSession@@@container@wylib@@6B@ 000000014003d6f8     SessionServer.obj
 0002:00006720       ??_R3?$CBaseList@PEAUtagGameSession@@@container@wylib@@8 000000014003d720     SessionServer.obj
 0002:00006738       ??_R2?$CBaseList@PEAUtagGameSession@@@container@wylib@@8 000000014003d738     SessionServer.obj
 0002:00006748       ??_R1A@?0A@EA@?$CBaseList@PEAUtagGameSession@@@container@wylib@@8 000000014003d748     SessionServer.obj
 0002:00006770       ??_R3?$CLockList@PEAUtagGameSession@@@container@wylib@@8 000000014003d770     SessionServer.obj
 0002:00006788       ??_R2?$CLockList@PEAUtagGameSession@@@container@wylib@@8 000000014003d788     SessionServer.obj
 0002:000067a0       ??_R1A@?0A@EA@?$CLockList@PEAUtagGameSession@@@container@wylib@@8 000000014003d7a0     SessionServer.obj
 0002:000067c8       ??_R4?$CQueueList@PEAUtagGameSession@@@container@wylib@@6B@ 000000014003d7c8     SessionServer.obj
 0002:000067f0       ??_R3?$CQueueList@PEAUtagGameSession@@@container@wylib@@8 000000014003d7f0     SessionServer.obj
 0002:00006808       ??_R2?$CQueueList@PEAUtagGameSession@@@container@wylib@@8 000000014003d808     SessionServer.obj
 0002:00006828       ??_R1A@?0A@EA@?$CQueueList@PEAUtagGameSession@@@container@wylib@@8 000000014003d828     SessionServer.obj
 0002:00006850       ??_R4CSessionServer@@6B@   000000014003d850     SessionServer.obj
 0002:00006878       ??_R3CSessionServer@@8     000000014003d878     SessionServer.obj
 0002:00006890       ??_R2CSessionServer@@8     000000014003d890     SessionServer.obj
 0002:000068c0       ??_R1A@?0A@EA@CSessionServer@@8 000000014003d8c0     SessionServer.obj
 0002:000068e8       ??_R4?$CBaseList@H@container@wylib@@6B@ 000000014003d8e8     SSManager.obj
 0002:00006910       ??_R3?$CBaseList@H@container@wylib@@8 000000014003d910     SSManager.obj
 0002:00006928       ??_R2?$CBaseList@H@container@wylib@@8 000000014003d928     SSManager.obj
 0002:00006938       ??_R1A@?0A@EA@?$CBaseList@H@container@wylib@@8 000000014003d938     SSManager.obj
 0002:00006960       ??_R4?$CBaseList@VCommServerClient@@@container@wylib@@6B@ 000000014003d960     SSManager.obj
 0002:00006988       ??_R3?$CBaseList@VCommServerClient@@@container@wylib@@8 000000014003d988     SSManager.obj
 0002:000069a0       ??_R2?$CBaseList@VCommServerClient@@@container@wylib@@8 000000014003d9a0     SSManager.obj
 0002:000069b0       ??_R1A@?0A@EA@?$CBaseList@VCommServerClient@@@container@wylib@@8 000000014003d9b0     SSManager.obj
 0002:000069d8       ??_R4?$CBaseList@PEAUtagCharGateRoute@@@container@wylib@@6B@ 000000014003d9d8     SSManager.obj
 0002:00006a00       ??_R3?$CBaseList@PEAUtagCharGateRoute@@@container@wylib@@8 000000014003da00     SSManager.obj
 0002:00006a18       ??_R2?$CBaseList@PEAUtagCharGateRoute@@@container@wylib@@8 000000014003da18     SSManager.obj
 0002:00006a28       ??_R1A@?0A@EA@?$CBaseList@PEAUtagCharGateRoute@@@container@wylib@@8 000000014003da28     SSManager.obj
 0002:00006a50       ??_R4?$CBaseList@PEAUtagAdminLoginRecord@@@container@wylib@@6B@ 000000014003da50     SSManager.obj
 0002:00006a78       ??_R3?$CBaseList@PEAUtagAdminLoginRecord@@@container@wylib@@8 000000014003da78     SSManager.obj
 0002:00006a90       ??_R2?$CBaseList@PEAUtagAdminLoginRecord@@@container@wylib@@8 000000014003da90     SSManager.obj
 0002:00006aa0       ??_R1A@?0A@EA@?$CBaseList@PEAUtagAdminLoginRecord@@@container@wylib@@8 000000014003daa0     SSManager.obj
 0002:00006ac8       ??_R4?$CBaseList@UtagLogicServerInfo@@@container@wylib@@6B@ 000000014003dac8     SSManager.obj
 0002:00006af0       ??_R3?$CBaseList@UtagLogicServerInfo@@@container@wylib@@8 000000014003daf0     SSManager.obj
 0002:00006b08       ??_R2?$CBaseList@UtagLogicServerInfo@@@container@wylib@@8 000000014003db08     SSManager.obj
 0002:00006b18       ??_R1A@?0A@EA@?$CBaseList@UtagLogicServerInfo@@@container@wylib@@8 000000014003db18     SSManager.obj
 0002:00006b40       ??_R4?$CLockList@PEAUtagCharGateRoute@@@container@wylib@@6B@ 000000014003db40     SSManager.obj
 0002:00006b68       ??_R3?$CLockList@PEAUtagCharGateRoute@@@container@wylib@@8 000000014003db68     SSManager.obj
 0002:00006b80       ??_R2?$CLockList@PEAUtagCharGateRoute@@@container@wylib@@8 000000014003db80     SSManager.obj
 0002:00006b98       ??_R1A@?0A@EA@?$CLockList@PEAUtagCharGateRoute@@@container@wylib@@8 000000014003db98     SSManager.obj
 0002:00006bc0       ??_R4?$CLockList@PEAUtagAdminLoginRecord@@@container@wylib@@6B@ 000000014003dbc0     SSManager.obj
 0002:00006be8       ??_R3?$CLockList@PEAUtagAdminLoginRecord@@@container@wylib@@8 000000014003dbe8     SSManager.obj
 0002:00006c00       ??_R2?$CLockList@PEAUtagAdminLoginRecord@@@container@wylib@@8 000000014003dc00     SSManager.obj
 0002:00006c18       ??_R1A@?0A@EA@?$CLockList@PEAUtagAdminLoginRecord@@@container@wylib@@8 000000014003dc18     SSManager.obj
 0002:00006c40       ??_R4?$CLockList@UtagLogicServerInfo@@@container@wylib@@6B@ 000000014003dc40     SSManager.obj
 0002:00006c68       ??_R3?$CLockList@UtagLogicServerInfo@@@container@wylib@@8 000000014003dc68     SSManager.obj
 0002:00006c80       ??_R2?$CLockList@UtagLogicServerInfo@@@container@wylib@@8 000000014003dc80     SSManager.obj
 0002:00006c98       ??_R1A@?0A@EA@?$CLockList@UtagLogicServerInfo@@@container@wylib@@8 000000014003dc98     SSManager.obj
 0002:00006cc0       ??_R4CBaseStream@stream@wylib@@6B@ 000000014003dcc0     wylib_x64:FileStream.obj
 0002:00006ce8       ??_R4CFileStream@stream@wylib@@6B@ 000000014003dce8     wylib_x64:FileStream.obj
 0002:00006d10       ??_R4CHandleStream@stream@wylib@@6B@ 000000014003dd10     wylib_x64:HandleStream.obj
 0002:00006d38       ??_R4CBaseThread@thread@wylib@@6B@ 000000014003dd38     wylib_x64:Thread.obj
 0002:00006d60       ??_R4CClassedWnd@window@wylib@@6B@ 000000014003dd60     wylib_x64:ClassedWnd.obj
 0002:00006d88       ??_R4CCustomSocket@socket@inet@wylib@@6B@ 000000014003dd88     wylib_x64:CustomSocket.obj
 0002:00006db0       ??_R3CBaseLock@lock@sync@wylib@@8 000000014003ddb0     wylib_x64:Lock.obj
 0002:00006dc8       ??_R2CBaseLock@lock@sync@wylib@@8 000000014003ddc8     wylib_x64:Lock.obj
 0002:00006dd8       ??_R1A@?0A@EA@CBaseLock@lock@sync@wylib@@8 000000014003ddd8     wylib_x64:Lock.obj
 0002:00006e00       ??_R4CCSLock@lock@sync@wylib@@6B@ 000000014003de00     wylib_x64:Lock.obj
 0002:00006e28       ??_R3CCSLock@lock@sync@wylib@@8 000000014003de28     wylib_x64:Lock.obj
 0002:00006e40       ??_R2CCSLock@lock@sync@wylib@@8 000000014003de40     wylib_x64:Lock.obj
 0002:00006e58       ??_R1A@?0A@EA@CCSLock@lock@sync@wylib@@8 000000014003de58     wylib_x64:Lock.obj
 0002:00006e80       ??_R4CMemoryStream@stream@wylib@@6B@ 000000014003de80     wylib_x64:MemoryStream.obj
 0002:00006ea8       ??_R3CMemoryStream@stream@wylib@@8 000000014003dea8     wylib_x64:MemoryStream.obj
 0002:00006ec0       ??_R2CMemoryStream@stream@wylib@@8 000000014003dec0     wylib_x64:MemoryStream.obj
 0002:00006ed8       ??_R1A@?0A@EA@CMemoryStream@stream@wylib@@8 000000014003ded8     wylib_x64:MemoryStream.obj
 0002:00006f00       ??_R4type_info@@6B@        000000014003df00     MSVCRT:ti_inst.obj
 0002:00006f28       ??_R3type_info@@8          000000014003df28     MSVCRT:ti_inst.obj
 0002:00006f40       ??_R2type_info@@8          000000014003df40     MSVCRT:ti_inst.obj
 0002:00006f50       ??_R1A@?0A@EA@type_info@@8 000000014003df50     MSVCRT:ti_inst.obj
 0002:00006f78       ??_R4?$CBaseList@PEAVCTimeProfMgr@@@container@wylib@@6B@ 000000014003df78     srvlib_x64:TimeStat.obj
 0002:00006fa0       ??_R3?$CBaseList@PEAVCTimeProfMgr@@@container@wylib@@8 000000014003dfa0     srvlib_x64:TimeStat.obj
 0002:00006fb8       ??_R2?$CBaseList@PEAVCTimeProfMgr@@@container@wylib@@8 000000014003dfb8     srvlib_x64:TimeStat.obj
 0002:00006fc8       ??_R1A@?0A@EA@?$CBaseList@PEAVCTimeProfMgr@@@container@wylib@@8 000000014003dfc8     srvlib_x64:TimeStat.obj
 0002:00006ff0       ??_R4?$CBaseList@PEAVCTimeProfRecord@@@container@wylib@@6B@ 000000014003dff0     srvlib_x64:TimeStat.obj
 0002:00007018       ??_R3?$CBaseList@PEAVCTimeProfRecord@@@container@wylib@@8 000000014003e018     srvlib_x64:TimeStat.obj
 0002:00007030       ??_R2?$CBaseList@PEAVCTimeProfRecord@@@container@wylib@@8 000000014003e030     srvlib_x64:TimeStat.obj
 0002:00007040       ??_R1A@?0A@EA@?$CBaseList@PEAVCTimeProfRecord@@@container@wylib@@8 000000014003e040     srvlib_x64:TimeStat.obj
 0002:00007068       ??_R4CWinService@@6B@      000000014003e068     srvlib_x64:WinService.obj
 0002:00007090       ??_R3CWinService@@8        000000014003e090     srvlib_x64:WinService.obj
 0002:000070a8       ??_R2CWinService@@8        000000014003e0a8     srvlib_x64:WinService.obj
 0002:000070b8       ??_R1A@?0A@EA@CWinService@@8 000000014003e0b8     srvlib_x64:WinService.obj
 0002:000070e0       ??_R4?$CBaseList@PEAV?$CRefObjectImpl@VCAnsiString@string@wylib@@@misc@wylib@@@container@wylib@@6B@ 000000014003e0e0     srvlib_x64:CustomLuaConfig.obj
 0002:00007108       ??_R3?$CBaseList@PEAV?$CRefObjectImpl@VCAnsiString@string@wylib@@@misc@wylib@@@container@wylib@@8 000000014003e108     srvlib_x64:CustomLuaConfig.obj
 0002:00007120       ??_R2?$CBaseList@PEAV?$CRefObjectImpl@VCAnsiString@string@wylib@@@misc@wylib@@@container@wylib@@8 000000014003e120     srvlib_x64:CustomLuaConfig.obj
 0002:00007130       ??_R1A@?0A@EA@?$CBaseList@PEAV?$CRefObjectImpl@VCAnsiString@string@wylib@@@misc@wylib@@@container@wylib@@8 000000014003e130     srvlib_x64:CustomLuaConfig.obj
 0002:00007158       ??_R4CCustomLuaConfig@@6B@ 000000014003e158     srvlib_x64:CustomLuaConfig.obj
 0002:00007180       ??_R3CCustomLuaConfig@@8   000000014003e180     srvlib_x64:CustomLuaConfig.obj
 0002:00007198       ??_R2CCustomLuaConfig@@8   000000014003e198     srvlib_x64:CustomLuaConfig.obj
 0002:000071b0       ??_R1A@?0A@EA@CCustomLuaScript@@8 000000014003e1b0     srvlib_x64:CustomLuaConfig.obj
 0002:000071d8       ??_R3CCustomLuaScript@@8   000000014003e1d8     srvlib_x64:CustomLuaConfig.obj
 0002:000071f0       ??_R2CCustomLuaScript@@8   000000014003e1f0     srvlib_x64:CustomLuaConfig.obj
 0002:00007200       ??_R1A@?0A@EA@CCustomLuaConfig@@8 000000014003e200     srvlib_x64:CustomLuaConfig.obj
 0002:00007228       ??_R4?$CRefObjectImpl@VCAnsiString@string@wylib@@@misc@wylib@@6B@ 000000014003e228     srvlib_x64:CustomLuaConfig.obj
 0002:00007250       ??_R3?$CRefObjectImpl@VCAnsiString@string@wylib@@@misc@wylib@@8 000000014003e250     srvlib_x64:CustomLuaConfig.obj
 0002:00007268       ??_R2?$CRefObjectImpl@VCAnsiString@string@wylib@@@misc@wylib@@8 000000014003e268     srvlib_x64:CustomLuaConfig.obj
 0002:00007280       ??_R1A@?0A@EA@?$CRefObjectImpl@VCAnsiString@string@wylib@@@misc@wylib@@8 000000014003e280     srvlib_x64:CustomLuaConfig.obj
 0002:000072a8       ??_R4CAnsiString@string@wylib@@6B@ 000000014003e2a8     srvlib_x64:CustomLuaConfig.obj
 0002:000072d0       ??_R3CAnsiString@string@wylib@@8 000000014003e2d0     srvlib_x64:CustomLuaConfig.obj
 0002:000072e8       ??_R2CAnsiString@string@wylib@@8 000000014003e2e8     srvlib_x64:CustomLuaConfig.obj
 0002:000072f8       ??_R1A@?0A@EA@CAnsiString@string@wylib@@8 000000014003e2f8     srvlib_x64:CustomLuaConfig.obj
 0002:00007320       ??_R4?$CRefObject@VCAnsiString@string@wylib@@@misc@wylib@@6B@ 000000014003e320     srvlib_x64:CustomLuaScript.obj
 0002:00007348       ??_R4CCustomLuaScript@@6B@ 000000014003e348     srvlib_x64:CustomLuaScript.obj
 0002:00007370       ??_R4?$CTRefString@VCAnsiString@string@wylib@@D@string@wylib@@6B@ 000000014003e370     srvlib_x64:CustomLuaScript.obj
 0002:00007398       ??_R3?$CTRefString@VCAnsiString@string@wylib@@D@string@wylib@@8 000000014003e398     srvlib_x64:CustomLuaScript.obj
 0002:000073b0       ??_R2?$CTRefString@VCAnsiString@string@wylib@@D@string@wylib@@8 000000014003e3b0     srvlib_x64:CustomLuaScript.obj
 0002:000073c8       ??_R1A@?0A@EA@?$CRefObject@VCAnsiString@string@wylib@@@misc@wylib@@8 000000014003e3c8     srvlib_x64:CustomLuaScript.obj
 0002:000073f0       ??_R3?$CRefObject@VCAnsiString@string@wylib@@@misc@wylib@@8 000000014003e3f0     srvlib_x64:CustomLuaScript.obj
 0002:00007408       ??_R2?$CRefObject@VCAnsiString@string@wylib@@@misc@wylib@@8 000000014003e408     srvlib_x64:CustomLuaScript.obj
 0002:00007418       ??_R1A@?0A@EA@?$CTRefString@VCAnsiString@string@wylib@@D@string@wylib@@8 000000014003e418     srvlib_x64:CustomLuaScript.obj
 0002:00007440       ??_R4?$CBaseList@PEAUtagAppInternalMessage@@@container@wylib@@6B@ 000000014003e440     srvlib_x64:CustomWorkSocket.obj
 0002:00007468       ??_R4?$CLockList@PEAUtagAppInternalMessage@@@container@wylib@@6B@ 000000014003e468     srvlib_x64:CustomWorkSocket.obj
 0002:00007490       ??_R4?$CQueueList@PEAUtagAppInternalMessage@@@container@wylib@@6B@ 000000014003e490     srvlib_x64:CustomWorkSocket.obj
 0002:000074b8       ??_R3?$CQueueList@PEAUtagAppInternalMessage@@@container@wylib@@8 000000014003e4b8     srvlib_x64:CustomWorkSocket.obj
 0002:000074d0       ??_R2?$CQueueList@PEAUtagAppInternalMessage@@@container@wylib@@8 000000014003e4d0     srvlib_x64:CustomWorkSocket.obj
 0002:000074f0       ??_R1A@?0A@EA@?$CLockList@PEAUtagAppInternalMessage@@@container@wylib@@8 000000014003e4f0     srvlib_x64:CustomWorkSocket.obj
 0002:00007518       ??_R3?$CLockList@PEAUtagAppInternalMessage@@@container@wylib@@8 000000014003e518     srvlib_x64:CustomWorkSocket.obj
 0002:00007530       ??_R2?$CLockList@PEAUtagAppInternalMessage@@@container@wylib@@8 000000014003e530     srvlib_x64:CustomWorkSocket.obj
 0002:00007548       ??_R1A@?0A@EA@?$CBaseList@PEAUtagAppInternalMessage@@@container@wylib@@8 000000014003e548     srvlib_x64:CustomWorkSocket.obj
 0002:00007570       ??_R3?$CBaseList@PEAUtagAppInternalMessage@@@container@wylib@@8 000000014003e570     srvlib_x64:CustomWorkSocket.obj
 0002:00007588       ??_R2?$CBaseList@PEAUtagAppInternalMessage@@@container@wylib@@8 000000014003e588     srvlib_x64:CustomWorkSocket.obj
 0002:00007598       ??_R1A@?0A@EA@?$CQueueList@PEAUtagAppInternalMessage@@@container@wylib@@8 000000014003e598     srvlib_x64:CustomWorkSocket.obj
 0002:000075c0       ??_R4CCustomWorkSocket@@6B@ 000000014003e5c0     srvlib_x64:CustomWorkSocket.obj
 0002:000075e8       ??_R3CCustomWorkSocket@@8  000000014003e5e8     srvlib_x64:CustomWorkSocket.obj
 0002:00007600       ??_R2CCustomWorkSocket@@8  000000014003e600     srvlib_x64:CustomWorkSocket.obj
 0002:00007620       ??_R1DI@?0A@EA@CSendPacketPool@@8 000000014003e620     srvlib_x64:CustomWorkSocket.obj
 0002:00007648       ??_R3CSendPacketPool@@8    000000014003e648     srvlib_x64:CustomWorkSocket.obj
 0002:00007660       ??_R2CSendPacketPool@@8    000000014003e660     srvlib_x64:CustomWorkSocket.obj
 0002:00007670       ??_R1A@?0A@EA@CSendPacketPool@@8 000000014003e670     srvlib_x64:CustomWorkSocket.obj
 0002:00007698       ??_R1A@?0A@EA@CCustomSocket@socket@inet@wylib@@8 000000014003e698     srvlib_x64:CustomWorkSocket.obj
 0002:000076c0       ??_R3CCustomSocket@socket@inet@wylib@@8 000000014003e6c0     srvlib_x64:CustomWorkSocket.obj
 0002:000076d8       ??_R2CCustomSocket@socket@inet@wylib@@8 000000014003e6d8     srvlib_x64:CustomWorkSocket.obj
 0002:000076e8       ??_R1A@?0A@EA@CCustomWorkSocket@@8 000000014003e6e8     srvlib_x64:CustomWorkSocket.obj
 0002:00007710       ??_R4CCustomServerClientSocket@@6B@ 000000014003e710     srvlib_x64:CustomServerClientSocket.obj
 0002:00007738       ??_R3CCustomServerClientSocket@@8 000000014003e738     srvlib_x64:CustomServerClientSocket.obj
 0002:00007750       ??_R2CCustomServerClientSocket@@8 000000014003e750     srvlib_x64:CustomServerClientSocket.obj
 0002:00007780       ??_R1DHI@?0A@EA@?$Counter@VCCustomServerClientSocket@@@@8 000000014003e780     srvlib_x64:CustomServerClientSocket.obj
 0002:000077a8       ??_R3?$Counter@VCCustomServerClientSocket@@@@8 000000014003e7a8     srvlib_x64:CustomServerClientSocket.obj
 0002:000077c0       ??_R2?$Counter@VCCustomServerClientSocket@@@@8 000000014003e7c0     srvlib_x64:CustomServerClientSocket.obj
 0002:000077d0       ??_R1A@?0A@EA@?$Counter@VCCustomServerClientSocket@@@@8 000000014003e7d0     srvlib_x64:CustomServerClientSocket.obj
 0002:000077f8       ??_R1A@?0A@EA@CCustomServerClientSocket@@8 000000014003e7f8     srvlib_x64:CustomServerClientSocket.obj
 0002:00007820       ??_R4?$CBaseList@PEAVCCustomServerClientSocket@@@container@wylib@@6B@ 000000014003e820     srvlib_x64:CustomServerSocket.obj
 0002:00007848       ??_R4?$CLockList@PEAVCCustomServerClientSocket@@@container@wylib@@6B@ 000000014003e848     srvlib_x64:CustomServerSocket.obj
 0002:00007870       ??_R4?$CQueueList@PEAVCCustomServerClientSocket@@@container@wylib@@6B@ 000000014003e870     srvlib_x64:CustomServerSocket.obj
 0002:00007898       ??_R3?$CQueueList@PEAVCCustomServerClientSocket@@@container@wylib@@8 000000014003e898     srvlib_x64:CustomServerSocket.obj
 0002:000078b0       ??_R2?$CQueueList@PEAVCCustomServerClientSocket@@@container@wylib@@8 000000014003e8b0     srvlib_x64:CustomServerSocket.obj
 0002:000078d0       ??_R1A@?0A@EA@?$CLockList@PEAVCCustomServerClientSocket@@@container@wylib@@8 000000014003e8d0     srvlib_x64:CustomServerSocket.obj
 0002:000078f8       ??_R3?$CLockList@PEAVCCustomServerClientSocket@@@container@wylib@@8 000000014003e8f8     srvlib_x64:CustomServerSocket.obj
 0002:00007910       ??_R2?$CLockList@PEAVCCustomServerClientSocket@@@container@wylib@@8 000000014003e910     srvlib_x64:CustomServerSocket.obj
 0002:00007928       ??_R1A@?0A@EA@?$CBaseList@PEAVCCustomServerClientSocket@@@container@wylib@@8 000000014003e928     srvlib_x64:CustomServerSocket.obj
 0002:00007950       ??_R3?$CBaseList@PEAVCCustomServerClientSocket@@@container@wylib@@8 000000014003e950     srvlib_x64:CustomServerSocket.obj
 0002:00007968       ??_R2?$CBaseList@PEAVCCustomServerClientSocket@@@container@wylib@@8 000000014003e968     srvlib_x64:CustomServerSocket.obj
 0002:00007978       ??_R1A@?0A@EA@?$CQueueList@PEAVCCustomServerClientSocket@@@container@wylib@@8 000000014003e978     srvlib_x64:CustomServerSocket.obj
 0002:000079a0       ??_R4CCustomServerSocket@@6B@ 000000014003e9a0     srvlib_x64:CustomServerSocket.obj
 0002:000079c8       ??_R3CCustomServerSocket@@8 000000014003e9c8     srvlib_x64:CustomServerSocket.obj
 0002:000079e0       ??_R2CCustomServerSocket@@8 000000014003e9e0     srvlib_x64:CustomServerSocket.obj
 0002:00007a08       ??_R1A@?0A@EA@CCustomServerSocket@@8 000000014003ea08     srvlib_x64:CustomServerSocket.obj
 0002:00007a30       ??_R4CCustomClientSocket@@6B@ 000000014003ea30     srvlib_x64:CustomClientSocket.obj
 0002:00007a58       ??_R3CCustomClientSocket@@8 000000014003ea58     srvlib_x64:CustomClientSocket.obj
 0002:00007a70       ??_R2CCustomClientSocket@@8 000000014003ea70     srvlib_x64:CustomClientSocket.obj
 0002:00007a98       ??_R1A@?0A@EA@CCustomClientSocket@@8 000000014003ea98     srvlib_x64:CustomClientSocket.obj
 0002:00007ac0       ??_R4?$CLockList@PEAVCDataPacket@@@container@wylib@@6B@ 000000014003eac0     srvlib_x64:SendPackPool.obj
 0002:00007ae8       ??_R4?$CQueueList@PEAVCDataPacket@@@container@wylib@@6B@ 000000014003eae8     srvlib_x64:SendPackPool.obj
 0002:00007b10       ??_R3?$CQueueList@PEAVCDataPacket@@@container@wylib@@8 000000014003eb10     srvlib_x64:SendPackPool.obj
 0002:00007b28       ??_R2?$CQueueList@PEAVCDataPacket@@@container@wylib@@8 000000014003eb28     srvlib_x64:SendPackPool.obj
 0002:00007b48       ??_R1A@?0A@EA@?$CLockList@PEAVCDataPacket@@@container@wylib@@8 000000014003eb48     srvlib_x64:SendPackPool.obj
 0002:00007b70       ??_R3?$CLockList@PEAVCDataPacket@@@container@wylib@@8 000000014003eb70     srvlib_x64:SendPackPool.obj
 0002:00007b88       ??_R2?$CLockList@PEAVCDataPacket@@@container@wylib@@8 000000014003eb88     srvlib_x64:SendPackPool.obj
 0002:00007ba0       ??_R1A@?0A@EA@?$CQueueList@PEAVCDataPacket@@@container@wylib@@8 000000014003eba0     srvlib_x64:SendPackPool.obj
 0002:00007bc8       ??_R4?$CBaseList@PEAVCDataPacket@@@container@wylib@@6B@ 000000014003ebc8     srvlib_x64:SendPackPool.obj
 0002:00007bf0       ??_R3?$CBaseList@PEAVCDataPacket@@@container@wylib@@8 000000014003ebf0     srvlib_x64:SendPackPool.obj
 0002:00007c08       ??_R2?$CBaseList@PEAVCDataPacket@@@container@wylib@@8 000000014003ec08     srvlib_x64:SendPackPool.obj
 0002:00007c18       ??_R1A@?0A@EA@?$CBaseList@PEAVCDataPacket@@@container@wylib@@8 000000014003ec18     srvlib_x64:SendPackPool.obj
 0002:00007c40       ??_R4?$CQueueList@UAMOPData@CAMClient@@@container@wylib@@6B@ 000000014003ec40     AMClient_x64:AMClient.obj
 0002:00007c68       ??_R3?$CQueueList@UAMOPData@CAMClient@@@container@wylib@@8 000000014003ec68     AMClient_x64:AMClient.obj
 0002:00007c80       ??_R2?$CQueueList@UAMOPData@CAMClient@@@container@wylib@@8 000000014003ec80     AMClient_x64:AMClient.obj
 0002:00007ca0       ??_R1A@?0A@EA@?$CLockList@UAMOPData@CAMClient@@@container@wylib@@8 000000014003eca0     AMClient_x64:AMClient.obj
 0002:00007cc8       ??_R3?$CLockList@UAMOPData@CAMClient@@@container@wylib@@8 000000014003ecc8     AMClient_x64:AMClient.obj
 0002:00007ce0       ??_R2?$CLockList@UAMOPData@CAMClient@@@container@wylib@@8 000000014003ece0     AMClient_x64:AMClient.obj
 0002:00007cf8       ??_R1A@?0A@EA@?$CQueueList@UAMOPData@CAMClient@@@container@wylib@@8 000000014003ecf8     AMClient_x64:AMClient.obj
 0002:00007d20       ??_R4?$CBaseList@UAMOPData@CAMClient@@@container@wylib@@6B@ 000000014003ed20     AMClient_x64:AMClient.obj
 0002:00007d48       ??_R3?$CBaseList@UAMOPData@CAMClient@@@container@wylib@@8 000000014003ed48     AMClient_x64:AMClient.obj
 0002:00007d60       ??_R2?$CBaseList@UAMOPData@CAMClient@@@container@wylib@@8 000000014003ed60     AMClient_x64:AMClient.obj
 0002:00007d70       ??_R1A@?0A@EA@?$CBaseList@UAMOPData@CAMClient@@@container@wylib@@8 000000014003ed70     AMClient_x64:AMClient.obj
 0002:00007d98       ??_R4CAMClient@@6B@        000000014003ed98     AMClient_x64:AMClient.obj
 0002:00007dc0       ??_R3CAMClient@@8          000000014003edc0     AMClient_x64:AMClient.obj
 0002:00007dd8       ??_R2CAMClient@@8          000000014003edd8     AMClient_x64:AMClient.obj
 0002:00007e08       ??_R1A@?0A@EA@CAMClient@@8 000000014003ee08     AMClient_x64:AMClient.obj
 0002:00007e30       ??_R4COPMToFile@@6BCFileStream@stream@wylib@@@ 000000014003ee30     servercommon_x64:FileLogger.obj
 0002:00007e58       ??_R4COPMToFile@@6BCBaseThread@thread@wylib@@@ 000000014003ee58     servercommon_x64:FileLogger.obj
 0002:00007e80       ??_R3COPMToFile@@8         000000014003ee80     servercommon_x64:FileLogger.obj
 0002:00007e98       ??_R2COPMToFile@@8         000000014003ee98     servercommon_x64:FileLogger.obj
 0002:00007ec8       ??_R1BI@?0A@EJ@CBaseStream@stream@wylib@@8 000000014003eec8     servercommon_x64:FileLogger.obj
 0002:00007ef0       ??_R1BI@?0A@EJ@CHandleStream@stream@wylib@@8 000000014003eef0     servercommon_x64:FileLogger.obj
 0002:00007f18       ??_R1BI@?0A@EN@CFileStream@stream@wylib@@8 000000014003ef18     servercommon_x64:FileLogger.obj
 0002:00007f40       ??_R3CFileStream@stream@wylib@@8 000000014003ef40     servercommon_x64:FileLogger.obj
 0002:00007f58       ??_R2CFileStream@stream@wylib@@8 000000014003ef58     servercommon_x64:FileLogger.obj
 0002:00007f78       ??_R1A@?0A@EA@CHandleStream@stream@wylib@@8 000000014003ef78     servercommon_x64:FileLogger.obj
 0002:00007fa0       ??_R3CHandleStream@stream@wylib@@8 000000014003efa0     servercommon_x64:FileLogger.obj
 0002:00007fb8       ??_R2CHandleStream@stream@wylib@@8 000000014003efb8     servercommon_x64:FileLogger.obj
 0002:00007fd0       ??_R1A@?0A@EA@CBaseStream@stream@wylib@@8 000000014003efd0     servercommon_x64:FileLogger.obj
 0002:00007ff8       ??_R3CBaseStream@stream@wylib@@8 000000014003eff8     servercommon_x64:FileLogger.obj
 0002:00008010       ??_R2CBaseStream@stream@wylib@@8 000000014003f010     servercommon_x64:FileLogger.obj
 0002:00008020       ??_R1A@?0A@EA@CFileStream@stream@wylib@@8 000000014003f020     servercommon_x64:FileLogger.obj
 0002:00008048       ??_R1A@?0A@EN@CBaseThread@thread@wylib@@8 000000014003f048     servercommon_x64:FileLogger.obj
 0002:00008070       ??_R3CBaseThread@thread@wylib@@8 000000014003f070     servercommon_x64:FileLogger.obj
 0002:00008088       ??_R2CBaseThread@thread@wylib@@8 000000014003f088     servercommon_x64:FileLogger.obj
 0002:00008098       ??_R1A@?0A@EA@CBaseThread@thread@wylib@@8 000000014003f098     servercommon_x64:FileLogger.obj
 0002:000080c0       ??_R1A@?0A@EA@COPMToFile@@8 000000014003f0c0     servercommon_x64:FileLogger.obj
 0002:000080e8       ??_R4CCustomJXServerClientSocket@@6B@ 000000014003f0e8     servercommon_x64:CustomJXServerClientSocket.obj
 0002:00008110       ??_R3CCustomJXServerClientSocket@@8 000000014003f110     servercommon_x64:CustomJXServerClientSocket.obj
 0002:00008128       ??_R2CCustomJXServerClientSocket@@8 000000014003f128     servercommon_x64:CustomJXServerClientSocket.obj
 0002:00008160       ??_R1A@?0A@EA@CCustomJXServerClientSocket@@8 000000014003f160     servercommon_x64:CustomJXServerClientSocket.obj
 0002:00008188       ??_R4LogSender@@6B@        000000014003f188     servercommon_x64:LogSender.obj
 0002:000081b0       ??_R3LogSender@@8          000000014003f1b0     servercommon_x64:LogSender.obj
 0002:000081c8       ??_R2LogSender@@8          000000014003f1c8     servercommon_x64:LogSender.obj
 0002:00008200       ??_R1A@?0A@EA@LogSender@@8 000000014003f200     servercommon_x64:LogSender.obj
 0002:00008228       ??_R4CCustomJXClientSocket@@6B@ 000000014003f228     servercommon_x64:LogSender.obj
 0002:00008250       ??_R3CCustomJXClientSocket@@8 000000014003f250     servercommon_x64:LogSender.obj
 0002:00008268       ??_R2CCustomJXClientSocket@@8 000000014003f268     servercommon_x64:LogSender.obj
 0002:00008298       ??_R1A@?0A@EA@CCustomJXClientSocket@@8 000000014003f298     servercommon_x64:LogSender.obj
 0002:000082c0       __rtc_iaa                  000000014003f2c0     MSVCRT:_initsect_.obj
 0002:000082c8       __rtc_izz                  000000014003f2c8     MSVCRT:_initsect_.obj
 0002:000082d0       __rtc_taa                  000000014003f2d0     MSVCRT:_initsect_.obj
 0002:000082d8       __rtc_tzz                  000000014003f2d8     MSVCRT:_initsect_.obj
 0002:0000bcf0       _TI2?AV?$CTRefString@VCAnsiString@string@wylib@@D@string@wylib@@ 0000000140042cf0     SSConfig.obj
 0002:0000bd10       _CTA2?AV?$CTRefString@VCAnsiString@string@wylib@@D@string@wylib@@ 0000000140042d10     SSConfig.obj
 0002:0000bd28       _CT??_R0?AV?$CTRefString@VCAnsiString@string@wylib@@D@string@wylib@@@8??0?$CTRefString@VCAnsiString@string@wylib@@D@string@wylib@@QEAA@AEBV012@@Z16 0000000140042d28     SSConfig.obj
 0002:0000bd50       _CT??_R0?AV?$CRefObject@VCAnsiString@string@wylib@@@misc@wylib@@@8??0?$CRefObject@VCAnsiString@string@wylib@@@misc@wylib@@QEAA@AEAV012@@Z16 0000000140042d50     SSConfig.obj
 0002:0000bd78       _CT??_R0PEAD@88            0000000140042d78     srvlib_x64:TimeStat.obj
 0002:0000bda0       _CT??_R0PEAX@88            0000000140042da0     srvlib_x64:TimeStat.obj
 0002:0000bdc8       _CTA2PEAD                  0000000140042dc8     srvlib_x64:TimeStat.obj
 0002:0000bde0       _TI2PEAD                   0000000140042de0     srvlib_x64:TimeStat.obj
 0002:0000bdfc       __IMPORT_DESCRIPTOR_LIBMYSQL 0000000140042dfc     libmysql:LIBMYSQL.dll
 0002:0000be10       __IMPORT_DESCRIPTOR_WS2_32 0000000140042e10     Ws2_32:WS2_32.dll
 0002:0000be24       __IMPORT_DESCRIPTOR_KERNEL32 0000000140042e24     kernel32:KERNEL32.dll
 0002:0000be38       __IMPORT_DESCRIPTOR_USER32 0000000140042e38     user32:USER32.dll
 0002:0000be4c       __IMPORT_DESCRIPTOR_GDI32  0000000140042e4c     gdi32:GDI32.dll
 0002:0000be60       __IMPORT_DESCRIPTOR_ADVAPI32 0000000140042e60     advapi32:ADVAPI32.dll
 0002:0000be74       __IMPORT_DESCRIPTOR_MSVCR100 0000000140042e74     MSVCRT:MSVCR100.dll
 0002:0000be88       __IMPORT_DESCRIPTOR_COMCTL32 0000000140042e88     comctl32:COMCTL32.dll
 0002:0000be9c       __IMPORT_DESCRIPTOR_dbghelp 0000000140042e9c     Dbghelp:dbghelp.dll
 0002:0000beb0       __IMPORT_DESCRIPTOR_WINMM  0000000140042eb0     winmm:WINMM.dll
 0002:0000bec4       __NULL_IMPORT_DESCRIPTOR   0000000140042ec4     libmysql:LIBMYSQL.dll
 0003:00000080       ??_R0?AVCSSConfig@@@8      0000000140045080     main.obj
 0003:00000120       ??_R0?AVCPerformanceWnd@@@8 0000000140045120     PerformanceWatcher.obj
 0003:00000148       ??_R0?AVCClassedWnd@window@wylib@@@8 0000000140045148     PerformanceWatcher.obj
 0003:00000178       ??_R0?AVCServerConnectionWnd@@@8 0000000140045178     PerformanceWatcher.obj
 0003:000001a8       ??_R0?AVCPerformanceWatcher@@@8 00000001400451a8     PerformanceWatcher.obj
 0003:000001e0       ??_R0?AV?$CBaseList@UServerConnetionInfo@CPerformanceWatcher@@@container@wylib@@@8 00000001400451e0     PerformanceWatcher.obj
 0003:000002c0       ??_R0?AVCSessionClient@@@8 00000001400452c0     SessionClient.obj
 0003:00000370       ??_R0?AV?$CBaseList@PEAUtagGameSession@@@container@wylib@@@8 0000000140045370     SessionServer.obj
 0003:000003c0       ??_R0?AV?$CLockList@PEAUtagGameSession@@@container@wylib@@@8 00000001400453c0     SessionServer.obj
 0003:00000410       ??_R0?AV?$CQueueList@PEAUtagGameSession@@@container@wylib@@@8 0000000140045410     SessionServer.obj
 0003:00000458       ??_R0?AVCSessionServer@@@8 0000000140045458     SessionServer.obj
 0003:00000588       ??_R0?AV?$CBaseList@H@container@wylib@@@8 0000000140045588     SSManager.obj
 0003:000005c0       ??_R0?AV?$CBaseList@VCommServerClient@@@container@wylib@@@8 00000001400455c0     SSManager.obj
 0003:00000610       ??_R0?AV?$CBaseList@PEAUtagCharGateRoute@@@container@wylib@@@8 0000000140045610     SSManager.obj
 0003:00000660       ??_R0?AV?$CBaseList@PEAUtagAdminLoginRecord@@@container@wylib@@@8 0000000140045660     SSManager.obj
 0003:000006b0       ??_R0?AV?$CBaseList@UtagLogicServerInfo@@@container@wylib@@@8 00000001400456b0     SSManager.obj
 0003:00000700       ??_R0?AV?$CLockList@PEAUtagCharGateRoute@@@container@wylib@@@8 0000000140045700     SSManager.obj
 0003:00000750       ??_R0?AV?$CLockList@PEAUtagAdminLoginRecord@@@container@wylib@@@8 0000000140045750     SSManager.obj
 0003:000007a0       ??_R0?AV?$CLockList@UtagLogicServerInfo@@@container@wylib@@@8 00000001400457a0     SSManager.obj
 0003:00000870       ??_R0?AVCBaseLock@lock@sync@wylib@@@8 0000000140045870     wylib_x64:Lock.obj
 0003:000008a0       ??_R0?AVCCSLock@lock@sync@wylib@@@8 00000001400458a0     wylib_x64:Lock.obj
 0003:000008d0       ??_R0?AVCMemoryStream@stream@wylib@@@8 00000001400458d0     wylib_x64:MemoryStream.obj
 0003:00000908       ??_R0?AVtype_info@@@8      0000000140045908     MSVCRT:ti_inst.obj
 0003:00000930       __native_dllmain_reason    0000000140045930     MSVCRT:natstart.obj
 0003:00000934       __native_vcclrit_reason    0000000140045934     MSVCRT:natstart.obj
 0003:00000938       __globallocalestatus       0000000140045938     MSVCRT:xthdloc.obj
 0003:0000093c       __defaultmatherr           000000014004593c     MSVCRT:merr.obj
 0003:00000940       __security_cookie          0000000140045940     MSVCRT:gs_cookie.obj
 0003:00000948       __security_cookie_complement 0000000140045948     MSVCRT:gs_cookie.obj
 0003:00000950       ?EMPTY_STR@CWideString@string@wylib@@0PEB_WEB 0000000140045950     wylib_x64:wyString.obj
 0003:00000958       ?EMPTY_STR@CAnsiString@string@wylib@@0PEBDEB 0000000140045958     wylib_x64:wyString.obj
 0003:00000960       base64_alphabet            0000000140045960     wylib_x64:base64.obj
 0003:000009a0       base64_suffix_map          00000001400459a0     wylib_x64:base64.obj
 0003:00000aa0       _fltused                   0000000140045aa0     MSVCRT:dllsupp.obj
 0003:00000ab0       ??_R0?AV?$CBaseList@PEAVCTimeProfMgr@@@container@wylib@@@8 0000000140045ab0     srvlib_x64:TimeStat.obj
 0003:00000b00       ??_R0?AV?$CBaseList@PEAVCTimeProfRecord@@@container@wylib@@@8 0000000140045b00     srvlib_x64:TimeStat.obj
 0003:00000b54       ?s_dwTlsIdx@CTimeProfMgr@@1KA 0000000140045b54     srvlib_x64:TimeStat.obj
 0003:00000bd8       ??_R0PEAD@8                0000000140045bd8     srvlib_x64:TimeStat.obj
 0003:00000bf0       ??_R0PEAX@8                0000000140045bf0     srvlib_x64:TimeStat.obj
 0003:00000c08       ??_R0?AVCWinService@@@8    0000000140045c08     srvlib_x64:WinService.obj
 0003:00000c30       ??_R0?AV?$CBaseList@PEAV?$CRefObjectImpl@VCAnsiString@string@wylib@@@misc@wylib@@@container@wylib@@@8 0000000140045c30     srvlib_x64:CustomLuaConfig.obj
 0003:00000ca0       ??_R0?AVCCustomLuaScript@@@8 0000000140045ca0     srvlib_x64:CustomLuaConfig.obj
 0003:00000cc8       ??_R0?AVCCustomLuaConfig@@@8 0000000140045cc8     srvlib_x64:CustomLuaConfig.obj
 0003:00000cf0       ??_R0?AV?$CRefObjectImpl@VCAnsiString@string@wylib@@@misc@wylib@@@8 0000000140045cf0     srvlib_x64:CustomLuaConfig.obj
 0003:00000d40       ??_R0?AVCAnsiString@string@wylib@@@8 0000000140045d40     srvlib_x64:CustomLuaConfig.obj
 0003:00000d70       ??_R0?AV?$CRefObject@VCAnsiString@string@wylib@@@misc@wylib@@@8 0000000140045d70     srvlib_x64:CustomLuaScript.obj
 0003:00000dc0       ??_R0?AV?$CTRefString@VCAnsiString@string@wylib@@D@string@wylib@@@8 0000000140045dc0     srvlib_x64:CustomLuaScript.obj
 0003:00000e10       ??_R0?AV?$CBaseList@PEAUtagAppInternalMessage@@@container@wylib@@@8 0000000140045e10     srvlib_x64:CustomWorkSocket.obj
 0003:00000e60       ??_R0?AV?$CLockList@PEAUtagAppInternalMessage@@@container@wylib@@@8 0000000140045e60     srvlib_x64:CustomWorkSocket.obj
 0003:00000eb0       ??_R0?AV?$CQueueList@PEAUtagAppInternalMessage@@@container@wylib@@@8 0000000140045eb0     srvlib_x64:CustomWorkSocket.obj
 0003:00000f00       ??_R0?AVCSendPacketPool@@@8 0000000140045f00     srvlib_x64:CustomWorkSocket.obj
 0003:00000f28       ??_R0?AVCCustomSocket@socket@inet@wylib@@@8 0000000140045f28     srvlib_x64:CustomWorkSocket.obj
 0003:00000f60       ??_R0?AVCCustomWorkSocket@@@8 0000000140045f60     srvlib_x64:CustomWorkSocket.obj
 0003:00000f88       ??_R0?AV?$Counter@VCCustomServerClientSocket@@@@@8 0000000140045f88     srvlib_x64:CustomServerClientSocket.obj
 0003:00000fc8       ??_R0?AVCCustomServerClientSocket@@@8 0000000140045fc8     srvlib_x64:CustomServerClientSocket.obj
 0003:00001000       ??_R0?AV?$CBaseList@PEAVCCustomServerClientSocket@@@container@wylib@@@8 0000000140046000     srvlib_x64:CustomServerSocket.obj
 0003:00001060       ??_R0?AV?$CLockList@PEAVCCustomServerClientSocket@@@container@wylib@@@8 0000000140046060     srvlib_x64:CustomServerSocket.obj
 0003:000010c0       ??_R0?AV?$CQueueList@PEAVCCustomServerClientSocket@@@container@wylib@@@8 00000001400460c0     srvlib_x64:CustomServerSocket.obj
 0003:00001118       ??_R0?AVCCustomServerSocket@@@8 0000000140046118     srvlib_x64:CustomServerSocket.obj
 0003:00001148       ??_R0?AVCCustomClientSocket@@@8 0000000140046148     srvlib_x64:CustomClientSocket.obj
 0003:00001180       ??_R0?AV?$CLockList@PEAVCDataPacket@@@container@wylib@@@8 0000000140046180     srvlib_x64:SendPackPool.obj
 0003:000011d0       ??_R0?AV?$CQueueList@PEAVCDataPacket@@@container@wylib@@@8 00000001400461d0     srvlib_x64:SendPackPool.obj
 0003:00001220       ??_R0?AV?$CBaseList@PEAVCDataPacket@@@container@wylib@@@8 0000000140046220     srvlib_x64:SendPackPool.obj
 0003:00001270       ??_R0?AV?$CLockList@UAMOPData@CAMClient@@@container@wylib@@@8 0000000140046270     AMClient_x64:AMClient.obj
 0003:000012c0       ??_R0?AV?$CQueueList@UAMOPData@CAMClient@@@container@wylib@@@8 00000001400462c0     AMClient_x64:AMClient.obj
 0003:00001310       ??_R0?AV?$CBaseList@UAMOPData@CAMClient@@@container@wylib@@@8 0000000140046310     AMClient_x64:AMClient.obj
 0003:00001358       ??_R0?AVCAMClient@@@8      0000000140046358     AMClient_x64:AMClient.obj
 0003:00001378       ??_R0?AVCBaseStream@stream@wylib@@@8 0000000140046378     servercommon_x64:FileLogger.obj
 0003:000013a8       ??_R0?AVCHandleStream@stream@wylib@@@8 00000001400463a8     servercommon_x64:FileLogger.obj
 0003:000013e0       ??_R0?AVCFileStream@stream@wylib@@@8 00000001400463e0     servercommon_x64:FileLogger.obj
 0003:00001410       ??_R0?AVCBaseThread@thread@wylib@@@8 0000000140046410     servercommon_x64:FileLogger.obj
 0003:00001440       ??_R0?AVCOPMToFile@@@8     0000000140046440     servercommon_x64:FileLogger.obj
 0003:00001470       ?FormatTags@?1??writeMessage@COPMToFile@@IEAAXW4tagShareOutputMsgType@@PEBD_K12@Z@4PAU<unnamed-type-FormatTags>@?1??12@IEAAX01212@Z@A 0000000140046470     servercommon_x64:FileLogger.obj
 0003:000014f0       ??_R0?AVCCustomJXServerClientSocket@@@8 00000001400464f0     servercommon_x64:CustomJXServerClientSocket.obj
 0003:00001528       ??_R0?AVLogSender@@@8      0000000140046528     servercommon_x64:LogSender.obj
 0003:00001548       ??_R0?AVCCustomJXClientSocket@@@8 0000000140046548     servercommon_x64:LogSender.obj
 0003:00001590       ?SSSockPacketHandlers@CSessionClient@@0QBQ81@EAAXAEAVCDataPacketReader@@@ZB 0000000140046590     SessionClient.obj
 0003:00001700       ?CreationWnd@CClassedWnd@window@wylib@@0PEAV123@EA 0000000140046700     wylib_x64:ClassedWnd.obj
 0003:00001758       _dowildcard                0000000140046758     MSVCRT:wildcard.obj
 0003:0000175c       _newmode                   000000014004675c     MSVCRT:_newmode.obj
 0003:00001760       _commode                   0000000140046760     MSVCRT:xncommod.obj
 0003:00001764       _fmode                     0000000140046764     MSVCRT:xtxtmode.obj
 0003:00006110       ??_B?1??getSingleton@CounterManager@@SAAEAV1@XZ@51 000000014004b110     srvlib_x64:TimeStat.obj
 0003:00006120       ?mgr@?1??getSingleton@CounterManager@@SAAEAV2@XZ@4V2@A 000000014004b120     srvlib_x64:TimeStat.obj
 0003:0002e1b0       ?CodeSource@@3TJMPInstruct@@A 00000001400731b0     srvlib_x64:PathThreadLocale.obj
 0003:000361c0       ?g_OutputMsgLock@@3U_RTL_CRITICAL_SECTION@@A 000000014007b1c0     srvlib_x64:ShareUtil.obj
 0003:000361e8       ?g_lpOutputMsg@@3P6A_JW4tagShareOutputMsgType@@PEBD_J@ZEA 000000014007b1e8     srvlib_x64:ShareUtil.obj
 0003:000361f0       ?g_pOPMToFile@@3PEAVCOPMToFile@@EA 000000014007b1f0     servercommon_x64:FileLogger.obj
 0003:000361f8       ?lpOldFnBeforeSet@@3P6A_JW4tagShareOutputMsgType@@PEBD_J@ZEA 000000014007b1f8     servercommon_x64:FileLogger.obj
 0003:00036200       ?g_isOpen@CTimeProfDummy@@2_NA 000000014007b200     srvlib_x64:TimeStat.obj
 0003:00036218       ?m_nCount@?$Counter@VCTimeProfDummy@@@@0_KA 000000014007b218     srvlib_x64:TimeStat.obj
 0003:00036220       ?m_bHasAddedToStat@?$Counter@VCTimeProfDummy@@@@0JA 000000014007b220     srvlib_x64:TimeStat.obj
 0003:00036228       ?m_nCount@?$Counter@VCTimeProfRecord@@@@0_KA 000000014007b228     srvlib_x64:TimeStat.obj
 0003:00036230       ?m_bHasAddedToStat@?$Counter@VCTimeProfRecord@@@@0JA 000000014007b230     srvlib_x64:TimeStat.obj
 0003:00036238       ?m_nCount@?$Counter@VCCustomServerClientSocket@@@@0_KA 000000014007b238     srvlib_x64:CustomServerClientSocket.obj
 0003:00036240       ?m_bHasAddedToStat@?$Counter@VCCustomServerClientSocket@@@@0JA 000000014007b240     srvlib_x64:CustomServerClientSocket.obj
 0003:00036248       ?m_nCount@?$Counter@VCDataPacket@@@@0_KA 000000014007b248     srvlib_x64:SendPackPool.obj
 0003:00036250       ?m_bHasAddedToStat@?$Counter@VCDataPacket@@@@0JA 000000014007b250     srvlib_x64:SendPackPool.obj
 0003:00036360       ??_B?1??writeMessage@COPMToFile@@IEAAXW4tagShareOutputMsgType@@PEBD_K12@Z@51 000000014007b360     servercommon_x64:FileLogger.obj
 0003:00036370       ?mgr@?1??getSingleton@CTimeProfMgr@@SAAEAV2@XZ@4V2@A 000000014007b370     srvlib_x64:TimeStat.obj
 0003:000364f8       ??_B?1??getSingleton@CTimeProfMgr@@SAAEAV1@XZ@51 000000014007b4f8     srvlib_x64:TimeStat.obj
 0003:000364fc       __native_startup_state     000000014007b4fc     <common>
 0003:00036500       __native_startup_lock      000000014007b500     <common>
 0003:00036508       __dyn_tls_init_callback    000000014007b508     <common>
 0003:00036510       __onexitend                000000014007b510     <common>
 0003:00036518       __onexitbegin              000000014007b518     <common>

 entry point at        0001:000108cc

 Static symbols

 0001:00010614       pre_cpp_init               0000000140011614 f   MSVCRT:crtexe.obj
 0001:0001067c       __tmainCRTStartup          000000014001167c f   MSVCRT:crtexe.obj
 0001:000107fc       pre_c_init                 00000001400117fc f   MSVCRT:crtexe.obj
 0001:00010fe0       index2adr                  0000000140011fe0 f   lua-5.1_x64:lapi.obj
 0001:000120a0       f_call                     00000001400130a0 f   lua-5.1_x64:lapi.obj
 0001:00012140       f_Ccall                    0000000140013140 f   lua-5.1_x64:lapi.obj
 0001:00012940       adjuststack                0000000140013940 f   lua-5.1_x64:lauxlib.obj
 0001:00012c20       getF                       0000000140013c20 f   lua-5.1_x64:lauxlib.obj
 0001:00012cb0       errfile                    0000000140013cb0 f   lua-5.1_x64:lauxlib.obj
 0001:00012f50       getS                       0000000140013f50 f   lua-5.1_x64:lauxlib.obj
 0001:00012ff0       l_alloc                    0000000140013ff0 f   lua-5.1_x64:lauxlib.obj
 0001:00013020       panic                      0000000140014020 f   lua-5.1_x64:lauxlib.obj
 0001:00013190       tag_error                  0000000140014190 f   lua-5.1_x64:lauxlib.obj
 0001:00013710       DumpString                 0000000140014710 f   lua-5.1_x64:ldump.obj
 0001:000137a0       DumpConstants              00000001400147a0 f   lua-5.1_x64:ldump.obj
 0001:000138f0       DumpDebug                  00000001400148f0 f   lua-5.1_x64:ldump.obj
 0001:00013b60       DumpFunction               0000000140014b60 f   lua-5.1_x64:ldump.obj
 0001:00013d70       math_abs                   0000000140014d70 f   lua-5.1_x64:lmathlib.obj
 0001:00013db0       math_sin                   0000000140014db0 f   lua-5.1_x64:lmathlib.obj
 0001:00013de0       math_sinh                  0000000140014de0 f   lua-5.1_x64:lmathlib.obj
 0001:00013e10       math_cos                   0000000140014e10 f   lua-5.1_x64:lmathlib.obj
 0001:00013e40       math_cosh                  0000000140014e40 f   lua-5.1_x64:lmathlib.obj
 0001:00013e70       math_tan                   0000000140014e70 f   lua-5.1_x64:lmathlib.obj
 0001:00013ea0       math_tanh                  0000000140014ea0 f   lua-5.1_x64:lmathlib.obj
 0001:00013ed0       math_asin                  0000000140014ed0 f   lua-5.1_x64:lmathlib.obj
 0001:00013f00       math_acos                  0000000140014f00 f   lua-5.1_x64:lmathlib.obj
 0001:00013f30       math_atan                  0000000140014f30 f   lua-5.1_x64:lmathlib.obj
 0001:00013f60       math_atan2                 0000000140014f60 f   lua-5.1_x64:lmathlib.obj
 0001:00013fc0       math_ceil                  0000000140014fc0 f   lua-5.1_x64:lmathlib.obj
 0001:00013ff0       math_floor                 0000000140014ff0 f   lua-5.1_x64:lmathlib.obj
 0001:00014020       math_fmod                  0000000140015020 f   lua-5.1_x64:lmathlib.obj
 0001:00014080       math_modf                  0000000140015080 f   lua-5.1_x64:lmathlib.obj
 0001:000140e0       math_sqrt                  00000001400150e0 f   lua-5.1_x64:lmathlib.obj
 0001:00014110       math_pow                   0000000140015110 f   lua-5.1_x64:lmathlib.obj
 0001:00014170       math_log                   0000000140015170 f   lua-5.1_x64:lmathlib.obj
 0001:000141a0       math_log10                 00000001400151a0 f   lua-5.1_x64:lmathlib.obj
 0001:000141d0       math_exp                   00000001400151d0 f   lua-5.1_x64:lmathlib.obj
 0001:00014200       math_deg                   0000000140015200 f   lua-5.1_x64:lmathlib.obj
 0001:00014240       math_rad                   0000000140015240 f   lua-5.1_x64:lmathlib.obj
 0001:00014280       math_frexp                 0000000140015280 f   lua-5.1_x64:lmathlib.obj
 0001:000142d0       math_ldexp                 00000001400152d0 f   lua-5.1_x64:lmathlib.obj
 0001:00014320       math_min                   0000000140015320 f   lua-5.1_x64:lmathlib.obj
 0001:000143a0       math_max                   00000001400153a0 f   lua-5.1_x64:lmathlib.obj
 0001:00014420       math_random                0000000140015420 f   lua-5.1_x64:lmathlib.obj
 0001:00014580       math_randomseed            0000000140015580 f   lua-5.1_x64:lmathlib.obj
 0001:00014640       str_len                    0000000140015640 f   lua-5.1_x64:lstrlib.obj
 0001:00014670       str_sub                    0000000140015670 f   lua-5.1_x64:lstrlib.obj
 0001:00014740       str_reverse                0000000140015740 f   lua-5.1_x64:lstrlib.obj
 0001:00014800       str_lower                  0000000140015800 f   lua-5.1_x64:lstrlib.obj
 0001:000148b0       str_upper                  00000001400158b0 f   lua-5.1_x64:lstrlib.obj
 0001:00014960       str_rep                    0000000140015960 f   lua-5.1_x64:lstrlib.obj
 0001:000149f0       str_byte                   00000001400159f0 f   lua-5.1_x64:lstrlib.obj
 0001:00014b00       str_char                   0000000140015b00 f   lua-5.1_x64:lstrlib.obj
 0001:00014bc0       writer                     0000000140015bc0 f   lua-5.1_x64:lstrlib.obj
 0001:00014be0       str_dump                   0000000140015be0 f   lua-5.1_x64:lstrlib.obj
 0001:00014c60       classend                   0000000140015c60 f   lua-5.1_x64:lstrlib.obj
 0001:00014d00       match_class                0000000140015d00 f   lua-5.1_x64:lstrlib.obj
 0001:00014e60       matchbracketclass          0000000140015e60 f   lua-5.1_x64:lstrlib.obj
 0001:00015060       matchbalance               0000000140016060 f   lua-5.1_x64:lstrlib.obj
 0001:00015100       max_expand                 0000000140016100 f   lua-5.1_x64:lstrlib.obj
 0001:000151d0       min_expand                 00000001400161d0 f   lua-5.1_x64:lstrlib.obj
 0001:00015290       start_capture              0000000140016290 f   lua-5.1_x64:lstrlib.obj
 0001:00015320       end_capture                0000000140016320 f   lua-5.1_x64:lstrlib.obj
 0001:000153d0       match_capture              00000001400163d0 f   lua-5.1_x64:lstrlib.obj
 0001:00015470       match                      0000000140016470 f   lua-5.1_x64:lstrlib.obj
 0001:00015710       lmemfind                   0000000140016710 f   lua-5.1_x64:lstrlib.obj
 0001:000157b0       push_onecapture            00000001400167b0 f   lua-5.1_x64:lstrlib.obj
 0001:00015870       push_captures              0000000140016870 f   lua-5.1_x64:lstrlib.obj
 0001:00015980       str_find_aux               0000000140016980 f   lua-5.1_x64:lstrlib.obj
 0001:00015b80       str_find                   0000000140016b80 f   lua-5.1_x64:lstrlib.obj
 0001:00015b90       str_match                  0000000140016b90 f   lua-5.1_x64:lstrlib.obj
 0001:00015ba0       gmatch_aux                 0000000140016ba0 f   lua-5.1_x64:lstrlib.obj
 0001:00015ca0       gmatch                     0000000140016ca0 f   lua-5.1_x64:lstrlib.obj
 0001:00015d00       gfind_nodef                0000000140016d00 f   lua-5.1_x64:lstrlib.obj
 0001:00015d10       add_s                      0000000140016d10 f   lua-5.1_x64:lstrlib.obj
 0001:00015e20       add_value                  0000000140016e20 f   lua-5.1_x64:lstrlib.obj
 0001:00015f50       str_gsub                   0000000140016f50 f   lua-5.1_x64:lstrlib.obj
 0001:00016130       addquoted                  0000000140017130 f   lua-5.1_x64:lstrlib.obj
 0001:00016250       scanformat                 0000000140017250 f   lua-5.1_x64:lstrlib.obj
 0001:00016360       str_format                 0000000140017360 f   lua-5.1_x64:lstrlib.obj
 0001:00016690       createmetatable            0000000140017690 f   lua-5.1_x64:lstrlib.obj
 0001:00016770       luaB_print                 0000000140017770 f   lua-5.1_x64:lbaselib.obj
 0001:00016870       luaB_tonumber              0000000140017870 f   lua-5.1_x64:lbaselib.obj
 0001:000169a0       luaB_error                 00000001400179a0 f   lua-5.1_x64:lbaselib.obj
 0001:00016a20       luaB_getmetatable          0000000140017a20 f   lua-5.1_x64:lbaselib.obj
 0001:00016a80       luaB_setmetatable          0000000140017a80 f   lua-5.1_x64:lbaselib.obj
 0001:00016b20       getfunc                    0000000140017b20 f   lua-5.1_x64:lbaselib.obj
 0001:00016c00       luaB_getfenv               0000000140017c00 f   lua-5.1_x64:lbaselib.obj
 0001:00016c50       luaB_setfenv               0000000140017c50 f   lua-5.1_x64:lbaselib.obj
 0001:00016d10       luaB_rawequal              0000000140017d10 f   lua-5.1_x64:lbaselib.obj
 0001:00016d60       luaB_rawget                0000000140017d60 f   lua-5.1_x64:lbaselib.obj
 0001:00016db0       luaB_rawset                0000000140017db0 f   lua-5.1_x64:lbaselib.obj
 0001:00016e10       luaB_gcinfo                0000000140017e10 f   lua-5.1_x64:lbaselib.obj
 0001:00016e40       luaB_collectgarbage        0000000140017e40 f   lua-5.1_x64:lbaselib.obj
 0001:00016f10       luaB_type                  0000000140017f10 f   lua-5.1_x64:lbaselib.obj
 0001:00016f50       luaB_next                  0000000140017f50 f   lua-5.1_x64:lbaselib.obj
 0001:00016fb0       luaB_pairs                 0000000140017fb0 f   lua-5.1_x64:lbaselib.obj
 0001:00017000       ipairsaux                  0000000140018000 f   lua-5.1_x64:lbaselib.obj
 0001:00017070       luaB_ipairs                0000000140018070 f   lua-5.1_x64:lbaselib.obj
 0001:000170c0       luaB_loadstring            00000001400180c0 f   lua-5.1_x64:lbaselib.obj
 0001:00017140       luaB_loadfile              0000000140018140 f   lua-5.1_x64:lbaselib.obj
 0001:000171a0       generic_reader             00000001400181a0 f   lua-5.1_x64:lbaselib.obj
 0001:00017250       luaB_load                  0000000140018250 f   lua-5.1_x64:lbaselib.obj
 0001:000172e0       luaB_dofile                00000001400182e0 f   lua-5.1_x64:lbaselib.obj
 0001:00017350       luaB_assert                0000000140018350 f   lua-5.1_x64:lbaselib.obj
 0001:000173b0       luaB_unpack                00000001400183b0 f   lua-5.1_x64:lbaselib.obj
 0001:000174a0       luaB_select                00000001400184a0 f   lua-5.1_x64:lbaselib.obj
 0001:00017550       luaB_pcall                 0000000140018550 f   lua-5.1_x64:lbaselib.obj
 0001:000175b0       luaB_xpcall                00000001400185b0 f   lua-5.1_x64:lbaselib.obj
 0001:00017620       luaB_tostring              0000000140018620 f   lua-5.1_x64:lbaselib.obj
 0001:00017740       luaB_newproxy              0000000140018740 f   lua-5.1_x64:lbaselib.obj
 0001:00017840       costatus                   0000000140018840 f   lua-5.1_x64:lbaselib.obj
 0001:000178d0       luaB_costatus              00000001400188d0 f   lua-5.1_x64:lbaselib.obj
 0001:00017940       auxresume                  0000000140018940 f   lua-5.1_x64:lbaselib.obj
 0001:00017a40       luaB_coresume              0000000140018a40 f   lua-5.1_x64:lbaselib.obj
 0001:00017ae0       luaB_auxwrap               0000000140018ae0 f   lua-5.1_x64:lbaselib.obj
 0001:00017b70       luaB_cocreate              0000000140018b70 f   lua-5.1_x64:lbaselib.obj
 0001:00017bf0       luaB_cowrap                0000000140018bf0 f   lua-5.1_x64:lbaselib.obj
 0001:00017c20       luaB_yield                 0000000140018c20 f   lua-5.1_x64:lbaselib.obj
 0001:00017c40       luaB_corunning             0000000140018c40 f   lua-5.1_x64:lbaselib.obj
 0001:00017c70       base_open                  0000000140018c70 f   lua-5.1_x64:lbaselib.obj
 0001:00017e00       stack_init                 0000000140018e00 f   lua-5.1_x64:lstate.obj
 0001:00017eb0       f_luaopen                  0000000140018eb0 f   lua-5.1_x64:lstate.obj
 0001:00017f60       close_state                0000000140018f60 f   lua-5.1_x64:lstate.obj
 0001:00018300       callallgcTM                0000000140019300 f   lua-5.1_x64:lstate.obj
 0001:00018390       foreachi                   0000000140019390 f   lua-5.1_x64:ltablib.obj
 0001:00018460       foreach                    0000000140019460 f   lua-5.1_x64:ltablib.obj
 0001:00018520       maxn                       0000000140019520 f   lua-5.1_x64:ltablib.obj
 0001:000185c0       getn                       00000001400195c0 f   lua-5.1_x64:ltablib.obj
 0001:00018600       setn                       0000000140019600 f   lua-5.1_x64:ltablib.obj
 0001:00018640       tinsert                    0000000140019640 f   lua-5.1_x64:ltablib.obj
 0001:00018720       tremove                    0000000140019720 f   lua-5.1_x64:ltablib.obj
 0001:00018800       tconcat                    0000000140019800 f   lua-5.1_x64:ltablib.obj
 0001:00018990       auxsort                    0000000140019990 f   lua-5.1_x64:ltablib.obj
 0001:00018ed0       sort                       0000000140019ed0 f   lua-5.1_x64:ltablib.obj
 0001:00019150       pushstr                    000000014001a150 f   lua-5.1_x64:lobject.obj
 0001:00019820       correctstack               000000014001a820 f   lua-5.1_x64:ldo.obj
 0001:00019b40       adjust_varargs             000000014001ab40 f   lua-5.1_x64:ldo.obj
 0001:00019d00       tryfuncTM                  000000014001ad00 f   lua-5.1_x64:ldo.obj
 0001:00019dc0       callrethooks               000000014001adc0 f   lua-5.1_x64:ldo.obj
 0001:00019fd0       resume_error               000000014001afd0 f   lua-5.1_x64:ldo.obj
 0001:0001a0a0       f_parser                   000000014001b0a0 f   lua-5.1_x64:ldo.obj
 0001:0001a1a0       resetstack                 000000014001b1a0 f   lua-5.1_x64:ldo.obj
 0001:0001a2b0       growCI                     000000014001b2b0 f   lua-5.1_x64:ldo.obj
 0001:0001a5f0       resume                     000000014001b5f0 f   lua-5.1_x64:ldo.obj
 0001:0001a8b0       reallymarkobject           000000014001b8b0 f   lua-5.1_x64:lgc.obj
 0001:0001a9d0       marktmu                    000000014001b9d0 f   lua-5.1_x64:lgc.obj
 0001:0001abc0       traversetable              000000014001bbc0 f   lua-5.1_x64:lgc.obj
 0001:0001ada0       traverseproto              000000014001bda0 f   lua-5.1_x64:lgc.obj
 0001:0001aea0       traverseclosure            000000014001bea0 f   lua-5.1_x64:lgc.obj
 0001:0001af50       traversestack              000000014001bf50 f   lua-5.1_x64:lgc.obj
 0001:0001b080       propagatemark              000000014001c080 f   lua-5.1_x64:lgc.obj
 0001:0001b1c0       propagateall               000000014001c1c0 f   lua-5.1_x64:lgc.obj
 0001:0001b330       cleartable                 000000014001c330 f   lua-5.1_x64:lgc.obj
 0001:0001b460       freeobj                    000000014001c460 f   lua-5.1_x64:lgc.obj
 0001:0001b500       sweeplist                  000000014001c500 f   lua-5.1_x64:lgc.obj
 0001:0001b680       checkSizes                 000000014001c680 f   lua-5.1_x64:lgc.obj
 0001:0001b710       GCTM                       000000014001c710 f   lua-5.1_x64:lgc.obj
 0001:0001baa0       markmt                     000000014001caa0 f   lua-5.1_x64:lgc.obj
 0001:0001bbc0       markroot                   000000014001cbc0 f   lua-5.1_x64:lgc.obj
 0001:0001bc50       atomic                     000000014001cc50 f   lua-5.1_x64:lgc.obj
 0001:0001be00       singlestep                 000000014001ce00 f   lua-5.1_x64:lgc.obj
 0001:0001c340       currentline                000000014001d340 f   lua-5.1_x64:ldebug.obj
 0001:0001c410       funcinfo                   000000014001d410 f   lua-5.1_x64:ldebug.obj
 0001:0001c490       collectvalidlines          000000014001d490 f   lua-5.1_x64:ldebug.obj
 0001:0001c590       checkArgMode               000000014001d590 f   lua-5.1_x64:ldebug.obj
 0001:0001c5e0       symbexec                   000000014001d5e0 f   lua-5.1_x64:ldebug.obj
 0001:0001cba0       getobjname                 000000014001dba0 f   lua-5.1_x64:ldebug.obj
 0001:0001cdb0       getfuncname                000000014001ddb0 f   lua-5.1_x64:ldebug.obj
 0001:0001ce70       addinfo                    000000014001de70 f   lua-5.1_x64:ldebug.obj
 0001:0001d040       auxgetinfo                 000000014001e040 f   lua-5.1_x64:ldebug.obj
 0001:0001d670       traceexec                  000000014001e670 f   lua-5.1_x64:lvm.obj
 0001:0001d740       callTMres                  000000014001e740 f   lua-5.1_x64:lvm.obj
 0001:0001d7f0       callTM                     000000014001e7f0 f   lua-5.1_x64:lvm.obj
 0001:0001db70       call_binTM                 000000014001eb70 f   lua-5.1_x64:lvm.obj
 0001:0001dbf0       get_compTM                 000000014001ebf0 f   lua-5.1_x64:lvm.obj
 0001:0001dcc0       call_orderTM               000000014001ecc0 f   lua-5.1_x64:lvm.obj
 0001:0001dd70       l_strcmp                   000000014001ed70 f   lua-5.1_x64:lvm.obj
 0001:0001dee0       lessequal                  000000014001eee0 f   lua-5.1_x64:lvm.obj
 0001:0001e400       Arith                      000000014001f400 f   lua-5.1_x64:lvm.obj
 0001:0001fc90       mainposition               0000000140020c90 f   lua-5.1_x64:ltable.obj
 0001:0001fd80       findindex                  0000000140020d80 f   lua-5.1_x64:ltable.obj
 0001:0001ff90       setarrayvector             0000000140020f90 f   lua-5.1_x64:ltable.obj
 0001:00020020       setnodevector              0000000140021020 f   lua-5.1_x64:ltable.obj
 0001:000204e0       unbound_search             00000001400214e0 f   lua-5.1_x64:ltable.obj
 0001:000207b0       resize                     00000001400217b0 f   lua-5.1_x64:ltable.obj
 0001:00020a20       rehash                     0000000140021a20 f   lua-5.1_x64:ltable.obj
 0001:00020c20       newkey                     0000000140021c20 f   lua-5.1_x64:ltable.obj
 0001:00021800       LoadInt                    0000000140022800 f   lua-5.1_x64:lundump.obj
 0001:00021890       LoadString                 0000000140022890 f   lua-5.1_x64:lundump.obj
 0001:00021960       LoadCode                   0000000140022960 f   lua-5.1_x64:lundump.obj
 0001:00021a10       LoadConstants              0000000140022a10 f   lua-5.1_x64:lundump.obj
 0001:00021d20       LoadDebug                  0000000140022d20 f   lua-5.1_x64:lundump.obj
 0001:00022050       LoadFunction               0000000140023050 f   lua-5.1_x64:lundump.obj
 0001:000222d0       LoadHeader                 00000001400232d0 f   lua-5.1_x64:lundump.obj
 0001:00022590       save                       0000000140023590 f   lua-5.1_x64:llex.obj
 0001:00022720       txtToken                   0000000140023720 f   lua-5.1_x64:llex.obj
 0001:000228e0       inclinenumber              00000001400238e0 f   lua-5.1_x64:llex.obj
 0001:00022a40       trydecpoint                0000000140023a40 f   lua-5.1_x64:llex.obj
 0001:00022b80       read_numeral               0000000140023b80 f   lua-5.1_x64:llex.obj
 0001:00022d00       skip_sep                   0000000140023d00 f   lua-5.1_x64:llex.obj
 0001:00022ed0       read_long_string           0000000140023ed0 f   lua-5.1_x64:llex.obj
 0001:00023200       read_string                0000000140024200 f   lua-5.1_x64:llex.obj
 0001:00023630       llex                       0000000140024630 f   lua-5.1_x64:llex.obj
 0001:00023f60       check_match                0000000140024f60 f   lua-5.1_x64:lparser.obj
 0001:00024020       registerlocalvar           0000000140025020 f   lua-5.1_x64:lparser.obj
 0001:00024100       new_localvar               0000000140025100 f   lua-5.1_x64:lparser.obj
 0001:000241c0       indexupvalue               00000001400251c0 f   lua-5.1_x64:lparser.obj
 0001:00024360       singlevaraux               0000000140025360 f   lua-5.1_x64:lparser.obj
 0001:00024490       singlevar                  0000000140025490 f   lua-5.1_x64:lparser.obj
 0001:00024520       leaveblock                 0000000140025520 f   lua-5.1_x64:lparser.obj
 0001:000245c0       pushclosure                00000001400255c0 f   lua-5.1_x64:lparser.obj
 0001:00024710       open_func                  0000000140025710 f   lua-5.1_x64:lparser.obj
 0001:00024800       close_func                 0000000140025800 f   lua-5.1_x64:lparser.obj
 0001:00024a30       field                      0000000140025a30 f   lua-5.1_x64:lparser.obj
 0001:00024af0       recfield                   0000000140025af0 f   lua-5.1_x64:lparser.obj
 0001:00024cf0       constructor                0000000140025cf0 f   lua-5.1_x64:lparser.obj
 0001:00024fb0       parlist                    0000000140025fb0 f   lua-5.1_x64:lparser.obj
 0001:000250e0       body                       00000001400260e0 f   lua-5.1_x64:lparser.obj
 0001:00025240       funcargs                   0000000140026240 f   lua-5.1_x64:lparser.obj
 0001:000253d0       prefixexp                  00000001400263d0 f   lua-5.1_x64:lparser.obj
 0001:00025460       primaryexp                 0000000140026460 f   lua-5.1_x64:lparser.obj
 0001:00025710       simpleexp                  0000000140026710 f   lua-5.1_x64:lparser.obj
 0001:00025990       getbinopr                  0000000140026990 f   lua-5.1_x64:lparser.obj
 0001:00025b50       subexpr                    0000000140026b50 f   lua-5.1_x64:lparser.obj
 0001:00025c90       block                      0000000140026c90 f   lua-5.1_x64:lparser.obj
 0001:00025ce0       assignment                 0000000140026ce0 f   lua-5.1_x64:lparser.obj
 0001:00025fb0       breakstat                  0000000140026fb0 f   lua-5.1_x64:lparser.obj
 0001:00026040       whilestat                  0000000140027040 f   lua-5.1_x64:lparser.obj
 0001:000261b0       repeatstat                 00000001400271b0 f   lua-5.1_x64:lparser.obj
 0001:00026300       forbody                    0000000140027300 f   lua-5.1_x64:lparser.obj
 0001:00026520       fornum                     0000000140027520 f   lua-5.1_x64:lparser.obj
 0001:00026710       forlist                    0000000140027710 f   lua-5.1_x64:lparser.obj
 0001:00026960       forstat                    0000000140027960 f   lua-5.1_x64:lparser.obj
 0001:00026a70       test_then_block            0000000140027a70 f   lua-5.1_x64:lparser.obj
 0001:00026b50       ifstat                     0000000140027b50 f   lua-5.1_x64:lparser.obj
 0001:00026c80       localfunc                  0000000140027c80 f   lua-5.1_x64:lparser.obj
 0001:00026d90       localstat                  0000000140027d90 f   lua-5.1_x64:lparser.obj
 0001:00026f40       funcstat                   0000000140027f40 f   lua-5.1_x64:lparser.obj
 0001:000270e0       retstat                    00000001400280e0 f   lua-5.1_x64:lparser.obj
 0001:00027200       statement                  0000000140028200 f   lua-5.1_x64:lparser.obj
 0001:00027410       chunk                      0000000140028410 f   lua-5.1_x64:lparser.obj
 0001:00027610       fixjump                    0000000140028610 f   lua-5.1_x64:lcode.obj
 0001:00027690       removevalues               0000000140028690 f   lua-5.1_x64:lcode.obj
 0001:00027720       patchlistaux               0000000140028720 f   lua-5.1_x64:lcode.obj
 0001:000279f0       addk                       00000001400289f0 f   lua-5.1_x64:lcode.obj
 0001:00027c60       invertjump                 0000000140028c60 f   lua-5.1_x64:lcode.obj
 0001:00027cb0       constfolding               0000000140028cb0 f   lua-5.1_x64:lcode.obj
 0001:00027e30       luaK_code                  0000000140028e30 f   lua-5.1_x64:lcode.obj
 0001:000282b0       discharge2reg              00000001400292b0 f   lua-5.1_x64:lcode.obj
 0001:00028400       discharge2anyreg           0000000140029400 f   lua-5.1_x64:lcode.obj
 0001:00028440       exp2reg                    0000000140029440 f   lua-5.1_x64:lcode.obj
 0001:00028b30       jumponcond                 0000000140029b30 f   lua-5.1_x64:lcode.obj
 0001:00028d30       luaK_goiffalse             0000000140029d30 f   lua-5.1_x64:lcode.obj
 0001:00028e30       codenot                    0000000140029e30 f   lua-5.1_x64:lcode.obj
 0001:00028f50       codearith                  0000000140029f50 f   lua-5.1_x64:lcode.obj
 0001:00029060       codecomp                   000000014002a060 f   lua-5.1_x64:lcode.obj
 0001:0002bb10       time                       000000014002cb10 f    CIL library: CIL module
 0001:0002bb30       localtime                  000000014002cb30 f    CIL library: CIL module
 0001:00031c40       ?SetupThreadLocale@@YAXXZ  0000000140032c40 f    CIL library: CIL module
 0001:00031c60       ?PathCreateThreadCode@@YAHPEBTJMPInstruct@@@Z 0000000140032c60 f    CIL library: CIL module
 0001:00031d70       ?_Path_ThreadLocale_Rountine@@YA_JPEAUPTD@@@Z 0000000140032d70 f    CIL library: CIL module
 0001:00031de0       ?UnPathCreateThread@@YAHXZ 0000000140032de0 f    CIL library: CIL module
 0001:00031e00       ?PathCreateThread@@YAHXZ   0000000140032e00 f    CIL library: CIL module
 0001:00031e70       ?_CreateThread_Path_@@YAPEAXPEAU_SECURITY_ATTRIBUTES@@_KP6AKPEAX@Z2KPEAK@Z 0000000140032e70 f    CIL library: CIL module
 0001:00031ff0       time                       0000000140032ff0 f    CIL library: CIL module
 0001:00032010       localtime                  0000000140033010 f    CIL library: CIL module
 0001:00033f20       ?dtor$0@?0??logToFile@CounterManager@@QEAAXXZ@4HA 0000000140034f20 f   main.obj
 0001:00033f30       ?dtor$0@?0??ServerMain@@YAXXZ@4HA 0000000140034f30 f   main.obj
 0001:00033f40       ?dtor$1@?0??ServerMain@@YAXXZ@4HA 0000000140034f40 f   main.obj
 0001:00033f50       ?dtor$3@?0??ServerMain@@YAXXZ@4HA 0000000140034f50 f   main.obj
 0001:00033f60       ?dtor$2@?0??ServerMain@@YAXXZ@4HA 0000000140034f60 f   main.obj
 0001:00033f70       ?dtor$0@?0??getSingleton@CTimeProfMgr@@SAAEAV1@XZ@4HA 0000000140034f70 f   main.obj
 0001:00033f70       main$dtor$0                0000000140034f70 f   main.obj
 0001:00033f90       ?dtor$0@?0??ShowServerConnections@CPerformanceWatcher@@AEAAXXZ@4HA 0000000140034f90 f   PerformanceWatcher.obj
 0001:00033fa0       ?dtor$0@?0??OnRountine@CPerformanceWatcher@@MEAAXXZ@4HA 0000000140034fa0 f   PerformanceWatcher.obj
 0001:00033fb0       ?dtor$2@?0??OnRountine@CPerformanceWatcher@@MEAAXXZ@4HA 0000000140034fb0 f   PerformanceWatcher.obj
 0001:00033fc0       ?dtor$1@?0??OnRountine@CPerformanceWatcher@@MEAAXXZ@4HA 0000000140034fc0 f   PerformanceWatcher.obj
 0001:00033fd0       ?dtor$3@?0??OnRountine@CPerformanceWatcher@@MEAAXXZ@4HA 0000000140034fd0 f   PerformanceWatcher.obj
 0001:00033fe0       ?dtor$1@?0??CheckUserValid@CSessionClient@@QEAAHPEAD0AEAUtagGlobalSessionOpenData@jxSrvDef@@@Z@4HA 0000000140034fe0 f   SessionClient.obj
 0001:00033ff0       ?dtor$0@?0???_GCSessionClient@@UEAAPEAXI@Z@4HA 0000000140034ff0 f   SessionClient.obj
 0001:00033ff0       ?dtor$0@?0???0CSessionClient@@QEAA@PEAVCSessionServer@@PEAVCSQLConenction@@_KPEAUsockaddr_in@@@Z@4HA 0000000140034ff0 f   SessionClient.obj
 0001:00034000       ?dtor$1@?0??CatchCreateAccount@CSessionClient@@QEAAXAEAVCDataPacketReader@@@Z@4HA 0000000140035000 f   SessionClient.obj
 0001:00034010       ?dtor$0@?0??CreateClientSocket@CSessionServer@@MEAAPEAVCCustomServerClientSocket@@_KPEAUsockaddr_in@@@Z@4HA 0000000140035010 f   SessionServer.obj
 0001:00034020       ?dtor$0@?0??CatchBroadcastMessage@CSessionClient@@QEAAXAEAVCDataPacketReader@@@Z@4HA 0000000140035020 f   SessionServer.obj
 0001:00034020       ?dtor$0@?0??CatchGroupMessage@CSessionClient@@QEAAXAEAVCDataPacketReader@@@Z@4HA 0000000140035020 f   SessionServer.obj
 0001:00034020       ?dtor$0@?0??ProcessKickCrossActor@CSessionServer@@QEAAX_JH@Z@4HA 0000000140035020 f   SessionServer.obj
 0001:00034030       ?dtor$1@?0??CatchBroadcastMessage@CSessionClient@@QEAAXAEAVCDataPacketReader@@@Z@4HA 0000000140035030 f   SessionServer.obj
 0001:00034030       ?dtor$1@?0??ProcessKickCrossActor@CSessionServer@@QEAAX_JH@Z@4HA 0000000140035030 f   SessionServer.obj
 0001:00034030       ?dtor$1@?0??CatchGroupMessage@CSessionClient@@QEAAXAEAVCDataPacketReader@@@Z@4HA 0000000140035030 f   SessionServer.obj
 0001:00034040       ?dtor$0@?0??BroadCastSessionConfim@CSessionServer@@AEAA_J_J0@Z@4HA 0000000140035040 f   SessionServer.obj
 0001:00034040       ?dtor$0@?0??BroadCastUpdateSessionState@CSessionServer@@AEAA_JPEAUtagGameSession@@@Z@4HA 0000000140035040 f   SessionServer.obj
 0001:00034050       ?dtor$1@?0??BroadCastUpdateSessionState@CSessionServer@@AEAA_JPEAUtagGameSession@@@Z@4HA 0000000140035050 f   SessionServer.obj
 0001:00034050       ?dtor$1@?0??BroadCastSessionConfim@CSessionServer@@AEAA_J_J0@Z@4HA 0000000140035050 f   SessionServer.obj
 0001:00034060       ?dtor$0@?0??BroadCastCloseSession@CSessionServer@@AEAA_J_K_KH@Z@4HA 0000000140035060 f   SessionServer.obj
 0001:00034070       ?dtor$1@?0??BroadCastCloseSession@CSessionServer@@AEAA_J_K_KH@Z@4HA 0000000140035070 f   SessionServer.obj
 0001:00034080       ?dtor$2@?0??BroadCastCloseSession@CSessionServer@@AEAA_J_K_KH@Z@4HA 0000000140035080 f   SessionServer.obj
 0001:00034090       ?dtor$0@?0??PostOpenSession@CSessionServer@@QEAAH_J0PEBD000_J_K2@Z@4HA 0000000140035090 f   SessionServer.obj
 0001:000340a0       ?dtor$1@?0??PostOpenSession@CSessionServer@@QEAAH_J0PEBD000_J_K2@Z@4HA 00000001400350a0 f   SessionServer.obj
 0001:000340b0       ?dtor$0@?0???0CSessionServer@@QEAA@PEAVCSSManager@@@Z@4HA 00000001400350b0 f   SessionServer.obj
 0001:000340c0       ?dtor$1@?0???0CSessionServer@@QEAA@PEAVCSSManager@@@Z@4HA 00000001400350c0 f   SessionServer.obj
 0001:000340e0       ?dtor$2@?0???0CSessionServer@@QEAA@PEAVCSSManager@@@Z@4HA 00000001400350e0 f   SessionServer.obj
 0001:00034100       ?dtor$3@?0???0CSessionServer@@QEAA@PEAVCSSManager@@@Z@4HA 0000000140035100 f   SessionServer.obj
 0001:00034120       ?dtor$0@?0???_GCSessionServer@@UEAAPEAXI@Z@4HA 0000000140035120 f   SessionServer.obj
 0001:00034130       ?dtor$1@?0???_GCSessionServer@@UEAAPEAXI@Z@4HA 0000000140035130 f   SessionServer.obj
 0001:00034150       ?dtor$2@?0???_GCSessionServer@@UEAAPEAXI@Z@4HA 0000000140035150 f   SessionServer.obj
 0001:00034170       ?dtor$0@?0??loadConfig@CSSConfig@@QEAA_NPEAVCSSManager@@@Z@4HA 0000000140035170 f   SSConfig.obj
 0001:00034180       ?catch$0@?0??loadConfig@CSSConfig@@QEAA_NPEAVCSSManager@@@Z@4HA 0000000140035180 f   SSConfig.obj
 0001:0003418d       __catch$?loadConfig@CSSConfig@@QEAA_NPEAVCSSManager@@@Z$0 000000014003518d f   SSConfig.obj
 0001:000341c0       ?catch$1@?0??loadConfig@CSSConfig@@QEAA_NPEAVCSSManager@@@Z@4HA 00000001400351c0 f   SSConfig.obj
 0001:000341cd       __catch$?loadConfig@CSSConfig@@QEAA_NPEAVCSSManager@@@Z$1 00000001400351cd f   SSConfig.obj
 0001:000341f0       ?dtor$0@?0???0?$CTRefString@VCAnsiString@string@wylib@@D@string@wylib@@QEAA@AEBV012@@Z@4HA 00000001400351f0 f   SSConfig.obj
 0001:00034200       ?dtor$1@?0??showError@CSSConfig@@MEAAXPEBD@Z@4HA 0000000140035200 f   SSConfig.obj
 0001:00034210       ?dtor$0@?0??showError@CSSConfig@@MEAAXPEBD@Z@4HA 0000000140035210 f   SSConfig.obj
 0001:00034220       ?dtor$4@?0??showError@CSSConfig@@MEAAXPEBD@Z@4HA 0000000140035220 f   SSConfig.obj
 0001:00034230       ?dtor$0@?0??AddClient@CommServerClientList@@QEAAXHH@Z@4HA 0000000140035230 f   SSManager.obj
 0001:00034240       ?dtor$0@?0???1CSSManager@@QEAA@XZ@4HA 0000000140035240 f   SSManager.obj
 0001:00034260       ?dtor$1@?0???1CSSManager@@QEAA@XZ@4HA 0000000140035260 f   SSManager.obj
 0001:00034280       ?dtor$2@?0???1CSSManager@@QEAA@XZ@4HA 0000000140035280 f   SSManager.obj
 0001:000342a0       ?dtor$3@?0???1CSSManager@@QEAA@XZ@4HA 00000001400352a0 f   SSManager.obj
 0001:000342c0       ?dtor$4@?0???1CSSManager@@QEAA@XZ@4HA 00000001400352c0 f   SSManager.obj
 0001:000342e0       ?dtor$5@?0???1CSSManager@@QEAA@XZ@4HA 00000001400352e0 f   SSManager.obj
 0001:00034300       ?dtor$6@?0???1CSSManager@@QEAA@XZ@4HA 0000000140035300 f   SSManager.obj
 0001:00034320       ?dtor$0@?0??LoadCharGateRouteTable@CSSManager@@QEAA_JXZ@4HA 0000000140035320 f   SSManager.obj
 0001:00034330       ?dtor$1@?0??LoadCharGateRouteTable@CSSManager@@QEAA_JXZ@4HA 0000000140035330 f   SSManager.obj
 0001:00034340       ?dtor$0@?0??LoadAdministLoginTable@CSSManager@@QEAA_JXZ@4HA 0000000140035340 f   SSManager.obj
 0001:00034350       ?dtor$1@?0??LoadAdministLoginTable@CSSManager@@QEAA_JXZ@4HA 0000000140035350 f   SSManager.obj
 0001:00034360       ?dtor$0@?0??LoadLogicServerInfoList@CSSManager@@QEAA_JXZ@4HA 0000000140035360 f   SSManager.obj
 0001:00034370       ?dtor$1@?0??LoadLogicServerInfoList@CSSManager@@QEAA_JXZ@4HA 0000000140035370 f   SSManager.obj
 0001:00034380       ?dtor$0@?0??UpdateAMC@CSSManager@@QEAAXXZ@4HA 0000000140035380 f   SSManager.obj
 0001:00034390       ?dtor$0@?0???0CSSManager@@QEAA@XZ@4HA 0000000140035390 f   SSManager.obj
 0001:000343b0       ?dtor$1@?0???0CSSManager@@QEAA@XZ@4HA 00000001400353b0 f   SSManager.obj
 0001:000343d0       ?dtor$2@?0???0CSSManager@@QEAA@XZ@4HA 00000001400353d0 f   SSManager.obj
 0001:000343f0       ?dtor$3@?0???0CSSManager@@QEAA@XZ@4HA 00000001400353f0 f   SSManager.obj
 0001:00034410       ?dtor$4@?0???0CSSManager@@QEAA@XZ@4HA 0000000140035410 f   SSManager.obj
 0001:00034430       ?dtor$5@?0???0CSSManager@@QEAA@XZ@4HA 0000000140035430 f   SSManager.obj
 0001:00034450       ?dtor$6@?0???0CSSManager@@QEAA@XZ@4HA 0000000140035450 f   SSManager.obj
 0001:00034470       ?dtor$7@?0???0CSSManager@@QEAA@XZ@4HA 0000000140035470 f   SSManager.obj
 0001:00034480       ?dtor$8@?0???0CSSManager@@QEAA@XZ@4HA 0000000140035480 f   SSManager.obj
 0001:00034490       ?dtor$9@?0???0CSSManager@@QEAA@XZ@4HA 0000000140035490 f   SSManager.obj
 0001:000344a0       ?dtor$0@?0???0CFileStream@stream@wylib@@QEAA@PEBDKW4OpenDisposition@012@@Z@4HA 00000001400354a0 f   wylib_x64:FileStream.obj
 0001:000344a0       ?dtor$0@?0???0CFileStream@stream@wylib@@QEAA@PEBDK@Z@4HA 00000001400354a0 f   wylib_x64:FileStream.obj
 0001:000344b0       ?dtor$0@?0??loadFromFile@CMemoryStream@stream@wylib@@QEAA_JPEBD@Z@4HA 00000001400354b0 f   wylib_x64:MemoryStream.obj
 0001:000344bc       _onexit$fin$0              00000001400354bc f   MSVCRT:atonexit.obj
 0001:000344d7       __tmainCRTStartup$filt$0   00000001400354d7 f   MSVCRT:crtexe.obj
 0001:000344f5       ?filt$0@?0??__ArrayUnwind@@YAXPEAX_KHP6AX0@Z@Z@4HA 00000001400354f5 f   MSVCRT:ehvecdtr.obj
 0001:00034536       ?fin$0@?0???_M@YAXPEAX_KHP6AX0@Z@Z@4HA 0000000140035536 f   MSVCRT:ehvecdtr.obj
 0001:00034570       _IsNonwritableInCurrentImage$filt$0 0000000140035570 f   MSVCRT:pesect.obj
 0001:000345a0       ?dtor$0@?0??DumpImpl@COPMToFile@@IEAAXXZ@4HA 00000001400355a0 f    CIL library: CIL module
 0001:000345c0       ?dtor$0@?0???0COPMToFile@@QEAA@PEBD@Z@4HA 00000001400355c0 f    CIL library: CIL module
 0001:000345e0       ?dtor$1@?0???0COPMToFile@@QEAA@PEBD@Z@4HA 00000001400355e0 f    CIL library: CIL module
 0001:00034600       ?dtor$2@?0???0COPMToFile@@QEAA@PEBD@Z@4HA 0000000140035600 f    CIL library: CIL module
 0001:00034620       ?dtor$3@?0???0COPMToFile@@QEAA@PEBD@Z@4HA 0000000140035620 f    CIL library: CIL module
 0001:00034640       ?dtor$4@?0???0COPMToFile@@QEAA@PEBD@Z@4HA 0000000140035640 f    CIL library: CIL module
 0001:00034660       ?dtor$5@?0???0COPMToFile@@QEAA@PEBD@Z@4HA 0000000140035660 f    CIL library: CIL module
 0001:00034680       ?dtor$6@?0???0COPMToFile@@QEAA@PEBD@Z@4HA 0000000140035680 f    CIL library: CIL module
 0001:000346a0       ?dtor$7@?0???0COPMToFile@@QEAA@PEBD@Z@4HA 00000001400356a0 f    CIL library: CIL module
 0001:000346c0       ?dtor$0@?0???0CSendPacketPool@@QEAA@XZ@4HA 00000001400356c0 f    CIL library: CIL module
 0001:000346e0       ?dtor$1@?0???0CSendPacketPool@@QEAA@XZ@4HA 00000001400356e0 f    CIL library: CIL module
 0001:00034710       ?dtor$0@?0???1CSendPacketPool@@QEAA@XZ@4HA 0000000140035710 f    CIL library: CIL module
 0001:00034730       ?dtor$1@?0???1CSendPacketPool@@QEAA@XZ@4HA 0000000140035730 f    CIL library: CIL module
 0001:00034750       ?dtor$2@?0???1CSendPacketPool@@QEAA@XZ@4HA 0000000140035750 f    CIL library: CIL module
 0001:00034770       ?dtor$3@?0???1CSendPacketPool@@QEAA@XZ@4HA 0000000140035770 f    CIL library: CIL module
 0001:00034790       ?dtor$4@?0???1CSendPacketPool@@QEAA@XZ@4HA 0000000140035790 f    CIL library: CIL module
 0001:000347b0       ?dtor$5@?0???1CSendPacketPool@@QEAA@XZ@4HA 00000001400357b0 f    CIL library: CIL module
 0001:000347d0       ?dtor$6@?0???1CSendPacketPool@@QEAA@XZ@4HA 00000001400357d0 f    CIL library: CIL module
 0001:00034800       ?dtor$0@?0???1CCustomWorkSocket@@UEAA@XZ@4HA 0000000140035800 f    CIL library: CIL module
 0001:00034820       ?dtor$1@?0???1CCustomWorkSocket@@UEAA@XZ@4HA 0000000140035820 f    CIL library: CIL module
 0001:00034840       ?dtor$2@?0???1CCustomWorkSocket@@UEAA@XZ@4HA 0000000140035840 f    CIL library: CIL module
 0001:00034860       ?dtor$3@?0???1CCustomWorkSocket@@UEAA@XZ@4HA 0000000140035860 f    CIL library: CIL module
 0001:00034880       ?dtor$4@?0???1CCustomWorkSocket@@UEAA@XZ@4HA 0000000140035880 f    CIL library: CIL module
 0001:000348b0       ?dtor$0@?0???0CCustomWorkSocket@@QEAA@XZ@4HA 00000001400358b0 f    CIL library: CIL module
 0001:000348d0       ?dtor$1@?0???0CCustomWorkSocket@@QEAA@XZ@4HA 00000001400358d0 f    CIL library: CIL module
 0001:000348f0       ?dtor$2@?0???0CCustomWorkSocket@@QEAA@XZ@4HA 00000001400358f0 f    CIL library: CIL module
 0001:00034910       ?dtor$3@?0???0CCustomWorkSocket@@QEAA@XZ@4HA 0000000140035910 f    CIL library: CIL module
 0001:00034940       ?dtor$0@?0???1CCustomLuaScript@@UEAA@XZ@4HA 0000000140035940 f    CIL library: CIL module
 0001:00034970       ?dtor$0@?0???1CCustomLuaConfig@@UEAA@XZ@4HA 0000000140035970 f    CIL library: CIL module
 0001:00034990       ?dtor$1@?0???1CCustomLuaConfig@@UEAA@XZ@4HA 0000000140035990 f    CIL library: CIL module
 0001:000349c0       ?dtor$0@?0???1CCustomClientSocket@@UEAA@XZ@4HA 00000001400359c0 f    CIL library: CIL module
 0001:000349e0       ?dtor$0@?0???0CCustomClientSocket@@QEAA@XZ@4HA 00000001400359e0 f    CIL library: CIL module
 0001:00034a00       ?dtor$0@?0???1CCustomServerSocket@@UEAA@XZ@4HA 0000000140035a00 f    CIL library: CIL module
 0001:00034a20       ?dtor$1@?0???1CCustomServerSocket@@UEAA@XZ@4HA 0000000140035a20 f    CIL library: CIL module
 0001:00034a40       ?dtor$2@?0???1CCustomServerSocket@@UEAA@XZ@4HA 0000000140035a40 f    CIL library: CIL module
 0001:00034a70       ?dtor$0@?0???0CCustomServerSocket@@QEAA@XZ@4HA 0000000140035a70 f    CIL library: CIL module
 0001:00034a90       ?dtor$1@?0???0CCustomServerSocket@@QEAA@XZ@4HA 0000000140035a90 f    CIL library: CIL module
 0001:00034ac0       ?dtor$0@?0???0CCustomServerClientSocket@@QEAA@XZ@4HA 0000000140035ac0 f    CIL library: CIL module
 0001:00034ae0       ?dtor$0@?0??showFieldDoesNotContainValue@CCustomLuaConfig@@IEAAXPEBD0@Z@4HA 0000000140035ae0 f    CIL library: CIL module
 0001:00034b00       ?dtor$0@?0??showTableNotExists@CCustomLuaConfig@@IEAAXPEBD@Z@4HA 0000000140035b00 f    CIL library: CIL module
 0001:00034b20       ?dtor$0@?0??showError@CCustomLuaConfig@@MEAAXPEBD@Z@4HA 0000000140035b20 f    CIL library: CIL module
 0001:00034b40       ?dtor$0@?0??dump@CTimeProfMgr@@QEAAXXZ@4HA 0000000140035b40 f    CIL library: CIL module
 0001:00034b70       ?dtor$0@?0??allocSendPacketList@CSendPacketPool@@QEAAXAEAV?$CBaseList@PEAVCDataPacket@@@container@wylib@@_JPEAPEAVCDataPacket@@@Z@4HA 0000000140035b70 f    CIL library: CIL module
 0001:00034ba0       ?dtor$0@?0???0CTimeProfMgr@@QEAA@XZ@4HA 0000000140035ba0 f    CIL library: CIL module
 0001:00034bc0       ?dtor$1@?0???0CTimeProfMgr@@QEAA@XZ@4HA 0000000140035bc0 f    CIL library: CIL module
 0001:00034be0       ?dtor$2@?0???0CTimeProfMgr@@QEAA@XZ@4HA 0000000140035be0 f    CIL library: CIL module
 0001:00034c00       ?dtor$3@?0???0CTimeProfMgr@@QEAA@XZ@4HA 0000000140035c00 f    CIL library: CIL module
 0001:00034c20       ?dtor$4@?0???0CTimeProfMgr@@QEAA@XZ@4HA 0000000140035c20 f    CIL library: CIL module
 0001:00034c50       ?dtor$0@?0???0CFileLogger@@QEAA@PEBDZZ@4HA 0000000140035c50 f    CIL library: CIL module
 0001:00034c70       ?dtor$0@?0???1CTimeProfRecord@@QEAA@XZ@4HA 0000000140035c70 f    CIL library: CIL module
 0001:00034c90       ?dtor$1@?0???1CTimeProfRecord@@QEAA@XZ@4HA 0000000140035c90 f    CIL library: CIL module
 0001:00034cc0       ?dtor$0@?0???1CTimeProfDummy@@QEAA@XZ@4HA 0000000140035cc0 f    CIL library: CIL module
 0001:00034ce0       ?dtor$0@?0???0CTimeProfDummy@@QEAA@PEBDI@Z@4HA 0000000140035ce0 f    CIL library: CIL module
 0001:00034d00       ?dtor$0@?0???1CTimeProfMgr@@QEAA@XZ@4HA 0000000140035d00 f    CIL library: CIL module
 0001:00034d20       ?dtor$1@?0???1CTimeProfMgr@@QEAA@XZ@4HA 0000000140035d20 f    CIL library: CIL module
 0001:00034d40       ?dtor$2@?0???1CTimeProfMgr@@QEAA@XZ@4HA 0000000140035d40 f    CIL library: CIL module
 0001:00034d60       ?dtor$3@?0???1CTimeProfMgr@@QEAA@XZ@4HA 0000000140035d60 f    CIL library: CIL module
 0001:00034d80       ?dtor$4@?0???1CTimeProfMgr@@QEAA@XZ@4HA 0000000140035d80 f    CIL library: CIL module
 0001:00034da0       ?dtor$0@?0???1CDataPacket@@QEAA@XZ@4HA 0000000140035da0 f    CIL library: CIL module
 0001:00034dc0       ?dtor$0@?0??getSingleton@CounterManager@@SAAEAV1@XZ@4HA 0000000140035dc0 f    CIL library: CIL module
 0001:00034de0       ?dtor$0@?0???YCAnsiString@string@wylib@@QEAAXPEBD@Z@4HA 0000000140035de0 f    CIL library: CIL module
 0001:00034e00       ?dtor$0@?0???1COPMToFile@@UEAA@XZ@4HA 0000000140035e00 f    CIL library: CIL module
 0001:00034e20       ?dtor$1@?0???1COPMToFile@@UEAA@XZ@4HA 0000000140035e20 f    CIL library: CIL module
 0001:00034e40       ?dtor$2@?0???1COPMToFile@@UEAA@XZ@4HA 0000000140035e40 f    CIL library: CIL module
 0001:00034e60       ?dtor$3@?0???1COPMToFile@@UEAA@XZ@4HA 0000000140035e60 f    CIL library: CIL module
 0001:00034e80       ?dtor$4@?0???1COPMToFile@@UEAA@XZ@4HA 0000000140035e80 f    CIL library: CIL module
 0001:00034ea0       ?dtor$5@?0???1COPMToFile@@UEAA@XZ@4HA 0000000140035ea0 f    CIL library: CIL module
 0001:00034ec0       ?dtor$6@?0???1COPMToFile@@UEAA@XZ@4HA 0000000140035ec0 f    CIL library: CIL module
 0001:00034ee0       ?dtor$7@?0???1COPMToFile@@UEAA@XZ@4HA 0000000140035ee0 f    CIL library: CIL module
 0001:00034f00       ?dtor$0@?0??addMsg@COPMToFile@@QEAAXW4tagShareOutputMsgType@@PEBD_J@Z@4HA 0000000140035f00 f    CIL library: CIL module
 0001:00034f20       ?dtor$0@?0???0CAMClient@@QEAA@XZ@4HA 0000000140035f20 f    CIL library: CIL module
 0001:00034f20       ?dtor$0@?0???1CAMClient@@UEAA@XZ@4HA 0000000140035f20 f    CIL library: CIL module
 0001:00034f30       ?dtor$1@?0???0CAMClient@@QEAA@XZ@4HA 0000000140035f30 f    CIL library: CIL module
 0001:00034f30       ?dtor$1@?0???1CAMClient@@UEAA@XZ@4HA 0000000140035f30 f    CIL library: CIL module
 0001:00034f50       ?dtor$0@?0??allocTimeProfRecord@CTimeProfMgr@@IEAAXXZ@4HA 0000000140035f50 f    CIL library: CIL module
 0001:00034f70       ?dtor$0@?0??getThreadInst@CTimeProfMgr@@QEAAPEAV1@XZ@4HA 0000000140035f70 f    CIL library: CIL module
 0001:00034f90       ??__E?SSSockPacketHandlers@CSessionClient@@0QBQ81@EAAXAEAVCDataPacketReader@@@ZB@@YAXXZ 0000000140035f90 f   SessionClient.obj
 0001:000351d0       ??__EmmPeriod@@YAXXZ       00000001400361d0 f   wylib_x64:Tick.obj
 0001:000351f0       ??__EllStartTick@@YAXXZ    00000001400361f0 f   wylib_x64:Tick.obj
 0001:00035210       ??__EdwLastShortTick@@YAXXZ 0000000140036210 f   wylib_x64:Tick.obj
